	.text
	.file	"option.cpp"
	.globl	_Z9availibleNSt10filesystem7__cxx114pathE # -- Begin function _Z9availibleNSt10filesystem7__cxx114pathE
	.p2align	2
	.type	_Z9availibleNSt10filesystem7__cxx114pathE,@function
_Z9availibleNSt10filesystem7__cxx114pathE: # @_Z9availibleNSt10filesystem7__cxx114pathE
.Lfunc_begin0:
	.cfi_startproc
	.cfi_personality 155, DW.ref.__gxx_personality_v0
	.cfi_lsda 27, .Lexception0
# %bb.0:                                # %entry
	addi	sp, sp, -1584
	.cfi_def_cfa_offset 1584
	sd	ra, 1576(sp)
	sd	s0, 1568(sp)
	sd	s1, 1560(sp)
	sd	s2, 1552(sp)
	sd	s3, 1544(sp)
	.cfi_offset ra, -8
	.cfi_offset s0, -16
	.cfi_offset s1, -24
	.cfi_offset s2, -32
	.cfi_offset s3, -40
	addi	s0, sp, 1584
	.cfi_def_cfa s0, 0
	mv	s1, a1
	mv	s2, a0
	sd	s2, -56(s0)
	sb	zero, -57(s0)
	mv	a0, s2
	call	_ZNSt6vectorI6OptionSaIS0_EEC2Ev
.Ltmp0:
	addi	a0, s0, -88
	mv	a1, s1
	call	_ZNSt10filesystem7__cxx1118directory_iteratorC2ERKNS0_4pathE
.Ltmp1:
	j	.LBB0_1
.LBB0_1:                                # %invoke.cont
	addi	a0, s0, -88
	sd	a0, -72(s0)
	ld	a1, -72(s0)
	addi	s1, s0, -136
	mv	a0, s1
	call	_ZNSt10filesystem7__cxx1118directory_iteratorC2ERKS1_
	addi	a0, s0, -120
	mv	a1, s1
	call	_ZNSt10filesystem7__cxx115beginENS0_18directory_iteratorE
	mv	a0, s1
	call	_ZNSt10filesystem7__cxx1118directory_iteratorD2Ev
	ld	a1, -72(s0)
	addi	s1, s0, -168
	mv	a0, s1
	call	_ZNSt10filesystem7__cxx1118directory_iteratorC2ERKS1_
	addi	a0, s0, -152
	mv	a1, s1
	call	_ZNSt10filesystem7__cxx113endENS0_18directory_iteratorE
	mv	a0, s1
	call	_ZNSt10filesystem7__cxx1118directory_iteratorD2Ev
	j	.LBB0_2
.LBB0_2:                                # %for.cond
                                        # =>This Loop Header: Depth=1
                                        #     Child Loop BB0_26 Depth 2
	addi	a0, s0, -120
	addi	a1, s0, -152
	call	_ZNSt10filesystem7__cxx11neERKNS0_18directory_iteratorES3_
	bnez	a0, .LBB0_5
	j	.LBB0_3
.LBB0_3:                                # %for.cond.cleanup
	addi	a0, s0, -152
	call	_ZNSt10filesystem7__cxx1118directory_iteratorD2Ev
	addi	a0, s0, -120
	call	_ZNSt10filesystem7__cxx1118directory_iteratorD2Ev
	addi	a0, s0, -88
	call	_ZNSt10filesystem7__cxx1118directory_iteratorD2Ev
	j	.LBB0_84
.LBB0_4:                                # %lpad
.Ltmp2:
	sd	a0, -96(s0)
	sw	a1, -100(s0)
	j	.LBB0_87
.LBB0_5:                                # %for.body
                                        #   in Loop: Header=BB0_2 Depth=1
	addi	a0, s0, -120
	call	_ZNKSt10filesystem7__cxx1118directory_iteratordeEv
	sd	a0, -176(s0)
	ld	a0, -176(s0)
	call	_ZNKSt10filesystem7__cxx1115directory_entry4pathEv
	call	_ZNKSt10filesystem7__cxx114path13has_extensionEv
	sb	zero, -217(s0)
	sb	zero, -265(s0)
	addi	s1, zero, 1
	beqz	a0, .LBB0_9
	j	.LBB0_6
.LBB0_6:                                # %lor.rhs
                                        #   in Loop: Header=BB0_2 Depth=1
	ld	a0, -176(s0)
	call	_ZNKSt10filesystem7__cxx1115directory_entry4pathEv
	mv	a1, a0
.Ltmp3:
	addi	a0, s0, -216
	call	_ZNKSt10filesystem7__cxx114path9extensionEv
.Ltmp4:
	j	.LBB0_7
.LBB0_7:                                # %invoke.cont8
                                        #   in Loop: Header=BB0_2 Depth=1
	addi	a0, zero, 1
	sb	a0, -217(s0)
.Ltmp5:
	lui	a0, %hi(.L.str)
	addi	a1, a0, %lo(.L.str)
	addi	a0, s0, -264
	addi	a2, zero, 2
	call	_ZNSt10filesystem7__cxx114pathC2IA6_cS1_EERKT_NS1_6formatE
.Ltmp6:
	j	.LBB0_8
.LBB0_8:                                # %invoke.cont11
                                        #   in Loop: Header=BB0_2 Depth=1
	addi	a0, zero, 1
	sb	a0, -265(s0)
	addi	a0, s0, -216
	addi	a1, s0, -264
	call	_ZNSt10filesystem7__cxx11neERKNS0_4pathES3_
	mv	s1, a0
	j	.LBB0_9
.LBB0_9:                                # %lor.end
                                        #   in Loop: Header=BB0_2 Depth=1
	lbu	a0, -265(s0)
	beqz	a0, .LBB0_11
	j	.LBB0_10
.LBB0_10:                               # %cleanup.action
                                        #   in Loop: Header=BB0_2 Depth=1
	addi	a0, s0, -264
	call	_ZNSt10filesystem7__cxx114pathD2Ev
	j	.LBB0_11
.LBB0_11:                               # %cleanup.done
                                        #   in Loop: Header=BB0_2 Depth=1
	lbu	a0, -217(s0)
	beqz	a0, .LBB0_13
	j	.LBB0_12
.LBB0_12:                               # %cleanup.action15
                                        #   in Loop: Header=BB0_2 Depth=1
	addi	a0, s0, -216
	call	_ZNSt10filesystem7__cxx114pathD2Ev
	j	.LBB0_13
.LBB0_13:                               # %cleanup.done16
                                        #   in Loop: Header=BB0_2 Depth=1
	andi	a0, s1, 1
	beqz	a0, .LBB0_19
	j	.LBB0_14
.LBB0_14:                               # %if.then
                                        #   in Loop: Header=BB0_2 Depth=1
	j	.LBB0_80
.LBB0_15:                               # %lpad7
.Ltmp98:
	sd	a0, -96(s0)
	sw	a1, -100(s0)
	j	.LBB0_83
.LBB0_16:                               # %lpad10
.Ltmp7:
	sd	a0, -96(s0)
	sw	a1, -100(s0)
	lbu	a0, -217(s0)
	beqz	a0, .LBB0_18
	j	.LBB0_17
.LBB0_17:                               # %cleanup.action18
	addi	a0, s0, -216
	call	_ZNSt10filesystem7__cxx114pathD2Ev
	j	.LBB0_18
.LBB0_18:                               # %cleanup.done19
	j	.LBB0_83
.LBB0_19:                               # %if.end
                                        #   in Loop: Header=BB0_2 Depth=1
	ld	a0, -176(s0)
	call	_ZNKSt10filesystem7__cxx1115directory_entry4pathEv
	mv	a1, a0
.Ltmp8:
	addi	a0, s0, -760
	addi	a2, zero, 8
	call	_ZNSt14basic_ifstreamIcSt11char_traitsIcEEC1INSt10filesystem7__cxx114pathES6_EERKT_St13_Ios_Openmode
.Ltmp9:
	j	.LBB0_20
.LBB0_20:                               # %invoke.cont21
                                        #   in Loop: Header=BB0_2 Depth=1
	addi	s1, s0, -776
	mv	a0, s1
	mv	a1, zero
	call	_ZN8nlohmann10basic_jsonISt3mapSt6vectorNSt7__cxx1112basic_stringIcSt11char_traitsIcESaIcEEEblmdSaNS_14adl_serializerEEC2EDn
.Ltmp10:
	addi	a0, s0, -760
	mv	a1, s1
	call	_ZN8nlohmannrsERSiRNS_10basic_jsonISt3mapSt6vectorNSt7__cxx1112basic_stringIcSt11char_traitsIcESaIcEEEblmdSaNS_14adl_serializerEEE
.Ltmp11:
	j	.LBB0_21
.LBB0_21:                               # %invoke.cont23
                                        #   in Loop: Header=BB0_2 Depth=1
.Ltmp12:
	lui	a0, %hi(.L.str.1)
	addi	a2, a0, %lo(.L.str.1)
	addi	a0, s0, -816
	addi	a1, s0, -776
	call	_ZN8nlohmann10basic_jsonISt3mapSt6vectorNSt7__cxx1112basic_stringIcSt11char_traitsIcESaIcEEEblmdSaNS_14adl_serializerEE4findIRA11_KcEENS_6detail9iter_implISA_EEOT_
.Ltmp13:
	j	.LBB0_22
.LBB0_22:                               # %invoke.cont26
                                        #   in Loop: Header=BB0_2 Depth=1
	addi	s1, s0, -848
	addi	a1, s0, -776
	mv	a0, s1
	call	_ZN8nlohmann10basic_jsonISt3mapSt6vectorNSt7__cxx1112basic_stringIcSt11char_traitsIcESaIcEEEblmdSaNS_14adl_serializerEE3endEv
.Ltmp14:
	addi	a0, s0, -816
	mv	a1, s1
	call	_ZNK8nlohmann6detail9iter_implINS_10basic_jsonISt3mapSt6vectorNSt7__cxx1112basic_stringIcSt11char_traitsIcESaIcEEEblmdSaNS_14adl_serializerEEEEneERKSD_
.Ltmp15:
	j	.LBB0_23
.LBB0_23:                               # %invoke.cont28
                                        #   in Loop: Header=BB0_2 Depth=1
	andi	a0, a0, 1
	sb	a0, -777(s0)
	sw	zero, -852(s0)
	addi	s1, s0, -904
	mv	a0, s1
	call	_ZNSaIcEC1Ev
.Ltmp16:
	lui	a0, %hi(.L.str.2)
	addi	a1, a0, %lo(.L.str.2)
	addi	a0, s0, -896
	mv	a2, s1
	call	_ZNSt7__cxx1112basic_stringIcSt11char_traitsIcESaIcEEC2IS3_EEPKcRKS3_
.Ltmp17:
	j	.LBB0_24
.LBB0_24:                               # %invoke.cont33
                                        #   in Loop: Header=BB0_2 Depth=1
.Ltmp19:
	addi	a0, s0, -776
	addi	a1, s0, -896
	call	_ZN8nlohmann10basic_jsonISt3mapSt6vectorNSt7__cxx1112basic_stringIcSt11char_traitsIcESaIcEEEblmdSaNS_14adl_serializerEE2atERKS8_
	mv	s1, a0
.Ltmp20:
	j	.LBB0_25
.LBB0_25:                               # %invoke.cont35
                                        #   in Loop: Header=BB0_2 Depth=1
	addi	a0, s0, -896
	call	_ZNSt7__cxx1112basic_stringIcSt11char_traitsIcESaIcEED1Ev
	addi	a0, s0, -904
	call	_ZNSaIcED1Ev
	sd	s1, -864(s0)
	ld	a1, -864(s0)
	addi	a0, s0, -936
	call	_ZN8nlohmann10basic_jsonISt3mapSt6vectorNSt7__cxx1112basic_stringIcSt11char_traitsIcESaIcEEEblmdSaNS_14adl_serializerEE5beginEv
	ld	a1, -864(s0)
	addi	a0, s0, -968
	call	_ZN8nlohmann10basic_jsonISt3mapSt6vectorNSt7__cxx1112basic_stringIcSt11char_traitsIcESaIcEEEblmdSaNS_14adl_serializerEE3endEv
	j	.LBB0_26
.LBB0_26:                               # %for.cond37
                                        #   Parent Loop BB0_2 Depth=1
                                        # =>  This Inner Loop Header: Depth=2
.Ltmp22:
	addi	a0, s0, -936
	addi	a1, s0, -968
	call	_ZNK8nlohmann6detail9iter_implINS_10basic_jsonISt3mapSt6vectorNSt7__cxx1112basic_stringIcSt11char_traitsIcESaIcEEEblmdSaNS_14adl_serializerEEEEneERKSD_
.Ltmp23:
	j	.LBB0_27
.LBB0_27:                               # %invoke.cont38
                                        #   in Loop: Header=BB0_26 Depth=2
	andi	a0, a0, 1
	beqz	a0, .LBB0_78
	j	.LBB0_28
.LBB0_28:                               # %for.body40
                                        #   in Loop: Header=BB0_26 Depth=2
.Ltmp27:
	addi	a0, s0, -936
	call	_ZNK8nlohmann6detail9iter_implINS_10basic_jsonISt3mapSt6vectorNSt7__cxx1112basic_stringIcSt11char_traitsIcESaIcEEEblmdSaNS_14adl_serializerEEEEdeEv
.Ltmp28:
	j	.LBB0_29
.LBB0_29:                               # %invoke.cont41
                                        #   in Loop: Header=BB0_26 Depth=2
	sd	a0, -976(s0)
	ld	s1, -976(s0)
	addi	s3, s0, -1040
	mv	a0, s3
	call	_ZNSaIcEC1Ev
.Ltmp29:
	lui	a0, %hi(.L.str.3)
	addi	a1, a0, %lo(.L.str.3)
	addi	a0, s0, -1032
	mv	a2, s3
	call	_ZNSt7__cxx1112basic_stringIcSt11char_traitsIcESaIcEEC2IS3_EEPKcRKS3_
.Ltmp30:
	j	.LBB0_30
.LBB0_30:                               # %invoke.cont46
                                        #   in Loop: Header=BB0_26 Depth=2
.Ltmp32:
	addi	a1, s0, -1032
	mv	a0, s1
	call	_ZNK8nlohmann10basic_jsonISt3mapSt6vectorNSt7__cxx1112basic_stringIcSt11char_traitsIcESaIcEEEblmdSaNS_14adl_serializerEE2atERKS8_
	mv	a1, a0
.Ltmp33:
	j	.LBB0_31
.LBB0_31:                               # %invoke.cont48
                                        #   in Loop: Header=BB0_26 Depth=2
.Ltmp34:
	addi	a0, s0, -1000
	call	_ZNK8nlohmann10basic_jsonISt3mapSt6vectorNSt7__cxx1112basic_stringIcSt11char_traitsIcESaIcEEEblmdSaNS_14adl_serializerEEcvT_IN3glm3vecILi3EdLNSD_9qualifierE0EEELi0EEEv
.Ltmp35:
	j	.LBB0_32
.LBB0_32:                               # %invoke.cont50
                                        #   in Loop: Header=BB0_26 Depth=2
	addi	a0, s0, -1032
	call	_ZNSt7__cxx1112basic_stringIcSt11char_traitsIcESaIcEED1Ev
	addi	a0, s0, -1040
	call	_ZNSaIcED1Ev
	ld	s1, -976(s0)
	addi	s3, s0, -1088
	mv	a0, s3
	call	_ZNSaIcEC1Ev
.Ltmp37:
	lui	a0, %hi(.L.str.4)
	addi	a1, a0, %lo(.L.str.4)
	addi	a0, s0, -1080
	mv	a2, s3
	call	_ZNSt7__cxx1112basic_stringIcSt11char_traitsIcESaIcEEC2IS3_EEPKcRKS3_
.Ltmp38:
	j	.LBB0_33
.LBB0_33:                               # %invoke.cont56
                                        #   in Loop: Header=BB0_26 Depth=2
.Ltmp40:
	addi	a1, s0, -1080
	mv	a0, s1
	call	_ZNK8nlohmann10basic_jsonISt3mapSt6vectorNSt7__cxx1112basic_stringIcSt11char_traitsIcESaIcEEEblmdSaNS_14adl_serializerEE2atERKS8_
.Ltmp41:
	j	.LBB0_34
.LBB0_34:                               # %invoke.cont58
                                        #   in Loop: Header=BB0_26 Depth=2
.Ltmp42:
	call	_ZNK8nlohmann10basic_jsonISt3mapSt6vectorNSt7__cxx1112basic_stringIcSt11char_traitsIcESaIcEEEblmdSaNS_14adl_serializerEEcvT_IdLi0EEEv
.Ltmp43:
	fmv.d.x	ft0, a0
	fsd	ft0, -1576(s0)
	j	.LBB0_35
.LBB0_35:                               # %invoke.cont60
                                        #   in Loop: Header=BB0_26 Depth=2
	addi	a0, s0, -1080
	call	_ZNSt7__cxx1112basic_stringIcSt11char_traitsIcESaIcEED1Ev
	addi	a0, s0, -1088
	call	_ZNSaIcED1Ev
	fld	ft0, -1576(s0)
	fsd	ft0, -1048(s0)
	ld	s1, -976(s0)
	addi	s3, s0, -1136
	mv	a0, s3
	call	_ZNSaIcEC1Ev
.Ltmp45:
	lui	a0, %hi(.L.str.5)
	addi	a1, a0, %lo(.L.str.5)
	addi	a0, s0, -1128
	mv	a2, s3
	call	_ZNSt7__cxx1112basic_stringIcSt11char_traitsIcESaIcEEC2IS3_EEPKcRKS3_
.Ltmp46:
	j	.LBB0_36
.LBB0_36:                               # %invoke.cont67
                                        #   in Loop: Header=BB0_26 Depth=2
.Ltmp48:
	addi	a1, s0, -1128
	mv	a0, s1
	call	_ZNK8nlohmann10basic_jsonISt3mapSt6vectorNSt7__cxx1112basic_stringIcSt11char_traitsIcESaIcEEEblmdSaNS_14adl_serializerEE2atERKS8_
.Ltmp49:
	j	.LBB0_37
.LBB0_37:                               # %invoke.cont69
                                        #   in Loop: Header=BB0_26 Depth=2
.Ltmp50:
	call	_ZNK8nlohmann10basic_jsonISt3mapSt6vectorNSt7__cxx1112basic_stringIcSt11char_traitsIcESaIcEEEblmdSaNS_14adl_serializerEEcvT_IdLi0EEEv
.Ltmp51:
	fmv.d.x	ft0, a0
	fsd	ft0, -1584(s0)
	j	.LBB0_38
.LBB0_38:                               # %invoke.cont71
                                        #   in Loop: Header=BB0_26 Depth=2
	addi	a0, s0, -1128
	call	_ZNSt7__cxx1112basic_stringIcSt11char_traitsIcESaIcEED1Ev
	addi	a0, s0, -1136
	call	_ZNSaIcED1Ev
	fld	ft0, -1584(s0)
	fsd	ft0, -1096(s0)
.Ltmp53:
	addi	a0, s0, -1528
	call	_ZNSt7__cxx1118basic_stringstreamIcSt11char_traitsIcESaIcEEC1Ev
.Ltmp54:
	j	.LBB0_39
.LBB0_39:                               # %invoke.cont75
                                        #   in Loop: Header=BB0_26 Depth=2
	addi	a0, s0, -1528
	addi	a0, a0, 16
.Ltmp55:
	lui	a1, %hi(.L.str.6)
	addi	a1, a1, %lo(.L.str.6)
	call	_ZStlsISt11char_traitsIcEERSt13basic_ostreamIcT_ES5_PKc
.Ltmp56:
	j	.LBB0_40
.LBB0_40:                               # %invoke.cont77
                                        #   in Loop: Header=BB0_26 Depth=2
.Ltmp57:
	lui	a1, %hi(_ZSt5fixedRSt8ios_base)
	addi	a1, a1, %lo(_ZSt5fixedRSt8ios_base)
	call	_ZNSolsEPFRSt8ios_baseS0_E
	mv	s1, a0
.Ltmp58:
	j	.LBB0_41
.LBB0_41:                               # %invoke.cont79
                                        #   in Loop: Header=BB0_26 Depth=2
.Ltmp59:
	mv	a0, zero
	call	_ZSt12setprecisioni
.Ltmp60:
	j	.LBB0_42
.LBB0_42:                               # %invoke.cont82
                                        #   in Loop: Header=BB0_26 Depth=2
	sw	a0, -1536(s0)
	lwu	a1, -1536(s0)
.Ltmp61:
	mv	a0, s1
	call	_ZStlsIcSt11char_traitsIcEERSt13basic_ostreamIT_T0_ES6_St13_Setprecision
.Ltmp62:
	j	.LBB0_43
.LBB0_43:                               # %invoke.cont86
                                        #   in Loop: Header=BB0_26 Depth=2
.Ltmp63:
	lui	a1, %hi(.L.str.7)
	addi	a1, a1, %lo(.L.str.7)
	call	_ZStlsISt11char_traitsIcEERSt13basic_ostreamIcT_ES5_PKc
.Ltmp64:
	j	.LBB0_44
.LBB0_44:                               # %invoke.cont88
                                        #   in Loop: Header=BB0_26 Depth=2
	ld	a1, -1000(s0)
.Ltmp65:
	call	_ZNSolsEd
.Ltmp66:
	j	.LBB0_45
.LBB0_45:                               # %invoke.cont90
                                        #   in Loop: Header=BB0_26 Depth=2
.Ltmp67:
	lui	a1, %hi(.L.str.8)
	addi	a1, a1, %lo(.L.str.8)
	call	_ZStlsISt11char_traitsIcEERSt13basic_ostreamIcT_ES5_PKc
.Ltmp68:
	j	.LBB0_46
.LBB0_46:                               # %invoke.cont92
                                        #   in Loop: Header=BB0_26 Depth=2
	ld	a1, -992(s0)
.Ltmp69:
	call	_ZNSolsEd
.Ltmp70:
	j	.LBB0_47
.LBB0_47:                               # %invoke.cont94
                                        #   in Loop: Header=BB0_26 Depth=2
.Ltmp71:
	lui	a1, %hi(.L.str.8)
	addi	a1, a1, %lo(.L.str.8)
	call	_ZStlsISt11char_traitsIcEERSt13basic_ostreamIcT_ES5_PKc
.Ltmp72:
	j	.LBB0_48
.LBB0_48:                               # %invoke.cont96
                                        #   in Loop: Header=BB0_26 Depth=2
	ld	a1, -984(s0)
.Ltmp73:
	call	_ZNSolsEd
.Ltmp74:
	j	.LBB0_49
.LBB0_49:                               # %invoke.cont98
                                        #   in Loop: Header=BB0_26 Depth=2
.Ltmp75:
	lui	a1, %hi(.L.str.9)
	addi	a1, a1, %lo(.L.str.9)
	call	_ZStlsISt11char_traitsIcEERSt13basic_ostreamIcT_ES5_PKc
.Ltmp76:
	j	.LBB0_50
.LBB0_50:                               # %invoke.cont100
                                        #   in Loop: Header=BB0_26 Depth=2
	addi	a0, s0, -1528
	addi	a0, a0, 16
.Ltmp77:
	lui	a1, %hi(.L.str.10)
	addi	a1, a1, %lo(.L.str.10)
	call	_ZStlsISt11char_traitsIcEERSt13basic_ostreamIcT_ES5_PKc
.Ltmp78:
	j	.LBB0_51
.LBB0_51:                               # %invoke.cont103
                                        #   in Loop: Header=BB0_26 Depth=2
	fld	ft0, -1048(s0)
	fcvt.l.d	a1, ft0, rtz
.Ltmp79:
	call	_ZNSolsEi
.Ltmp80:
	j	.LBB0_52
.LBB0_52:                               # %invoke.cont105
                                        #   in Loop: Header=BB0_26 Depth=2
.Ltmp81:
	lui	a1, %hi(.L.str.11)
	addi	a1, a1, %lo(.L.str.11)
	call	_ZStlsISt11char_traitsIcEERSt13basic_ostreamIcT_ES5_PKc
.Ltmp82:
	j	.LBB0_53
.LBB0_53:                               # %invoke.cont107
                                        #   in Loop: Header=BB0_26 Depth=2
	fld	ft0, -1096(s0)
	fcvt.l.d	a1, ft0, rtz
.Ltmp83:
	call	_ZNSolsEi
.Ltmp84:
	j	.LBB0_54
.LBB0_54:                               # %invoke.cont110
                                        #   in Loop: Header=BB0_26 Depth=2
.Ltmp85:
	lui	a1, %hi(.L.str.12)
	addi	a1, a1, %lo(.L.str.12)
	call	_ZStlsISt11char_traitsIcEERSt13basic_ostreamIcT_ES5_PKc
.Ltmp86:
	j	.LBB0_55
.LBB0_55:                               # %invoke.cont112
                                        #   in Loop: Header=BB0_26 Depth=2
	ld	a0, -176(s0)
	call	_ZNKSt10filesystem7__cxx1115directory_entry4pathEv
	mv	s1, a0
.Ltmp87:
	addi	a0, s0, -1568
	addi	a1, s0, -1528
	call	_ZNKSt7__cxx1118basic_stringstreamIcSt11char_traitsIcESaIcEE3strEv
.Ltmp88:
	j	.LBB0_56
.LBB0_56:                               # %invoke.cont116
                                        #   in Loop: Header=BB0_26 Depth=2
.Ltmp90:
	addi	a2, s0, -1568
	addi	a3, s0, -852
	addi	a4, s0, -777
	mv	a0, s2
	mv	a1, s1
	call	_ZNSt6vectorI6OptionSaIS0_EE12emplace_backIJRKNSt10filesystem7__cxx114pathENSt7__cxx1112basic_stringIcSt11char_traitsIcESaIcEEERiRbEEERS0_DpOT_
.Ltmp91:
	j	.LBB0_57
.LBB0_57:                               # %invoke.cont118
                                        #   in Loop: Header=BB0_26 Depth=2
	addi	a0, s0, -1568
	call	_ZNSt7__cxx1112basic_stringIcSt11char_traitsIcESaIcEED1Ev
	lw	a0, -852(s0)
	addi	a0, a0, 1
	sw	a0, -852(s0)
	addi	a0, s0, -1528
	call	_ZNSt7__cxx1118basic_stringstreamIcSt11char_traitsIcESaIcEED1Ev
	j	.LBB0_58
.LBB0_58:                               # %for.inc
                                        #   in Loop: Header=BB0_26 Depth=2
.Ltmp93:
	addi	a0, s0, -936
	call	_ZN8nlohmann6detail9iter_implINS_10basic_jsonISt3mapSt6vectorNSt7__cxx1112basic_stringIcSt11char_traitsIcESaIcEEEblmdSaNS_14adl_serializerEEEEppEv
.Ltmp94:
	j	.LBB0_59
.LBB0_59:                               # %invoke.cont122
                                        #   in Loop: Header=BB0_26 Depth=2
	j	.LBB0_26
.LBB0_60:                               # %lpad22.loopexit
.Ltmp95:
	j	.LBB0_62
.LBB0_61:                               # %lpad22.loopexit.split-lp
.Ltmp26:
	j	.LBB0_62
.LBB0_62:                               # %lpad22
	sd	a0, -96(s0)
	sw	a1, -100(s0)
	j	.LBB0_82
.LBB0_63:                               # %lpad32
.Ltmp18:
	sd	a0, -96(s0)
	sw	a1, -100(s0)
	j	.LBB0_65
.LBB0_64:                               # %lpad34
.Ltmp21:
	sd	a0, -96(s0)
	sw	a1, -100(s0)
	addi	a0, s0, -896
	call	_ZNSt7__cxx1112basic_stringIcSt11char_traitsIcESaIcEED1Ev
	j	.LBB0_65
.LBB0_65:                               # %ehcleanup
	addi	a0, s0, -904
	call	_ZNSaIcED1Ev
	j	.LBB0_82
.LBB0_66:                               # %lpad45
.Ltmp31:
	sd	a0, -96(s0)
	sw	a1, -100(s0)
	j	.LBB0_68
.LBB0_67:                               # %lpad47
.Ltmp36:
	sd	a0, -96(s0)
	sw	a1, -100(s0)
	addi	a0, s0, -1032
	call	_ZNSt7__cxx1112basic_stringIcSt11char_traitsIcESaIcEED1Ev
	j	.LBB0_68
.LBB0_68:                               # %ehcleanup52
	addi	a0, s0, -1040
	call	_ZNSaIcED1Ev
	j	.LBB0_82
.LBB0_69:                               # %lpad55
.Ltmp39:
	sd	a0, -96(s0)
	sw	a1, -100(s0)
	j	.LBB0_71
.LBB0_70:                               # %lpad57
.Ltmp44:
	sd	a0, -96(s0)
	sw	a1, -100(s0)
	addi	a0, s0, -1080
	call	_ZNSt7__cxx1112basic_stringIcSt11char_traitsIcESaIcEED1Ev
	j	.LBB0_71
.LBB0_71:                               # %ehcleanup63
	addi	a0, s0, -1088
	call	_ZNSaIcED1Ev
	j	.LBB0_82
.LBB0_72:                               # %lpad66
.Ltmp47:
	sd	a0, -96(s0)
	sw	a1, -100(s0)
	j	.LBB0_74
.LBB0_73:                               # %lpad68
.Ltmp52:
	sd	a0, -96(s0)
	sw	a1, -100(s0)
	addi	a0, s0, -1128
	call	_ZNSt7__cxx1112basic_stringIcSt11char_traitsIcESaIcEED1Ev
	j	.LBB0_74
.LBB0_74:                               # %ehcleanup74
	addi	a0, s0, -1136
	call	_ZNSaIcED1Ev
	j	.LBB0_82
.LBB0_75:                               # %lpad76
.Ltmp89:
	sd	a0, -96(s0)
	sw	a1, -100(s0)
	j	.LBB0_77
.LBB0_76:                               # %lpad117
.Ltmp92:
	sd	a0, -96(s0)
	sw	a1, -100(s0)
	addi	a0, s0, -1568
	call	_ZNSt7__cxx1112basic_stringIcSt11char_traitsIcESaIcEED1Ev
	j	.LBB0_77
.LBB0_77:                               # %ehcleanup121
	addi	a0, s0, -1528
	call	_ZNSt7__cxx1118basic_stringstreamIcSt11char_traitsIcESaIcEED1Ev
	j	.LBB0_82
.LBB0_78:                               # %for.end
                                        #   in Loop: Header=BB0_2 Depth=1
.Ltmp24:
	addi	a0, s0, -760
	call	_ZNSt14basic_ifstreamIcSt11char_traitsIcEE5closeEv
.Ltmp25:
	j	.LBB0_79
.LBB0_79:                               # %invoke.cont124
                                        #   in Loop: Header=BB0_2 Depth=1
	addi	a0, s0, -776
	call	_ZN8nlohmann10basic_jsonISt3mapSt6vectorNSt7__cxx1112basic_stringIcSt11char_traitsIcESaIcEEEblmdSaNS_14adl_serializerEED2Ev
	addi	a0, s0, -760
	call	_ZNSt14basic_ifstreamIcSt11char_traitsIcEED1Ev
	j	.LBB0_80
.LBB0_80:                               # %for.inc127
                                        #   in Loop: Header=BB0_2 Depth=1
.Ltmp96:
	addi	a0, s0, -120
	call	_ZNSt10filesystem7__cxx1118directory_iteratorppEv
.Ltmp97:
	j	.LBB0_81
.LBB0_81:                               # %invoke.cont128
                                        #   in Loop: Header=BB0_2 Depth=1
	j	.LBB0_2
.LBB0_82:                               # %ehcleanup125
	addi	a0, s0, -776
	call	_ZN8nlohmann10basic_jsonISt3mapSt6vectorNSt7__cxx1112basic_stringIcSt11char_traitsIcESaIcEEEblmdSaNS_14adl_serializerEED2Ev
	addi	a0, s0, -760
	call	_ZNSt14basic_ifstreamIcSt11char_traitsIcEED1Ev
	j	.LBB0_83
.LBB0_83:                               # %ehcleanup130
	addi	a0, s0, -152
	call	_ZNSt10filesystem7__cxx1118directory_iteratorD2Ev
	addi	a0, s0, -120
	call	_ZNSt10filesystem7__cxx1118directory_iteratorD2Ev
	addi	a0, s0, -88
	call	_ZNSt10filesystem7__cxx1118directory_iteratorD2Ev
	j	.LBB0_87
.LBB0_84:                               # %for.end133
	addi	a0, zero, 1
	sb	a0, -57(s0)
	lbu	a0, -57(s0)
	bnez	a0, .LBB0_86
	j	.LBB0_85
.LBB0_85:                               # %nrvo.unused
	mv	a0, s2
	call	_ZNSt6vectorI6OptionSaIS0_EED2Ev
	j	.LBB0_86
.LBB0_86:                               # %nrvo.skipdtor
	ld	s3, 1544(sp)
	ld	s2, 1552(sp)
	ld	s1, 1560(sp)
	ld	s0, 1568(sp)
	.cfi_def_cfa sp, 1584
	ld	ra, 1576(sp)
	.cfi_restore ra
	.cfi_restore s0
	.cfi_restore s1
	.cfi_restore s2
	.cfi_restore s3
	addi	sp, sp, 1584
	.cfi_def_cfa_offset 0
	ret
.LBB0_87:                               # %ehcleanup134
	mv	a0, s2
	call	_ZNSt6vectorI6OptionSaIS0_EED2Ev
	j	.LBB0_88
.LBB0_88:                               # %eh.resume
	ld	a0, -96(s0)
	call	_Unwind_Resume
.Lfunc_end0:
	.size	_Z9availibleNSt10filesystem7__cxx114pathE, .Lfunc_end0-_Z9availibleNSt10filesystem7__cxx114pathE
	.cfi_endproc
	.section	.gcc_except_table,"a",@progbits
	.p2align	2
GCC_except_table0:
.Lexception0:
	.byte	255                     # @LPStart Encoding = omit
	.byte	255                     # @TType Encoding = omit
	.byte	3                       # Call site Encoding = udata4
	.uleb128 .Lcst_end0-.Lcst_begin0
.Lcst_begin0:
	.word	.Ltmp0-.Lfunc_begin0    # >> Call Site 1 <<
	.word	.Ltmp1-.Ltmp0           #   Call between .Ltmp0 and .Ltmp1
	.word	.Ltmp2-.Lfunc_begin0    #     jumps to .Ltmp2
	.byte	0                       #   On action: cleanup
	.word	.Ltmp3-.Lfunc_begin0    # >> Call Site 2 <<
	.word	.Ltmp4-.Ltmp3           #   Call between .Ltmp3 and .Ltmp4
	.word	.Ltmp98-.Lfunc_begin0   #     jumps to .Ltmp98
	.byte	0                       #   On action: cleanup
	.word	.Ltmp5-.Lfunc_begin0    # >> Call Site 3 <<
	.word	.Ltmp6-.Ltmp5           #   Call between .Ltmp5 and .Ltmp6
	.word	.Ltmp7-.Lfunc_begin0    #     jumps to .Ltmp7
	.byte	0                       #   On action: cleanup
	.word	.Ltmp8-.Lfunc_begin0    # >> Call Site 4 <<
	.word	.Ltmp9-.Ltmp8           #   Call between .Ltmp8 and .Ltmp9
	.word	.Ltmp98-.Lfunc_begin0   #     jumps to .Ltmp98
	.byte	0                       #   On action: cleanup
	.word	.Ltmp10-.Lfunc_begin0   # >> Call Site 5 <<
	.word	.Ltmp15-.Ltmp10         #   Call between .Ltmp10 and .Ltmp15
	.word	.Ltmp26-.Lfunc_begin0   #     jumps to .Ltmp26
	.byte	0                       #   On action: cleanup
	.word	.Ltmp16-.Lfunc_begin0   # >> Call Site 6 <<
	.word	.Ltmp17-.Ltmp16         #   Call between .Ltmp16 and .Ltmp17
	.word	.Ltmp18-.Lfunc_begin0   #     jumps to .Ltmp18
	.byte	0                       #   On action: cleanup
	.word	.Ltmp19-.Lfunc_begin0   # >> Call Site 7 <<
	.word	.Ltmp20-.Ltmp19         #   Call between .Ltmp19 and .Ltmp20
	.word	.Ltmp21-.Lfunc_begin0   #     jumps to .Ltmp21
	.byte	0                       #   On action: cleanup
	.word	.Ltmp22-.Lfunc_begin0   # >> Call Site 8 <<
	.word	.Ltmp28-.Ltmp22         #   Call between .Ltmp22 and .Ltmp28
	.word	.Ltmp95-.Lfunc_begin0   #     jumps to .Ltmp95
	.byte	0                       #   On action: cleanup
	.word	.Ltmp29-.Lfunc_begin0   # >> Call Site 9 <<
	.word	.Ltmp30-.Ltmp29         #   Call between .Ltmp29 and .Ltmp30
	.word	.Ltmp31-.Lfunc_begin0   #     jumps to .Ltmp31
	.byte	0                       #   On action: cleanup
	.word	.Ltmp32-.Lfunc_begin0   # >> Call Site 10 <<
	.word	.Ltmp35-.Ltmp32         #   Call between .Ltmp32 and .Ltmp35
	.word	.Ltmp36-.Lfunc_begin0   #     jumps to .Ltmp36
	.byte	0                       #   On action: cleanup
	.word	.Ltmp37-.Lfunc_begin0   # >> Call Site 11 <<
	.word	.Ltmp38-.Ltmp37         #   Call between .Ltmp37 and .Ltmp38
	.word	.Ltmp39-.Lfunc_begin0   #     jumps to .Ltmp39
	.byte	0                       #   On action: cleanup
	.word	.Ltmp40-.Lfunc_begin0   # >> Call Site 12 <<
	.word	.Ltmp43-.Ltmp40         #   Call between .Ltmp40 and .Ltmp43
	.word	.Ltmp44-.Lfunc_begin0   #     jumps to .Ltmp44
	.byte	0                       #   On action: cleanup
	.word	.Ltmp45-.Lfunc_begin0   # >> Call Site 13 <<
	.word	.Ltmp46-.Ltmp45         #   Call between .Ltmp45 and .Ltmp46
	.word	.Ltmp47-.Lfunc_begin0   #     jumps to .Ltmp47
	.byte	0                       #   On action: cleanup
	.word	.Ltmp48-.Lfunc_begin0   # >> Call Site 14 <<
	.word	.Ltmp51-.Ltmp48         #   Call between .Ltmp48 and .Ltmp51
	.word	.Ltmp52-.Lfunc_begin0   #     jumps to .Ltmp52
	.byte	0                       #   On action: cleanup
	.word	.Ltmp53-.Lfunc_begin0   # >> Call Site 15 <<
	.word	.Ltmp54-.Ltmp53         #   Call between .Ltmp53 and .Ltmp54
	.word	.Ltmp95-.Lfunc_begin0   #     jumps to .Ltmp95
	.byte	0                       #   On action: cleanup
	.word	.Ltmp55-.Lfunc_begin0   # >> Call Site 16 <<
	.word	.Ltmp88-.Ltmp55         #   Call between .Ltmp55 and .Ltmp88
	.word	.Ltmp89-.Lfunc_begin0   #     jumps to .Ltmp89
	.byte	0                       #   On action: cleanup
	.word	.Ltmp90-.Lfunc_begin0   # >> Call Site 17 <<
	.word	.Ltmp91-.Ltmp90         #   Call between .Ltmp90 and .Ltmp91
	.word	.Ltmp92-.Lfunc_begin0   #     jumps to .Ltmp92
	.byte	0                       #   On action: cleanup
	.word	.Ltmp93-.Lfunc_begin0   # >> Call Site 18 <<
	.word	.Ltmp94-.Ltmp93         #   Call between .Ltmp93 and .Ltmp94
	.word	.Ltmp95-.Lfunc_begin0   #     jumps to .Ltmp95
	.byte	0                       #   On action: cleanup
	.word	.Ltmp24-.Lfunc_begin0   # >> Call Site 19 <<
	.word	.Ltmp25-.Ltmp24         #   Call between .Ltmp24 and .Ltmp25
	.word	.Ltmp26-.Lfunc_begin0   #     jumps to .Ltmp26
	.byte	0                       #   On action: cleanup
	.word	.Ltmp96-.Lfunc_begin0   # >> Call Site 20 <<
	.word	.Ltmp97-.Ltmp96         #   Call between .Ltmp96 and .Ltmp97
	.word	.Ltmp98-.Lfunc_begin0   #     jumps to .Ltmp98
	.byte	0                       #   On action: cleanup
	.word	.Ltmp97-.Lfunc_begin0   # >> Call Site 21 <<
	.word	.Lfunc_end0-.Ltmp97     #   Call between .Ltmp97 and .Lfunc_end0
	.word	0                       #     has no landing pad
	.byte	0                       #   On action: cleanup
.Lcst_end0:
	.p2align	2
                                        # -- End function
	.section	.text._ZNSt6vectorI6OptionSaIS0_EEC2Ev,"axG",@progbits,_ZNSt6vectorI6OptionSaIS0_EEC2Ev,comdat
	.weak	_ZNSt6vectorI6OptionSaIS0_EEC2Ev # -- Begin function _ZNSt6vectorI6OptionSaIS0_EEC2Ev
	.p2align	2
	.type	_ZNSt6vectorI6OptionSaIS0_EEC2Ev,@function
_ZNSt6vectorI6OptionSaIS0_EEC2Ev:       # @_ZNSt6vectorI6OptionSaIS0_EEC2Ev
# %bb.0:                                # %entry
	addi	sp, sp, -32
	sd	ra, 24(sp)
	sd	s0, 16(sp)
	addi	s0, sp, 32
	sd	a0, -24(s0)
	ld	a0, -24(s0)
	call	_ZNSt12_Vector_baseI6OptionSaIS0_EEC2Ev
	ld	s0, 16(sp)
	ld	ra, 24(sp)
	addi	sp, sp, 32
	ret
.Lfunc_end1:
	.size	_ZNSt6vectorI6OptionSaIS0_EEC2Ev, .Lfunc_end1-_ZNSt6vectorI6OptionSaIS0_EEC2Ev
                                        # -- End function
	.section	.text._ZNSt10filesystem7__cxx1118directory_iteratorC2ERKNS0_4pathE,"axG",@progbits,_ZNSt10filesystem7__cxx1118directory_iteratorC2ERKNS0_4pathE,comdat
	.weak	_ZNSt10filesystem7__cxx1118directory_iteratorC2ERKNS0_4pathE # -- Begin function _ZNSt10filesystem7__cxx1118directory_iteratorC2ERKNS0_4pathE
	.p2align	2
	.type	_ZNSt10filesystem7__cxx1118directory_iteratorC2ERKNS0_4pathE,@function
_ZNSt10filesystem7__cxx1118directory_iteratorC2ERKNS0_4pathE: # @_ZNSt10filesystem7__cxx1118directory_iteratorC2ERKNS0_4pathE
	.cfi_startproc
# %bb.0:                                # %entry
	addi	sp, sp, -32
	.cfi_def_cfa_offset 32
	sd	ra, 24(sp)
	sd	s0, 16(sp)
	.cfi_offset ra, -8
	.cfi_offset s0, -16
	addi	s0, sp, 32
	.cfi_def_cfa s0, 0
	sd	a0, -24(s0)
	sd	a1, -32(s0)
	ld	a0, -24(s0)
	ld	a1, -32(s0)
	mv	a2, zero
	mv	a3, zero
	call	_ZNSt10filesystem7__cxx1118directory_iteratorC2ERKNS0_4pathENS_17directory_optionsEPSt10error_code
	ld	s0, 16(sp)
	.cfi_def_cfa sp, 32
	ld	ra, 24(sp)
	.cfi_restore ra
	.cfi_restore s0
	addi	sp, sp, 32
	.cfi_def_cfa_offset 0
	ret
.Lfunc_end2:
	.size	_ZNSt10filesystem7__cxx1118directory_iteratorC2ERKNS0_4pathE, .Lfunc_end2-_ZNSt10filesystem7__cxx1118directory_iteratorC2ERKNS0_4pathE
	.cfi_endproc
                                        # -- End function
	.section	.text._ZNSt10filesystem7__cxx115beginENS0_18directory_iteratorE,"axG",@progbits,_ZNSt10filesystem7__cxx115beginENS0_18directory_iteratorE,comdat
	.weak	_ZNSt10filesystem7__cxx115beginENS0_18directory_iteratorE # -- Begin function _ZNSt10filesystem7__cxx115beginENS0_18directory_iteratorE
	.p2align	2
	.type	_ZNSt10filesystem7__cxx115beginENS0_18directory_iteratorE,@function
_ZNSt10filesystem7__cxx115beginENS0_18directory_iteratorE: # @_ZNSt10filesystem7__cxx115beginENS0_18directory_iteratorE
# %bb.0:                                # %entry
	addi	sp, sp, -32
	sd	ra, 24(sp)
	sd	s0, 16(sp)
	addi	s0, sp, 32
	sd	a0, -24(s0)
	call	_ZNSt10filesystem7__cxx1118directory_iteratorC2EOS1_
	ld	s0, 16(sp)
	ld	ra, 24(sp)
	addi	sp, sp, 32
	ret
.Lfunc_end3:
	.size	_ZNSt10filesystem7__cxx115beginENS0_18directory_iteratorE, .Lfunc_end3-_ZNSt10filesystem7__cxx115beginENS0_18directory_iteratorE
                                        # -- End function
	.section	.text._ZNSt10filesystem7__cxx1118directory_iteratorC2ERKS1_,"axG",@progbits,_ZNSt10filesystem7__cxx1118directory_iteratorC2ERKS1_,comdat
	.weak	_ZNSt10filesystem7__cxx1118directory_iteratorC2ERKS1_ # -- Begin function _ZNSt10filesystem7__cxx1118directory_iteratorC2ERKS1_
	.p2align	2
	.type	_ZNSt10filesystem7__cxx1118directory_iteratorC2ERKS1_,@function
_ZNSt10filesystem7__cxx1118directory_iteratorC2ERKS1_: # @_ZNSt10filesystem7__cxx1118directory_iteratorC2ERKS1_
# %bb.0:                                # %entry
	addi	sp, sp, -32
	sd	ra, 24(sp)
	sd	s0, 16(sp)
	addi	s0, sp, 32
	sd	a0, -24(s0)
	sd	a1, -32(s0)
	ld	a0, -24(s0)
	ld	a1, -32(s0)
	call	_ZNSt12__shared_ptrINSt10filesystem7__cxx114_DirELN9__gnu_cxx12_Lock_policyE0EEC2ERKS5_
	ld	s0, 16(sp)
	ld	ra, 24(sp)
	addi	sp, sp, 32
	ret
.Lfunc_end4:
	.size	_ZNSt10filesystem7__cxx1118directory_iteratorC2ERKS1_, .Lfunc_end4-_ZNSt10filesystem7__cxx1118directory_iteratorC2ERKS1_
                                        # -- End function
	.section	.text._ZNSt10filesystem7__cxx1118directory_iteratorD2Ev,"axG",@progbits,_ZNSt10filesystem7__cxx1118directory_iteratorD2Ev,comdat
	.weak	_ZNSt10filesystem7__cxx1118directory_iteratorD2Ev # -- Begin function _ZNSt10filesystem7__cxx1118directory_iteratorD2Ev
	.p2align	2
	.type	_ZNSt10filesystem7__cxx1118directory_iteratorD2Ev,@function
_ZNSt10filesystem7__cxx1118directory_iteratorD2Ev: # @_ZNSt10filesystem7__cxx1118directory_iteratorD2Ev
# %bb.0:                                # %entry
	addi	sp, sp, -32
	sd	ra, 24(sp)
	sd	s0, 16(sp)
	addi	s0, sp, 32
	sd	a0, -24(s0)
	ld	a0, -24(s0)
	call	_ZNSt12__shared_ptrINSt10filesystem7__cxx114_DirELN9__gnu_cxx12_Lock_policyE0EED2Ev
	ld	s0, 16(sp)
	ld	ra, 24(sp)
	addi	sp, sp, 32
	ret
.Lfunc_end5:
	.size	_ZNSt10filesystem7__cxx1118directory_iteratorD2Ev, .Lfunc_end5-_ZNSt10filesystem7__cxx1118directory_iteratorD2Ev
                                        # -- End function
	.section	.text._ZNSt10filesystem7__cxx113endENS0_18directory_iteratorE,"axG",@progbits,_ZNSt10filesystem7__cxx113endENS0_18directory_iteratorE,comdat
	.weak	_ZNSt10filesystem7__cxx113endENS0_18directory_iteratorE # -- Begin function _ZNSt10filesystem7__cxx113endENS0_18directory_iteratorE
	.p2align	2
	.type	_ZNSt10filesystem7__cxx113endENS0_18directory_iteratorE,@function
_ZNSt10filesystem7__cxx113endENS0_18directory_iteratorE: # @_ZNSt10filesystem7__cxx113endENS0_18directory_iteratorE
# %bb.0:                                # %entry
	addi	sp, sp, -32
	sd	ra, 24(sp)
	sd	s0, 16(sp)
	addi	s0, sp, 32
	sd	a0, -24(s0)
	sd	zero, 8(a0)
	sd	zero, 0(a0)
	call	_ZNSt10filesystem7__cxx1118directory_iteratorC2Ev
	ld	s0, 16(sp)
	ld	ra, 24(sp)
	addi	sp, sp, 32
	ret
.Lfunc_end6:
	.size	_ZNSt10filesystem7__cxx113endENS0_18directory_iteratorE, .Lfunc_end6-_ZNSt10filesystem7__cxx113endENS0_18directory_iteratorE
                                        # -- End function
	.section	.text._ZNSt10filesystem7__cxx11neERKNS0_18directory_iteratorES3_,"axG",@progbits,_ZNSt10filesystem7__cxx11neERKNS0_18directory_iteratorES3_,comdat
	.weak	_ZNSt10filesystem7__cxx11neERKNS0_18directory_iteratorES3_ # -- Begin function _ZNSt10filesystem7__cxx11neERKNS0_18directory_iteratorES3_
	.p2align	2
	.type	_ZNSt10filesystem7__cxx11neERKNS0_18directory_iteratorES3_,@function
_ZNSt10filesystem7__cxx11neERKNS0_18directory_iteratorES3_: # @_ZNSt10filesystem7__cxx11neERKNS0_18directory_iteratorES3_
# %bb.0:                                # %entry
	addi	sp, sp, -32
	sd	ra, 24(sp)
	sd	s0, 16(sp)
	addi	s0, sp, 32
	sd	a0, -24(s0)
	sd	a1, -32(s0)
	ld	a0, -24(s0)
	ld	a1, -32(s0)
	call	_ZNSt10filesystem7__cxx11eqERKNS0_18directory_iteratorES3_
	xori	a0, a0, 1
	ld	s0, 16(sp)
	ld	ra, 24(sp)
	addi	sp, sp, 32
	ret
.Lfunc_end7:
	.size	_ZNSt10filesystem7__cxx11neERKNS0_18directory_iteratorES3_, .Lfunc_end7-_ZNSt10filesystem7__cxx11neERKNS0_18directory_iteratorES3_
                                        # -- End function
	.section	.text._ZNKSt10filesystem7__cxx1115directory_entry4pathEv,"axG",@progbits,_ZNKSt10filesystem7__cxx1115directory_entry4pathEv,comdat
	.weak	_ZNKSt10filesystem7__cxx1115directory_entry4pathEv # -- Begin function _ZNKSt10filesystem7__cxx1115directory_entry4pathEv
	.p2align	2
	.type	_ZNKSt10filesystem7__cxx1115directory_entry4pathEv,@function
_ZNKSt10filesystem7__cxx1115directory_entry4pathEv: # @_ZNKSt10filesystem7__cxx1115directory_entry4pathEv
# %bb.0:                                # %entry
	addi	sp, sp, -32
	sd	ra, 24(sp)
	sd	s0, 16(sp)
	addi	s0, sp, 32
	sd	a0, -24(s0)
	ld	a0, -24(s0)
	ld	s0, 16(sp)
	ld	ra, 24(sp)
	addi	sp, sp, 32
	ret
.Lfunc_end8:
	.size	_ZNKSt10filesystem7__cxx1115directory_entry4pathEv, .Lfunc_end8-_ZNKSt10filesystem7__cxx1115directory_entry4pathEv
                                        # -- End function
	.section	.text._ZNKSt10filesystem7__cxx114path13has_extensionEv,"axG",@progbits,_ZNKSt10filesystem7__cxx114path13has_extensionEv,comdat
	.weak	_ZNKSt10filesystem7__cxx114path13has_extensionEv # -- Begin function _ZNKSt10filesystem7__cxx114path13has_extensionEv
	.p2align	2
	.type	_ZNKSt10filesystem7__cxx114path13has_extensionEv,@function
_ZNKSt10filesystem7__cxx114path13has_extensionEv: # @_ZNKSt10filesystem7__cxx114path13has_extensionEv
# %bb.0:                                # %entry
	addi	sp, sp, -48
	sd	ra, 40(sp)
	sd	s0, 32(sp)
	addi	s0, sp, 48
	sd	a0, -24(s0)
	ld	a0, -24(s0)
	call	_ZNKSt10filesystem7__cxx114path17_M_find_extensionEv
	sd	a1, -32(s0)
	sd	a0, -40(s0)
	ld	a1, -40(s0)
	mv	a0, zero
	beqz	a1, .LBB9_2
	j	.LBB9_1
.LBB9_1:                                # %land.rhs
	ld	a0, -32(s0)
	not	a0, a0
	snez	a0, a0
	j	.LBB9_2
.LBB9_2:                                # %land.end
	andi	a0, a0, 1
	ld	s0, 32(sp)
	ld	ra, 40(sp)
	addi	sp, sp, 48
	ret
.Lfunc_end9:
	.size	_ZNKSt10filesystem7__cxx114path13has_extensionEv, .Lfunc_end9-_ZNKSt10filesystem7__cxx114path13has_extensionEv
                                        # -- End function
	.section	.text._ZNSt10filesystem7__cxx11neERKNS0_4pathES3_,"axG",@progbits,_ZNSt10filesystem7__cxx11neERKNS0_4pathES3_,comdat
	.weak	_ZNSt10filesystem7__cxx11neERKNS0_4pathES3_ # -- Begin function _ZNSt10filesystem7__cxx11neERKNS0_4pathES3_
	.p2align	2
	.type	_ZNSt10filesystem7__cxx11neERKNS0_4pathES3_,@function
_ZNSt10filesystem7__cxx11neERKNS0_4pathES3_: # @_ZNSt10filesystem7__cxx11neERKNS0_4pathES3_
# %bb.0:                                # %entry
	addi	sp, sp, -32
	sd	ra, 24(sp)
	sd	s0, 16(sp)
	addi	s0, sp, 32
	sd	a0, -24(s0)
	sd	a1, -32(s0)
	ld	a0, -24(s0)
	ld	a1, -32(s0)
	call	_ZNSt10filesystem7__cxx11eqERKNS0_4pathES3_
	xori	a0, a0, 1
	ld	s0, 16(sp)
	ld	ra, 24(sp)
	addi	sp, sp, 32
	ret
.Lfunc_end10:
	.size	_ZNSt10filesystem7__cxx11neERKNS0_4pathES3_, .Lfunc_end10-_ZNSt10filesystem7__cxx11neERKNS0_4pathES3_
                                        # -- End function
	.section	.text._ZNKSt10filesystem7__cxx114path9extensionEv,"axG",@progbits,_ZNKSt10filesystem7__cxx114path9extensionEv,comdat
	.weak	_ZNKSt10filesystem7__cxx114path9extensionEv # -- Begin function _ZNKSt10filesystem7__cxx114path9extensionEv
	.p2align	2
	.type	_ZNKSt10filesystem7__cxx114path9extensionEv,@function
_ZNKSt10filesystem7__cxx114path9extensionEv: # @_ZNKSt10filesystem7__cxx114path9extensionEv
.Lfunc_begin1:
	.cfi_startproc
	.cfi_personality 155, DW.ref.__gxx_personality_v0
	.cfi_lsda 27, .Lexception1
# %bb.0:                                # %entry
	addi	sp, sp, -112
	.cfi_def_cfa_offset 112
	sd	ra, 104(sp)
	sd	s0, 96(sp)
	sd	s1, 88(sp)
	sd	s2, 80(sp)
	.cfi_offset ra, -8
	.cfi_offset s0, -16
	.cfi_offset s1, -24
	.cfi_offset s2, -32
	addi	s0, sp, 112
	.cfi_def_cfa s0, 0
	mv	s1, a0
	sd	s1, -40(s0)
	sd	a1, -48(s0)
	ld	a0, -48(s0)
	call	_ZNKSt10filesystem7__cxx114path17_M_find_extensionEv
	sd	a1, -56(s0)
	sd	a0, -64(s0)
	ld	a0, -64(s0)
	beqz	a0, .LBB11_5
	j	.LBB11_1
.LBB11_1:                               # %land.lhs.true
	ld	a0, -56(s0)
	addi	a1, zero, -1
	beq	a0, a1, .LBB11_5
	j	.LBB11_2
.LBB11_2:                               # %if.then
	ld	a1, -64(s0)
	ld	a2, -56(s0)
	addi	s2, s0, -96
	mv	a0, s2
	addi	a3, zero, -1
	call	_ZNKSt7__cxx1112basic_stringIcSt11char_traitsIcESaIcEE6substrEmm
.Ltmp99:
	mv	a0, s1
	mv	a1, s2
	addi	a2, zero, 2
	call	_ZNSt10filesystem7__cxx114pathC2EONSt7__cxx1112basic_stringIcSt11char_traitsIcESaIcEEENS1_6formatE
.Ltmp100:
	j	.LBB11_3
.LBB11_3:                               # %invoke.cont
	addi	a0, s0, -96
	call	_ZNSt7__cxx1112basic_stringIcSt11char_traitsIcESaIcEED1Ev
	j	.LBB11_6
.LBB11_4:                               # %lpad
.Ltmp101:
	sd	a0, -104(s0)
	sw	a1, -108(s0)
	addi	a0, s0, -96
	call	_ZNSt7__cxx1112basic_stringIcSt11char_traitsIcESaIcEED1Ev
	j	.LBB11_7
.LBB11_5:                               # %if.end
	mv	a0, s1
	call	_ZNSt10filesystem7__cxx114pathC2Ev
	j	.LBB11_6
.LBB11_6:                               # %return
	ld	s2, 80(sp)
	ld	s1, 88(sp)
	ld	s0, 96(sp)
	.cfi_def_cfa sp, 112
	ld	ra, 104(sp)
	.cfi_restore ra
	.cfi_restore s0
	.cfi_restore s1
	.cfi_restore s2
	addi	sp, sp, 112
	.cfi_def_cfa_offset 0
	ret
.LBB11_7:                               # %eh.resume
	ld	a0, -104(s0)
	call	_Unwind_Resume
.Lfunc_end11:
	.size	_ZNKSt10filesystem7__cxx114path9extensionEv, .Lfunc_end11-_ZNKSt10filesystem7__cxx114path9extensionEv
	.cfi_endproc
	.section	.gcc_except_table,"a",@progbits
	.p2align	2
GCC_except_table11:
.Lexception1:
	.byte	255                     # @LPStart Encoding = omit
	.byte	255                     # @TType Encoding = omit
	.byte	3                       # Call site Encoding = udata4
	.uleb128 .Lcst_end1-.Lcst_begin1
.Lcst_begin1:
	.word	.Lfunc_begin1-.Lfunc_begin1 # >> Call Site 1 <<
	.word	.Ltmp99-.Lfunc_begin1   #   Call between .Lfunc_begin1 and .Ltmp99
	.word	0                       #     has no landing pad
	.byte	0                       #   On action: cleanup
	.word	.Ltmp99-.Lfunc_begin1   # >> Call Site 2 <<
	.word	.Ltmp100-.Ltmp99        #   Call between .Ltmp99 and .Ltmp100
	.word	.Ltmp101-.Lfunc_begin1  #     jumps to .Ltmp101
	.byte	0                       #   On action: cleanup
	.word	.Ltmp100-.Lfunc_begin1  # >> Call Site 3 <<
	.word	.Lfunc_end11-.Ltmp100   #   Call between .Ltmp100 and .Lfunc_end11
	.word	0                       #     has no landing pad
	.byte	0                       #   On action: cleanup
.Lcst_end1:
	.p2align	2
                                        # -- End function
	.section	.text._ZNSt10filesystem7__cxx114pathC2IA6_cS1_EERKT_NS1_6formatE,"axG",@progbits,_ZNSt10filesystem7__cxx114pathC2IA6_cS1_EERKT_NS1_6formatE,comdat
	.weak	_ZNSt10filesystem7__cxx114pathC2IA6_cS1_EERKT_NS1_6formatE # -- Begin function _ZNSt10filesystem7__cxx114pathC2IA6_cS1_EERKT_NS1_6formatE
	.p2align	2
	.type	_ZNSt10filesystem7__cxx114pathC2IA6_cS1_EERKT_NS1_6formatE,@function
_ZNSt10filesystem7__cxx114pathC2IA6_cS1_EERKT_NS1_6formatE: # @_ZNSt10filesystem7__cxx114pathC2IA6_cS1_EERKT_NS1_6formatE
.Lfunc_begin2:
	.cfi_startproc
	.cfi_personality 155, DW.ref.__gxx_personality_v0
	.cfi_lsda 27, .Lexception2
# %bb.0:                                # %entry
	addi	sp, sp, -128
	.cfi_def_cfa_offset 128
	sd	ra, 120(sp)
	sd	s0, 112(sp)
	sd	s1, 104(sp)
	sd	s2, 96(sp)
	sd	s3, 88(sp)
	.cfi_offset ra, -8
	.cfi_offset s0, -16
	.cfi_offset s1, -24
	.cfi_offset s2, -32
	.cfi_offset s3, -40
	addi	s0, sp, 128
	.cfi_def_cfa s0, 0
	sd	a0, -48(s0)
	sd	a1, -56(s0)
	sb	a2, -57(s0)
	ld	s3, -48(s0)
	ld	a0, -56(s0)
	call	_ZNSt10filesystem7__cxx118__detail17__effective_rangeIA6_cEEDaRKT_
	sd	a1, -88(s0)
	sd	a0, -96(s0)
	addi	a0, s0, -96
	call	_ZNSt10filesystem7__cxx114path10_S_convertISt17basic_string_viewIcSt11char_traitsIcEEEEDaRKT_
	sd	a1, -72(s0)
	sd	a0, -80(s0)
	addi	s1, s0, -104
	mv	a0, s1
	call	_ZNSaIcEC1Ev
.Ltmp102:
	addi	a1, s0, -80
	mv	a0, s3
	mv	a2, s1
	call	_ZNSt7__cxx1112basic_stringIcSt11char_traitsIcESaIcEEC2ISt17basic_string_viewIcS2_EvEERKT_RKS3_
.Ltmp103:
	j	.LBB12_1
.LBB12_1:                               # %invoke.cont
	addi	a0, s0, -104
	call	_ZNSaIcED1Ev
	addi	s2, s3, 32
.Ltmp105:
	mv	a0, s2
	call	_ZNSt10filesystem7__cxx114path5_ListC1Ev
.Ltmp106:
	j	.LBB12_2
.LBB12_2:                               # %invoke.cont6
.Ltmp108:
	mv	a0, s3
	call	_ZNSt10filesystem7__cxx114path14_M_split_cmptsEv
.Ltmp109:
	j	.LBB12_3
.LBB12_3:                               # %invoke.cont8
	ld	s3, 88(sp)
	ld	s2, 96(sp)
	ld	s1, 104(sp)
	ld	s0, 112(sp)
	.cfi_def_cfa sp, 128
	ld	ra, 120(sp)
	.cfi_restore ra
	.cfi_restore s0
	.cfi_restore s1
	.cfi_restore s2
	.cfi_restore s3
	addi	sp, sp, 128
	.cfi_def_cfa_offset 0
	ret
.LBB12_4:                               # %lpad
.Ltmp104:
	sd	a0, -112(s0)
	sw	a1, -116(s0)
	addi	a0, s0, -104
	call	_ZNSaIcED1Ev
	j	.LBB12_8
.LBB12_5:                               # %lpad5
.Ltmp107:
	sd	a0, -112(s0)
	sw	a1, -116(s0)
	j	.LBB12_7
.LBB12_6:                               # %lpad7
.Ltmp110:
	sd	a0, -112(s0)
	sw	a1, -116(s0)
	mv	a0, s2
	call	_ZNSt10filesystem7__cxx114path5_ListD2Ev
	j	.LBB12_7
.LBB12_7:                               # %ehcleanup
	mv	a0, s3
	call	_ZNSt7__cxx1112basic_stringIcSt11char_traitsIcESaIcEED1Ev
	j	.LBB12_8
.LBB12_8:                               # %eh.resume
	ld	a0, -112(s0)
	call	_Unwind_Resume
.Lfunc_end12:
	.size	_ZNSt10filesystem7__cxx114pathC2IA6_cS1_EERKT_NS1_6formatE, .Lfunc_end12-_ZNSt10filesystem7__cxx114pathC2IA6_cS1_EERKT_NS1_6formatE
	.cfi_endproc
	.section	.gcc_except_table,"a",@progbits
	.p2align	2
GCC_except_table12:
.Lexception2:
	.byte	255                     # @LPStart Encoding = omit
	.byte	255                     # @TType Encoding = omit
	.byte	3                       # Call site Encoding = udata4
	.uleb128 .Lcst_end2-.Lcst_begin2
.Lcst_begin2:
	.word	.Ltmp102-.Lfunc_begin2  # >> Call Site 1 <<
	.word	.Ltmp103-.Ltmp102       #   Call between .Ltmp102 and .Ltmp103
	.word	.Ltmp104-.Lfunc_begin2  #     jumps to .Ltmp104
	.byte	0                       #   On action: cleanup
	.word	.Ltmp105-.Lfunc_begin2  # >> Call Site 2 <<
	.word	.Ltmp106-.Ltmp105       #   Call between .Ltmp105 and .Ltmp106
	.word	.Ltmp107-.Lfunc_begin2  #     jumps to .Ltmp107
	.byte	0                       #   On action: cleanup
	.word	.Ltmp108-.Lfunc_begin2  # >> Call Site 3 <<
	.word	.Ltmp109-.Ltmp108       #   Call between .Ltmp108 and .Ltmp109
	.word	.Ltmp110-.Lfunc_begin2  #     jumps to .Ltmp110
	.byte	0                       #   On action: cleanup
	.word	.Ltmp109-.Lfunc_begin2  # >> Call Site 4 <<
	.word	.Lfunc_end12-.Ltmp109   #   Call between .Ltmp109 and .Lfunc_end12
	.word	0                       #     has no landing pad
	.byte	0                       #   On action: cleanup
.Lcst_end2:
	.p2align	2
                                        # -- End function
	.section	.text._ZNSt10filesystem7__cxx114pathD2Ev,"axG",@progbits,_ZNSt10filesystem7__cxx114pathD2Ev,comdat
	.weak	_ZNSt10filesystem7__cxx114pathD2Ev # -- Begin function _ZNSt10filesystem7__cxx114pathD2Ev
	.p2align	2
	.type	_ZNSt10filesystem7__cxx114pathD2Ev,@function
_ZNSt10filesystem7__cxx114pathD2Ev:     # @_ZNSt10filesystem7__cxx114pathD2Ev
# %bb.0:                                # %entry
	addi	sp, sp, -32
	sd	ra, 24(sp)
	sd	s0, 16(sp)
	sd	s1, 8(sp)
	addi	s0, sp, 32
	sd	a0, -32(s0)
	ld	s1, -32(s0)
	addi	a0, s1, 32
	call	_ZNSt10filesystem7__cxx114path5_ListD2Ev
	mv	a0, s1
	call	_ZNSt7__cxx1112basic_stringIcSt11char_traitsIcESaIcEED1Ev
	ld	s1, 8(sp)
	ld	s0, 16(sp)
	ld	ra, 24(sp)
	addi	sp, sp, 32
	ret
.Lfunc_end13:
	.size	_ZNSt10filesystem7__cxx114pathD2Ev, .Lfunc_end13-_ZNSt10filesystem7__cxx114pathD2Ev
                                        # -- End function
	.section	.text._ZNSt14basic_ifstreamIcSt11char_traitsIcEEC1INSt10filesystem7__cxx114pathES6_EERKT_St13_Ios_Openmode,"axG",@progbits,_ZNSt14basic_ifstreamIcSt11char_traitsIcEEC1INSt10filesystem7__cxx114pathES6_EERKT_St13_Ios_Openmode,comdat
	.weak	_ZNSt14basic_ifstreamIcSt11char_traitsIcEEC1INSt10filesystem7__cxx114pathES6_EERKT_St13_Ios_Openmode # -- Begin function _ZNSt14basic_ifstreamIcSt11char_traitsIcEEC1INSt10filesystem7__cxx114pathES6_EERKT_St13_Ios_Openmode
	.p2align	2
	.type	_ZNSt14basic_ifstreamIcSt11char_traitsIcEEC1INSt10filesystem7__cxx114pathES6_EERKT_St13_Ios_Openmode,@function
_ZNSt14basic_ifstreamIcSt11char_traitsIcEEC1INSt10filesystem7__cxx114pathES6_EERKT_St13_Ios_Openmode: # @_ZNSt14basic_ifstreamIcSt11char_traitsIcEEC1INSt10filesystem7__cxx114pathES6_EERKT_St13_Ios_Openmode
	.cfi_startproc
# %bb.0:                                # %entry
	addi	sp, sp, -48
	.cfi_def_cfa_offset 48
	sd	ra, 40(sp)
	sd	s0, 32(sp)
	sd	s1, 24(sp)
	.cfi_offset ra, -8
	.cfi_offset s0, -16
	.cfi_offset s1, -24
	addi	s0, sp, 48
	.cfi_def_cfa s0, 0
	sd	a0, -32(s0)
	sd	a1, -40(s0)
	sw	a2, -44(s0)
	ld	s1, -32(s0)
	ld	a0, -40(s0)
	call	_ZNKSt10filesystem7__cxx114path5c_strEv
	mv	a1, a0
	lw	a2, -44(s0)
	mv	a0, s1
	call	_ZNSt14basic_ifstreamIcSt11char_traitsIcEEC1EPKcSt13_Ios_Openmode
	ld	s1, 24(sp)
	ld	s0, 32(sp)
	.cfi_def_cfa sp, 48
	ld	ra, 40(sp)
	.cfi_restore ra
	.cfi_restore s0
	.cfi_restore s1
	addi	sp, sp, 48
	.cfi_def_cfa_offset 0
	ret
.Lfunc_end14:
	.size	_ZNSt14basic_ifstreamIcSt11char_traitsIcEEC1INSt10filesystem7__cxx114pathES6_EERKT_St13_Ios_Openmode, .Lfunc_end14-_ZNSt14basic_ifstreamIcSt11char_traitsIcEEC1INSt10filesystem7__cxx114pathES6_EERKT_St13_Ios_Openmode
	.cfi_endproc
                                        # -- End function
	.section	.text._ZN8nlohmann10basic_jsonISt3mapSt6vectorNSt7__cxx1112basic_stringIcSt11char_traitsIcESaIcEEEblmdSaNS_14adl_serializerEEC2EDn,"axG",@progbits,_ZN8nlohmann10basic_jsonISt3mapSt6vectorNSt7__cxx1112basic_stringIcSt11char_traitsIcESaIcEEEblmdSaNS_14adl_serializerEEC2EDn,comdat
	.weak	_ZN8nlohmann10basic_jsonISt3mapSt6vectorNSt7__cxx1112basic_stringIcSt11char_traitsIcESaIcEEEblmdSaNS_14adl_serializerEEC2EDn # -- Begin function _ZN8nlohmann10basic_jsonISt3mapSt6vectorNSt7__cxx1112basic_stringIcSt11char_traitsIcESaIcEEEblmdSaNS_14adl_serializerEEC2EDn
	.p2align	2
	.type	_ZN8nlohmann10basic_jsonISt3mapSt6vectorNSt7__cxx1112basic_stringIcSt11char_traitsIcESaIcEEEblmdSaNS_14adl_serializerEEC2EDn,@function
_ZN8nlohmann10basic_jsonISt3mapSt6vectorNSt7__cxx1112basic_stringIcSt11char_traitsIcESaIcEEEblmdSaNS_14adl_serializerEEC2EDn: # @_ZN8nlohmann10basic_jsonISt3mapSt6vectorNSt7__cxx1112basic_stringIcSt11char_traitsIcESaIcEEEblmdSaNS_14adl_serializerEEC2EDn
.Lfunc_begin3:
	.cfi_startproc
	.cfi_personality 155, DW.ref.__gxx_personality_v0
	.cfi_lsda 27, .Lexception3
# %bb.0:                                # %entry
	addi	sp, sp, -48
	.cfi_def_cfa_offset 48
	sd	ra, 40(sp)
	sd	s0, 32(sp)
	sd	s1, 24(sp)
	.cfi_offset ra, -8
	.cfi_offset s0, -16
	.cfi_offset s1, -24
	addi	s0, sp, 48
	.cfi_def_cfa s0, 0
	sd	a0, -32(s0)
	sd	a1, -40(s0)
	ld	s1, -32(s0)
.Ltmp111:
	mv	a0, s1
	mv	a1, zero
	call	_ZN8nlohmann10basic_jsonISt3mapSt6vectorNSt7__cxx1112basic_stringIcSt11char_traitsIcESaIcEEEblmdSaNS_14adl_serializerEEC2ENS_6detail7value_tE
.Ltmp112:
	j	.LBB15_1
.LBB15_1:                               # %invoke.cont
	mv	a0, s1
	call	_ZNK8nlohmann10basic_jsonISt3mapSt6vectorNSt7__cxx1112basic_stringIcSt11char_traitsIcESaIcEEEblmdSaNS_14adl_serializerEE16assert_invariantEv
	ld	s1, 24(sp)
	ld	s0, 32(sp)
	.cfi_def_cfa sp, 48
	ld	ra, 40(sp)
	.cfi_restore ra
	.cfi_restore s0
	.cfi_restore s1
	addi	sp, sp, 48
	.cfi_def_cfa_offset 0
	ret
.LBB15_2:                               # %terminate.lpad
.Ltmp113:
	call	__clang_call_terminate
.Lfunc_end15:
	.size	_ZN8nlohmann10basic_jsonISt3mapSt6vectorNSt7__cxx1112basic_stringIcSt11char_traitsIcESaIcEEEblmdSaNS_14adl_serializerEEC2EDn, .Lfunc_end15-_ZN8nlohmann10basic_jsonISt3mapSt6vectorNSt7__cxx1112basic_stringIcSt11char_traitsIcESaIcEEEblmdSaNS_14adl_serializerEEC2EDn
	.cfi_endproc
	.section	.gcc_except_table,"a",@progbits
	.p2align	2
GCC_except_table15:
.Lexception3:
	.byte	255                     # @LPStart Encoding = omit
	.byte	155                     # @TType Encoding = indirect pcrel sdata4
	.uleb128 .Lttbase0-.Lttbaseref0
.Lttbaseref0:
	.byte	3                       # Call site Encoding = udata4
	.uleb128 .Lcst_end3-.Lcst_begin3
.Lcst_begin3:
	.word	.Ltmp111-.Lfunc_begin3  # >> Call Site 1 <<
	.word	.Ltmp112-.Ltmp111       #   Call between .Ltmp111 and .Ltmp112
	.word	.Ltmp113-.Lfunc_begin3  #     jumps to .Ltmp113
	.byte	1                       #   On action: 1
.Lcst_end3:
	.byte	1                       # >> Action Record 1 <<
                                        #   Catch TypeInfo 1
	.byte	0                       #   No further actions
	.p2align	2
                                        # >> Catch TypeInfos <<
	.word	0                       # TypeInfo 1
.Lttbase0:
	.p2align	2
                                        # -- End function
	.section	.text._ZN8nlohmannrsERSiRNS_10basic_jsonISt3mapSt6vectorNSt7__cxx1112basic_stringIcSt11char_traitsIcESaIcEEEblmdSaNS_14adl_serializerEEE,"axG",@progbits,_ZN8nlohmannrsERSiRNS_10basic_jsonISt3mapSt6vectorNSt7__cxx1112basic_stringIcSt11char_traitsIcESaIcEEEblmdSaNS_14adl_serializerEEE,comdat
	.weak	_ZN8nlohmannrsERSiRNS_10basic_jsonISt3mapSt6vectorNSt7__cxx1112basic_stringIcSt11char_traitsIcESaIcEEEblmdSaNS_14adl_serializerEEE # -- Begin function _ZN8nlohmannrsERSiRNS_10basic_jsonISt3mapSt6vectorNSt7__cxx1112basic_stringIcSt11char_traitsIcESaIcEEEblmdSaNS_14adl_serializerEEE
	.p2align	2
	.type	_ZN8nlohmannrsERSiRNS_10basic_jsonISt3mapSt6vectorNSt7__cxx1112basic_stringIcSt11char_traitsIcESaIcEEEblmdSaNS_14adl_serializerEEE,@function
_ZN8nlohmannrsERSiRNS_10basic_jsonISt3mapSt6vectorNSt7__cxx1112basic_stringIcSt11char_traitsIcESaIcEEEblmdSaNS_14adl_serializerEEE: # @_ZN8nlohmannrsERSiRNS_10basic_jsonISt3mapSt6vectorNSt7__cxx1112basic_stringIcSt11char_traitsIcESaIcEEEblmdSaNS_14adl_serializerEEE
.Lfunc_begin4:
	.cfi_startproc
	.cfi_personality 155, DW.ref.__gxx_personality_v0
	.cfi_lsda 27, .Lexception4
# %bb.0:                                # %entry
	addi	sp, sp, -320
	.cfi_def_cfa_offset 320
	sd	ra, 312(sp)
	sd	s0, 304(sp)
	sd	s1, 296(sp)
	.cfi_offset ra, -8
	.cfi_offset s0, -16
	.cfi_offset s1, -24
	addi	s0, sp, 320
	.cfi_def_cfa s0, 0
	sd	a0, -32(s0)
	sd	a1, -40(s0)
	ld	a1, -32(s0)
	addi	s1, s0, -264
	mv	a0, s1
	call	_ZN8nlohmann6detail13input_adapterC2ERSi
.Ltmp114:
	addi	a0, s0, -248
	mv	a1, s1
	call	_ZN8nlohmann6detail13input_adaptercvSt10shared_ptrINS0_22input_adapter_protocolEEEv
.Ltmp115:
	j	.LBB16_1
.LBB16_1:                               # %invoke.cont
	addi	s1, s0, -312
	mv	a0, s1
	mv	a1, zero
	call	_ZNSt8functionIFbiN8nlohmann6detail6parserINS0_10basic_jsonISt3mapSt6vectorNSt7__cxx1112basic_stringIcSt11char_traitsIcESaIcEEEblmdSaNS0_14adl_serializerEEEE13parse_event_tERSD_EEC2EDn
.Ltmp117:
	addi	a0, s0, -232
	addi	a1, s0, -248
	mv	a2, s1
	addi	a3, zero, 1
	call	_ZN8nlohmann6detail6parserINS_10basic_jsonISt3mapSt6vectorNSt7__cxx1112basic_stringIcSt11char_traitsIcESaIcEEEblmdSaNS_14adl_serializerEEEEC2EOSt10shared_ptrINS0_22input_adapter_protocolEESt8functionIFbiNSD_13parse_event_tERSC_EEb
.Ltmp118:
	j	.LBB16_2
.LBB16_2:                               # %invoke.cont4
	ld	a2, -40(s0)
.Ltmp120:
	addi	a0, s0, -232
	mv	a1, zero
	call	_ZN8nlohmann6detail6parserINS_10basic_jsonISt3mapSt6vectorNSt7__cxx1112basic_stringIcSt11char_traitsIcESaIcEEEblmdSaNS_14adl_serializerEEEE5parseEbRSC_
.Ltmp121:
	j	.LBB16_3
.LBB16_3:                               # %invoke.cont6
	addi	a0, s0, -232
	call	_ZN8nlohmann6detail6parserINS_10basic_jsonISt3mapSt6vectorNSt7__cxx1112basic_stringIcSt11char_traitsIcESaIcEEEblmdSaNS_14adl_serializerEEEED2Ev
	addi	a0, s0, -312
	call	_ZNSt8functionIFbiN8nlohmann6detail6parserINS0_10basic_jsonISt3mapSt6vectorNSt7__cxx1112basic_stringIcSt11char_traitsIcESaIcEEEblmdSaNS0_14adl_serializerEEEE13parse_event_tERSD_EED2Ev
	addi	a0, s0, -248
	call	_ZNSt10shared_ptrIN8nlohmann6detail22input_adapter_protocolEED2Ev
	addi	a0, s0, -264
	call	_ZN8nlohmann6detail13input_adapterD2Ev
	ld	a0, -32(s0)
	ld	s1, 296(sp)
	ld	s0, 304(sp)
	.cfi_def_cfa sp, 320
	ld	ra, 312(sp)
	.cfi_restore ra
	.cfi_restore s0
	.cfi_restore s1
	addi	sp, sp, 320
	.cfi_def_cfa_offset 0
	ret
.LBB16_4:                               # %lpad
.Ltmp116:
	sd	a0, -272(s0)
	sw	a1, -276(s0)
	j	.LBB16_8
.LBB16_5:                               # %lpad3
.Ltmp119:
	sd	a0, -272(s0)
	sw	a1, -276(s0)
	j	.LBB16_7
.LBB16_6:                               # %lpad5
.Ltmp122:
	sd	a0, -272(s0)
	sw	a1, -276(s0)
	addi	a0, s0, -232
	call	_ZN8nlohmann6detail6parserINS_10basic_jsonISt3mapSt6vectorNSt7__cxx1112basic_stringIcSt11char_traitsIcESaIcEEEblmdSaNS_14adl_serializerEEEED2Ev
	j	.LBB16_7
.LBB16_7:                               # %ehcleanup
	addi	a0, s0, -312
	call	_ZNSt8functionIFbiN8nlohmann6detail6parserINS0_10basic_jsonISt3mapSt6vectorNSt7__cxx1112basic_stringIcSt11char_traitsIcESaIcEEEblmdSaNS0_14adl_serializerEEEE13parse_event_tERSD_EED2Ev
	addi	a0, s0, -248
	call	_ZNSt10shared_ptrIN8nlohmann6detail22input_adapter_protocolEED2Ev
	j	.LBB16_8
.LBB16_8:                               # %ehcleanup8
	addi	a0, s0, -264
	call	_ZN8nlohmann6detail13input_adapterD2Ev
	j	.LBB16_9
.LBB16_9:                               # %eh.resume
	ld	a0, -272(s0)
	call	_Unwind_Resume
.Lfunc_end16:
	.size	_ZN8nlohmannrsERSiRNS_10basic_jsonISt3mapSt6vectorNSt7__cxx1112basic_stringIcSt11char_traitsIcESaIcEEEblmdSaNS_14adl_serializerEEE, .Lfunc_end16-_ZN8nlohmannrsERSiRNS_10basic_jsonISt3mapSt6vectorNSt7__cxx1112basic_stringIcSt11char_traitsIcESaIcEEEblmdSaNS_14adl_serializerEEE
	.cfi_endproc
	.section	.gcc_except_table,"a",@progbits
	.p2align	2
GCC_except_table16:
.Lexception4:
	.byte	255                     # @LPStart Encoding = omit
	.byte	255                     # @TType Encoding = omit
	.byte	3                       # Call site Encoding = udata4
	.uleb128 .Lcst_end4-.Lcst_begin4
.Lcst_begin4:
	.word	.Lfunc_begin4-.Lfunc_begin4 # >> Call Site 1 <<
	.word	.Ltmp114-.Lfunc_begin4  #   Call between .Lfunc_begin4 and .Ltmp114
	.word	0                       #     has no landing pad
	.byte	0                       #   On action: cleanup
	.word	.Ltmp114-.Lfunc_begin4  # >> Call Site 2 <<
	.word	.Ltmp115-.Ltmp114       #   Call between .Ltmp114 and .Ltmp115
	.word	.Ltmp116-.Lfunc_begin4  #     jumps to .Ltmp116
	.byte	0                       #   On action: cleanup
	.word	.Ltmp117-.Lfunc_begin4  # >> Call Site 3 <<
	.word	.Ltmp118-.Ltmp117       #   Call between .Ltmp117 and .Ltmp118
	.word	.Ltmp119-.Lfunc_begin4  #     jumps to .Ltmp119
	.byte	0                       #   On action: cleanup
	.word	.Ltmp120-.Lfunc_begin4  # >> Call Site 4 <<
	.word	.Ltmp121-.Ltmp120       #   Call between .Ltmp120 and .Ltmp121
	.word	.Ltmp122-.Lfunc_begin4  #     jumps to .Ltmp122
	.byte	0                       #   On action: cleanup
	.word	.Ltmp121-.Lfunc_begin4  # >> Call Site 5 <<
	.word	.Lfunc_end16-.Ltmp121   #   Call between .Ltmp121 and .Lfunc_end16
	.word	0                       #     has no landing pad
	.byte	0                       #   On action: cleanup
.Lcst_end4:
	.p2align	2
                                        # -- End function
	.section	.text._ZN8nlohmann10basic_jsonISt3mapSt6vectorNSt7__cxx1112basic_stringIcSt11char_traitsIcESaIcEEEblmdSaNS_14adl_serializerEE4findIRA11_KcEENS_6detail9iter_implISA_EEOT_,"axG",@progbits,_ZN8nlohmann10basic_jsonISt3mapSt6vectorNSt7__cxx1112basic_stringIcSt11char_traitsIcESaIcEEEblmdSaNS_14adl_serializerEE4findIRA11_KcEENS_6detail9iter_implISA_EEOT_,comdat
	.weak	_ZN8nlohmann10basic_jsonISt3mapSt6vectorNSt7__cxx1112basic_stringIcSt11char_traitsIcESaIcEEEblmdSaNS_14adl_serializerEE4findIRA11_KcEENS_6detail9iter_implISA_EEOT_ # -- Begin function _ZN8nlohmann10basic_jsonISt3mapSt6vectorNSt7__cxx1112basic_stringIcSt11char_traitsIcESaIcEEEblmdSaNS_14adl_serializerEE4findIRA11_KcEENS_6detail9iter_implISA_EEOT_
	.p2align	2
	.type	_ZN8nlohmann10basic_jsonISt3mapSt6vectorNSt7__cxx1112basic_stringIcSt11char_traitsIcESaIcEEEblmdSaNS_14adl_serializerEE4findIRA11_KcEENS_6detail9iter_implISA_EEOT_,@function
_ZN8nlohmann10basic_jsonISt3mapSt6vectorNSt7__cxx1112basic_stringIcSt11char_traitsIcESaIcEEEblmdSaNS_14adl_serializerEE4findIRA11_KcEENS_6detail9iter_implISA_EEOT_: # @_ZN8nlohmann10basic_jsonISt3mapSt6vectorNSt7__cxx1112basic_stringIcSt11char_traitsIcESaIcEEEblmdSaNS_14adl_serializerEE4findIRA11_KcEENS_6detail9iter_implISA_EEOT_
	.cfi_startproc
# %bb.0:                                # %entry
	addi	sp, sp, -64
	.cfi_def_cfa_offset 64
	sd	ra, 56(sp)
	sd	s0, 48(sp)
	sd	s1, 40(sp)
	sd	s2, 32(sp)
	.cfi_offset ra, -8
	.cfi_offset s0, -16
	.cfi_offset s1, -24
	.cfi_offset s2, -32
	addi	s0, sp, 64
	.cfi_def_cfa s0, 0
	mv	s2, a0
	sd	s2, -40(s0)
	sd	a1, -48(s0)
	sd	a2, -56(s0)
	ld	s1, -48(s0)
	mv	a0, s2
	mv	a1, s1
	call	_ZN8nlohmann10basic_jsonISt3mapSt6vectorNSt7__cxx1112basic_stringIcSt11char_traitsIcESaIcEEEblmdSaNS_14adl_serializerEE3endEv
	mv	a0, s1
	call	_ZNK8nlohmann10basic_jsonISt3mapSt6vectorNSt7__cxx1112basic_stringIcSt11char_traitsIcESaIcEEEblmdSaNS_14adl_serializerEE9is_objectEv
	beqz	a0, .LBB17_2
	j	.LBB17_1
.LBB17_1:                               # %if.then
	ld	s1, 8(s1)
	ld	a0, -56(s0)
	call	_ZSt7forwardIRA11_KcEOT_RNSt16remove_referenceIS3_E4typeE
	mv	a1, a0
	mv	a0, s1
	call	_ZNSt3mapINSt7__cxx1112basic_stringIcSt11char_traitsIcESaIcEEEN8nlohmann10basic_jsonIS_St6vectorS5_blmdSaNS6_14adl_serializerEEESt4lessIvESaISt4pairIKS5_SA_EEE4findIA11_cEEDTcldtdtdefpT4_M_t10_M_find_trfp_EERKT_
	sd	a0, -64(s0)
	ld	a0, -64(s0)
	sd	a0, 8(s2)
	j	.LBB17_2
.LBB17_2:                               # %if.end
	ld	s2, 32(sp)
	ld	s1, 40(sp)
	ld	s0, 48(sp)
	.cfi_def_cfa sp, 64
	ld	ra, 56(sp)
	.cfi_restore ra
	.cfi_restore s0
	.cfi_restore s1
	.cfi_restore s2
	addi	sp, sp, 64
	.cfi_def_cfa_offset 0
	ret
.Lfunc_end17:
	.size	_ZN8nlohmann10basic_jsonISt3mapSt6vectorNSt7__cxx1112basic_stringIcSt11char_traitsIcESaIcEEEblmdSaNS_14adl_serializerEE4findIRA11_KcEENS_6detail9iter_implISA_EEOT_, .Lfunc_end17-_ZN8nlohmann10basic_jsonISt3mapSt6vectorNSt7__cxx1112basic_stringIcSt11char_traitsIcESaIcEEEblmdSaNS_14adl_serializerEE4findIRA11_KcEENS_6detail9iter_implISA_EEOT_
	.cfi_endproc
                                        # -- End function
	.section	.text._ZNK8nlohmann6detail9iter_implINS_10basic_jsonISt3mapSt6vectorNSt7__cxx1112basic_stringIcSt11char_traitsIcESaIcEEEblmdSaNS_14adl_serializerEEEEneERKSD_,"axG",@progbits,_ZNK8nlohmann6detail9iter_implINS_10basic_jsonISt3mapSt6vectorNSt7__cxx1112basic_stringIcSt11char_traitsIcESaIcEEEblmdSaNS_14adl_serializerEEEEneERKSD_,comdat
	.weak	_ZNK8nlohmann6detail9iter_implINS_10basic_jsonISt3mapSt6vectorNSt7__cxx1112basic_stringIcSt11char_traitsIcESaIcEEEblmdSaNS_14adl_serializerEEEEneERKSD_ # -- Begin function _ZNK8nlohmann6detail9iter_implINS_10basic_jsonISt3mapSt6vectorNSt7__cxx1112basic_stringIcSt11char_traitsIcESaIcEEEblmdSaNS_14adl_serializerEEEEneERKSD_
	.p2align	2
	.type	_ZNK8nlohmann6detail9iter_implINS_10basic_jsonISt3mapSt6vectorNSt7__cxx1112basic_stringIcSt11char_traitsIcESaIcEEEblmdSaNS_14adl_serializerEEEEneERKSD_,@function
_ZNK8nlohmann6detail9iter_implINS_10basic_jsonISt3mapSt6vectorNSt7__cxx1112basic_stringIcSt11char_traitsIcESaIcEEEblmdSaNS_14adl_serializerEEEEneERKSD_: # @_ZNK8nlohmann6detail9iter_implINS_10basic_jsonISt3mapSt6vectorNSt7__cxx1112basic_stringIcSt11char_traitsIcESaIcEEEblmdSaNS_14adl_serializerEEEEneERKSD_
	.cfi_startproc
# %bb.0:                                # %entry
	addi	sp, sp, -32
	.cfi_def_cfa_offset 32
	sd	ra, 24(sp)
	sd	s0, 16(sp)
	.cfi_offset ra, -8
	.cfi_offset s0, -16
	addi	s0, sp, 32
	.cfi_def_cfa s0, 0
	sd	a0, -24(s0)
	sd	a1, -32(s0)
	ld	a0, -24(s0)
	ld	a1, -32(s0)
	call	_ZNK8nlohmann6detail9iter_implINS_10basic_jsonISt3mapSt6vectorNSt7__cxx1112basic_stringIcSt11char_traitsIcESaIcEEEblmdSaNS_14adl_serializerEEEEeqERKSD_
	xori	a0, a0, 1
	ld	s0, 16(sp)
	.cfi_def_cfa sp, 32
	ld	ra, 24(sp)
	.cfi_restore ra
	.cfi_restore s0
	addi	sp, sp, 32
	.cfi_def_cfa_offset 0
	ret
.Lfunc_end18:
	.size	_ZNK8nlohmann6detail9iter_implINS_10basic_jsonISt3mapSt6vectorNSt7__cxx1112basic_stringIcSt11char_traitsIcESaIcEEEblmdSaNS_14adl_serializerEEEEneERKSD_, .Lfunc_end18-_ZNK8nlohmann6detail9iter_implINS_10basic_jsonISt3mapSt6vectorNSt7__cxx1112basic_stringIcSt11char_traitsIcESaIcEEEblmdSaNS_14adl_serializerEEEEneERKSD_
	.cfi_endproc
                                        # -- End function
	.section	.text._ZN8nlohmann10basic_jsonISt3mapSt6vectorNSt7__cxx1112basic_stringIcSt11char_traitsIcESaIcEEEblmdSaNS_14adl_serializerEE3endEv,"axG",@progbits,_ZN8nlohmann10basic_jsonISt3mapSt6vectorNSt7__cxx1112basic_stringIcSt11char_traitsIcESaIcEEEblmdSaNS_14adl_serializerEE3endEv,comdat
	.weak	_ZN8nlohmann10basic_jsonISt3mapSt6vectorNSt7__cxx1112basic_stringIcSt11char_traitsIcESaIcEEEblmdSaNS_14adl_serializerEE3endEv # -- Begin function _ZN8nlohmann10basic_jsonISt3mapSt6vectorNSt7__cxx1112basic_stringIcSt11char_traitsIcESaIcEEEblmdSaNS_14adl_serializerEE3endEv
	.p2align	2
	.type	_ZN8nlohmann10basic_jsonISt3mapSt6vectorNSt7__cxx1112basic_stringIcSt11char_traitsIcESaIcEEEblmdSaNS_14adl_serializerEE3endEv,@function
_ZN8nlohmann10basic_jsonISt3mapSt6vectorNSt7__cxx1112basic_stringIcSt11char_traitsIcESaIcEEEblmdSaNS_14adl_serializerEE3endEv: # @_ZN8nlohmann10basic_jsonISt3mapSt6vectorNSt7__cxx1112basic_stringIcSt11char_traitsIcESaIcEEEblmdSaNS_14adl_serializerEE3endEv
# %bb.0:                                # %entry
	addi	sp, sp, -48
	sd	ra, 40(sp)
	sd	s0, 32(sp)
	sd	s1, 24(sp)
	addi	s0, sp, 48
	mv	s1, a0
	sd	s1, -32(s0)
	sd	a1, -40(s0)
	ld	a1, -40(s0)
	mv	a0, s1
	call	_ZN8nlohmann6detail9iter_implINS_10basic_jsonISt3mapSt6vectorNSt7__cxx1112basic_stringIcSt11char_traitsIcESaIcEEEblmdSaNS_14adl_serializerEEEEC2EPSC_
	mv	a0, s1
	call	_ZN8nlohmann6detail9iter_implINS_10basic_jsonISt3mapSt6vectorNSt7__cxx1112basic_stringIcSt11char_traitsIcESaIcEEEblmdSaNS_14adl_serializerEEEE7set_endEv
	ld	s1, 24(sp)
	ld	s0, 32(sp)
	ld	ra, 40(sp)
	addi	sp, sp, 48
	ret
.Lfunc_end19:
	.size	_ZN8nlohmann10basic_jsonISt3mapSt6vectorNSt7__cxx1112basic_stringIcSt11char_traitsIcESaIcEEEblmdSaNS_14adl_serializerEE3endEv, .Lfunc_end19-_ZN8nlohmann10basic_jsonISt3mapSt6vectorNSt7__cxx1112basic_stringIcSt11char_traitsIcESaIcEEEblmdSaNS_14adl_serializerEE3endEv
                                        # -- End function
	.section	.text._ZN8nlohmann10basic_jsonISt3mapSt6vectorNSt7__cxx1112basic_stringIcSt11char_traitsIcESaIcEEEblmdSaNS_14adl_serializerEE2atERKS8_,"axG",@progbits,_ZN8nlohmann10basic_jsonISt3mapSt6vectorNSt7__cxx1112basic_stringIcSt11char_traitsIcESaIcEEEblmdSaNS_14adl_serializerEE2atERKS8_,comdat
	.weak	_ZN8nlohmann10basic_jsonISt3mapSt6vectorNSt7__cxx1112basic_stringIcSt11char_traitsIcESaIcEEEblmdSaNS_14adl_serializerEE2atERKS8_ # -- Begin function _ZN8nlohmann10basic_jsonISt3mapSt6vectorNSt7__cxx1112basic_stringIcSt11char_traitsIcESaIcEEEblmdSaNS_14adl_serializerEE2atERKS8_
	.p2align	2
	.type	_ZN8nlohmann10basic_jsonISt3mapSt6vectorNSt7__cxx1112basic_stringIcSt11char_traitsIcESaIcEEEblmdSaNS_14adl_serializerEE2atERKS8_,@function
_ZN8nlohmann10basic_jsonISt3mapSt6vectorNSt7__cxx1112basic_stringIcSt11char_traitsIcESaIcEEEblmdSaNS_14adl_serializerEE2atERKS8_: # @_ZN8nlohmann10basic_jsonISt3mapSt6vectorNSt7__cxx1112basic_stringIcSt11char_traitsIcESaIcEEEblmdSaNS_14adl_serializerEE2atERKS8_
.Lfunc_begin5:
	.cfi_startproc
	.cfi_personality 155, DW.ref.__gxx_personality_v0
	.cfi_lsda 27, .Lexception5
# %bb.0:                                # %entry
	addi	sp, sp, -240
	.cfi_def_cfa_offset 240
	sd	ra, 232(sp)
	sd	s0, 224(sp)
	sd	s1, 216(sp)
	sd	s2, 208(sp)
	sd	s3, 200(sp)
	.cfi_offset ra, -8
	.cfi_offset s0, -16
	.cfi_offset s1, -24
	.cfi_offset s2, -32
	.cfi_offset s3, -40
	addi	s0, sp, 240
	.cfi_def_cfa s0, 0
	sd	a0, -48(s0)
	sd	a1, -56(s0)
	ld	s1, -48(s0)
	mv	a0, s1
	call	_ZNK8nlohmann10basic_jsonISt3mapSt6vectorNSt7__cxx1112basic_stringIcSt11char_traitsIcESaIcEEEblmdSaNS_14adl_serializerEE9is_objectEv
	beqz	a0, .LBB20_17
	j	.LBB20_1
.LBB20_1:                               # %if.then
	ld	a0, 8(s1)
	ld	a1, -56(s0)
.Ltmp134:
	call	_ZNSt3mapINSt7__cxx1112basic_stringIcSt11char_traitsIcESaIcEEEN8nlohmann10basic_jsonIS_St6vectorS5_blmdSaNS6_14adl_serializerEEESt4lessIvESaISt4pairIKS5_SA_EEE2atERSE_
.Ltmp135:
	j	.LBB20_2
.LBB20_2:                               # %invoke.cont
	ld	s3, 200(sp)
	ld	s2, 208(sp)
	ld	s1, 216(sp)
	ld	s0, 224(sp)
	.cfi_def_cfa sp, 240
	ld	ra, 232(sp)
	.cfi_restore ra
	.cfi_restore s0
	.cfi_restore s1
	.cfi_restore s2
	.cfi_restore s3
	addi	sp, sp, 240
	.cfi_def_cfa_offset 0
	ret
.LBB20_3:                               # %lpad
.Ltmp136:
	sd	a0, -64(s0)
	sw	a1, -68(s0)
	j	.LBB20_4
.LBB20_4:                               # %catch.dispatch
	lw	a0, -68(s0)
	addi	a1, zero, 1
	bne	a0, a1, .LBB20_28
	j	.LBB20_5
.LBB20_5:                               # %catch
	ld	a0, -64(s0)
	call	__cxa_begin_catch
	sd	a0, -80(s0)
	addi	a0, zero, 32
	call	__cxa_allocate_exception
	mv	s1, a0
	addi	a0, zero, 1
	sb	a0, -145(s0)
	ld	a2, -56(s0)
.Ltmp137:
	lui	a0, %hi(.L.str.135)
	addi	a1, a0, %lo(.L.str.135)
	addi	a0, s0, -144
	call	_ZStplIcSt11char_traitsIcESaIcEENSt7__cxx1112basic_stringIT_T0_T1_EEPKS5_RKS8_
.Ltmp138:
	j	.LBB20_6
.LBB20_6:                               # %invoke.cont6
.Ltmp140:
	lui	a0, %hi(.L.str.136)
	addi	a2, a0, %lo(.L.str.136)
	addi	a0, s0, -112
	addi	a1, s0, -144
	call	_ZStplIcSt11char_traitsIcESaIcEENSt7__cxx1112basic_stringIT_T0_T1_EEOS8_PKS5_
.Ltmp141:
	j	.LBB20_7
.LBB20_7:                               # %invoke.cont8
.Ltmp143:
	addi	a2, s0, -112
	mv	a0, s1
	addi	a1, zero, 403
	call	_ZN8nlohmann6detail12out_of_range6createEiRKNSt7__cxx1112basic_stringIcSt11char_traitsIcESaIcEEE
.Ltmp144:
	j	.LBB20_8
.LBB20_8:                               # %invoke.cont10
	sb	zero, -145(s0)
.Ltmp145:
	lui	a0, %hi(_ZTIN8nlohmann6detail12out_of_rangeE)
	addi	a1, a0, %lo(_ZTIN8nlohmann6detail12out_of_rangeE)
	lui	a0, %hi(_ZN8nlohmann6detail12out_of_rangeD2Ev)
	addi	a2, a0, %lo(_ZN8nlohmann6detail12out_of_rangeD2Ev)
	mv	a0, s1
	call	__cxa_throw
.Ltmp146:
	j	.LBB20_30
.LBB20_9:                               # %lpad5
.Ltmp139:
	sd	a0, -64(s0)
	sw	a1, -68(s0)
	j	.LBB20_13
.LBB20_10:                              # %lpad7
.Ltmp142:
	sd	a0, -64(s0)
	sw	a1, -68(s0)
	j	.LBB20_12
.LBB20_11:                              # %lpad9
.Ltmp147:
	sd	a0, -64(s0)
	sw	a1, -68(s0)
	addi	a0, s0, -112
	call	_ZNSt7__cxx1112basic_stringIcSt11char_traitsIcESaIcEED1Ev
	j	.LBB20_12
.LBB20_12:                              # %ehcleanup
	addi	a0, s0, -144
	call	_ZNSt7__cxx1112basic_stringIcSt11char_traitsIcESaIcEED1Ev
	j	.LBB20_13
.LBB20_13:                              # %ehcleanup11
	lbu	a0, -145(s0)
	beqz	a0, .LBB20_15
	j	.LBB20_14
.LBB20_14:                              # %cleanup.action
	mv	a0, s1
	call	__cxa_free_exception
	j	.LBB20_15
.LBB20_15:                              # %cleanup.done
.Ltmp148:
	call	__cxa_end_catch
.Ltmp149:
	j	.LBB20_16
.LBB20_16:                              # %invoke.cont13
	j	.LBB20_28
.LBB20_17:                              # %if.else
	addi	a0, zero, 32
	call	__cxa_allocate_exception
	mv	s2, a0
	addi	a0, zero, 1
	sb	a0, -225(s0)
	mv	a0, s1
	call	_ZNK8nlohmann10basic_jsonISt3mapSt6vectorNSt7__cxx1112basic_stringIcSt11char_traitsIcESaIcEEEblmdSaNS_14adl_serializerEE9type_nameEv
	mv	s1, a0
	addi	s3, s0, -224
	mv	a0, s3
	call	_ZNSaIcEC1Ev
.Ltmp123:
	addi	a0, s0, -216
	mv	a1, s1
	mv	a2, s3
	call	_ZNSt7__cxx1112basic_stringIcSt11char_traitsIcESaIcEEC2IS3_EEPKcRKS3_
.Ltmp124:
	j	.LBB20_18
.LBB20_18:                              # %invoke.cont20
.Ltmp126:
	lui	a0, %hi(.L.str.137)
	addi	a1, a0, %lo(.L.str.137)
	addi	a0, s0, -184
	addi	a2, s0, -216
	call	_ZStplIcSt11char_traitsIcESaIcEENSt7__cxx1112basic_stringIT_T0_T1_EEPKS5_OS8_
.Ltmp127:
	j	.LBB20_19
.LBB20_19:                              # %invoke.cont22
.Ltmp129:
	addi	a2, s0, -184
	mv	a0, s2
	addi	a1, zero, 304
	call	_ZN8nlohmann6detail10type_error6createEiRKNSt7__cxx1112basic_stringIcSt11char_traitsIcESaIcEEE
.Ltmp130:
	j	.LBB20_20
.LBB20_20:                              # %invoke.cont24
	sb	zero, -225(s0)
.Ltmp131:
	lui	a0, %hi(_ZTIN8nlohmann6detail10type_errorE)
	addi	a1, a0, %lo(_ZTIN8nlohmann6detail10type_errorE)
	lui	a0, %hi(_ZN8nlohmann6detail10type_errorD2Ev)
	addi	a2, a0, %lo(_ZN8nlohmann6detail10type_errorD2Ev)
	mv	a0, s2
	call	__cxa_throw
.Ltmp132:
	j	.LBB20_30
.LBB20_21:                              # %lpad19
.Ltmp125:
	sd	a0, -64(s0)
	sw	a1, -68(s0)
	j	.LBB20_25
.LBB20_22:                              # %lpad21
.Ltmp128:
	sd	a0, -64(s0)
	sw	a1, -68(s0)
	j	.LBB20_24
.LBB20_23:                              # %lpad23
.Ltmp133:
	sd	a0, -64(s0)
	sw	a1, -68(s0)
	addi	a0, s0, -184
	call	_ZNSt7__cxx1112basic_stringIcSt11char_traitsIcESaIcEED1Ev
	j	.LBB20_24
.LBB20_24:                              # %ehcleanup27
	addi	a0, s0, -216
	call	_ZNSt7__cxx1112basic_stringIcSt11char_traitsIcESaIcEED1Ev
	j	.LBB20_25
.LBB20_25:                              # %ehcleanup28
	addi	a0, s0, -224
	call	_ZNSaIcED1Ev
	lbu	a0, -225(s0)
	beqz	a0, .LBB20_27
	j	.LBB20_26
.LBB20_26:                              # %cleanup.action31
	mv	a0, s2
	call	__cxa_free_exception
	j	.LBB20_27
.LBB20_27:                              # %cleanup.done32
	j	.LBB20_28
.LBB20_28:                              # %eh.resume
	ld	a0, -64(s0)
	call	_Unwind_Resume
.LBB20_29:                              # %terminate.lpad
.Ltmp150:
	call	__clang_call_terminate
.LBB20_30:                              # %unreachable
.Lfunc_end20:
	.size	_ZN8nlohmann10basic_jsonISt3mapSt6vectorNSt7__cxx1112basic_stringIcSt11char_traitsIcESaIcEEEblmdSaNS_14adl_serializerEE2atERKS8_, .Lfunc_end20-_ZN8nlohmann10basic_jsonISt3mapSt6vectorNSt7__cxx1112basic_stringIcSt11char_traitsIcESaIcEEEblmdSaNS_14adl_serializerEE2atERKS8_
	.cfi_endproc
	.section	.gcc_except_table,"a",@progbits
	.p2align	2
GCC_except_table20:
.Lexception5:
	.byte	255                     # @LPStart Encoding = omit
	.byte	155                     # @TType Encoding = indirect pcrel sdata4
	.uleb128 .Lttbase1-.Lttbaseref1
.Lttbaseref1:
	.byte	3                       # Call site Encoding = udata4
	.uleb128 .Lcst_end5-.Lcst_begin5
.Lcst_begin5:
	.word	.Ltmp134-.Lfunc_begin5  # >> Call Site 1 <<
	.word	.Ltmp135-.Ltmp134       #   Call between .Ltmp134 and .Ltmp135
	.word	.Ltmp136-.Lfunc_begin5  #     jumps to .Ltmp136
	.byte	1                       #   On action: 1
	.word	.Ltmp135-.Lfunc_begin5  # >> Call Site 2 <<
	.word	.Ltmp137-.Ltmp135       #   Call between .Ltmp135 and .Ltmp137
	.word	0                       #     has no landing pad
	.byte	0                       #   On action: cleanup
	.word	.Ltmp137-.Lfunc_begin5  # >> Call Site 3 <<
	.word	.Ltmp138-.Ltmp137       #   Call between .Ltmp137 and .Ltmp138
	.word	.Ltmp139-.Lfunc_begin5  #     jumps to .Ltmp139
	.byte	0                       #   On action: cleanup
	.word	.Ltmp140-.Lfunc_begin5  # >> Call Site 4 <<
	.word	.Ltmp141-.Ltmp140       #   Call between .Ltmp140 and .Ltmp141
	.word	.Ltmp142-.Lfunc_begin5  #     jumps to .Ltmp142
	.byte	0                       #   On action: cleanup
	.word	.Ltmp143-.Lfunc_begin5  # >> Call Site 5 <<
	.word	.Ltmp146-.Ltmp143       #   Call between .Ltmp143 and .Ltmp146
	.word	.Ltmp147-.Lfunc_begin5  #     jumps to .Ltmp147
	.byte	0                       #   On action: cleanup
	.word	.Ltmp146-.Lfunc_begin5  # >> Call Site 6 <<
	.word	.Ltmp148-.Ltmp146       #   Call between .Ltmp146 and .Ltmp148
	.word	0                       #     has no landing pad
	.byte	0                       #   On action: cleanup
	.word	.Ltmp148-.Lfunc_begin5  # >> Call Site 7 <<
	.word	.Ltmp149-.Ltmp148       #   Call between .Ltmp148 and .Ltmp149
	.word	.Ltmp150-.Lfunc_begin5  #     jumps to .Ltmp150
	.byte	3                       #   On action: 2
	.word	.Ltmp149-.Lfunc_begin5  # >> Call Site 8 <<
	.word	.Ltmp123-.Ltmp149       #   Call between .Ltmp149 and .Ltmp123
	.word	0                       #     has no landing pad
	.byte	0                       #   On action: cleanup
	.word	.Ltmp123-.Lfunc_begin5  # >> Call Site 9 <<
	.word	.Ltmp124-.Ltmp123       #   Call between .Ltmp123 and .Ltmp124
	.word	.Ltmp125-.Lfunc_begin5  #     jumps to .Ltmp125
	.byte	0                       #   On action: cleanup
	.word	.Ltmp126-.Lfunc_begin5  # >> Call Site 10 <<
	.word	.Ltmp127-.Ltmp126       #   Call between .Ltmp126 and .Ltmp127
	.word	.Ltmp128-.Lfunc_begin5  #     jumps to .Ltmp128
	.byte	0                       #   On action: cleanup
	.word	.Ltmp129-.Lfunc_begin5  # >> Call Site 11 <<
	.word	.Ltmp132-.Ltmp129       #   Call between .Ltmp129 and .Ltmp132
	.word	.Ltmp133-.Lfunc_begin5  #     jumps to .Ltmp133
	.byte	0                       #   On action: cleanup
	.word	.Ltmp132-.Lfunc_begin5  # >> Call Site 12 <<
	.word	.Lfunc_end20-.Ltmp132   #   Call between .Ltmp132 and .Lfunc_end20
	.word	0                       #     has no landing pad
	.byte	0                       #   On action: cleanup
.Lcst_end5:
	.byte	1                       # >> Action Record 1 <<
                                        #   Catch TypeInfo 1
	.byte	0                       #   No further actions
	.byte	2                       # >> Action Record 2 <<
                                        #   Catch TypeInfo 2
	.byte	0                       #   No further actions
	.p2align	2
                                        # >> Catch TypeInfos <<
	.word	0                       # TypeInfo 2
.Ltmp151:                               # TypeInfo 1
	.word	.L_ZTISt12out_of_range.DW.stub-.Ltmp151
.Lttbase1:
	.p2align	2
                                        # -- End function
	.section	.text._ZNSt7__cxx1112basic_stringIcSt11char_traitsIcESaIcEEC2IS3_EEPKcRKS3_,"axG",@progbits,_ZNSt7__cxx1112basic_stringIcSt11char_traitsIcESaIcEEC2IS3_EEPKcRKS3_,comdat
	.weak	_ZNSt7__cxx1112basic_stringIcSt11char_traitsIcESaIcEEC2IS3_EEPKcRKS3_ # -- Begin function _ZNSt7__cxx1112basic_stringIcSt11char_traitsIcESaIcEEC2IS3_EEPKcRKS3_
	.p2align	2
	.type	_ZNSt7__cxx1112basic_stringIcSt11char_traitsIcESaIcEEC2IS3_EEPKcRKS3_,@function
_ZNSt7__cxx1112basic_stringIcSt11char_traitsIcESaIcEEC2IS3_EEPKcRKS3_: # @_ZNSt7__cxx1112basic_stringIcSt11char_traitsIcESaIcEEC2IS3_EEPKcRKS3_
.Lfunc_begin6:
	.cfi_startproc
	.cfi_personality 155, DW.ref.__gxx_personality_v0
	.cfi_lsda 27, .Lexception6
# %bb.0:                                # %entry
	addi	sp, sp, -80
	.cfi_def_cfa_offset 80
	sd	ra, 72(sp)
	sd	s0, 64(sp)
	sd	s1, 56(sp)
	sd	s2, 48(sp)
	sd	s3, 40(sp)
	.cfi_offset ra, -8
	.cfi_offset s0, -16
	.cfi_offset s1, -24
	.cfi_offset s2, -32
	.cfi_offset s3, -40
	addi	s0, sp, 80
	.cfi_def_cfa s0, 0
	sd	a0, -48(s0)
	sd	a1, -56(s0)
	sd	a2, -64(s0)
	ld	s1, -48(s0)
	mv	a0, s1
	call	_ZNSt7__cxx1112basic_stringIcSt11char_traitsIcESaIcEE13_M_local_dataEv
	mv	a1, a0
	ld	a2, -64(s0)
	mv	a0, s1
	call	_ZNSt7__cxx1112basic_stringIcSt11char_traitsIcESaIcEE12_Alloc_hiderC1EPcRKS3_
	ld	s2, -56(s0)
	beqz	s2, .LBB21_3
	j	.LBB21_1
.LBB21_1:                               # %cond.true
	ld	s3, -56(s0)
.Ltmp152:
	mv	a0, s3
	call	_ZNSt11char_traitsIcE6lengthEPKc
.Ltmp153:
	j	.LBB21_2
.LBB21_2:                               # %invoke.cont
	add	a2, s3, a0
	j	.LBB21_4
.LBB21_3:                               # %cond.false
	ld	a0, -56(s0)
	addi	a2, a0, -1
	j	.LBB21_4
.LBB21_4:                               # %cond.end
.Ltmp154:
	mv	a0, s1
	mv	a1, s2
	call	_ZNSt7__cxx1112basic_stringIcSt11char_traitsIcESaIcEE12_M_constructIPKcEEvT_S8_
.Ltmp155:
	j	.LBB21_5
.LBB21_5:                               # %invoke.cont4
	ld	s3, 40(sp)
	ld	s2, 48(sp)
	ld	s1, 56(sp)
	ld	s0, 64(sp)
	.cfi_def_cfa sp, 80
	ld	ra, 72(sp)
	.cfi_restore ra
	.cfi_restore s0
	.cfi_restore s1
	.cfi_restore s2
	.cfi_restore s3
	addi	sp, sp, 80
	.cfi_def_cfa_offset 0
	ret
.LBB21_6:                               # %lpad
.Ltmp156:
	sd	a0, -72(s0)
	sw	a1, -76(s0)
	mv	a0, s1
	call	_ZNSt7__cxx1112basic_stringIcSt11char_traitsIcESaIcEE12_Alloc_hiderD2Ev
	j	.LBB21_7
.LBB21_7:                               # %eh.resume
	ld	a0, -72(s0)
	call	_Unwind_Resume
.Lfunc_end21:
	.size	_ZNSt7__cxx1112basic_stringIcSt11char_traitsIcESaIcEEC2IS3_EEPKcRKS3_, .Lfunc_end21-_ZNSt7__cxx1112basic_stringIcSt11char_traitsIcESaIcEEC2IS3_EEPKcRKS3_
	.cfi_endproc
	.section	.gcc_except_table,"a",@progbits
	.p2align	2
GCC_except_table21:
.Lexception6:
	.byte	255                     # @LPStart Encoding = omit
	.byte	255                     # @TType Encoding = omit
	.byte	3                       # Call site Encoding = udata4
	.uleb128 .Lcst_end6-.Lcst_begin6
.Lcst_begin6:
	.word	.Lfunc_begin6-.Lfunc_begin6 # >> Call Site 1 <<
	.word	.Ltmp152-.Lfunc_begin6  #   Call between .Lfunc_begin6 and .Ltmp152
	.word	0                       #     has no landing pad
	.byte	0                       #   On action: cleanup
	.word	.Ltmp152-.Lfunc_begin6  # >> Call Site 2 <<
	.word	.Ltmp155-.Ltmp152       #   Call between .Ltmp152 and .Ltmp155
	.word	.Ltmp156-.Lfunc_begin6  #     jumps to .Ltmp156
	.byte	0                       #   On action: cleanup
	.word	.Ltmp155-.Lfunc_begin6  # >> Call Site 3 <<
	.word	.Lfunc_end21-.Ltmp155   #   Call between .Ltmp155 and .Lfunc_end21
	.word	0                       #     has no landing pad
	.byte	0                       #   On action: cleanup
.Lcst_end6:
	.p2align	2
                                        # -- End function
	.section	.text._ZN8nlohmann10basic_jsonISt3mapSt6vectorNSt7__cxx1112basic_stringIcSt11char_traitsIcESaIcEEEblmdSaNS_14adl_serializerEE5beginEv,"axG",@progbits,_ZN8nlohmann10basic_jsonISt3mapSt6vectorNSt7__cxx1112basic_stringIcSt11char_traitsIcESaIcEEEblmdSaNS_14adl_serializerEE5beginEv,comdat
	.weak	_ZN8nlohmann10basic_jsonISt3mapSt6vectorNSt7__cxx1112basic_stringIcSt11char_traitsIcESaIcEEEblmdSaNS_14adl_serializerEE5beginEv # -- Begin function _ZN8nlohmann10basic_jsonISt3mapSt6vectorNSt7__cxx1112basic_stringIcSt11char_traitsIcESaIcEEEblmdSaNS_14adl_serializerEE5beginEv
	.p2align	2
	.type	_ZN8nlohmann10basic_jsonISt3mapSt6vectorNSt7__cxx1112basic_stringIcSt11char_traitsIcESaIcEEEblmdSaNS_14adl_serializerEE5beginEv,@function
_ZN8nlohmann10basic_jsonISt3mapSt6vectorNSt7__cxx1112basic_stringIcSt11char_traitsIcESaIcEEEblmdSaNS_14adl_serializerEE5beginEv: # @_ZN8nlohmann10basic_jsonISt3mapSt6vectorNSt7__cxx1112basic_stringIcSt11char_traitsIcESaIcEEEblmdSaNS_14adl_serializerEE5beginEv
# %bb.0:                                # %entry
	addi	sp, sp, -48
	sd	ra, 40(sp)
	sd	s0, 32(sp)
	sd	s1, 24(sp)
	addi	s0, sp, 48
	mv	s1, a0
	sd	s1, -32(s0)
	sd	a1, -40(s0)
	ld	a1, -40(s0)
	mv	a0, s1
	call	_ZN8nlohmann6detail9iter_implINS_10basic_jsonISt3mapSt6vectorNSt7__cxx1112basic_stringIcSt11char_traitsIcESaIcEEEblmdSaNS_14adl_serializerEEEEC2EPSC_
	mv	a0, s1
	call	_ZN8nlohmann6detail9iter_implINS_10basic_jsonISt3mapSt6vectorNSt7__cxx1112basic_stringIcSt11char_traitsIcESaIcEEEblmdSaNS_14adl_serializerEEEE9set_beginEv
	ld	s1, 24(sp)
	ld	s0, 32(sp)
	ld	ra, 40(sp)
	addi	sp, sp, 48
	ret
.Lfunc_end22:
	.size	_ZN8nlohmann10basic_jsonISt3mapSt6vectorNSt7__cxx1112basic_stringIcSt11char_traitsIcESaIcEEEblmdSaNS_14adl_serializerEE5beginEv, .Lfunc_end22-_ZN8nlohmann10basic_jsonISt3mapSt6vectorNSt7__cxx1112basic_stringIcSt11char_traitsIcESaIcEEEblmdSaNS_14adl_serializerEE5beginEv
                                        # -- End function
	.section	.text._ZNK8nlohmann6detail9iter_implINS_10basic_jsonISt3mapSt6vectorNSt7__cxx1112basic_stringIcSt11char_traitsIcESaIcEEEblmdSaNS_14adl_serializerEEEEdeEv,"axG",@progbits,_ZNK8nlohmann6detail9iter_implINS_10basic_jsonISt3mapSt6vectorNSt7__cxx1112basic_stringIcSt11char_traitsIcESaIcEEEblmdSaNS_14adl_serializerEEEEdeEv,comdat
	.weak	_ZNK8nlohmann6detail9iter_implINS_10basic_jsonISt3mapSt6vectorNSt7__cxx1112basic_stringIcSt11char_traitsIcESaIcEEEblmdSaNS_14adl_serializerEEEEdeEv # -- Begin function _ZNK8nlohmann6detail9iter_implINS_10basic_jsonISt3mapSt6vectorNSt7__cxx1112basic_stringIcSt11char_traitsIcESaIcEEEblmdSaNS_14adl_serializerEEEEdeEv
	.p2align	2
	.type	_ZNK8nlohmann6detail9iter_implINS_10basic_jsonISt3mapSt6vectorNSt7__cxx1112basic_stringIcSt11char_traitsIcESaIcEEEblmdSaNS_14adl_serializerEEEEdeEv,@function
_ZNK8nlohmann6detail9iter_implINS_10basic_jsonISt3mapSt6vectorNSt7__cxx1112basic_stringIcSt11char_traitsIcESaIcEEEblmdSaNS_14adl_serializerEEEEdeEv: # @_ZNK8nlohmann6detail9iter_implINS_10basic_jsonISt3mapSt6vectorNSt7__cxx1112basic_stringIcSt11char_traitsIcESaIcEEEblmdSaNS_14adl_serializerEEEEdeEv
.Lfunc_begin7:
	.cfi_startproc
	.cfi_personality 155, DW.ref.__gxx_personality_v0
	.cfi_lsda 27, .Lexception7
# %bb.0:                                # %entry
	addi	sp, sp, -160
	.cfi_def_cfa_offset 160
	sd	ra, 152(sp)
	sd	s0, 144(sp)
	sd	s1, 136(sp)
	sd	s2, 128(sp)
	.cfi_offset ra, -8
	.cfi_offset s0, -16
	.cfi_offset s1, -24
	.cfi_offset s2, -32
	addi	s0, sp, 160
	.cfi_def_cfa s0, 0
	sd	a0, -48(s0)
	ld	s1, -48(s0)
	ld	a0, 0(s1)
	lbu	a0, 0(a0)
	beqz	a0, .LBB23_5
	j	.LBB23_1
.LBB23_1:                               # %entry
	andi	a1, a0, 255
	addi	a2, zero, 1
	beq	a1, a2, .LBB23_3
	j	.LBB23_2
.LBB23_2:                               # %entry
	andi	a0, a0, 255
	addi	a1, zero, 2
	beq	a0, a1, .LBB23_4
	j	.LBB23_13
.LBB23_3:                               # %sw.bb
	addi	a0, s1, 8
	call	_ZNKSt17_Rb_tree_iteratorISt4pairIKNSt7__cxx1112basic_stringIcSt11char_traitsIcESaIcEEEN8nlohmann10basic_jsonISt3mapSt6vectorS6_blmdSaNS8_14adl_serializerEEEEEptEv
	addi	a0, a0, 32
	sd	a0, -40(s0)
	j	.LBB23_23
.LBB23_4:                               # %sw.bb2
	addi	a0, s1, 16
	call	_ZNK9__gnu_cxx17__normal_iteratorIPN8nlohmann10basic_jsonISt3mapSt6vectorNSt7__cxx1112basic_stringIcSt11char_traitsIcESaIcEEEblmdSaNS1_14adl_serializerEEES4_ISC_SaISC_EEEdeEv
	sd	a0, -40(s0)
	j	.LBB23_23
.LBB23_5:                               # %sw.bb5
	addi	a0, zero, 32
	call	__cxa_allocate_exception
	mv	s2, a0
	addi	a0, zero, 1
	sb	a0, -101(s0)
	addi	s1, s0, -88
	mv	a0, s1
	call	_ZNSaIcEC1Ev
.Ltmp157:
	lui	a0, %hi(.L.str.94)
	addi	a1, a0, %lo(.L.str.94)
	addi	a0, s0, -80
	mv	a2, s1
	call	_ZNSt7__cxx1112basic_stringIcSt11char_traitsIcESaIcEEC2IS3_EEPKcRKS3_
.Ltmp158:
	j	.LBB23_6
.LBB23_6:                               # %invoke.cont
.Ltmp160:
	addi	a2, s0, -80
	mv	a0, s2
	addi	a1, zero, 214
	call	_ZN8nlohmann6detail16invalid_iterator6createEiRKNSt7__cxx1112basic_stringIcSt11char_traitsIcESaIcEEE
.Ltmp161:
	j	.LBB23_7
.LBB23_7:                               # %invoke.cont8
	sb	zero, -101(s0)
.Ltmp162:
	lui	a0, %hi(_ZTIN8nlohmann6detail16invalid_iteratorE)
	addi	a1, a0, %lo(_ZTIN8nlohmann6detail16invalid_iteratorE)
	lui	a0, %hi(_ZN8nlohmann6detail16invalid_iteratorD2Ev)
	addi	a2, a0, %lo(_ZN8nlohmann6detail16invalid_iteratorD2Ev)
	mv	a0, s2
	call	__cxa_throw
.Ltmp163:
	j	.LBB23_25
.LBB23_8:                               # %lpad
.Ltmp159:
	sd	a0, -96(s0)
	sw	a1, -100(s0)
	j	.LBB23_10
.LBB23_9:                               # %lpad7
.Ltmp164:
	sd	a0, -96(s0)
	sw	a1, -100(s0)
	addi	a0, s0, -80
	call	_ZNSt7__cxx1112basic_stringIcSt11char_traitsIcESaIcEED1Ev
	j	.LBB23_10
.LBB23_10:                              # %ehcleanup
	addi	a0, s0, -88
	call	_ZNSaIcED1Ev
	lbu	a0, -101(s0)
	beqz	a0, .LBB23_12
	j	.LBB23_11
.LBB23_11:                              # %cleanup.action
	mv	a0, s2
	call	__cxa_free_exception
	j	.LBB23_12
.LBB23_12:                              # %cleanup.done
	j	.LBB23_24
.LBB23_13:                              # %sw.default
	addi	a0, s1, 24
	call	_ZNK8nlohmann6detail20primitive_iterator_t8is_beginEv
	beqz	a0, .LBB23_15
	j	.LBB23_14
.LBB23_14:                              # %if.then
	ld	a0, 0(s1)
	sd	a0, -40(s0)
	j	.LBB23_23
.LBB23_15:                              # %if.end
	addi	a0, zero, 32
	call	__cxa_allocate_exception
	mv	s2, a0
	addi	a0, zero, 1
	sb	a0, -145(s0)
	addi	s1, s0, -144
	mv	a0, s1
	call	_ZNSaIcEC1Ev
.Ltmp165:
	lui	a0, %hi(.L.str.94)
	addi	a1, a0, %lo(.L.str.94)
	addi	a0, s0, -136
	mv	a2, s1
	call	_ZNSt7__cxx1112basic_stringIcSt11char_traitsIcESaIcEEC2IS3_EEPKcRKS3_
.Ltmp166:
	j	.LBB23_16
.LBB23_16:                              # %invoke.cont18
.Ltmp168:
	addi	a2, s0, -136
	mv	a0, s2
	addi	a1, zero, 214
	call	_ZN8nlohmann6detail16invalid_iterator6createEiRKNSt7__cxx1112basic_stringIcSt11char_traitsIcESaIcEEE
.Ltmp169:
	j	.LBB23_17
.LBB23_17:                              # %invoke.cont20
	sb	zero, -145(s0)
.Ltmp170:
	lui	a0, %hi(_ZTIN8nlohmann6detail16invalid_iteratorE)
	addi	a1, a0, %lo(_ZTIN8nlohmann6detail16invalid_iteratorE)
	lui	a0, %hi(_ZN8nlohmann6detail16invalid_iteratorD2Ev)
	addi	a2, a0, %lo(_ZN8nlohmann6detail16invalid_iteratorD2Ev)
	mv	a0, s2
	call	__cxa_throw
.Ltmp171:
	j	.LBB23_25
.LBB23_18:                              # %lpad17
.Ltmp167:
	sd	a0, -96(s0)
	sw	a1, -100(s0)
	j	.LBB23_20
.LBB23_19:                              # %lpad19
.Ltmp172:
	sd	a0, -96(s0)
	sw	a1, -100(s0)
	addi	a0, s0, -136
	call	_ZNSt7__cxx1112basic_stringIcSt11char_traitsIcESaIcEED1Ev
	j	.LBB23_20
.LBB23_20:                              # %ehcleanup23
	addi	a0, s0, -144
	call	_ZNSaIcED1Ev
	lbu	a0, -145(s0)
	beqz	a0, .LBB23_22
	j	.LBB23_21
.LBB23_21:                              # %cleanup.action26
	mv	a0, s2
	call	__cxa_free_exception
	j	.LBB23_22
.LBB23_22:                              # %cleanup.done27
	j	.LBB23_24
.LBB23_23:                              # %return
	ld	a0, -40(s0)
	ld	s2, 128(sp)
	ld	s1, 136(sp)
	ld	s0, 144(sp)
	.cfi_def_cfa sp, 160
	ld	ra, 152(sp)
	.cfi_restore ra
	.cfi_restore s0
	.cfi_restore s1
	.cfi_restore s2
	addi	sp, sp, 160
	.cfi_def_cfa_offset 0
	ret
.LBB23_24:                              # %eh.resume
	ld	a0, -96(s0)
	call	_Unwind_Resume
.LBB23_25:                              # %unreachable
.Lfunc_end23:
	.size	_ZNK8nlohmann6detail9iter_implINS_10basic_jsonISt3mapSt6vectorNSt7__cxx1112basic_stringIcSt11char_traitsIcESaIcEEEblmdSaNS_14adl_serializerEEEEdeEv, .Lfunc_end23-_ZNK8nlohmann6detail9iter_implINS_10basic_jsonISt3mapSt6vectorNSt7__cxx1112basic_stringIcSt11char_traitsIcESaIcEEEblmdSaNS_14adl_serializerEEEEdeEv
	.cfi_endproc
	.section	.gcc_except_table,"a",@progbits
	.p2align	2
GCC_except_table23:
.Lexception7:
	.byte	255                     # @LPStart Encoding = omit
	.byte	255                     # @TType Encoding = omit
	.byte	3                       # Call site Encoding = udata4
	.uleb128 .Lcst_end7-.Lcst_begin7
.Lcst_begin7:
	.word	.Lfunc_begin7-.Lfunc_begin7 # >> Call Site 1 <<
	.word	.Ltmp157-.Lfunc_begin7  #   Call between .Lfunc_begin7 and .Ltmp157
	.word	0                       #     has no landing pad
	.byte	0                       #   On action: cleanup
	.word	.Ltmp157-.Lfunc_begin7  # >> Call Site 2 <<
	.word	.Ltmp158-.Ltmp157       #   Call between .Ltmp157 and .Ltmp158
	.word	.Ltmp159-.Lfunc_begin7  #     jumps to .Ltmp159
	.byte	0                       #   On action: cleanup
	.word	.Ltmp160-.Lfunc_begin7  # >> Call Site 3 <<
	.word	.Ltmp163-.Ltmp160       #   Call between .Ltmp160 and .Ltmp163
	.word	.Ltmp164-.Lfunc_begin7  #     jumps to .Ltmp164
	.byte	0                       #   On action: cleanup
	.word	.Ltmp163-.Lfunc_begin7  # >> Call Site 4 <<
	.word	.Ltmp165-.Ltmp163       #   Call between .Ltmp163 and .Ltmp165
	.word	0                       #     has no landing pad
	.byte	0                       #   On action: cleanup
	.word	.Ltmp165-.Lfunc_begin7  # >> Call Site 5 <<
	.word	.Ltmp166-.Ltmp165       #   Call between .Ltmp165 and .Ltmp166
	.word	.Ltmp167-.Lfunc_begin7  #     jumps to .Ltmp167
	.byte	0                       #   On action: cleanup
	.word	.Ltmp168-.Lfunc_begin7  # >> Call Site 6 <<
	.word	.Ltmp171-.Ltmp168       #   Call between .Ltmp168 and .Ltmp171
	.word	.Ltmp172-.Lfunc_begin7  #     jumps to .Ltmp172
	.byte	0                       #   On action: cleanup
	.word	.Ltmp171-.Lfunc_begin7  # >> Call Site 7 <<
	.word	.Lfunc_end23-.Ltmp171   #   Call between .Ltmp171 and .Lfunc_end23
	.word	0                       #     has no landing pad
	.byte	0                       #   On action: cleanup
.Lcst_end7:
	.p2align	2
                                        # -- End function
	.section	.text._ZNK8nlohmann10basic_jsonISt3mapSt6vectorNSt7__cxx1112basic_stringIcSt11char_traitsIcESaIcEEEblmdSaNS_14adl_serializerEE2atERKS8_,"axG",@progbits,_ZNK8nlohmann10basic_jsonISt3mapSt6vectorNSt7__cxx1112basic_stringIcSt11char_traitsIcESaIcEEEblmdSaNS_14adl_serializerEE2atERKS8_,comdat
	.weak	_ZNK8nlohmann10basic_jsonISt3mapSt6vectorNSt7__cxx1112basic_stringIcSt11char_traitsIcESaIcEEEblmdSaNS_14adl_serializerEE2atERKS8_ # -- Begin function _ZNK8nlohmann10basic_jsonISt3mapSt6vectorNSt7__cxx1112basic_stringIcSt11char_traitsIcESaIcEEEblmdSaNS_14adl_serializerEE2atERKS8_
	.p2align	2
	.type	_ZNK8nlohmann10basic_jsonISt3mapSt6vectorNSt7__cxx1112basic_stringIcSt11char_traitsIcESaIcEEEblmdSaNS_14adl_serializerEE2atERKS8_,@function
_ZNK8nlohmann10basic_jsonISt3mapSt6vectorNSt7__cxx1112basic_stringIcSt11char_traitsIcESaIcEEEblmdSaNS_14adl_serializerEE2atERKS8_: # @_ZNK8nlohmann10basic_jsonISt3mapSt6vectorNSt7__cxx1112basic_stringIcSt11char_traitsIcESaIcEEEblmdSaNS_14adl_serializerEE2atERKS8_
.Lfunc_begin8:
	.cfi_startproc
	.cfi_personality 155, DW.ref.__gxx_personality_v0
	.cfi_lsda 27, .Lexception8
# %bb.0:                                # %entry
	addi	sp, sp, -240
	.cfi_def_cfa_offset 240
	sd	ra, 232(sp)
	sd	s0, 224(sp)
	sd	s1, 216(sp)
	sd	s2, 208(sp)
	sd	s3, 200(sp)
	.cfi_offset ra, -8
	.cfi_offset s0, -16
	.cfi_offset s1, -24
	.cfi_offset s2, -32
	.cfi_offset s3, -40
	addi	s0, sp, 240
	.cfi_def_cfa s0, 0
	sd	a0, -48(s0)
	sd	a1, -56(s0)
	ld	s1, -48(s0)
	mv	a0, s1
	call	_ZNK8nlohmann10basic_jsonISt3mapSt6vectorNSt7__cxx1112basic_stringIcSt11char_traitsIcESaIcEEEblmdSaNS_14adl_serializerEE9is_objectEv
	beqz	a0, .LBB24_17
	j	.LBB24_1
.LBB24_1:                               # %if.then
	ld	a0, 8(s1)
	ld	a1, -56(s0)
.Ltmp184:
	call	_ZNSt3mapINSt7__cxx1112basic_stringIcSt11char_traitsIcESaIcEEEN8nlohmann10basic_jsonIS_St6vectorS5_blmdSaNS6_14adl_serializerEEESt4lessIvESaISt4pairIKS5_SA_EEE2atERSE_
.Ltmp185:
	j	.LBB24_2
.LBB24_2:                               # %invoke.cont
	ld	s3, 200(sp)
	ld	s2, 208(sp)
	ld	s1, 216(sp)
	ld	s0, 224(sp)
	.cfi_def_cfa sp, 240
	ld	ra, 232(sp)
	.cfi_restore ra
	.cfi_restore s0
	.cfi_restore s1
	.cfi_restore s2
	.cfi_restore s3
	addi	sp, sp, 240
	.cfi_def_cfa_offset 0
	ret
.LBB24_3:                               # %lpad
.Ltmp186:
	sd	a0, -64(s0)
	sw	a1, -68(s0)
	j	.LBB24_4
.LBB24_4:                               # %catch.dispatch
	lw	a0, -68(s0)
	addi	a1, zero, 1
	bne	a0, a1, .LBB24_28
	j	.LBB24_5
.LBB24_5:                               # %catch
	ld	a0, -64(s0)
	call	__cxa_begin_catch
	sd	a0, -80(s0)
	addi	a0, zero, 32
	call	__cxa_allocate_exception
	mv	s1, a0
	addi	a0, zero, 1
	sb	a0, -145(s0)
	ld	a2, -56(s0)
.Ltmp187:
	lui	a0, %hi(.L.str.135)
	addi	a1, a0, %lo(.L.str.135)
	addi	a0, s0, -144
	call	_ZStplIcSt11char_traitsIcESaIcEENSt7__cxx1112basic_stringIT_T0_T1_EEPKS5_RKS8_
.Ltmp188:
	j	.LBB24_6
.LBB24_6:                               # %invoke.cont6
.Ltmp190:
	lui	a0, %hi(.L.str.136)
	addi	a2, a0, %lo(.L.str.136)
	addi	a0, s0, -112
	addi	a1, s0, -144
	call	_ZStplIcSt11char_traitsIcESaIcEENSt7__cxx1112basic_stringIT_T0_T1_EEOS8_PKS5_
.Ltmp191:
	j	.LBB24_7
.LBB24_7:                               # %invoke.cont8
.Ltmp193:
	addi	a2, s0, -112
	mv	a0, s1
	addi	a1, zero, 403
	call	_ZN8nlohmann6detail12out_of_range6createEiRKNSt7__cxx1112basic_stringIcSt11char_traitsIcESaIcEEE
.Ltmp194:
	j	.LBB24_8
.LBB24_8:                               # %invoke.cont10
	sb	zero, -145(s0)
.Ltmp195:
	lui	a0, %hi(_ZTIN8nlohmann6detail12out_of_rangeE)
	addi	a1, a0, %lo(_ZTIN8nlohmann6detail12out_of_rangeE)
	lui	a0, %hi(_ZN8nlohmann6detail12out_of_rangeD2Ev)
	addi	a2, a0, %lo(_ZN8nlohmann6detail12out_of_rangeD2Ev)
	mv	a0, s1
	call	__cxa_throw
.Ltmp196:
	j	.LBB24_30
.LBB24_9:                               # %lpad5
.Ltmp189:
	sd	a0, -64(s0)
	sw	a1, -68(s0)
	j	.LBB24_13
.LBB24_10:                              # %lpad7
.Ltmp192:
	sd	a0, -64(s0)
	sw	a1, -68(s0)
	j	.LBB24_12
.LBB24_11:                              # %lpad9
.Ltmp197:
	sd	a0, -64(s0)
	sw	a1, -68(s0)
	addi	a0, s0, -112
	call	_ZNSt7__cxx1112basic_stringIcSt11char_traitsIcESaIcEED1Ev
	j	.LBB24_12
.LBB24_12:                              # %ehcleanup
	addi	a0, s0, -144
	call	_ZNSt7__cxx1112basic_stringIcSt11char_traitsIcESaIcEED1Ev
	j	.LBB24_13
.LBB24_13:                              # %ehcleanup11
	lbu	a0, -145(s0)
	beqz	a0, .LBB24_15
	j	.LBB24_14
.LBB24_14:                              # %cleanup.action
	mv	a0, s1
	call	__cxa_free_exception
	j	.LBB24_15
.LBB24_15:                              # %cleanup.done
.Ltmp198:
	call	__cxa_end_catch
.Ltmp199:
	j	.LBB24_16
.LBB24_16:                              # %invoke.cont13
	j	.LBB24_28
.LBB24_17:                              # %if.else
	addi	a0, zero, 32
	call	__cxa_allocate_exception
	mv	s2, a0
	addi	a0, zero, 1
	sb	a0, -225(s0)
	mv	a0, s1
	call	_ZNK8nlohmann10basic_jsonISt3mapSt6vectorNSt7__cxx1112basic_stringIcSt11char_traitsIcESaIcEEEblmdSaNS_14adl_serializerEE9type_nameEv
	mv	s1, a0
	addi	s3, s0, -224
	mv	a0, s3
	call	_ZNSaIcEC1Ev
.Ltmp173:
	addi	a0, s0, -216
	mv	a1, s1
	mv	a2, s3
	call	_ZNSt7__cxx1112basic_stringIcSt11char_traitsIcESaIcEEC2IS3_EEPKcRKS3_
.Ltmp174:
	j	.LBB24_18
.LBB24_18:                              # %invoke.cont20
.Ltmp176:
	lui	a0, %hi(.L.str.137)
	addi	a1, a0, %lo(.L.str.137)
	addi	a0, s0, -184
	addi	a2, s0, -216
	call	_ZStplIcSt11char_traitsIcESaIcEENSt7__cxx1112basic_stringIT_T0_T1_EEPKS5_OS8_
.Ltmp177:
	j	.LBB24_19
.LBB24_19:                              # %invoke.cont22
.Ltmp179:
	addi	a2, s0, -184
	mv	a0, s2
	addi	a1, zero, 304
	call	_ZN8nlohmann6detail10type_error6createEiRKNSt7__cxx1112basic_stringIcSt11char_traitsIcESaIcEEE
.Ltmp180:
	j	.LBB24_20
.LBB24_20:                              # %invoke.cont24
	sb	zero, -225(s0)
.Ltmp181:
	lui	a0, %hi(_ZTIN8nlohmann6detail10type_errorE)
	addi	a1, a0, %lo(_ZTIN8nlohmann6detail10type_errorE)
	lui	a0, %hi(_ZN8nlohmann6detail10type_errorD2Ev)
	addi	a2, a0, %lo(_ZN8nlohmann6detail10type_errorD2Ev)
	mv	a0, s2
	call	__cxa_throw
.Ltmp182:
	j	.LBB24_30
.LBB24_21:                              # %lpad19
.Ltmp175:
	sd	a0, -64(s0)
	sw	a1, -68(s0)
	j	.LBB24_25
.LBB24_22:                              # %lpad21
.Ltmp178:
	sd	a0, -64(s0)
	sw	a1, -68(s0)
	j	.LBB24_24
.LBB24_23:                              # %lpad23
.Ltmp183:
	sd	a0, -64(s0)
	sw	a1, -68(s0)
	addi	a0, s0, -184
	call	_ZNSt7__cxx1112basic_stringIcSt11char_traitsIcESaIcEED1Ev
	j	.LBB24_24
.LBB24_24:                              # %ehcleanup27
	addi	a0, s0, -216
	call	_ZNSt7__cxx1112basic_stringIcSt11char_traitsIcESaIcEED1Ev
	j	.LBB24_25
.LBB24_25:                              # %ehcleanup28
	addi	a0, s0, -224
	call	_ZNSaIcED1Ev
	lbu	a0, -225(s0)
	beqz	a0, .LBB24_27
	j	.LBB24_26
.LBB24_26:                              # %cleanup.action31
	mv	a0, s2
	call	__cxa_free_exception
	j	.LBB24_27
.LBB24_27:                              # %cleanup.done32
	j	.LBB24_28
.LBB24_28:                              # %eh.resume
	ld	a0, -64(s0)
	call	_Unwind_Resume
.LBB24_29:                              # %terminate.lpad
.Ltmp200:
	call	__clang_call_terminate
.LBB24_30:                              # %unreachable
.Lfunc_end24:
	.size	_ZNK8nlohmann10basic_jsonISt3mapSt6vectorNSt7__cxx1112basic_stringIcSt11char_traitsIcESaIcEEEblmdSaNS_14adl_serializerEE2atERKS8_, .Lfunc_end24-_ZNK8nlohmann10basic_jsonISt3mapSt6vectorNSt7__cxx1112basic_stringIcSt11char_traitsIcESaIcEEEblmdSaNS_14adl_serializerEE2atERKS8_
	.cfi_endproc
	.section	.gcc_except_table,"a",@progbits
	.p2align	2
GCC_except_table24:
.Lexception8:
	.byte	255                     # @LPStart Encoding = omit
	.byte	155                     # @TType Encoding = indirect pcrel sdata4
	.uleb128 .Lttbase2-.Lttbaseref2
.Lttbaseref2:
	.byte	3                       # Call site Encoding = udata4
	.uleb128 .Lcst_end8-.Lcst_begin8
.Lcst_begin8:
	.word	.Ltmp184-.Lfunc_begin8  # >> Call Site 1 <<
	.word	.Ltmp185-.Ltmp184       #   Call between .Ltmp184 and .Ltmp185
	.word	.Ltmp186-.Lfunc_begin8  #     jumps to .Ltmp186
	.byte	1                       #   On action: 1
	.word	.Ltmp185-.Lfunc_begin8  # >> Call Site 2 <<
	.word	.Ltmp187-.Ltmp185       #   Call between .Ltmp185 and .Ltmp187
	.word	0                       #     has no landing pad
	.byte	0                       #   On action: cleanup
	.word	.Ltmp187-.Lfunc_begin8  # >> Call Site 3 <<
	.word	.Ltmp188-.Ltmp187       #   Call between .Ltmp187 and .Ltmp188
	.word	.Ltmp189-.Lfunc_begin8  #     jumps to .Ltmp189
	.byte	0                       #   On action: cleanup
	.word	.Ltmp190-.Lfunc_begin8  # >> Call Site 4 <<
	.word	.Ltmp191-.Ltmp190       #   Call between .Ltmp190 and .Ltmp191
	.word	.Ltmp192-.Lfunc_begin8  #     jumps to .Ltmp192
	.byte	0                       #   On action: cleanup
	.word	.Ltmp193-.Lfunc_begin8  # >> Call Site 5 <<
	.word	.Ltmp196-.Ltmp193       #   Call between .Ltmp193 and .Ltmp196
	.word	.Ltmp197-.Lfunc_begin8  #     jumps to .Ltmp197
	.byte	0                       #   On action: cleanup
	.word	.Ltmp196-.Lfunc_begin8  # >> Call Site 6 <<
	.word	.Ltmp198-.Ltmp196       #   Call between .Ltmp196 and .Ltmp198
	.word	0                       #     has no landing pad
	.byte	0                       #   On action: cleanup
	.word	.Ltmp198-.Lfunc_begin8  # >> Call Site 7 <<
	.word	.Ltmp199-.Ltmp198       #   Call between .Ltmp198 and .Ltmp199
	.word	.Ltmp200-.Lfunc_begin8  #     jumps to .Ltmp200
	.byte	3                       #   On action: 2
	.word	.Ltmp199-.Lfunc_begin8  # >> Call Site 8 <<
	.word	.Ltmp173-.Ltmp199       #   Call between .Ltmp199 and .Ltmp173
	.word	0                       #     has no landing pad
	.byte	0                       #   On action: cleanup
	.word	.Ltmp173-.Lfunc_begin8  # >> Call Site 9 <<
	.word	.Ltmp174-.Ltmp173       #   Call between .Ltmp173 and .Ltmp174
	.word	.Ltmp175-.Lfunc_begin8  #     jumps to .Ltmp175
	.byte	0                       #   On action: cleanup
	.word	.Ltmp176-.Lfunc_begin8  # >> Call Site 10 <<
	.word	.Ltmp177-.Ltmp176       #   Call between .Ltmp176 and .Ltmp177
	.word	.Ltmp178-.Lfunc_begin8  #     jumps to .Ltmp178
	.byte	0                       #   On action: cleanup
	.word	.Ltmp179-.Lfunc_begin8  # >> Call Site 11 <<
	.word	.Ltmp182-.Ltmp179       #   Call between .Ltmp179 and .Ltmp182
	.word	.Ltmp183-.Lfunc_begin8  #     jumps to .Ltmp183
	.byte	0                       #   On action: cleanup
	.word	.Ltmp182-.Lfunc_begin8  # >> Call Site 12 <<
	.word	.Lfunc_end24-.Ltmp182   #   Call between .Ltmp182 and .Lfunc_end24
	.word	0                       #     has no landing pad
	.byte	0                       #   On action: cleanup
.Lcst_end8:
	.byte	1                       # >> Action Record 1 <<
                                        #   Catch TypeInfo 1
	.byte	0                       #   No further actions
	.byte	2                       # >> Action Record 2 <<
                                        #   Catch TypeInfo 2
	.byte	0                       #   No further actions
	.p2align	2
                                        # >> Catch TypeInfos <<
	.word	0                       # TypeInfo 2
.Ltmp201:                               # TypeInfo 1
	.word	.L_ZTISt12out_of_range.DW.stub-.Ltmp201
.Lttbase2:
	.p2align	2
                                        # -- End function
	.section	.text._ZNK8nlohmann10basic_jsonISt3mapSt6vectorNSt7__cxx1112basic_stringIcSt11char_traitsIcESaIcEEEblmdSaNS_14adl_serializerEEcvT_IN3glm3vecILi3EdLNSD_9qualifierE0EEELi0EEEv,"axG",@progbits,_ZNK8nlohmann10basic_jsonISt3mapSt6vectorNSt7__cxx1112basic_stringIcSt11char_traitsIcESaIcEEEblmdSaNS_14adl_serializerEEcvT_IN3glm3vecILi3EdLNSD_9qualifierE0EEELi0EEEv,comdat
	.weak	_ZNK8nlohmann10basic_jsonISt3mapSt6vectorNSt7__cxx1112basic_stringIcSt11char_traitsIcESaIcEEEblmdSaNS_14adl_serializerEEcvT_IN3glm3vecILi3EdLNSD_9qualifierE0EEELi0EEEv # -- Begin function _ZNK8nlohmann10basic_jsonISt3mapSt6vectorNSt7__cxx1112basic_stringIcSt11char_traitsIcESaIcEEEblmdSaNS_14adl_serializerEEcvT_IN3glm3vecILi3EdLNSD_9qualifierE0EEELi0EEEv
	.p2align	2
	.type	_ZNK8nlohmann10basic_jsonISt3mapSt6vectorNSt7__cxx1112basic_stringIcSt11char_traitsIcESaIcEEEblmdSaNS_14adl_serializerEEcvT_IN3glm3vecILi3EdLNSD_9qualifierE0EEELi0EEEv,@function
_ZNK8nlohmann10basic_jsonISt3mapSt6vectorNSt7__cxx1112basic_stringIcSt11char_traitsIcESaIcEEEblmdSaNS_14adl_serializerEEcvT_IN3glm3vecILi3EdLNSD_9qualifierE0EEELi0EEEv: # @_ZNK8nlohmann10basic_jsonISt3mapSt6vectorNSt7__cxx1112basic_stringIcSt11char_traitsIcESaIcEEEblmdSaNS_14adl_serializerEEcvT_IN3glm3vecILi3EdLNSD_9qualifierE0EEELi0EEEv
	.cfi_startproc
# %bb.0:                                # %entry
	addi	sp, sp, -32
	.cfi_def_cfa_offset 32
	sd	ra, 24(sp)
	sd	s0, 16(sp)
	.cfi_offset ra, -8
	.cfi_offset s0, -16
	addi	s0, sp, 32
	.cfi_def_cfa s0, 0
	sd	a0, -24(s0)
	sd	a1, -32(s0)
	ld	a1, -32(s0)
	call	_ZNK8nlohmann10basic_jsonISt3mapSt6vectorNSt7__cxx1112basic_stringIcSt11char_traitsIcESaIcEEEblmdSaNS_14adl_serializerEE3getIN3glm3vecILi3EdLNSC_9qualifierE0EEESF_Li0EEET0_v
	ld	s0, 16(sp)
	.cfi_def_cfa sp, 32
	ld	ra, 24(sp)
	.cfi_restore ra
	.cfi_restore s0
	addi	sp, sp, 32
	.cfi_def_cfa_offset 0
	ret
.Lfunc_end25:
	.size	_ZNK8nlohmann10basic_jsonISt3mapSt6vectorNSt7__cxx1112basic_stringIcSt11char_traitsIcESaIcEEEblmdSaNS_14adl_serializerEEcvT_IN3glm3vecILi3EdLNSD_9qualifierE0EEELi0EEEv, .Lfunc_end25-_ZNK8nlohmann10basic_jsonISt3mapSt6vectorNSt7__cxx1112basic_stringIcSt11char_traitsIcESaIcEEEblmdSaNS_14adl_serializerEEcvT_IN3glm3vecILi3EdLNSD_9qualifierE0EEELi0EEEv
	.cfi_endproc
                                        # -- End function
	.section	.text._ZNK8nlohmann10basic_jsonISt3mapSt6vectorNSt7__cxx1112basic_stringIcSt11char_traitsIcESaIcEEEblmdSaNS_14adl_serializerEEcvT_IdLi0EEEv,"axG",@progbits,_ZNK8nlohmann10basic_jsonISt3mapSt6vectorNSt7__cxx1112basic_stringIcSt11char_traitsIcESaIcEEEblmdSaNS_14adl_serializerEEcvT_IdLi0EEEv,comdat
	.weak	_ZNK8nlohmann10basic_jsonISt3mapSt6vectorNSt7__cxx1112basic_stringIcSt11char_traitsIcESaIcEEEblmdSaNS_14adl_serializerEEcvT_IdLi0EEEv # -- Begin function _ZNK8nlohmann10basic_jsonISt3mapSt6vectorNSt7__cxx1112basic_stringIcSt11char_traitsIcESaIcEEEblmdSaNS_14adl_serializerEEcvT_IdLi0EEEv
	.p2align	2
	.type	_ZNK8nlohmann10basic_jsonISt3mapSt6vectorNSt7__cxx1112basic_stringIcSt11char_traitsIcESaIcEEEblmdSaNS_14adl_serializerEEcvT_IdLi0EEEv,@function
_ZNK8nlohmann10basic_jsonISt3mapSt6vectorNSt7__cxx1112basic_stringIcSt11char_traitsIcESaIcEEEblmdSaNS_14adl_serializerEEcvT_IdLi0EEEv: # @_ZNK8nlohmann10basic_jsonISt3mapSt6vectorNSt7__cxx1112basic_stringIcSt11char_traitsIcESaIcEEEblmdSaNS_14adl_serializerEEcvT_IdLi0EEEv
	.cfi_startproc
# %bb.0:                                # %entry
	addi	sp, sp, -32
	.cfi_def_cfa_offset 32
	sd	ra, 24(sp)
	sd	s0, 16(sp)
	.cfi_offset ra, -8
	.cfi_offset s0, -16
	addi	s0, sp, 32
	.cfi_def_cfa s0, 0
	sd	a0, -24(s0)
	ld	a0, -24(s0)
	call	_ZNK8nlohmann10basic_jsonISt3mapSt6vectorNSt7__cxx1112basic_stringIcSt11char_traitsIcESaIcEEEblmdSaNS_14adl_serializerEE3getIddLi0EEET0_v
	ld	s0, 16(sp)
	.cfi_def_cfa sp, 32
	ld	ra, 24(sp)
	.cfi_restore ra
	.cfi_restore s0
	addi	sp, sp, 32
	.cfi_def_cfa_offset 0
	ret
.Lfunc_end26:
	.size	_ZNK8nlohmann10basic_jsonISt3mapSt6vectorNSt7__cxx1112basic_stringIcSt11char_traitsIcESaIcEEEblmdSaNS_14adl_serializerEEcvT_IdLi0EEEv, .Lfunc_end26-_ZNK8nlohmann10basic_jsonISt3mapSt6vectorNSt7__cxx1112basic_stringIcSt11char_traitsIcESaIcEEEblmdSaNS_14adl_serializerEEcvT_IdLi0EEEv
	.cfi_endproc
                                        # -- End function
	.section	.text._ZSt5fixedRSt8ios_base,"axG",@progbits,_ZSt5fixedRSt8ios_base,comdat
	.weak	_ZSt5fixedRSt8ios_base  # -- Begin function _ZSt5fixedRSt8ios_base
	.p2align	2
	.type	_ZSt5fixedRSt8ios_base,@function
_ZSt5fixedRSt8ios_base:                 # @_ZSt5fixedRSt8ios_base
	.cfi_startproc
# %bb.0:                                # %entry
	addi	sp, sp, -32
	.cfi_def_cfa_offset 32
	sd	ra, 24(sp)
	sd	s0, 16(sp)
	.cfi_offset ra, -8
	.cfi_offset s0, -16
	addi	s0, sp, 32
	.cfi_def_cfa s0, 0
	sd	a0, -24(s0)
	ld	a0, -24(s0)
	addi	a1, zero, 4
	addi	a2, zero, 260
	call	_ZNSt8ios_base4setfESt13_Ios_FmtflagsS0_
	ld	a0, -24(s0)
	ld	s0, 16(sp)
	.cfi_def_cfa sp, 32
	ld	ra, 24(sp)
	.cfi_restore ra
	.cfi_restore s0
	addi	sp, sp, 32
	.cfi_def_cfa_offset 0
	ret
.Lfunc_end27:
	.size	_ZSt5fixedRSt8ios_base, .Lfunc_end27-_ZSt5fixedRSt8ios_base
	.cfi_endproc
                                        # -- End function
	.section	.text._ZSt12setprecisioni,"axG",@progbits,_ZSt12setprecisioni,comdat
	.weak	_ZSt12setprecisioni     # -- Begin function _ZSt12setprecisioni
	.p2align	2
	.type	_ZSt12setprecisioni,@function
_ZSt12setprecisioni:                    # @_ZSt12setprecisioni
# %bb.0:                                # %entry
	addi	sp, sp, -32
	sd	ra, 24(sp)
	sd	s0, 16(sp)
	addi	s0, sp, 32
	sw	a0, -28(s0)
	lw	a0, -28(s0)
	sw	a0, -24(s0)
	lwu	a0, -24(s0)
	ld	s0, 16(sp)
	ld	ra, 24(sp)
	addi	sp, sp, 32
	ret
.Lfunc_end28:
	.size	_ZSt12setprecisioni, .Lfunc_end28-_ZSt12setprecisioni
                                        # -- End function
	.section	.text._ZNSt6vectorI6OptionSaIS0_EE12emplace_backIJRKNSt10filesystem7__cxx114pathENSt7__cxx1112basic_stringIcSt11char_traitsIcESaIcEEERiRbEEERS0_DpOT_,"axG",@progbits,_ZNSt6vectorI6OptionSaIS0_EE12emplace_backIJRKNSt10filesystem7__cxx114pathENSt7__cxx1112basic_stringIcSt11char_traitsIcESaIcEEERiRbEEERS0_DpOT_,comdat
	.weak	_ZNSt6vectorI6OptionSaIS0_EE12emplace_backIJRKNSt10filesystem7__cxx114pathENSt7__cxx1112basic_stringIcSt11char_traitsIcESaIcEEERiRbEEERS0_DpOT_ # -- Begin function _ZNSt6vectorI6OptionSaIS0_EE12emplace_backIJRKNSt10filesystem7__cxx114pathENSt7__cxx1112basic_stringIcSt11char_traitsIcESaIcEEERiRbEEERS0_DpOT_
	.p2align	2
	.type	_ZNSt6vectorI6OptionSaIS0_EE12emplace_backIJRKNSt10filesystem7__cxx114pathENSt7__cxx1112basic_stringIcSt11char_traitsIcESaIcEEERiRbEEERS0_DpOT_,@function
_ZNSt6vectorI6OptionSaIS0_EE12emplace_backIJRKNSt10filesystem7__cxx114pathENSt7__cxx1112basic_stringIcSt11char_traitsIcESaIcEEERiRbEEERS0_DpOT_: # @_ZNSt6vectorI6OptionSaIS0_EE12emplace_backIJRKNSt10filesystem7__cxx114pathENSt7__cxx1112basic_stringIcSt11char_traitsIcESaIcEEERiRbEEERS0_DpOT_
	.cfi_startproc
# %bb.0:                                # %entry
	addi	sp, sp, -112
	.cfi_def_cfa_offset 112
	sd	ra, 104(sp)
	sd	s0, 96(sp)
	sd	s1, 88(sp)
	sd	s2, 80(sp)
	sd	s3, 72(sp)
	sd	s4, 64(sp)
	sd	s5, 56(sp)
	.cfi_offset ra, -8
	.cfi_offset s0, -16
	.cfi_offset s1, -24
	.cfi_offset s2, -32
	.cfi_offset s3, -40
	.cfi_offset s4, -48
	.cfi_offset s5, -56
	addi	s0, sp, 112
	.cfi_def_cfa s0, 0
	sd	a0, -64(s0)
	sd	a1, -72(s0)
	sd	a2, -80(s0)
	sd	a3, -88(s0)
	sd	a4, -96(s0)
	ld	s1, -64(s0)
	ld	a0, 8(s1)
	ld	a1, 16(s1)
	beq	a0, a1, .LBB29_2
	j	.LBB29_1
.LBB29_1:                               # %if.then
	ld	s2, 8(s1)
	ld	a0, -72(s0)
	call	_ZSt7forwardIRKNSt10filesystem7__cxx114pathEEOT_RNSt16remove_referenceIS5_E4typeE
	mv	s3, a0
	ld	a0, -80(s0)
	call	_ZSt7forwardINSt7__cxx1112basic_stringIcSt11char_traitsIcESaIcEEEEOT_RNSt16remove_referenceIS6_E4typeE
	mv	s4, a0
	ld	a0, -88(s0)
	call	_ZSt7forwardIRiEOT_RNSt16remove_referenceIS1_E4typeE
	mv	s5, a0
	ld	a0, -96(s0)
	call	_ZSt7forwardIRbEOT_RNSt16remove_referenceIS1_E4typeE
	mv	a5, a0
	mv	a0, s1
	mv	a1, s2
	mv	a2, s3
	mv	a3, s4
	mv	a4, s5
	call	_ZNSt16allocator_traitsISaI6OptionEE9constructIS0_JRKNSt10filesystem7__cxx114pathENSt7__cxx1112basic_stringIcSt11char_traitsIcESaIcEEERiRbEEEvRS1_PT_DpOT0_
	ld	a0, 8(s1)
	addi	a0, a0, 80
	sd	a0, 8(s1)
	j	.LBB29_3
.LBB29_2:                               # %if.else
	mv	a0, s1
	call	_ZNSt6vectorI6OptionSaIS0_EE3endEv
	sd	a0, -104(s0)
	ld	a0, -72(s0)
	call	_ZSt7forwardIRKNSt10filesystem7__cxx114pathEEOT_RNSt16remove_referenceIS5_E4typeE
	mv	s2, a0
	ld	a0, -80(s0)
	call	_ZSt7forwardINSt7__cxx1112basic_stringIcSt11char_traitsIcESaIcEEEEOT_RNSt16remove_referenceIS6_E4typeE
	mv	s3, a0
	ld	a0, -88(s0)
	call	_ZSt7forwardIRiEOT_RNSt16remove_referenceIS1_E4typeE
	mv	s4, a0
	ld	a0, -96(s0)
	call	_ZSt7forwardIRbEOT_RNSt16remove_referenceIS1_E4typeE
	mv	a5, a0
	ld	a1, -104(s0)
	mv	a0, s1
	mv	a2, s2
	mv	a3, s3
	mv	a4, s4
	call	_ZNSt6vectorI6OptionSaIS0_EE17_M_realloc_insertIJRKNSt10filesystem7__cxx114pathENSt7__cxx1112basic_stringIcSt11char_traitsIcESaIcEEERiRbEEEvN9__gnu_cxx17__normal_iteratorIPS0_S2_EEDpOT_
	j	.LBB29_3
.LBB29_3:                               # %if.end
	mv	a0, s1
	call	_ZNSt6vectorI6OptionSaIS0_EE4backEv
	ld	s5, 56(sp)
	ld	s4, 64(sp)
	ld	s3, 72(sp)
	ld	s2, 80(sp)
	ld	s1, 88(sp)
	ld	s0, 96(sp)
	.cfi_def_cfa sp, 112
	ld	ra, 104(sp)
	.cfi_restore ra
	.cfi_restore s0
	.cfi_restore s1
	.cfi_restore s2
	.cfi_restore s3
	.cfi_restore s4
	.cfi_restore s5
	addi	sp, sp, 112
	.cfi_def_cfa_offset 0
	ret
.Lfunc_end29:
	.size	_ZNSt6vectorI6OptionSaIS0_EE12emplace_backIJRKNSt10filesystem7__cxx114pathENSt7__cxx1112basic_stringIcSt11char_traitsIcESaIcEEERiRbEEERS0_DpOT_, .Lfunc_end29-_ZNSt6vectorI6OptionSaIS0_EE12emplace_backIJRKNSt10filesystem7__cxx114pathENSt7__cxx1112basic_stringIcSt11char_traitsIcESaIcEEERiRbEEERS0_DpOT_
	.cfi_endproc
                                        # -- End function
	.section	.text._ZN8nlohmann6detail9iter_implINS_10basic_jsonISt3mapSt6vectorNSt7__cxx1112basic_stringIcSt11char_traitsIcESaIcEEEblmdSaNS_14adl_serializerEEEEppEv,"axG",@progbits,_ZN8nlohmann6detail9iter_implINS_10basic_jsonISt3mapSt6vectorNSt7__cxx1112basic_stringIcSt11char_traitsIcESaIcEEEblmdSaNS_14adl_serializerEEEEppEv,comdat
	.weak	_ZN8nlohmann6detail9iter_implINS_10basic_jsonISt3mapSt6vectorNSt7__cxx1112basic_stringIcSt11char_traitsIcESaIcEEEblmdSaNS_14adl_serializerEEEEppEv # -- Begin function _ZN8nlohmann6detail9iter_implINS_10basic_jsonISt3mapSt6vectorNSt7__cxx1112basic_stringIcSt11char_traitsIcESaIcEEEblmdSaNS_14adl_serializerEEEEppEv
	.p2align	2
	.type	_ZN8nlohmann6detail9iter_implINS_10basic_jsonISt3mapSt6vectorNSt7__cxx1112basic_stringIcSt11char_traitsIcESaIcEEEblmdSaNS_14adl_serializerEEEEppEv,@function
_ZN8nlohmann6detail9iter_implINS_10basic_jsonISt3mapSt6vectorNSt7__cxx1112basic_stringIcSt11char_traitsIcESaIcEEEblmdSaNS_14adl_serializerEEEEppEv: # @_ZN8nlohmann6detail9iter_implINS_10basic_jsonISt3mapSt6vectorNSt7__cxx1112basic_stringIcSt11char_traitsIcESaIcEEEblmdSaNS_14adl_serializerEEEEppEv
	.cfi_startproc
# %bb.0:                                # %entry
	addi	sp, sp, -32
	.cfi_def_cfa_offset 32
	sd	ra, 24(sp)
	sd	s0, 16(sp)
	sd	s1, 8(sp)
	.cfi_offset ra, -8
	.cfi_offset s0, -16
	.cfi_offset s1, -24
	addi	s0, sp, 32
	.cfi_def_cfa s0, 0
	sd	a0, -32(s0)
	ld	s1, -32(s0)
	ld	a0, 0(s1)
	lbu	a0, 0(a0)
	addi	a1, zero, 1
	beq	a0, a1, .LBB30_2
	j	.LBB30_1
.LBB30_1:                               # %entry
	andi	a0, a0, 255
	addi	a1, zero, 2
	beq	a0, a1, .LBB30_3
	j	.LBB30_4
.LBB30_2:                               # %sw.bb
	addi	a0, s1, 8
	addi	a1, zero, 1
	call	_ZSt7advanceISt17_Rb_tree_iteratorISt4pairIKNSt7__cxx1112basic_stringIcSt11char_traitsIcESaIcEEEN8nlohmann10basic_jsonISt3mapSt6vectorS7_blmdSaNS9_14adl_serializerEEEEEiEvRT_T0_
	j	.LBB30_5
.LBB30_3:                               # %sw.bb2
	addi	a0, s1, 16
	addi	a1, zero, 1
	call	_ZSt7advanceIN9__gnu_cxx17__normal_iteratorIPN8nlohmann10basic_jsonISt3mapSt6vectorNSt7__cxx1112basic_stringIcSt11char_traitsIcESaIcEEEblmdSaNS2_14adl_serializerEEES5_ISD_SaISD_EEEEiEvRT_T0_
	j	.LBB30_5
.LBB30_4:                               # %sw.default
	addi	a0, s1, 24
	call	_ZN8nlohmann6detail20primitive_iterator_tppEv
	j	.LBB30_5
.LBB30_5:                               # %sw.epilog
	mv	a0, s1
	ld	s1, 8(sp)
	ld	s0, 16(sp)
	.cfi_def_cfa sp, 32
	ld	ra, 24(sp)
	.cfi_restore ra
	.cfi_restore s0
	.cfi_restore s1
	addi	sp, sp, 32
	.cfi_def_cfa_offset 0
	ret
.Lfunc_end30:
	.size	_ZN8nlohmann6detail9iter_implINS_10basic_jsonISt3mapSt6vectorNSt7__cxx1112basic_stringIcSt11char_traitsIcESaIcEEEblmdSaNS_14adl_serializerEEEEppEv, .Lfunc_end30-_ZN8nlohmann6detail9iter_implINS_10basic_jsonISt3mapSt6vectorNSt7__cxx1112basic_stringIcSt11char_traitsIcESaIcEEEblmdSaNS_14adl_serializerEEEEppEv
	.cfi_endproc
                                        # -- End function
	.section	.text._ZN8nlohmann10basic_jsonISt3mapSt6vectorNSt7__cxx1112basic_stringIcSt11char_traitsIcESaIcEEEblmdSaNS_14adl_serializerEED2Ev,"axG",@progbits,_ZN8nlohmann10basic_jsonISt3mapSt6vectorNSt7__cxx1112basic_stringIcSt11char_traitsIcESaIcEEEblmdSaNS_14adl_serializerEED2Ev,comdat
	.weak	_ZN8nlohmann10basic_jsonISt3mapSt6vectorNSt7__cxx1112basic_stringIcSt11char_traitsIcESaIcEEEblmdSaNS_14adl_serializerEED2Ev # -- Begin function _ZN8nlohmann10basic_jsonISt3mapSt6vectorNSt7__cxx1112basic_stringIcSt11char_traitsIcESaIcEEEblmdSaNS_14adl_serializerEED2Ev
	.p2align	2
	.type	_ZN8nlohmann10basic_jsonISt3mapSt6vectorNSt7__cxx1112basic_stringIcSt11char_traitsIcESaIcEEEblmdSaNS_14adl_serializerEED2Ev,@function
_ZN8nlohmann10basic_jsonISt3mapSt6vectorNSt7__cxx1112basic_stringIcSt11char_traitsIcESaIcEEEblmdSaNS_14adl_serializerEED2Ev: # @_ZN8nlohmann10basic_jsonISt3mapSt6vectorNSt7__cxx1112basic_stringIcSt11char_traitsIcESaIcEEEblmdSaNS_14adl_serializerEED2Ev
# %bb.0:                                # %entry
	addi	sp, sp, -32
	sd	ra, 24(sp)
	sd	s0, 16(sp)
	sd	s1, 8(sp)
	addi	s0, sp, 32
	sd	a0, -32(s0)
	ld	s1, -32(s0)
	mv	a0, s1
	call	_ZNK8nlohmann10basic_jsonISt3mapSt6vectorNSt7__cxx1112basic_stringIcSt11char_traitsIcESaIcEEEblmdSaNS_14adl_serializerEE16assert_invariantEv
	addi	a0, s1, 8
	lbu	a1, 0(s1)
	call	_ZN8nlohmann10basic_jsonISt3mapSt6vectorNSt7__cxx1112basic_stringIcSt11char_traitsIcESaIcEEEblmdSaNS_14adl_serializerEE10json_value7destroyENS_6detail7value_tE
	ld	s1, 8(sp)
	ld	s0, 16(sp)
	ld	ra, 24(sp)
	addi	sp, sp, 32
	ret
.Lfunc_end31:
	.size	_ZN8nlohmann10basic_jsonISt3mapSt6vectorNSt7__cxx1112basic_stringIcSt11char_traitsIcESaIcEEEblmdSaNS_14adl_serializerEED2Ev, .Lfunc_end31-_ZN8nlohmann10basic_jsonISt3mapSt6vectorNSt7__cxx1112basic_stringIcSt11char_traitsIcESaIcEEEblmdSaNS_14adl_serializerEED2Ev
                                        # -- End function
	.section	.text._ZNSt6vectorI6OptionSaIS0_EED2Ev,"axG",@progbits,_ZNSt6vectorI6OptionSaIS0_EED2Ev,comdat
	.weak	_ZNSt6vectorI6OptionSaIS0_EED2Ev # -- Begin function _ZNSt6vectorI6OptionSaIS0_EED2Ev
	.p2align	2
	.type	_ZNSt6vectorI6OptionSaIS0_EED2Ev,@function
_ZNSt6vectorI6OptionSaIS0_EED2Ev:       # @_ZNSt6vectorI6OptionSaIS0_EED2Ev
.Lfunc_begin9:
	.cfi_startproc
	.cfi_personality 155, DW.ref.__gxx_personality_v0
	.cfi_lsda 27, .Lexception9
# %bb.0:                                # %entry
	addi	sp, sp, -64
	.cfi_def_cfa_offset 64
	sd	ra, 56(sp)
	sd	s0, 48(sp)
	sd	s1, 40(sp)
	sd	s2, 32(sp)
	sd	s3, 24(sp)
	.cfi_offset ra, -8
	.cfi_offset s0, -16
	.cfi_offset s1, -24
	.cfi_offset s2, -32
	.cfi_offset s3, -40
	addi	s0, sp, 64
	.cfi_def_cfa s0, 0
	sd	a0, -48(s0)
	ld	s1, -48(s0)
	ld	s2, 0(s1)
	ld	s3, 8(s1)
	mv	a0, s1
	call	_ZNSt12_Vector_baseI6OptionSaIS0_EE19_M_get_Tp_allocatorEv
	mv	a2, a0
.Ltmp202:
	mv	a0, s2
	mv	a1, s3
	call	_ZSt8_DestroyIP6OptionS0_EvT_S2_RSaIT0_E
.Ltmp203:
	j	.LBB32_1
.LBB32_1:                               # %invoke.cont
	mv	a0, s1
	call	_ZNSt12_Vector_baseI6OptionSaIS0_EED2Ev
	ld	s3, 24(sp)
	ld	s2, 32(sp)
	ld	s1, 40(sp)
	ld	s0, 48(sp)
	.cfi_def_cfa sp, 64
	ld	ra, 56(sp)
	.cfi_restore ra
	.cfi_restore s0
	.cfi_restore s1
	.cfi_restore s2
	.cfi_restore s3
	addi	sp, sp, 64
	.cfi_def_cfa_offset 0
	ret
.LBB32_2:                               # %lpad
.Ltmp204:
	sd	a0, -56(s0)
	sw	a1, -60(s0)
	mv	a0, s1
	call	_ZNSt12_Vector_baseI6OptionSaIS0_EED2Ev
	j	.LBB32_3
.LBB32_3:                               # %terminate.handler
	ld	a0, -56(s0)
	call	__clang_call_terminate
.Lfunc_end32:
	.size	_ZNSt6vectorI6OptionSaIS0_EED2Ev, .Lfunc_end32-_ZNSt6vectorI6OptionSaIS0_EED2Ev
	.cfi_endproc
	.section	.gcc_except_table,"a",@progbits
	.p2align	2
GCC_except_table32:
.Lexception9:
	.byte	255                     # @LPStart Encoding = omit
	.byte	155                     # @TType Encoding = indirect pcrel sdata4
	.uleb128 .Lttbase3-.Lttbaseref3
.Lttbaseref3:
	.byte	3                       # Call site Encoding = udata4
	.uleb128 .Lcst_end9-.Lcst_begin9
.Lcst_begin9:
	.word	.Ltmp202-.Lfunc_begin9  # >> Call Site 1 <<
	.word	.Ltmp203-.Ltmp202       #   Call between .Ltmp202 and .Ltmp203
	.word	.Ltmp204-.Lfunc_begin9  #     jumps to .Ltmp204
	.byte	1                       #   On action: 1
.Lcst_end9:
	.byte	1                       # >> Action Record 1 <<
                                        #   Catch TypeInfo 1
	.byte	0                       #   No further actions
	.p2align	2
                                        # >> Catch TypeInfos <<
	.word	0                       # TypeInfo 1
.Lttbase3:
	.p2align	2
                                        # -- End function
	.text
	.globl	_Z9getOptionRSt6vectorI6OptionSaIS0_EE # -- Begin function _Z9getOptionRSt6vectorI6OptionSaIS0_EE
	.p2align	2
	.type	_Z9getOptionRSt6vectorI6OptionSaIS0_EE,@function
_Z9getOptionRSt6vectorI6OptionSaIS0_EE: # @_Z9getOptionRSt6vectorI6OptionSaIS0_EE
.Lfunc_begin10:
	.cfi_startproc
	.cfi_personality 155, DW.ref.__gxx_personality_v0
	.cfi_lsda 27, .Lexception10
# %bb.0:                                # %entry
	addi	sp, sp, -1040
	.cfi_def_cfa_offset 1040
	sd	ra, 1032(sp)
	sd	s0, 1024(sp)
	sd	s1, 1016(sp)
	sd	s2, 1008(sp)
	sd	s3, 1000(sp)
	.cfi_offset ra, -8
	.cfi_offset s0, -16
	.cfi_offset s1, -24
	.cfi_offset s2, -32
	.cfi_offset s3, -40
	addi	s0, sp, 1040
	.cfi_def_cfa s0, 0
	mv	s3, a0
	sd	s3, -56(s0)
	sd	a1, -64(s0)
	addi	a0, zero, 13
	sd	a0, -72(s0)
	sd	zero, -80(s0)
	sd	zero, -88(s0)
	ld	a0, -64(s0)
	sd	a0, -96(s0)
	ld	a0, -96(s0)
	call	_ZNSt6vectorI6OptionSaIS0_EE5beginEv
	sd	a0, -104(s0)
	ld	a0, -96(s0)
	call	_ZNSt6vectorI6OptionSaIS0_EE3endEv
	sd	a0, -112(s0)
	j	.LBB33_1
.LBB33_1:                               # %for.cond
                                        # =>This Inner Loop Header: Depth=1
	addi	a0, s0, -104
	addi	a1, s0, -112
	call	_ZN9__gnu_cxxneIP6OptionSt6vectorIS1_SaIS1_EEEEbRKNS_17__normal_iteratorIT_T0_EESB_
	beqz	a0, .LBB33_12
	j	.LBB33_2
.LBB33_2:                               # %for.body
                                        #   in Loop: Header=BB33_1 Depth=1
	addi	a0, s0, -104
	call	_ZNK9__gnu_cxx17__normal_iteratorIP6OptionSt6vectorIS1_SaIS1_EEEdeEv
	sd	a0, -120(s0)
	ld	a1, -120(s0)
	addi	s1, s0, -192
	mv	a0, s1
	call	_ZNKSt10filesystem7__cxx114path8filenameEv
.Ltmp297:
	addi	a0, s0, -152
	mv	a1, s1
	call	_ZNKSt10filesystem7__cxx114path6stringEv
.Ltmp298:
	j	.LBB33_3
.LBB33_3:                               # %invoke.cont
                                        #   in Loop: Header=BB33_1 Depth=1
	addi	a0, s0, -192
	call	_ZNSt10filesystem7__cxx114pathD2Ev
	lui	a0, %hi(.L.str.13)
	addi	a1, a0, %lo(.L.str.13)
	addi	s2, s0, -152
	mv	a0, s2
	mv	a2, zero
	call	_ZNKSt7__cxx1112basic_stringIcSt11char_traitsIcESaIcEE4findEPKcm
	mv	s1, a0
	mv	a0, s2
	call	_ZNKSt7__cxx1112basic_stringIcSt11char_traitsIcESaIcEE6lengthEv
	mv	a2, a0
.Ltmp300:
	mv	a0, s2
	mv	a1, s1
	call	_ZNSt7__cxx1112basic_stringIcSt11char_traitsIcESaIcEE5eraseEmm
.Ltmp301:
	j	.LBB33_4
.LBB33_4:                               # %invoke.cont9
                                        #   in Loop: Header=BB33_1 Depth=1
	addi	a0, s0, -152
	call	_ZNKSt7__cxx1112basic_stringIcSt11char_traitsIcESaIcEE4sizeEv
	ld	a1, -80(s0)
	bgeu	a1, a0, .LBB33_8
	j	.LBB33_5
.LBB33_5:                               # %if.then
                                        #   in Loop: Header=BB33_1 Depth=1
	addi	a0, s0, -152
	call	_ZNKSt7__cxx1112basic_stringIcSt11char_traitsIcESaIcEE4sizeEv
	sd	a0, -80(s0)
	j	.LBB33_8
.LBB33_6:                               # %lpad
.Ltmp299:
	sd	a0, -200(s0)
	sw	a1, -204(s0)
	addi	a0, s0, -192
	call	_ZNSt10filesystem7__cxx114pathD2Ev
	j	.LBB33_132
.LBB33_7:                               # %lpad8
.Ltmp302:
	sd	a0, -200(s0)
	sw	a1, -204(s0)
	addi	a0, s0, -152
	call	_ZNSt7__cxx1112basic_stringIcSt11char_traitsIcESaIcEED1Ev
	j	.LBB33_132
.LBB33_8:                               # %if.end
                                        #   in Loop: Header=BB33_1 Depth=1
	ld	a0, -120(s0)
	addi	a0, a0, 40
	call	_ZNKSt7__cxx1112basic_stringIcSt11char_traitsIcESaIcEE4sizeEv
	ld	a1, -88(s0)
	bgeu	a1, a0, .LBB33_10
	j	.LBB33_9
.LBB33_9:                               # %if.then15
                                        #   in Loop: Header=BB33_1 Depth=1
	ld	a0, -120(s0)
	addi	a0, a0, 40
	call	_ZNKSt7__cxx1112basic_stringIcSt11char_traitsIcESaIcEE4sizeEv
	sd	a0, -88(s0)
	j	.LBB33_10
.LBB33_10:                              # %if.end18
                                        #   in Loop: Header=BB33_1 Depth=1
	addi	a0, s0, -152
	call	_ZNSt7__cxx1112basic_stringIcSt11char_traitsIcESaIcEED1Ev
	j	.LBB33_11
.LBB33_11:                              # %for.inc
                                        #   in Loop: Header=BB33_1 Depth=1
	addi	a0, s0, -104
	call	_ZN9__gnu_cxx17__normal_iteratorIP6OptionSt6vectorIS1_SaIS1_EEEppEv
	j	.LBB33_1
.LBB33_12:                              # %for.end
	ld	a0, -80(s0)
	addi	a0, a0, 1
	sd	a0, -80(s0)
	ld	a0, -88(s0)
	addi	a0, a0, 1
	sd	a0, -88(s0)
	ld	a0, -72(s0)
	ld	a1, -80(s0)
	add	a0, a0, a1
	ld	a1, -88(s0)
	add	a0, a0, a1
	addi	s1, a0, 5
	addi	s2, s0, -248
	mv	a0, s2
	call	_ZNSaIcEC1Ev
.Ltmp205:
	addi	a0, s0, -240
	mv	a1, s1
	addi	a2, zero, 95
	mv	a3, s2
	call	_ZNSt7__cxx1112basic_stringIcSt11char_traitsIcESaIcEEC2IS3_EEmcRKS3_
.Ltmp206:
	j	.LBB33_13
.LBB33_13:                              # %invoke.cont26
	addi	a0, s0, -240
	call	_ZNKSt7__cxx1112basic_stringIcSt11char_traitsIcESaIcEE5c_strEv
	mv	a1, a0
.Ltmp208:
	lui	a0, %hi(.L.str.14)
	addi	a0, a0, %lo(.L.str.14)
	call	printf
.Ltmp209:
	j	.LBB33_14
.LBB33_14:                              # %invoke.cont29
	addi	a0, s0, -240
	call	_ZNSt7__cxx1112basic_stringIcSt11char_traitsIcESaIcEED1Ev
	addi	a0, s0, -248
	call	_ZNSaIcED1Ev
	addi	s2, s0, -416
	sd	s2, -424(s0)
.Ltmp211:
	lui	a0, %hi(.L.str.15)
	addi	a1, a0, %lo(.L.str.15)
	addi	a2, s0, -72
	mv	a0, s2
	call	_ZNSt4pairINSt7__cxx1112basic_stringIcSt11char_traitsIcESaIcEEEmEC2IRA7_KcRmLb1EEEOT_OT0_
.Ltmp212:
	j	.LBB33_15
.LBB33_15:                              # %invoke.cont34
	addi	s1, s2, 40
	sd	s1, -424(s0)
.Ltmp213:
	lui	a0, %hi(.L.str.16)
	addi	a1, a0, %lo(.L.str.16)
	addi	a2, s0, -80
	mv	a0, s1
	call	_ZNSt4pairINSt7__cxx1112basic_stringIcSt11char_traitsIcESaIcEEEmEC2IRA5_KcRmLb1EEEOT_OT0_
.Ltmp214:
	j	.LBB33_16
.LBB33_16:                              # %invoke.cont35
	addi	a0, s1, 40
	sd	a0, -424(s0)
.Ltmp215:
	lui	a1, %hi(.L.str.17)
	addi	a1, a1, %lo(.L.str.17)
	addi	a2, s0, -88
	call	_ZNSt4pairINSt7__cxx1112basic_stringIcSt11char_traitsIcESaIcEEEmEC2IRA7_KcRmLb1EEEOT_OT0_
.Ltmp216:
	j	.LBB33_17
.LBB33_17:                              # %invoke.cont37
	addi	a0, s0, -416
	sd	a0, -296(s0)
	addi	a0, zero, 3
	sd	a0, -288(s0)
	addi	s1, s0, -432
	mv	a0, s1
	call	_ZNSaISt4pairINSt7__cxx1112basic_stringIcSt11char_traitsIcESaIcEEEmEEC2Ev
	ld	a2, -288(s0)
	ld	a1, -296(s0)
.Ltmp218:
	addi	a0, s0, -280
	mv	a3, s1
	call	_ZNSt6vectorISt4pairINSt7__cxx1112basic_stringIcSt11char_traitsIcESaIcEEEmESaIS7_EEC2ESt16initializer_listIS7_ERKS8_
.Ltmp219:
	j	.LBB33_18
.LBB33_18:                              # %invoke.cont42
.Ltmp221:
	addi	a0, s0, -256
	addi	a1, s0, -280
	call	_ZZ9getOptionRSt6vectorI6OptionSaIS0_EEENK3$_0clES_ISt4pairINSt7__cxx1112basic_stringIcSt11char_traitsIcESaIcEEEmESaISC_EE
.Ltmp222:
	j	.LBB33_19
.LBB33_19:                              # %invoke.cont44
	addi	a0, s0, -280
	call	_ZNSt6vectorISt4pairINSt7__cxx1112basic_stringIcSt11char_traitsIcESaIcEEEmESaIS7_EED2Ev
	addi	a0, s0, -432
	call	_ZNSaISt4pairINSt7__cxx1112basic_stringIcSt11char_traitsIcESaIcEEEmEED2Ev
	addi	s2, s0, -416
	addi	s1, s2, 120
	j	.LBB33_20
.LBB33_20:                              # %arraydestroy.body47
                                        # =>This Inner Loop Header: Depth=1
	addi	s1, s1, -40
	mv	a0, s1
	call	_ZNSt4pairINSt7__cxx1112basic_stringIcSt11char_traitsIcESaIcEEEmED2Ev
	bne	s1, s2, .LBB33_20
	j	.LBB33_21
.LBB33_21:                              # %arraydestroy.done51
	ld	a0, -72(s0)
	addi	s1, a0, 1
	addi	s2, s0, -664
	mv	a0, s2
	call	_ZNSaIcEC1Ev
.Ltmp224:
	addi	a0, s0, -656
	mv	a1, s1
	addi	a2, zero, 95
	mv	a3, s2
	call	_ZNSt7__cxx1112basic_stringIcSt11char_traitsIcESaIcEEC2IS3_EEmcRKS3_
.Ltmp225:
	j	.LBB33_22
.LBB33_22:                              # %invoke.cont68
.Ltmp227:
	lui	a0, %hi(.L.str.18)
	addi	a1, a0, %lo(.L.str.18)
	addi	a0, s0, -624
	addi	a2, s0, -656
	call	_ZStplIcSt11char_traitsIcESaIcEENSt7__cxx1112basic_stringIT_T0_T1_EEPKS5_OS8_
.Ltmp228:
	j	.LBB33_23
.LBB33_23:                              # %invoke.cont70
.Ltmp230:
	addi	a0, s0, -592
	addi	a1, s0, -624
	addi	a2, zero, 124
	call	_ZStplIcSt11char_traitsIcESaIcEENSt7__cxx1112basic_stringIT_T0_T1_EEOS8_S5_
.Ltmp231:
	j	.LBB33_24
.LBB33_24:                              # %invoke.cont72
	ld	a0, -80(s0)
	addi	s1, a0, 1
	addi	s2, s0, -704
	mv	a0, s2
	call	_ZNSaIcEC1Ev
.Ltmp233:
	addi	a0, s0, -696
	mv	a1, s1
	addi	a2, zero, 95
	mv	a3, s2
	call	_ZNSt7__cxx1112basic_stringIcSt11char_traitsIcESaIcEEC2IS3_EEmcRKS3_
.Ltmp234:
	j	.LBB33_25
.LBB33_25:                              # %invoke.cont77
.Ltmp236:
	addi	a0, s0, -560
	addi	a1, s0, -592
	addi	a2, s0, -696
	call	_ZStplIcSt11char_traitsIcESaIcEENSt7__cxx1112basic_stringIT_T0_T1_EEOS8_S9_
.Ltmp237:
	j	.LBB33_26
.LBB33_26:                              # %invoke.cont79
.Ltmp239:
	addi	a0, s0, -528
	addi	a1, s0, -560
	addi	a2, zero, 124
	call	_ZStplIcSt11char_traitsIcESaIcEENSt7__cxx1112basic_stringIT_T0_T1_EEOS8_S5_
.Ltmp240:
	j	.LBB33_27
.LBB33_27:                              # %invoke.cont81
	ld	a0, -88(s0)
	addi	s1, a0, 1
	addi	s2, s0, -744
	mv	a0, s2
	call	_ZNSaIcEC1Ev
.Ltmp242:
	addi	a0, s0, -736
	mv	a1, s1
	addi	a2, zero, 95
	mv	a3, s2
	call	_ZNSt7__cxx1112basic_stringIcSt11char_traitsIcESaIcEEC2IS3_EEmcRKS3_
.Ltmp243:
	j	.LBB33_28
.LBB33_28:                              # %invoke.cont86
.Ltmp245:
	addi	a0, s0, -496
	addi	a1, s0, -528
	addi	a2, s0, -736
	call	_ZStplIcSt11char_traitsIcESaIcEENSt7__cxx1112basic_stringIT_T0_T1_EEOS8_S9_
.Ltmp246:
	j	.LBB33_29
.LBB33_29:                              # %invoke.cont88
.Ltmp248:
	addi	a0, s0, -464
	addi	a1, s0, -496
	addi	a2, zero, 124
	call	_ZStplIcSt11char_traitsIcESaIcEENSt7__cxx1112basic_stringIT_T0_T1_EEOS8_S5_
.Ltmp249:
	j	.LBB33_30
.LBB33_30:                              # %invoke.cont90
	addi	a0, s0, -496
	call	_ZNSt7__cxx1112basic_stringIcSt11char_traitsIcESaIcEED1Ev
	addi	a0, s0, -736
	call	_ZNSt7__cxx1112basic_stringIcSt11char_traitsIcESaIcEED1Ev
	addi	a0, s0, -744
	call	_ZNSaIcED1Ev
	addi	a0, s0, -528
	call	_ZNSt7__cxx1112basic_stringIcSt11char_traitsIcESaIcEED1Ev
	addi	a0, s0, -560
	call	_ZNSt7__cxx1112basic_stringIcSt11char_traitsIcESaIcEED1Ev
	addi	a0, s0, -696
	call	_ZNSt7__cxx1112basic_stringIcSt11char_traitsIcESaIcEED1Ev
	addi	a0, s0, -704
	call	_ZNSaIcED1Ev
	addi	a0, s0, -592
	call	_ZNSt7__cxx1112basic_stringIcSt11char_traitsIcESaIcEED1Ev
	addi	a0, s0, -624
	call	_ZNSt7__cxx1112basic_stringIcSt11char_traitsIcESaIcEED1Ev
	addi	a0, s0, -656
	call	_ZNSt7__cxx1112basic_stringIcSt11char_traitsIcESaIcEED1Ev
	addi	a0, s0, -664
	call	_ZNSaIcED1Ev
	addi	a0, s0, -464
	call	_ZNKSt7__cxx1112basic_stringIcSt11char_traitsIcESaIcEE5c_strEv
	mv	a1, a0
.Ltmp251:
	lui	a0, %hi(.L.str.19)
	addi	a0, a0, %lo(.L.str.19)
	call	printf
.Ltmp252:
	j	.LBB33_31
.LBB33_31:                              # %invoke.cont104
	sw	zero, -748(s0)
	j	.LBB33_32
.LBB33_32:                              # %for.cond106
                                        # =>This Loop Header: Depth=1
                                        #     Child Loop BB33_43 Depth 2
	lw	s1, -748(s0)
	ld	a0, -64(s0)
	call	_ZNKSt6vectorI6OptionSaIS0_EE4sizeEv
	bgeu	s1, a0, .LBB33_102
	j	.LBB33_33
.LBB33_33:                              # %for.body109
                                        #   in Loop: Header=BB33_32 Depth=1
	ld	a0, -64(s0)
	lw	a1, -748(s0)
	call	_ZNSt6vectorI6OptionSaIS0_EEixEm
	mv	a1, a0
.Ltmp270:
	addi	a0, s0, -824
	call	_ZNKSt10filesystem7__cxx114path8filenameEv
.Ltmp271:
	j	.LBB33_34
.LBB33_34:                              # %invoke.cont115
                                        #   in Loop: Header=BB33_32 Depth=1
.Ltmp273:
	addi	a0, s0, -784
	addi	a1, s0, -824
	call	_ZNKSt10filesystem7__cxx114path6stringEv
.Ltmp274:
	j	.LBB33_35
.LBB33_35:                              # %invoke.cont117
                                        #   in Loop: Header=BB33_32 Depth=1
	addi	a0, s0, -824
	call	_ZNSt10filesystem7__cxx114pathD2Ev
	lui	a0, %hi(.L.str.13)
	addi	a1, a0, %lo(.L.str.13)
	addi	s2, s0, -784
	mv	a0, s2
	mv	a2, zero
	call	_ZNKSt7__cxx1112basic_stringIcSt11char_traitsIcESaIcEE4findEPKcm
	mv	s1, a0
	mv	a0, s2
	call	_ZNKSt7__cxx1112basic_stringIcSt11char_traitsIcESaIcEE6lengthEv
	mv	a2, a0
.Ltmp276:
	mv	a0, s2
	mv	a1, s1
	call	_ZNSt7__cxx1112basic_stringIcSt11char_traitsIcESaIcEE5eraseEmm
.Ltmp277:
	j	.LBB33_36
.LBB33_36:                              # %invoke.cont122
                                        #   in Loop: Header=BB33_32 Depth=1
	addi	s2, s0, -984
	addi	a0, zero, 1
	sb	a0, -1025(s0)
	sd	s2, -992(s0)
	lw	a1, -748(s0)
.Ltmp278:
	addi	a0, s0, -1024
	call	_ZNSt7__cxx119to_stringEi
.Ltmp279:
	j	.LBB33_37
.LBB33_37:                              # %invoke.cont131
                                        #   in Loop: Header=BB33_32 Depth=1
.Ltmp281:
	addi	a1, s0, -1024
	addi	a2, s0, -72
	mv	a0, s2
	call	_ZNSt4pairINSt7__cxx1112basic_stringIcSt11char_traitsIcESaIcEEEmEC2IS5_RmLb1EEEOT_OT0_
.Ltmp282:
	j	.LBB33_38
.LBB33_38:                              # %invoke.cont133
                                        #   in Loop: Header=BB33_32 Depth=1
	addi	s1, s2, 40
	sd	s1, -992(s0)
.Ltmp283:
	addi	a1, s0, -784
	addi	a2, s0, -80
	mv	a0, s1
	call	_ZNSt4pairINSt7__cxx1112basic_stringIcSt11char_traitsIcESaIcEEEmEC2IRS5_RmLb1EEEOT_OT0_
.Ltmp284:
	j	.LBB33_39
.LBB33_39:                              # %invoke.cont135
                                        #   in Loop: Header=BB33_32 Depth=1
	addi	s1, s1, 40
	sd	s1, -992(s0)
	ld	a0, -64(s0)
	lw	a1, -748(s0)
	call	_ZNSt6vectorI6OptionSaIS0_EEixEm
	addi	a1, a0, 40
.Ltmp285:
	addi	a2, s0, -88
	mv	a0, s1
	call	_ZNSt4pairINSt7__cxx1112basic_stringIcSt11char_traitsIcESaIcEEEmEC2IRS5_RmLb1EEEOT_OT0_
.Ltmp286:
	j	.LBB33_40
.LBB33_40:                              # %invoke.cont140
                                        #   in Loop: Header=BB33_32 Depth=1
	sb	zero, -1025(s0)
	addi	a0, s0, -984
	sd	a0, -864(s0)
	addi	a0, zero, 3
	sd	a0, -856(s0)
	addi	s1, s0, -1032
	mv	a0, s1
	call	_ZNSaISt4pairINSt7__cxx1112basic_stringIcSt11char_traitsIcESaIcEEEmEEC2Ev
	ld	a2, -856(s0)
	ld	a1, -864(s0)
.Ltmp288:
	addi	a0, s0, -848
	mv	a3, s1
	call	_ZNSt6vectorISt4pairINSt7__cxx1112basic_stringIcSt11char_traitsIcESaIcEEEmESaIS7_EEC2ESt16initializer_listIS7_ERKS8_
.Ltmp289:
	j	.LBB33_41
.LBB33_41:                              # %invoke.cont146
                                        #   in Loop: Header=BB33_32 Depth=1
.Ltmp291:
	addi	a0, s0, -256
	addi	a1, s0, -848
	call	_ZZ9getOptionRSt6vectorI6OptionSaIS0_EEENK3$_0clES_ISt4pairINSt7__cxx1112basic_stringIcSt11char_traitsIcESaIcEEEmESaISC_EE
.Ltmp292:
	j	.LBB33_42
.LBB33_42:                              # %invoke.cont148
                                        #   in Loop: Header=BB33_32 Depth=1
	addi	a0, s0, -848
	call	_ZNSt6vectorISt4pairINSt7__cxx1112basic_stringIcSt11char_traitsIcESaIcEEEmESaIS7_EED2Ev
	addi	a0, s0, -1032
	call	_ZNSaISt4pairINSt7__cxx1112basic_stringIcSt11char_traitsIcESaIcEEEmEED2Ev
	addi	s2, s0, -984
	addi	s1, s2, 120
	j	.LBB33_43
.LBB33_43:                              # %arraydestroy.body152
                                        #   Parent Loop BB33_32 Depth=1
                                        # =>  This Inner Loop Header: Depth=2
	addi	s1, s1, -40
	mv	a0, s1
	call	_ZNSt4pairINSt7__cxx1112basic_stringIcSt11char_traitsIcESaIcEEEmED2Ev
	bne	s1, s2, .LBB33_43
	j	.LBB33_44
.LBB33_44:                              # %arraydestroy.done156
                                        #   in Loop: Header=BB33_32 Depth=1
	addi	a0, s0, -1024
	call	_ZNSt7__cxx1112basic_stringIcSt11char_traitsIcESaIcEED1Ev
	addi	a0, s0, -464
	call	_ZNKSt7__cxx1112basic_stringIcSt11char_traitsIcESaIcEE5c_strEv
	mv	a1, a0
.Ltmp294:
	lui	a0, %hi(.L.str.19)
	addi	a0, a0, %lo(.L.str.19)
	call	printf
.Ltmp295:
	j	.LBB33_45
.LBB33_45:                              # %invoke.cont173
                                        #   in Loop: Header=BB33_32 Depth=1
	addi	a0, s0, -784
	call	_ZNSt7__cxx1112basic_stringIcSt11char_traitsIcESaIcEED1Ev
	j	.LBB33_46
.LBB33_46:                              # %for.inc176
                                        #   in Loop: Header=BB33_32 Depth=1
	lw	a0, -748(s0)
	addi	a0, a0, 1
	sw	a0, -748(s0)
	j	.LBB33_32
.LBB33_47:                              # %lpad25
.Ltmp207:
	sd	a0, -200(s0)
	sw	a1, -204(s0)
	j	.LBB33_49
.LBB33_48:                              # %lpad28
.Ltmp210:
	sd	a0, -200(s0)
	sw	a1, -204(s0)
	addi	a0, s0, -240
	call	_ZNSt7__cxx1112basic_stringIcSt11char_traitsIcESaIcEED1Ev
	j	.LBB33_49
.LBB33_49:                              # %ehcleanup
	addi	a0, s0, -248
	call	_ZNSaIcED1Ev
	j	.LBB33_132
.LBB33_50:                              # %lpad33
.Ltmp217:
	sd	a0, -200(s0)
	sw	a1, -204(s0)
	ld	s1, -424(s0)
	beq	s2, s1, .LBB33_54
	j	.LBB33_51
.LBB33_51:                              # %arraydestroy.body.preheader
	j	.LBB33_52
.LBB33_52:                              # %arraydestroy.body
                                        # =>This Inner Loop Header: Depth=1
	addi	s1, s1, -40
	mv	a0, s1
	call	_ZNSt4pairINSt7__cxx1112basic_stringIcSt11char_traitsIcESaIcEEEmED2Ev
	bne	s1, s2, .LBB33_52
	j	.LBB33_53
.LBB33_53:                              # %arraydestroy.done39.loopexit
	j	.LBB33_54
.LBB33_54:                              # %arraydestroy.done39
	j	.LBB33_132
.LBB33_55:                              # %lpad41
.Ltmp220:
	sd	a0, -200(s0)
	sw	a1, -204(s0)
	j	.LBB33_57
.LBB33_56:                              # %lpad43
.Ltmp223:
	sd	a0, -200(s0)
	sw	a1, -204(s0)
	addi	a0, s0, -280
	call	_ZNSt6vectorISt4pairINSt7__cxx1112basic_stringIcSt11char_traitsIcESaIcEEEmESaIS7_EED2Ev
	j	.LBB33_57
.LBB33_57:                              # %ehcleanup46
	addi	a0, s0, -432
	call	_ZNSaISt4pairINSt7__cxx1112basic_stringIcSt11char_traitsIcESaIcEEEmEED2Ev
	addi	s2, s0, -416
	addi	s1, s2, 120
	j	.LBB33_58
.LBB33_58:                              # %arraydestroy.body54
                                        # =>This Inner Loop Header: Depth=1
	addi	s1, s1, -40
	mv	a0, s1
	call	_ZNSt4pairINSt7__cxx1112basic_stringIcSt11char_traitsIcESaIcEEEmED2Ev
	bne	s1, s2, .LBB33_58
	j	.LBB33_59
.LBB33_59:                              # %arraydestroy.done58
	j	.LBB33_132
.LBB33_60:                              # %lpad67
.Ltmp226:
	sd	a0, -200(s0)
	sw	a1, -204(s0)
	j	.LBB33_76
.LBB33_61:                              # %lpad69
.Ltmp229:
	sd	a0, -200(s0)
	sw	a1, -204(s0)
	j	.LBB33_75
.LBB33_62:                              # %lpad71
.Ltmp232:
	sd	a0, -200(s0)
	sw	a1, -204(s0)
	j	.LBB33_74
.LBB33_63:                              # %lpad76
.Ltmp235:
	sd	a0, -200(s0)
	sw	a1, -204(s0)
	j	.LBB33_73
.LBB33_64:                              # %lpad78
.Ltmp238:
	sd	a0, -200(s0)
	sw	a1, -204(s0)
	j	.LBB33_72
.LBB33_65:                              # %lpad80
.Ltmp241:
	sd	a0, -200(s0)
	sw	a1, -204(s0)
	j	.LBB33_71
.LBB33_66:                              # %lpad85
.Ltmp244:
	sd	a0, -200(s0)
	sw	a1, -204(s0)
	j	.LBB33_70
.LBB33_67:                              # %lpad87
.Ltmp247:
	sd	a0, -200(s0)
	sw	a1, -204(s0)
	j	.LBB33_69
.LBB33_68:                              # %lpad89
.Ltmp250:
	sd	a0, -200(s0)
	sw	a1, -204(s0)
	addi	a0, s0, -496
	call	_ZNSt7__cxx1112basic_stringIcSt11char_traitsIcESaIcEED1Ev
	j	.LBB33_69
.LBB33_69:                              # %ehcleanup92
	addi	a0, s0, -736
	call	_ZNSt7__cxx1112basic_stringIcSt11char_traitsIcESaIcEED1Ev
	j	.LBB33_70
.LBB33_70:                              # %ehcleanup93
	addi	a0, s0, -744
	call	_ZNSaIcED1Ev
	addi	a0, s0, -528
	call	_ZNSt7__cxx1112basic_stringIcSt11char_traitsIcESaIcEED1Ev
	j	.LBB33_71
.LBB33_71:                              # %ehcleanup95
	addi	a0, s0, -560
	call	_ZNSt7__cxx1112basic_stringIcSt11char_traitsIcESaIcEED1Ev
	j	.LBB33_72
.LBB33_72:                              # %ehcleanup96
	addi	a0, s0, -696
	call	_ZNSt7__cxx1112basic_stringIcSt11char_traitsIcESaIcEED1Ev
	j	.LBB33_73
.LBB33_73:                              # %ehcleanup97
	addi	a0, s0, -704
	call	_ZNSaIcED1Ev
	addi	a0, s0, -592
	call	_ZNSt7__cxx1112basic_stringIcSt11char_traitsIcESaIcEED1Ev
	j	.LBB33_74
.LBB33_74:                              # %ehcleanup99
	addi	a0, s0, -624
	call	_ZNSt7__cxx1112basic_stringIcSt11char_traitsIcESaIcEED1Ev
	j	.LBB33_75
.LBB33_75:                              # %ehcleanup100
	addi	a0, s0, -656
	call	_ZNSt7__cxx1112basic_stringIcSt11char_traitsIcESaIcEED1Ev
	j	.LBB33_76
.LBB33_76:                              # %ehcleanup101
	addi	a0, s0, -664
	call	_ZNSaIcED1Ev
	j	.LBB33_132
.LBB33_77:                              # %lpad103.loopexit
.Ltmp263:
	j	.LBB33_83
.LBB33_78:                              # %lpad103.loopexit.split-lp.loopexit
.Ltmp269:
	j	.LBB33_82
.LBB33_79:                              # %lpad103.loopexit.split-lp.loopexit.split-lp.loopexit
.Ltmp272:
	j	.LBB33_81
.LBB33_80:                              # %lpad103.loopexit.split-lp.loopexit.split-lp.loopexit.split-lp
.Ltmp266:
	j	.LBB33_81
.LBB33_81:                              # %lpad103.loopexit.split-lp.loopexit.split-lp
	j	.LBB33_82
.LBB33_82:                              # %lpad103.loopexit.split-lp
	j	.LBB33_83
.LBB33_83:                              # %lpad103
	sd	a0, -200(s0)
	sw	a1, -204(s0)
	j	.LBB33_131
.LBB33_84:                              # %lpad116
.Ltmp275:
	sd	a0, -200(s0)
	sw	a1, -204(s0)
	addi	a0, s0, -824
	call	_ZNSt10filesystem7__cxx114pathD2Ev
	j	.LBB33_131
.LBB33_85:                              # %lpad121
.Ltmp296:
	sd	a0, -200(s0)
	sw	a1, -204(s0)
	j	.LBB33_101
.LBB33_86:                              # %lpad130
.Ltmp280:
	sd	a0, -200(s0)
	sw	a1, -204(s0)
	j	.LBB33_94
.LBB33_87:                              # %lpad132
.Ltmp287:
	sd	a0, -200(s0)
	sw	a1, -204(s0)
	j	.LBB33_93
.LBB33_88:                              # %lpad145
.Ltmp290:
	sd	a0, -200(s0)
	sw	a1, -204(s0)
	j	.LBB33_90
.LBB33_89:                              # %lpad147
.Ltmp293:
	sd	a0, -200(s0)
	sw	a1, -204(s0)
	addi	a0, s0, -848
	call	_ZNSt6vectorISt4pairINSt7__cxx1112basic_stringIcSt11char_traitsIcESaIcEEEmESaIS7_EED2Ev
	j	.LBB33_90
.LBB33_90:                              # %ehcleanup150
	addi	a0, s0, -1032
	call	_ZNSaISt4pairINSt7__cxx1112basic_stringIcSt11char_traitsIcESaIcEEEmEED2Ev
	addi	s3, s0, -984
	addi	s1, s3, 120
	j	.LBB33_91
.LBB33_91:                              # %arraydestroy.body159
                                        # =>This Inner Loop Header: Depth=1
	addi	s1, s1, -40
	mv	a0, s1
	call	_ZNSt4pairINSt7__cxx1112basic_stringIcSt11char_traitsIcESaIcEEEmED2Ev
	bne	s1, s3, .LBB33_91
	j	.LBB33_92
.LBB33_92:                              # %arraydestroy.done163
	j	.LBB33_93
.LBB33_93:                              # %ehcleanup164
	addi	a0, s0, -1024
	call	_ZNSt7__cxx1112basic_stringIcSt11char_traitsIcESaIcEED1Ev
	j	.LBB33_94
.LBB33_94:                              # %ehcleanup165
	lbu	a0, -1025(s0)
	beqz	a0, .LBB33_100
	j	.LBB33_95
.LBB33_95:                              # %cleanup.action
	ld	s1, -992(s0)
	beq	s2, s1, .LBB33_99
	j	.LBB33_96
.LBB33_96:                              # %arraydestroy.body167.preheader
	j	.LBB33_97
.LBB33_97:                              # %arraydestroy.body167
                                        # =>This Inner Loop Header: Depth=1
	addi	s1, s1, -40
	mv	a0, s1
	call	_ZNSt4pairINSt7__cxx1112basic_stringIcSt11char_traitsIcESaIcEEEmED2Ev
	bne	s1, s2, .LBB33_97
	j	.LBB33_98
.LBB33_98:                              # %arraydestroy.done171.loopexit
	j	.LBB33_99
.LBB33_99:                              # %arraydestroy.done171
	j	.LBB33_100
.LBB33_100:                             # %cleanup.done
	j	.LBB33_101
.LBB33_101:                             # %ehcleanup175
	addi	a0, s0, -784
	call	_ZNSt7__cxx1112basic_stringIcSt11char_traitsIcESaIcEED1Ev
	j	.LBB33_131
.LBB33_102:                             # %for.end178
.Ltmp253:
	lui	a0, %hi(.L.str.20)
	addi	a0, a0, %lo(.L.str.20)
	call	printf
.Ltmp254:
	j	.LBB33_103
.LBB33_103:                             # %invoke.cont179
	j	.LBB33_104
.LBB33_104:                             # %while.cond
                                        # =>This Inner Loop Header: Depth=1
	j	.LBB33_105
.LBB33_105:                             # %while.body
                                        #   in Loop: Header=BB33_104 Depth=1
.Ltmp255:
	lui	a0, %hi(.L.str.21)
	addi	a0, a0, %lo(.L.str.21)
	addi	a1, s0, -1036
	call	scanf
.Ltmp256:
	j	.LBB33_106
.LBB33_106:                             # %invoke.cont181
                                        #   in Loop: Header=BB33_104 Depth=1
	lw	a0, -1036(s0)
	bltz	a0, .LBB33_108
	j	.LBB33_107
.LBB33_107:                             # %lor.lhs.false
                                        #   in Loop: Header=BB33_104 Depth=1
	lw	s1, -1036(s0)
	ld	a0, -64(s0)
	call	_ZNKSt6vectorI6OptionSaIS0_EE4sizeEv
	bltu	s1, a0, .LBB33_110
	j	.LBB33_108
.LBB33_108:                             # %if.then187
                                        #   in Loop: Header=BB33_104 Depth=1
.Ltmp267:
	lui	a0, %hi(.L.str.22)
	addi	a0, a0, %lo(.L.str.22)
	call	printf
.Ltmp268:
	j	.LBB33_109
.LBB33_109:                             # %invoke.cont188
                                        #   in Loop: Header=BB33_104 Depth=1
	j	.LBB33_111
.LBB33_110:                             # %if.else
	j	.LBB33_112
.LBB33_111:                             # %if.end190
                                        #   in Loop: Header=BB33_104 Depth=1
	j	.LBB33_104
.LBB33_112:                             # %while.end
	ld	a0, -64(s0)
	lw	a1, -1036(s0)
	call	_ZNSt6vectorI6OptionSaIS0_EEixEm
	lbu	a0, 76(a0)
	andi	a0, a0, 1
	beqz	a0, .LBB33_129
	j	.LBB33_113
.LBB33_113:                             # %if.then193
.Ltmp257:
	lui	a0, %hi(.L.str.23)
	addi	a0, a0, %lo(.L.str.23)
	call	printf
.Ltmp258:
	j	.LBB33_114
.LBB33_114:                             # %invoke.cont194
	j	.LBB33_115
.LBB33_115:                             # %while.cond196
                                        # =>This Inner Loop Header: Depth=1
.Ltmp259:
	lui	a0, %hi(.L.str.24)
	addi	a0, a0, %lo(.L.str.24)
	addi	a1, s0, -1037
	call	scanf
.Ltmp260:
	j	.LBB33_116
.LBB33_116:                             # %invoke.cont197
                                        #   in Loop: Header=BB33_115 Depth=1
	slli	a0, a0, 32
	srli	a0, a0, 32
	beqz	a0, .LBB33_124
	j	.LBB33_117
.LBB33_117:                             # %while.body200
                                        #   in Loop: Header=BB33_115 Depth=1
	lbu	a0, -1037(s0)
	addi	a1, zero, 121
	beq	a0, a1, .LBB33_121
	j	.LBB33_118
.LBB33_118:                             # %lor.lhs.false203
                                        #   in Loop: Header=BB33_115 Depth=1
	lbu	a0, -1037(s0)
	addi	a1, zero, 89
	beq	a0, a1, .LBB33_121
	j	.LBB33_119
.LBB33_119:                             # %lor.lhs.false206
                                        #   in Loop: Header=BB33_115 Depth=1
	lbu	a0, -1037(s0)
	addi	a1, zero, 110
	beq	a0, a1, .LBB33_121
	j	.LBB33_120
.LBB33_120:                             # %lor.lhs.false209
                                        #   in Loop: Header=BB33_115 Depth=1
	lbu	a0, -1037(s0)
	addi	a1, zero, 78
	bne	a0, a1, .LBB33_122
	j	.LBB33_121
.LBB33_121:                             # %if.then212
	j	.LBB33_125
.LBB33_122:                             # %if.end213
                                        #   in Loop: Header=BB33_115 Depth=1
.Ltmp261:
	lui	a0, %hi(.L.str.25)
	addi	a0, a0, %lo(.L.str.25)
	call	printf
.Ltmp262:
	j	.LBB33_123
.LBB33_123:                             # %invoke.cont214
                                        #   in Loop: Header=BB33_115 Depth=1
	j	.LBB33_115
.LBB33_124:                             # %while.end216.loopexit
	j	.LBB33_125
.LBB33_125:                             # %while.end216
	lbu	a0, -1037(s0)
	addi	a1, zero, 110
	beq	a0, a1, .LBB33_127
	j	.LBB33_126
.LBB33_126:                             # %lor.lhs.false219
	lbu	a0, -1037(s0)
	addi	a1, zero, 78
	bne	a0, a1, .LBB33_128
	j	.LBB33_127
.LBB33_127:                             # %if.then222
	ld	a0, -64(s0)
	lw	a1, -1036(s0)
	call	_ZNSt6vectorI6OptionSaIS0_EEixEm
	sb	zero, 76(a0)
	j	.LBB33_128
.LBB33_128:                             # %if.end226
	j	.LBB33_129
.LBB33_129:                             # %if.end227
	ld	a0, -64(s0)
	lw	a1, -1036(s0)
	call	_ZNSt6vectorI6OptionSaIS0_EEixEm
	mv	a1, a0
.Ltmp264:
	mv	a0, s3
	call	_ZN6OptionC2ERKS_
.Ltmp265:
	j	.LBB33_130
.LBB33_130:                             # %invoke.cont230
	addi	a0, s0, -464
	call	_ZNSt7__cxx1112basic_stringIcSt11char_traitsIcESaIcEED1Ev
	ld	s3, 1000(sp)
	ld	s2, 1008(sp)
	ld	s1, 1016(sp)
	ld	s0, 1024(sp)
	.cfi_def_cfa sp, 1040
	ld	ra, 1032(sp)
	.cfi_restore ra
	.cfi_restore s0
	.cfi_restore s1
	.cfi_restore s2
	.cfi_restore s3
	addi	sp, sp, 1040
	.cfi_def_cfa_offset 0
	ret
.LBB33_131:                             # %ehcleanup231
	addi	a0, s0, -464
	call	_ZNSt7__cxx1112basic_stringIcSt11char_traitsIcESaIcEED1Ev
	j	.LBB33_132
.LBB33_132:                             # %eh.resume
	ld	a0, -200(s0)
	call	_Unwind_Resume
.Lfunc_end33:
	.size	_Z9getOptionRSt6vectorI6OptionSaIS0_EE, .Lfunc_end33-_Z9getOptionRSt6vectorI6OptionSaIS0_EE
	.cfi_endproc
	.section	.gcc_except_table,"a",@progbits
	.p2align	2
GCC_except_table33:
.Lexception10:
	.byte	255                     # @LPStart Encoding = omit
	.byte	255                     # @TType Encoding = omit
	.byte	3                       # Call site Encoding = udata4
	.uleb128 .Lcst_end10-.Lcst_begin10
.Lcst_begin10:
	.word	.Lfunc_begin10-.Lfunc_begin10 # >> Call Site 1 <<
	.word	.Ltmp297-.Lfunc_begin10 #   Call between .Lfunc_begin10 and .Ltmp297
	.word	0                       #     has no landing pad
	.byte	0                       #   On action: cleanup
	.word	.Ltmp297-.Lfunc_begin10 # >> Call Site 2 <<
	.word	.Ltmp298-.Ltmp297       #   Call between .Ltmp297 and .Ltmp298
	.word	.Ltmp299-.Lfunc_begin10 #     jumps to .Ltmp299
	.byte	0                       #   On action: cleanup
	.word	.Ltmp300-.Lfunc_begin10 # >> Call Site 3 <<
	.word	.Ltmp301-.Ltmp300       #   Call between .Ltmp300 and .Ltmp301
	.word	.Ltmp302-.Lfunc_begin10 #     jumps to .Ltmp302
	.byte	0                       #   On action: cleanup
	.word	.Ltmp205-.Lfunc_begin10 # >> Call Site 4 <<
	.word	.Ltmp206-.Ltmp205       #   Call between .Ltmp205 and .Ltmp206
	.word	.Ltmp207-.Lfunc_begin10 #     jumps to .Ltmp207
	.byte	0                       #   On action: cleanup
	.word	.Ltmp208-.Lfunc_begin10 # >> Call Site 5 <<
	.word	.Ltmp209-.Ltmp208       #   Call between .Ltmp208 and .Ltmp209
	.word	.Ltmp210-.Lfunc_begin10 #     jumps to .Ltmp210
	.byte	0                       #   On action: cleanup
	.word	.Ltmp211-.Lfunc_begin10 # >> Call Site 6 <<
	.word	.Ltmp216-.Ltmp211       #   Call between .Ltmp211 and .Ltmp216
	.word	.Ltmp217-.Lfunc_begin10 #     jumps to .Ltmp217
	.byte	0                       #   On action: cleanup
	.word	.Ltmp218-.Lfunc_begin10 # >> Call Site 7 <<
	.word	.Ltmp219-.Ltmp218       #   Call between .Ltmp218 and .Ltmp219
	.word	.Ltmp220-.Lfunc_begin10 #     jumps to .Ltmp220
	.byte	0                       #   On action: cleanup
	.word	.Ltmp221-.Lfunc_begin10 # >> Call Site 8 <<
	.word	.Ltmp222-.Ltmp221       #   Call between .Ltmp221 and .Ltmp222
	.word	.Ltmp223-.Lfunc_begin10 #     jumps to .Ltmp223
	.byte	0                       #   On action: cleanup
	.word	.Ltmp224-.Lfunc_begin10 # >> Call Site 9 <<
	.word	.Ltmp225-.Ltmp224       #   Call between .Ltmp224 and .Ltmp225
	.word	.Ltmp226-.Lfunc_begin10 #     jumps to .Ltmp226
	.byte	0                       #   On action: cleanup
	.word	.Ltmp227-.Lfunc_begin10 # >> Call Site 10 <<
	.word	.Ltmp228-.Ltmp227       #   Call between .Ltmp227 and .Ltmp228
	.word	.Ltmp229-.Lfunc_begin10 #     jumps to .Ltmp229
	.byte	0                       #   On action: cleanup
	.word	.Ltmp230-.Lfunc_begin10 # >> Call Site 11 <<
	.word	.Ltmp231-.Ltmp230       #   Call between .Ltmp230 and .Ltmp231
	.word	.Ltmp232-.Lfunc_begin10 #     jumps to .Ltmp232
	.byte	0                       #   On action: cleanup
	.word	.Ltmp233-.Lfunc_begin10 # >> Call Site 12 <<
	.word	.Ltmp234-.Ltmp233       #   Call between .Ltmp233 and .Ltmp234
	.word	.Ltmp235-.Lfunc_begin10 #     jumps to .Ltmp235
	.byte	0                       #   On action: cleanup
	.word	.Ltmp236-.Lfunc_begin10 # >> Call Site 13 <<
	.word	.Ltmp237-.Ltmp236       #   Call between .Ltmp236 and .Ltmp237
	.word	.Ltmp238-.Lfunc_begin10 #     jumps to .Ltmp238
	.byte	0                       #   On action: cleanup
	.word	.Ltmp239-.Lfunc_begin10 # >> Call Site 14 <<
	.word	.Ltmp240-.Ltmp239       #   Call between .Ltmp239 and .Ltmp240
	.word	.Ltmp241-.Lfunc_begin10 #     jumps to .Ltmp241
	.byte	0                       #   On action: cleanup
	.word	.Ltmp242-.Lfunc_begin10 # >> Call Site 15 <<
	.word	.Ltmp243-.Ltmp242       #   Call between .Ltmp242 and .Ltmp243
	.word	.Ltmp244-.Lfunc_begin10 #     jumps to .Ltmp244
	.byte	0                       #   On action: cleanup
	.word	.Ltmp245-.Lfunc_begin10 # >> Call Site 16 <<
	.word	.Ltmp246-.Ltmp245       #   Call between .Ltmp245 and .Ltmp246
	.word	.Ltmp247-.Lfunc_begin10 #     jumps to .Ltmp247
	.byte	0                       #   On action: cleanup
	.word	.Ltmp248-.Lfunc_begin10 # >> Call Site 17 <<
	.word	.Ltmp249-.Ltmp248       #   Call between .Ltmp248 and .Ltmp249
	.word	.Ltmp250-.Lfunc_begin10 #     jumps to .Ltmp250
	.byte	0                       #   On action: cleanup
	.word	.Ltmp251-.Lfunc_begin10 # >> Call Site 18 <<
	.word	.Ltmp252-.Ltmp251       #   Call between .Ltmp251 and .Ltmp252
	.word	.Ltmp266-.Lfunc_begin10 #     jumps to .Ltmp266
	.byte	0                       #   On action: cleanup
	.word	.Ltmp270-.Lfunc_begin10 # >> Call Site 19 <<
	.word	.Ltmp271-.Ltmp270       #   Call between .Ltmp270 and .Ltmp271
	.word	.Ltmp272-.Lfunc_begin10 #     jumps to .Ltmp272
	.byte	0                       #   On action: cleanup
	.word	.Ltmp273-.Lfunc_begin10 # >> Call Site 20 <<
	.word	.Ltmp274-.Ltmp273       #   Call between .Ltmp273 and .Ltmp274
	.word	.Ltmp275-.Lfunc_begin10 #     jumps to .Ltmp275
	.byte	0                       #   On action: cleanup
	.word	.Ltmp276-.Lfunc_begin10 # >> Call Site 21 <<
	.word	.Ltmp277-.Ltmp276       #   Call between .Ltmp276 and .Ltmp277
	.word	.Ltmp296-.Lfunc_begin10 #     jumps to .Ltmp296
	.byte	0                       #   On action: cleanup
	.word	.Ltmp278-.Lfunc_begin10 # >> Call Site 22 <<
	.word	.Ltmp279-.Ltmp278       #   Call between .Ltmp278 and .Ltmp279
	.word	.Ltmp280-.Lfunc_begin10 #     jumps to .Ltmp280
	.byte	0                       #   On action: cleanup
	.word	.Ltmp281-.Lfunc_begin10 # >> Call Site 23 <<
	.word	.Ltmp286-.Ltmp281       #   Call between .Ltmp281 and .Ltmp286
	.word	.Ltmp287-.Lfunc_begin10 #     jumps to .Ltmp287
	.byte	0                       #   On action: cleanup
	.word	.Ltmp288-.Lfunc_begin10 # >> Call Site 24 <<
	.word	.Ltmp289-.Ltmp288       #   Call between .Ltmp288 and .Ltmp289
	.word	.Ltmp290-.Lfunc_begin10 #     jumps to .Ltmp290
	.byte	0                       #   On action: cleanup
	.word	.Ltmp291-.Lfunc_begin10 # >> Call Site 25 <<
	.word	.Ltmp292-.Ltmp291       #   Call between .Ltmp291 and .Ltmp292
	.word	.Ltmp293-.Lfunc_begin10 #     jumps to .Ltmp293
	.byte	0                       #   On action: cleanup
	.word	.Ltmp294-.Lfunc_begin10 # >> Call Site 26 <<
	.word	.Ltmp295-.Ltmp294       #   Call between .Ltmp294 and .Ltmp295
	.word	.Ltmp296-.Lfunc_begin10 #     jumps to .Ltmp296
	.byte	0                       #   On action: cleanup
	.word	.Ltmp253-.Lfunc_begin10 # >> Call Site 27 <<
	.word	.Ltmp254-.Ltmp253       #   Call between .Ltmp253 and .Ltmp254
	.word	.Ltmp266-.Lfunc_begin10 #     jumps to .Ltmp266
	.byte	0                       #   On action: cleanup
	.word	.Ltmp255-.Lfunc_begin10 # >> Call Site 28 <<
	.word	.Ltmp268-.Ltmp255       #   Call between .Ltmp255 and .Ltmp268
	.word	.Ltmp269-.Lfunc_begin10 #     jumps to .Ltmp269
	.byte	0                       #   On action: cleanup
	.word	.Ltmp257-.Lfunc_begin10 # >> Call Site 29 <<
	.word	.Ltmp258-.Ltmp257       #   Call between .Ltmp257 and .Ltmp258
	.word	.Ltmp266-.Lfunc_begin10 #     jumps to .Ltmp266
	.byte	0                       #   On action: cleanup
	.word	.Ltmp259-.Lfunc_begin10 # >> Call Site 30 <<
	.word	.Ltmp262-.Ltmp259       #   Call between .Ltmp259 and .Ltmp262
	.word	.Ltmp263-.Lfunc_begin10 #     jumps to .Ltmp263
	.byte	0                       #   On action: cleanup
	.word	.Ltmp264-.Lfunc_begin10 # >> Call Site 31 <<
	.word	.Ltmp265-.Ltmp264       #   Call between .Ltmp264 and .Ltmp265
	.word	.Ltmp266-.Lfunc_begin10 #     jumps to .Ltmp266
	.byte	0                       #   On action: cleanup
	.word	.Ltmp265-.Lfunc_begin10 # >> Call Site 32 <<
	.word	.Lfunc_end33-.Ltmp265   #   Call between .Ltmp265 and .Lfunc_end33
	.word	0                       #     has no landing pad
	.byte	0                       #   On action: cleanup
.Lcst_end10:
	.p2align	2
                                        # -- End function
	.section	.text._ZNSt6vectorI6OptionSaIS0_EE5beginEv,"axG",@progbits,_ZNSt6vectorI6OptionSaIS0_EE5beginEv,comdat
	.weak	_ZNSt6vectorI6OptionSaIS0_EE5beginEv # -- Begin function _ZNSt6vectorI6OptionSaIS0_EE5beginEv
	.p2align	2
	.type	_ZNSt6vectorI6OptionSaIS0_EE5beginEv,@function
_ZNSt6vectorI6OptionSaIS0_EE5beginEv:   # @_ZNSt6vectorI6OptionSaIS0_EE5beginEv
# %bb.0:                                # %entry
	addi	sp, sp, -32
	sd	ra, 24(sp)
	sd	s0, 16(sp)
	addi	s0, sp, 32
	sd	a0, -32(s0)
	ld	a1, -32(s0)
	addi	a0, s0, -24
	call	_ZN9__gnu_cxx17__normal_iteratorIP6OptionSt6vectorIS1_SaIS1_EEEC2ERKS2_
	ld	a0, -24(s0)
	ld	s0, 16(sp)
	ld	ra, 24(sp)
	addi	sp, sp, 32
	ret
.Lfunc_end34:
	.size	_ZNSt6vectorI6OptionSaIS0_EE5beginEv, .Lfunc_end34-_ZNSt6vectorI6OptionSaIS0_EE5beginEv
                                        # -- End function
	.section	.text._ZNSt6vectorI6OptionSaIS0_EE3endEv,"axG",@progbits,_ZNSt6vectorI6OptionSaIS0_EE3endEv,comdat
	.weak	_ZNSt6vectorI6OptionSaIS0_EE3endEv # -- Begin function _ZNSt6vectorI6OptionSaIS0_EE3endEv
	.p2align	2
	.type	_ZNSt6vectorI6OptionSaIS0_EE3endEv,@function
_ZNSt6vectorI6OptionSaIS0_EE3endEv:     # @_ZNSt6vectorI6OptionSaIS0_EE3endEv
# %bb.0:                                # %entry
	addi	sp, sp, -32
	sd	ra, 24(sp)
	sd	s0, 16(sp)
	addi	s0, sp, 32
	sd	a0, -32(s0)
	ld	a0, -32(s0)
	addi	a1, a0, 8
	addi	a0, s0, -24
	call	_ZN9__gnu_cxx17__normal_iteratorIP6OptionSt6vectorIS1_SaIS1_EEEC2ERKS2_
	ld	a0, -24(s0)
	ld	s0, 16(sp)
	ld	ra, 24(sp)
	addi	sp, sp, 32
	ret
.Lfunc_end35:
	.size	_ZNSt6vectorI6OptionSaIS0_EE3endEv, .Lfunc_end35-_ZNSt6vectorI6OptionSaIS0_EE3endEv
                                        # -- End function
	.section	.text._ZN9__gnu_cxxneIP6OptionSt6vectorIS1_SaIS1_EEEEbRKNS_17__normal_iteratorIT_T0_EESB_,"axG",@progbits,_ZN9__gnu_cxxneIP6OptionSt6vectorIS1_SaIS1_EEEEbRKNS_17__normal_iteratorIT_T0_EESB_,comdat
	.weak	_ZN9__gnu_cxxneIP6OptionSt6vectorIS1_SaIS1_EEEEbRKNS_17__normal_iteratorIT_T0_EESB_ # -- Begin function _ZN9__gnu_cxxneIP6OptionSt6vectorIS1_SaIS1_EEEEbRKNS_17__normal_iteratorIT_T0_EESB_
	.p2align	2
	.type	_ZN9__gnu_cxxneIP6OptionSt6vectorIS1_SaIS1_EEEEbRKNS_17__normal_iteratorIT_T0_EESB_,@function
_ZN9__gnu_cxxneIP6OptionSt6vectorIS1_SaIS1_EEEEbRKNS_17__normal_iteratorIT_T0_EESB_: # @_ZN9__gnu_cxxneIP6OptionSt6vectorIS1_SaIS1_EEEEbRKNS_17__normal_iteratorIT_T0_EESB_
# %bb.0:                                # %entry
	addi	sp, sp, -48
	sd	ra, 40(sp)
	sd	s0, 32(sp)
	sd	s1, 24(sp)
	addi	s0, sp, 48
	sd	a0, -32(s0)
	sd	a1, -40(s0)
	ld	a0, -32(s0)
	call	_ZNK9__gnu_cxx17__normal_iteratorIP6OptionSt6vectorIS1_SaIS1_EEE4baseEv
	ld	s1, 0(a0)
	ld	a0, -40(s0)
	call	_ZNK9__gnu_cxx17__normal_iteratorIP6OptionSt6vectorIS1_SaIS1_EEE4baseEv
	ld	a0, 0(a0)
	xor	a0, s1, a0
	snez	a0, a0
	ld	s1, 24(sp)
	ld	s0, 32(sp)
	ld	ra, 40(sp)
	addi	sp, sp, 48
	ret
.Lfunc_end36:
	.size	_ZN9__gnu_cxxneIP6OptionSt6vectorIS1_SaIS1_EEEEbRKNS_17__normal_iteratorIT_T0_EESB_, .Lfunc_end36-_ZN9__gnu_cxxneIP6OptionSt6vectorIS1_SaIS1_EEEEbRKNS_17__normal_iteratorIT_T0_EESB_
                                        # -- End function
	.section	.text._ZNK9__gnu_cxx17__normal_iteratorIP6OptionSt6vectorIS1_SaIS1_EEEdeEv,"axG",@progbits,_ZNK9__gnu_cxx17__normal_iteratorIP6OptionSt6vectorIS1_SaIS1_EEEdeEv,comdat
	.weak	_ZNK9__gnu_cxx17__normal_iteratorIP6OptionSt6vectorIS1_SaIS1_EEEdeEv # -- Begin function _ZNK9__gnu_cxx17__normal_iteratorIP6OptionSt6vectorIS1_SaIS1_EEEdeEv
	.p2align	2
	.type	_ZNK9__gnu_cxx17__normal_iteratorIP6OptionSt6vectorIS1_SaIS1_EEEdeEv,@function
_ZNK9__gnu_cxx17__normal_iteratorIP6OptionSt6vectorIS1_SaIS1_EEEdeEv: # @_ZNK9__gnu_cxx17__normal_iteratorIP6OptionSt6vectorIS1_SaIS1_EEEdeEv
# %bb.0:                                # %entry
	addi	sp, sp, -32
	sd	ra, 24(sp)
	sd	s0, 16(sp)
	addi	s0, sp, 32
	sd	a0, -24(s0)
	ld	a0, -24(s0)
	ld	a0, 0(a0)
	ld	s0, 16(sp)
	ld	ra, 24(sp)
	addi	sp, sp, 32
	ret
.Lfunc_end37:
	.size	_ZNK9__gnu_cxx17__normal_iteratorIP6OptionSt6vectorIS1_SaIS1_EEEdeEv, .Lfunc_end37-_ZNK9__gnu_cxx17__normal_iteratorIP6OptionSt6vectorIS1_SaIS1_EEEdeEv
                                        # -- End function
	.section	.text._ZNKSt10filesystem7__cxx114path8filenameEv,"axG",@progbits,_ZNKSt10filesystem7__cxx114path8filenameEv,comdat
	.weak	_ZNKSt10filesystem7__cxx114path8filenameEv # -- Begin function _ZNKSt10filesystem7__cxx114path8filenameEv
	.p2align	2
	.type	_ZNKSt10filesystem7__cxx114path8filenameEv,@function
_ZNKSt10filesystem7__cxx114path8filenameEv: # @_ZNKSt10filesystem7__cxx114path8filenameEv
	.cfi_startproc
# %bb.0:                                # %entry
	addi	sp, sp, -96
	.cfi_def_cfa_offset 96
	sd	ra, 88(sp)
	sd	s0, 80(sp)
	sd	s1, 72(sp)
	sd	s2, 64(sp)
	sd	s3, 56(sp)
	.cfi_offset ra, -8
	.cfi_offset s0, -16
	.cfi_offset s1, -24
	.cfi_offset s2, -32
	.cfi_offset s3, -40
	addi	s0, sp, 96
	.cfi_def_cfa s0, 0
	mv	s2, a0
	sd	s2, -48(s0)
	sd	a1, -56(s0)
	ld	s1, -56(s0)
	mv	a0, s1
	call	_ZNKSt10filesystem7__cxx114path5emptyEv
	beqz	a0, .LBB38_2
	j	.LBB38_1
.LBB38_1:                               # %if.then
	mv	a0, s2
	call	_ZNSt10filesystem7__cxx114pathC2Ev
	j	.LBB38_13
.LBB38_2:                               # %if.else
	mv	a0, s1
	call	_ZNKSt10filesystem7__cxx114path7_M_typeEv
	addi	a1, zero, 3
	bne	a0, a1, .LBB38_4
	j	.LBB38_3
.LBB38_3:                               # %if.then3
	mv	a0, s2
	mv	a1, s1
	call	_ZNSt10filesystem7__cxx114pathC2ERKS1_
	j	.LBB38_13
.LBB38_4:                               # %if.else4
	mv	a0, s1
	call	_ZNKSt10filesystem7__cxx114path7_M_typeEv
	bnez	a0, .LBB38_10
	j	.LBB38_5
.LBB38_5:                               # %if.then7
	mv	a0, s1
	call	_ZNKSt7__cxx1112basic_stringIcSt11char_traitsIcESaIcEE4backEv
	lbu	a0, 0(a0)
	addi	a1, zero, 47
	bne	a0, a1, .LBB38_7
	j	.LBB38_6
.LBB38_6:                               # %if.then10
	mv	a0, s2
	call	_ZNSt10filesystem7__cxx114pathC2Ev
	j	.LBB38_13
.LBB38_7:                               # %if.end
	addi	s3, s0, -88
	mv	a0, s3
	mv	a1, s1
	call	_ZNKSt10filesystem7__cxx114path3endEv
	mv	a0, s3
	call	_ZNSt10filesystem7__cxx114path8iteratormmEv
	call	_ZNKSt10filesystem7__cxx114path8iteratordeEv
	sd	a0, -64(s0)
	ld	a0, -64(s0)
	call	_ZNKSt10filesystem7__cxx114path7_M_typeEv
	addi	a1, zero, 3
	bne	a0, a1, .LBB38_9
	j	.LBB38_8
.LBB38_8:                               # %if.then15
	ld	a1, -64(s0)
	mv	a0, s2
	call	_ZNSt10filesystem7__cxx114pathC2ERKS1_
	j	.LBB38_13
.LBB38_9:                               # %if.end16
	j	.LBB38_10
.LBB38_10:                              # %if.end17
	j	.LBB38_11
.LBB38_11:                              # %if.end18
	j	.LBB38_12
.LBB38_12:                              # %if.end19
	mv	a0, s2
	call	_ZNSt10filesystem7__cxx114pathC2Ev
	j	.LBB38_13
.LBB38_13:                              # %return
	ld	s3, 56(sp)
	ld	s2, 64(sp)
	ld	s1, 72(sp)
	ld	s0, 80(sp)
	.cfi_def_cfa sp, 96
	ld	ra, 88(sp)
	.cfi_restore ra
	.cfi_restore s0
	.cfi_restore s1
	.cfi_restore s2
	.cfi_restore s3
	addi	sp, sp, 96
	.cfi_def_cfa_offset 0
	ret
.Lfunc_end38:
	.size	_ZNKSt10filesystem7__cxx114path8filenameEv, .Lfunc_end38-_ZNKSt10filesystem7__cxx114path8filenameEv
	.cfi_endproc
                                        # -- End function
	.section	.text._ZNKSt10filesystem7__cxx114path6stringEv,"axG",@progbits,_ZNKSt10filesystem7__cxx114path6stringEv,comdat
	.weak	_ZNKSt10filesystem7__cxx114path6stringEv # -- Begin function _ZNKSt10filesystem7__cxx114path6stringEv
	.p2align	2
	.type	_ZNKSt10filesystem7__cxx114path6stringEv,@function
_ZNKSt10filesystem7__cxx114path6stringEv: # @_ZNKSt10filesystem7__cxx114path6stringEv
.Lfunc_begin11:
	.cfi_startproc
	.cfi_personality 155, DW.ref.__gxx_personality_v0
	.cfi_lsda 27, .Lexception11
# %bb.0:                                # %entry
	addi	sp, sp, -80
	.cfi_def_cfa_offset 80
	sd	ra, 72(sp)
	sd	s0, 64(sp)
	sd	s1, 56(sp)
	sd	s2, 48(sp)
	sd	s3, 40(sp)
	.cfi_offset ra, -8
	.cfi_offset s0, -16
	.cfi_offset s1, -24
	.cfi_offset s2, -32
	.cfi_offset s3, -40
	addi	s0, sp, 80
	.cfi_def_cfa s0, 0
	mv	s1, a0
	sd	s1, -48(s0)
	sd	a1, -56(s0)
	ld	s2, -56(s0)
	addi	s3, s0, -64
	mv	a0, s3
	call	_ZNSaIcEC1Ev
.Ltmp303:
	mv	a0, s1
	mv	a1, s2
	mv	a2, s3
	call	_ZNKSt10filesystem7__cxx114path6stringIcSt11char_traitsIcESaIcEEENSt7__cxx1112basic_stringIT_T0_T1_EERKSA_
.Ltmp304:
	j	.LBB39_1
.LBB39_1:                               # %invoke.cont
	addi	a0, s0, -64
	call	_ZNSaIcED1Ev
	ld	s3, 40(sp)
	ld	s2, 48(sp)
	ld	s1, 56(sp)
	ld	s0, 64(sp)
	.cfi_def_cfa sp, 80
	ld	ra, 72(sp)
	.cfi_restore ra
	.cfi_restore s0
	.cfi_restore s1
	.cfi_restore s2
	.cfi_restore s3
	addi	sp, sp, 80
	.cfi_def_cfa_offset 0
	ret
.LBB39_2:                               # %lpad
.Ltmp305:
	sd	a0, -72(s0)
	sw	a1, -76(s0)
	addi	a0, s0, -64
	call	_ZNSaIcED1Ev
	j	.LBB39_3
.LBB39_3:                               # %eh.resume
	ld	a0, -72(s0)
	call	_Unwind_Resume
.Lfunc_end39:
	.size	_ZNKSt10filesystem7__cxx114path6stringEv, .Lfunc_end39-_ZNKSt10filesystem7__cxx114path6stringEv
	.cfi_endproc
	.section	.gcc_except_table,"a",@progbits
	.p2align	2
GCC_except_table39:
.Lexception11:
	.byte	255                     # @LPStart Encoding = omit
	.byte	255                     # @TType Encoding = omit
	.byte	3                       # Call site Encoding = udata4
	.uleb128 .Lcst_end11-.Lcst_begin11
.Lcst_begin11:
	.word	.Ltmp303-.Lfunc_begin11 # >> Call Site 1 <<
	.word	.Ltmp304-.Ltmp303       #   Call between .Ltmp303 and .Ltmp304
	.word	.Ltmp305-.Lfunc_begin11 #     jumps to .Ltmp305
	.byte	0                       #   On action: cleanup
	.word	.Ltmp304-.Lfunc_begin11 # >> Call Site 2 <<
	.word	.Lfunc_end39-.Ltmp304   #   Call between .Ltmp304 and .Lfunc_end39
	.word	0                       #     has no landing pad
	.byte	0                       #   On action: cleanup
.Lcst_end11:
	.p2align	2
                                        # -- End function
	.section	.text._ZN9__gnu_cxx17__normal_iteratorIP6OptionSt6vectorIS1_SaIS1_EEEppEv,"axG",@progbits,_ZN9__gnu_cxx17__normal_iteratorIP6OptionSt6vectorIS1_SaIS1_EEEppEv,comdat
	.weak	_ZN9__gnu_cxx17__normal_iteratorIP6OptionSt6vectorIS1_SaIS1_EEEppEv # -- Begin function _ZN9__gnu_cxx17__normal_iteratorIP6OptionSt6vectorIS1_SaIS1_EEEppEv
	.p2align	2
	.type	_ZN9__gnu_cxx17__normal_iteratorIP6OptionSt6vectorIS1_SaIS1_EEEppEv,@function
_ZN9__gnu_cxx17__normal_iteratorIP6OptionSt6vectorIS1_SaIS1_EEEppEv: # @_ZN9__gnu_cxx17__normal_iteratorIP6OptionSt6vectorIS1_SaIS1_EEEppEv
# %bb.0:                                # %entry
	addi	sp, sp, -32
	sd	ra, 24(sp)
	sd	s0, 16(sp)
	addi	s0, sp, 32
	sd	a0, -24(s0)
	ld	a0, -24(s0)
	ld	a1, 0(a0)
	addi	a1, a1, 80
	sd	a1, 0(a0)
	ld	s0, 16(sp)
	ld	ra, 24(sp)
	addi	sp, sp, 32
	ret
.Lfunc_end40:
	.size	_ZN9__gnu_cxx17__normal_iteratorIP6OptionSt6vectorIS1_SaIS1_EEEppEv, .Lfunc_end40-_ZN9__gnu_cxx17__normal_iteratorIP6OptionSt6vectorIS1_SaIS1_EEEppEv
                                        # -- End function
	.section	.text._ZNSt7__cxx1112basic_stringIcSt11char_traitsIcESaIcEEC2IS3_EEmcRKS3_,"axG",@progbits,_ZNSt7__cxx1112basic_stringIcSt11char_traitsIcESaIcEEC2IS3_EEmcRKS3_,comdat
	.weak	_ZNSt7__cxx1112basic_stringIcSt11char_traitsIcESaIcEEC2IS3_EEmcRKS3_ # -- Begin function _ZNSt7__cxx1112basic_stringIcSt11char_traitsIcESaIcEEC2IS3_EEmcRKS3_
	.p2align	2
	.type	_ZNSt7__cxx1112basic_stringIcSt11char_traitsIcESaIcEEC2IS3_EEmcRKS3_,@function
_ZNSt7__cxx1112basic_stringIcSt11char_traitsIcESaIcEEC2IS3_EEmcRKS3_: # @_ZNSt7__cxx1112basic_stringIcSt11char_traitsIcESaIcEEC2IS3_EEmcRKS3_
.Lfunc_begin12:
	.cfi_startproc
	.cfi_personality 155, DW.ref.__gxx_personality_v0
	.cfi_lsda 27, .Lexception12
# %bb.0:                                # %entry
	addi	sp, sp, -80
	.cfi_def_cfa_offset 80
	sd	ra, 72(sp)
	sd	s0, 64(sp)
	sd	s1, 56(sp)
	.cfi_offset ra, -8
	.cfi_offset s0, -16
	.cfi_offset s1, -24
	addi	s0, sp, 80
	.cfi_def_cfa s0, 0
	sd	a0, -32(s0)
	sd	a1, -40(s0)
	sb	a2, -41(s0)
	sd	a3, -56(s0)
	ld	s1, -32(s0)
	mv	a0, s1
	call	_ZNSt7__cxx1112basic_stringIcSt11char_traitsIcESaIcEE13_M_local_dataEv
	mv	a1, a0
	ld	a2, -56(s0)
	mv	a0, s1
	call	_ZNSt7__cxx1112basic_stringIcSt11char_traitsIcESaIcEE12_Alloc_hiderC1EPcRKS3_
	ld	a1, -40(s0)
	lbu	a2, -41(s0)
.Ltmp306:
	mv	a0, s1
	call	_ZNSt7__cxx1112basic_stringIcSt11char_traitsIcESaIcEE12_M_constructEmc
.Ltmp307:
	j	.LBB41_1
.LBB41_1:                               # %invoke.cont
	ld	s1, 56(sp)
	ld	s0, 64(sp)
	.cfi_def_cfa sp, 80
	ld	ra, 72(sp)
	.cfi_restore ra
	.cfi_restore s0
	.cfi_restore s1
	addi	sp, sp, 80
	.cfi_def_cfa_offset 0
	ret
.LBB41_2:                               # %lpad
.Ltmp308:
	sd	a0, -64(s0)
	sw	a1, -68(s0)
	mv	a0, s1
	call	_ZNSt7__cxx1112basic_stringIcSt11char_traitsIcESaIcEE12_Alloc_hiderD2Ev
	j	.LBB41_3
.LBB41_3:                               # %eh.resume
	ld	a0, -64(s0)
	call	_Unwind_Resume
.Lfunc_end41:
	.size	_ZNSt7__cxx1112basic_stringIcSt11char_traitsIcESaIcEEC2IS3_EEmcRKS3_, .Lfunc_end41-_ZNSt7__cxx1112basic_stringIcSt11char_traitsIcESaIcEEC2IS3_EEmcRKS3_
	.cfi_endproc
	.section	.gcc_except_table,"a",@progbits
	.p2align	2
GCC_except_table41:
.Lexception12:
	.byte	255                     # @LPStart Encoding = omit
	.byte	255                     # @TType Encoding = omit
	.byte	3                       # Call site Encoding = udata4
	.uleb128 .Lcst_end12-.Lcst_begin12
.Lcst_begin12:
	.word	.Lfunc_begin12-.Lfunc_begin12 # >> Call Site 1 <<
	.word	.Ltmp306-.Lfunc_begin12 #   Call between .Lfunc_begin12 and .Ltmp306
	.word	0                       #     has no landing pad
	.byte	0                       #   On action: cleanup
	.word	.Ltmp306-.Lfunc_begin12 # >> Call Site 2 <<
	.word	.Ltmp307-.Ltmp306       #   Call between .Ltmp306 and .Ltmp307
	.word	.Ltmp308-.Lfunc_begin12 #     jumps to .Ltmp308
	.byte	0                       #   On action: cleanup
	.word	.Ltmp307-.Lfunc_begin12 # >> Call Site 3 <<
	.word	.Lfunc_end41-.Ltmp307   #   Call between .Ltmp307 and .Lfunc_end41
	.word	0                       #     has no landing pad
	.byte	0                       #   On action: cleanup
.Lcst_end12:
	.p2align	2
                                        # -- End function
	.text
	.p2align	2               # -- Begin function _ZZ9getOptionRSt6vectorI6OptionSaIS0_EEENK3$_0clES_ISt4pairINSt7__cxx1112basic_stringIcSt11char_traitsIcESaIcEEEmESaISC_EE
	.type	_ZZ9getOptionRSt6vectorI6OptionSaIS0_EEENK3$_0clES_ISt4pairINSt7__cxx1112basic_stringIcSt11char_traitsIcESaIcEEEmESaISC_EE,@function
_ZZ9getOptionRSt6vectorI6OptionSaIS0_EEENK3$_0clES_ISt4pairINSt7__cxx1112basic_stringIcSt11char_traitsIcESaIcEEEmESaISC_EE: # @"_ZZ9getOptionRSt6vectorI6OptionSaIS0_EEENK3$_0clES_ISt4pairINSt7__cxx1112basic_stringIcSt11char_traitsIcESaIcEEEmESaISC_EE"
.Lfunc_begin13:
	.cfi_startproc
	.cfi_personality 155, DW.ref.__gxx_personality_v0
	.cfi_lsda 27, .Lexception13
# %bb.0:                                # %entry
	addi	sp, sp, -144
	.cfi_def_cfa_offset 144
	sd	ra, 136(sp)
	sd	s0, 128(sp)
	sd	s1, 120(sp)
	sd	s2, 112(sp)
	sd	s3, 104(sp)
	.cfi_offset ra, -8
	.cfi_offset s0, -16
	.cfi_offset s1, -24
	.cfi_offset s2, -32
	.cfi_offset s3, -40
	addi	s0, sp, 144
	.cfi_def_cfa s0, 0
	mv	s1, a1
	sd	a0, -48(s0)
	lui	a0, %hi(.L.str.26)
	addi	a0, a0, %lo(.L.str.26)
	call	printf
	sd	s1, -56(s0)
	ld	a0, -56(s0)
	call	_ZNSt6vectorISt4pairINSt7__cxx1112basic_stringIcSt11char_traitsIcESaIcEEEmESaIS7_EE5beginEv
	sd	a0, -64(s0)
	ld	a0, -56(s0)
	call	_ZNSt6vectorISt4pairINSt7__cxx1112basic_stringIcSt11char_traitsIcESaIcEEEmESaIS7_EE3endEv
	sd	a0, -72(s0)
	j	.LBB42_1
.LBB42_1:                               # %for.cond
                                        # =>This Inner Loop Header: Depth=1
	addi	a0, s0, -64
	addi	a1, s0, -72
	call	_ZN9__gnu_cxxneIPSt4pairINSt7__cxx1112basic_stringIcSt11char_traitsIcESaIcEEEmESt6vectorIS8_SaIS8_EEEEbRKNS_17__normal_iteratorIT_T0_EESI_
	beqz	a0, .LBB42_9
	j	.LBB42_2
.LBB42_2:                               # %for.body
                                        #   in Loop: Header=BB42_1 Depth=1
	addi	a0, s0, -64
	call	_ZNK9__gnu_cxx17__normal_iteratorIPSt4pairINSt7__cxx1112basic_stringIcSt11char_traitsIcESaIcEEEmESt6vectorIS8_SaIS8_EEEdeEv
	sd	a0, -80(s0)
	ld	a0, -80(s0)
	call	_ZNKSt7__cxx1112basic_stringIcSt11char_traitsIcESaIcEE5c_strEv
	mv	s2, a0
	ld	a0, -80(s0)
	ld	s1, 32(a0)
	call	_ZNKSt7__cxx1112basic_stringIcSt11char_traitsIcESaIcEE4sizeEv
	sub	s1, s1, a0
	addi	s3, s0, -120
	mv	a0, s3
	call	_ZNSaIcEC1Ev
.Ltmp309:
	addi	a0, s0, -112
	mv	a1, s1
	addi	a2, zero, 32
	mv	a3, s3
	call	_ZNSt7__cxx1112basic_stringIcSt11char_traitsIcESaIcEEC2IS3_EEmcRKS3_
.Ltmp310:
	j	.LBB42_3
.LBB42_3:                               # %invoke.cont
                                        #   in Loop: Header=BB42_1 Depth=1
	addi	a0, s0, -112
	call	_ZNKSt7__cxx1112basic_stringIcSt11char_traitsIcESaIcEE5c_strEv
	mv	a2, a0
.Ltmp312:
	lui	a0, %hi(.L.str.27)
	addi	a0, a0, %lo(.L.str.27)
	mv	a1, s2
	call	printf
.Ltmp313:
	j	.LBB42_4
.LBB42_4:                               # %invoke.cont14
                                        #   in Loop: Header=BB42_1 Depth=1
	addi	a0, s0, -112
	call	_ZNSt7__cxx1112basic_stringIcSt11char_traitsIcESaIcEED1Ev
	addi	a0, s0, -120
	call	_ZNSaIcED1Ev
	lui	a0, %hi(.L.str.26)
	addi	a0, a0, %lo(.L.str.26)
	call	printf
	j	.LBB42_5
.LBB42_5:                               # %for.inc
                                        #   in Loop: Header=BB42_1 Depth=1
	addi	a0, s0, -64
	call	_ZN9__gnu_cxx17__normal_iteratorIPSt4pairINSt7__cxx1112basic_stringIcSt11char_traitsIcESaIcEEEmESt6vectorIS8_SaIS8_EEEppEv
	j	.LBB42_1
.LBB42_6:                               # %lpad
.Ltmp311:
	sd	a0, -128(s0)
	sw	a1, -132(s0)
	j	.LBB42_8
.LBB42_7:                               # %lpad13
.Ltmp314:
	sd	a0, -128(s0)
	sw	a1, -132(s0)
	addi	a0, s0, -112
	call	_ZNSt7__cxx1112basic_stringIcSt11char_traitsIcESaIcEED1Ev
	j	.LBB42_8
.LBB42_8:                               # %ehcleanup
	addi	a0, s0, -120
	call	_ZNSaIcED1Ev
	j	.LBB42_10
.LBB42_9:                               # %for.end
	lui	a0, %hi(.L.str.28)
	addi	a0, a0, %lo(.L.str.28)
	call	printf
	ld	s3, 104(sp)
	ld	s2, 112(sp)
	ld	s1, 120(sp)
	ld	s0, 128(sp)
	.cfi_def_cfa sp, 144
	ld	ra, 136(sp)
	.cfi_restore ra
	.cfi_restore s0
	.cfi_restore s1
	.cfi_restore s2
	.cfi_restore s3
	addi	sp, sp, 144
	.cfi_def_cfa_offset 0
	ret
.LBB42_10:                              # %eh.resume
	ld	a0, -128(s0)
	call	_Unwind_Resume
.Lfunc_end42:
	.size	_ZZ9getOptionRSt6vectorI6OptionSaIS0_EEENK3$_0clES_ISt4pairINSt7__cxx1112basic_stringIcSt11char_traitsIcESaIcEEEmESaISC_EE, .Lfunc_end42-_ZZ9getOptionRSt6vectorI6OptionSaIS0_EEENK3$_0clES_ISt4pairINSt7__cxx1112basic_stringIcSt11char_traitsIcESaIcEEEmESaISC_EE
	.cfi_endproc
	.section	.gcc_except_table,"a",@progbits
	.p2align	2
GCC_except_table42:
.Lexception13:
	.byte	255                     # @LPStart Encoding = omit
	.byte	255                     # @TType Encoding = omit
	.byte	3                       # Call site Encoding = udata4
	.uleb128 .Lcst_end13-.Lcst_begin13
.Lcst_begin13:
	.word	.Lfunc_begin13-.Lfunc_begin13 # >> Call Site 1 <<
	.word	.Ltmp309-.Lfunc_begin13 #   Call between .Lfunc_begin13 and .Ltmp309
	.word	0                       #     has no landing pad
	.byte	0                       #   On action: cleanup
	.word	.Ltmp309-.Lfunc_begin13 # >> Call Site 2 <<
	.word	.Ltmp310-.Ltmp309       #   Call between .Ltmp309 and .Ltmp310
	.word	.Ltmp311-.Lfunc_begin13 #     jumps to .Ltmp311
	.byte	0                       #   On action: cleanup
	.word	.Ltmp312-.Lfunc_begin13 # >> Call Site 3 <<
	.word	.Ltmp313-.Ltmp312       #   Call between .Ltmp312 and .Ltmp313
	.word	.Ltmp314-.Lfunc_begin13 #     jumps to .Ltmp314
	.byte	0                       #   On action: cleanup
	.word	.Ltmp313-.Lfunc_begin13 # >> Call Site 4 <<
	.word	.Lfunc_end42-.Ltmp313   #   Call between .Ltmp313 and .Lfunc_end42
	.word	0                       #     has no landing pad
	.byte	0                       #   On action: cleanup
.Lcst_end13:
	.p2align	2
                                        # -- End function
	.section	.text._ZNSt4pairINSt7__cxx1112basic_stringIcSt11char_traitsIcESaIcEEEmEC2IRA7_KcRmLb1EEEOT_OT0_,"axG",@progbits,_ZNSt4pairINSt7__cxx1112basic_stringIcSt11char_traitsIcESaIcEEEmEC2IRA7_KcRmLb1EEEOT_OT0_,comdat
	.weak	_ZNSt4pairINSt7__cxx1112basic_stringIcSt11char_traitsIcESaIcEEEmEC2IRA7_KcRmLb1EEEOT_OT0_ # -- Begin function _ZNSt4pairINSt7__cxx1112basic_stringIcSt11char_traitsIcESaIcEEEmEC2IRA7_KcRmLb1EEEOT_OT0_
	.p2align	2
	.type	_ZNSt4pairINSt7__cxx1112basic_stringIcSt11char_traitsIcESaIcEEEmEC2IRA7_KcRmLb1EEEOT_OT0_,@function
_ZNSt4pairINSt7__cxx1112basic_stringIcSt11char_traitsIcESaIcEEEmEC2IRA7_KcRmLb1EEEOT_OT0_: # @_ZNSt4pairINSt7__cxx1112basic_stringIcSt11char_traitsIcESaIcEEEmEC2IRA7_KcRmLb1EEEOT_OT0_
.Lfunc_begin14:
	.cfi_startproc
	.cfi_personality 155, DW.ref.__gxx_personality_v0
	.cfi_lsda 27, .Lexception14
# %bb.0:                                # %entry
	addi	sp, sp, -96
	.cfi_def_cfa_offset 96
	sd	ra, 88(sp)
	sd	s0, 80(sp)
	sd	s1, 72(sp)
	sd	s2, 64(sp)
	sd	s3, 56(sp)
	.cfi_offset ra, -8
	.cfi_offset s0, -16
	.cfi_offset s1, -24
	.cfi_offset s2, -32
	.cfi_offset s3, -40
	addi	s0, sp, 96
	.cfi_def_cfa s0, 0
	sd	a0, -48(s0)
	sd	a1, -56(s0)
	sd	a2, -64(s0)
	ld	s2, -48(s0)
	ld	a0, -56(s0)
	call	_ZSt7forwardIRA7_KcEOT_RNSt16remove_referenceIS3_E4typeE
	mv	s1, a0
	addi	s3, s0, -72
	mv	a0, s3
	call	_ZNSaIcEC1Ev
.Ltmp315:
	mv	a0, s2
	mv	a1, s1
	mv	a2, s3
	call	_ZNSt7__cxx1112basic_stringIcSt11char_traitsIcESaIcEEC2IS3_EEPKcRKS3_
.Ltmp316:
	j	.LBB43_1
.LBB43_1:                               # %invoke.cont
	addi	a0, s0, -72
	call	_ZNSaIcED1Ev
	ld	a0, -64(s0)
	call	_ZSt7forwardIRmEOT_RNSt16remove_referenceIS1_E4typeE
	ld	a0, 0(a0)
	sd	a0, 32(s2)
	ld	s3, 56(sp)
	ld	s2, 64(sp)
	ld	s1, 72(sp)
	ld	s0, 80(sp)
	.cfi_def_cfa sp, 96
	ld	ra, 88(sp)
	.cfi_restore ra
	.cfi_restore s0
	.cfi_restore s1
	.cfi_restore s2
	.cfi_restore s3
	addi	sp, sp, 96
	.cfi_def_cfa_offset 0
	ret
.LBB43_2:                               # %lpad
.Ltmp317:
	sd	a0, -80(s0)
	sw	a1, -84(s0)
	addi	a0, s0, -72
	call	_ZNSaIcED1Ev
	j	.LBB43_3
.LBB43_3:                               # %eh.resume
	ld	a0, -80(s0)
	call	_Unwind_Resume
.Lfunc_end43:
	.size	_ZNSt4pairINSt7__cxx1112basic_stringIcSt11char_traitsIcESaIcEEEmEC2IRA7_KcRmLb1EEEOT_OT0_, .Lfunc_end43-_ZNSt4pairINSt7__cxx1112basic_stringIcSt11char_traitsIcESaIcEEEmEC2IRA7_KcRmLb1EEEOT_OT0_
	.cfi_endproc
	.section	.gcc_except_table,"a",@progbits
	.p2align	2
GCC_except_table43:
.Lexception14:
	.byte	255                     # @LPStart Encoding = omit
	.byte	255                     # @TType Encoding = omit
	.byte	3                       # Call site Encoding = udata4
	.uleb128 .Lcst_end14-.Lcst_begin14
.Lcst_begin14:
	.word	.Ltmp315-.Lfunc_begin14 # >> Call Site 1 <<
	.word	.Ltmp316-.Ltmp315       #   Call between .Ltmp315 and .Ltmp316
	.word	.Ltmp317-.Lfunc_begin14 #     jumps to .Ltmp317
	.byte	0                       #   On action: cleanup
	.word	.Ltmp316-.Lfunc_begin14 # >> Call Site 2 <<
	.word	.Lfunc_end43-.Ltmp316   #   Call between .Ltmp316 and .Lfunc_end43
	.word	0                       #     has no landing pad
	.byte	0                       #   On action: cleanup
.Lcst_end14:
	.p2align	2
                                        # -- End function
	.section	.text._ZNSt4pairINSt7__cxx1112basic_stringIcSt11char_traitsIcESaIcEEEmEC2IRA5_KcRmLb1EEEOT_OT0_,"axG",@progbits,_ZNSt4pairINSt7__cxx1112basic_stringIcSt11char_traitsIcESaIcEEEmEC2IRA5_KcRmLb1EEEOT_OT0_,comdat
	.weak	_ZNSt4pairINSt7__cxx1112basic_stringIcSt11char_traitsIcESaIcEEEmEC2IRA5_KcRmLb1EEEOT_OT0_ # -- Begin function _ZNSt4pairINSt7__cxx1112basic_stringIcSt11char_traitsIcESaIcEEEmEC2IRA5_KcRmLb1EEEOT_OT0_
	.p2align	2
	.type	_ZNSt4pairINSt7__cxx1112basic_stringIcSt11char_traitsIcESaIcEEEmEC2IRA5_KcRmLb1EEEOT_OT0_,@function
_ZNSt4pairINSt7__cxx1112basic_stringIcSt11char_traitsIcESaIcEEEmEC2IRA5_KcRmLb1EEEOT_OT0_: # @_ZNSt4pairINSt7__cxx1112basic_stringIcSt11char_traitsIcESaIcEEEmEC2IRA5_KcRmLb1EEEOT_OT0_
.Lfunc_begin15:
	.cfi_startproc
	.cfi_personality 155, DW.ref.__gxx_personality_v0
	.cfi_lsda 27, .Lexception15
# %bb.0:                                # %entry
	addi	sp, sp, -96
	.cfi_def_cfa_offset 96
	sd	ra, 88(sp)
	sd	s0, 80(sp)
	sd	s1, 72(sp)
	sd	s2, 64(sp)
	sd	s3, 56(sp)
	.cfi_offset ra, -8
	.cfi_offset s0, -16
	.cfi_offset s1, -24
	.cfi_offset s2, -32
	.cfi_offset s3, -40
	addi	s0, sp, 96
	.cfi_def_cfa s0, 0
	sd	a0, -48(s0)
	sd	a1, -56(s0)
	sd	a2, -64(s0)
	ld	s2, -48(s0)
	ld	a0, -56(s0)
	call	_ZSt7forwardIRA5_KcEOT_RNSt16remove_referenceIS3_E4typeE
	mv	s1, a0
	addi	s3, s0, -72
	mv	a0, s3
	call	_ZNSaIcEC1Ev
.Ltmp318:
	mv	a0, s2
	mv	a1, s1
	mv	a2, s3
	call	_ZNSt7__cxx1112basic_stringIcSt11char_traitsIcESaIcEEC2IS3_EEPKcRKS3_
.Ltmp319:
	j	.LBB44_1
.LBB44_1:                               # %invoke.cont
	addi	a0, s0, -72
	call	_ZNSaIcED1Ev
	ld	a0, -64(s0)
	call	_ZSt7forwardIRmEOT_RNSt16remove_referenceIS1_E4typeE
	ld	a0, 0(a0)
	sd	a0, 32(s2)
	ld	s3, 56(sp)
	ld	s2, 64(sp)
	ld	s1, 72(sp)
	ld	s0, 80(sp)
	.cfi_def_cfa sp, 96
	ld	ra, 88(sp)
	.cfi_restore ra
	.cfi_restore s0
	.cfi_restore s1
	.cfi_restore s2
	.cfi_restore s3
	addi	sp, sp, 96
	.cfi_def_cfa_offset 0
	ret
.LBB44_2:                               # %lpad
.Ltmp320:
	sd	a0, -80(s0)
	sw	a1, -84(s0)
	addi	a0, s0, -72
	call	_ZNSaIcED1Ev
	j	.LBB44_3
.LBB44_3:                               # %eh.resume
	ld	a0, -80(s0)
	call	_Unwind_Resume
.Lfunc_end44:
	.size	_ZNSt4pairINSt7__cxx1112basic_stringIcSt11char_traitsIcESaIcEEEmEC2IRA5_KcRmLb1EEEOT_OT0_, .Lfunc_end44-_ZNSt4pairINSt7__cxx1112basic_stringIcSt11char_traitsIcESaIcEEEmEC2IRA5_KcRmLb1EEEOT_OT0_
	.cfi_endproc
	.section	.gcc_except_table,"a",@progbits
	.p2align	2
GCC_except_table44:
.Lexception15:
	.byte	255                     # @LPStart Encoding = omit
	.byte	255                     # @TType Encoding = omit
	.byte	3                       # Call site Encoding = udata4
	.uleb128 .Lcst_end15-.Lcst_begin15
.Lcst_begin15:
	.word	.Ltmp318-.Lfunc_begin15 # >> Call Site 1 <<
	.word	.Ltmp319-.Ltmp318       #   Call between .Ltmp318 and .Ltmp319
	.word	.Ltmp320-.Lfunc_begin15 #     jumps to .Ltmp320
	.byte	0                       #   On action: cleanup
	.word	.Ltmp319-.Lfunc_begin15 # >> Call Site 2 <<
	.word	.Lfunc_end44-.Ltmp319   #   Call between .Ltmp319 and .Lfunc_end44
	.word	0                       #     has no landing pad
	.byte	0                       #   On action: cleanup
.Lcst_end15:
	.p2align	2
                                        # -- End function
	.section	.text._ZNSt4pairINSt7__cxx1112basic_stringIcSt11char_traitsIcESaIcEEEmED2Ev,"axG",@progbits,_ZNSt4pairINSt7__cxx1112basic_stringIcSt11char_traitsIcESaIcEEEmED2Ev,comdat
	.weak	_ZNSt4pairINSt7__cxx1112basic_stringIcSt11char_traitsIcESaIcEEEmED2Ev # -- Begin function _ZNSt4pairINSt7__cxx1112basic_stringIcSt11char_traitsIcESaIcEEEmED2Ev
	.p2align	2
	.type	_ZNSt4pairINSt7__cxx1112basic_stringIcSt11char_traitsIcESaIcEEEmED2Ev,@function
_ZNSt4pairINSt7__cxx1112basic_stringIcSt11char_traitsIcESaIcEEEmED2Ev: # @_ZNSt4pairINSt7__cxx1112basic_stringIcSt11char_traitsIcESaIcEEEmED2Ev
# %bb.0:                                # %entry
	addi	sp, sp, -32
	sd	ra, 24(sp)
	sd	s0, 16(sp)
	addi	s0, sp, 32
	sd	a0, -24(s0)
	ld	a0, -24(s0)
	call	_ZNSt7__cxx1112basic_stringIcSt11char_traitsIcESaIcEED1Ev
	ld	s0, 16(sp)
	ld	ra, 24(sp)
	addi	sp, sp, 32
	ret
.Lfunc_end45:
	.size	_ZNSt4pairINSt7__cxx1112basic_stringIcSt11char_traitsIcESaIcEEEmED2Ev, .Lfunc_end45-_ZNSt4pairINSt7__cxx1112basic_stringIcSt11char_traitsIcESaIcEEEmED2Ev
                                        # -- End function
	.section	.text._ZNSaISt4pairINSt7__cxx1112basic_stringIcSt11char_traitsIcESaIcEEEmEEC2Ev,"axG",@progbits,_ZNSaISt4pairINSt7__cxx1112basic_stringIcSt11char_traitsIcESaIcEEEmEEC2Ev,comdat
	.weak	_ZNSaISt4pairINSt7__cxx1112basic_stringIcSt11char_traitsIcESaIcEEEmEEC2Ev # -- Begin function _ZNSaISt4pairINSt7__cxx1112basic_stringIcSt11char_traitsIcESaIcEEEmEEC2Ev
	.p2align	2
	.type	_ZNSaISt4pairINSt7__cxx1112basic_stringIcSt11char_traitsIcESaIcEEEmEEC2Ev,@function
_ZNSaISt4pairINSt7__cxx1112basic_stringIcSt11char_traitsIcESaIcEEEmEEC2Ev: # @_ZNSaISt4pairINSt7__cxx1112basic_stringIcSt11char_traitsIcESaIcEEEmEEC2Ev
# %bb.0:                                # %entry
	addi	sp, sp, -32
	sd	ra, 24(sp)
	sd	s0, 16(sp)
	addi	s0, sp, 32
	sd	a0, -24(s0)
	ld	a0, -24(s0)
	call	_ZN9__gnu_cxx13new_allocatorISt4pairINSt7__cxx1112basic_stringIcSt11char_traitsIcESaIcEEEmEEC2Ev
	ld	s0, 16(sp)
	ld	ra, 24(sp)
	addi	sp, sp, 32
	ret
.Lfunc_end46:
	.size	_ZNSaISt4pairINSt7__cxx1112basic_stringIcSt11char_traitsIcESaIcEEEmEEC2Ev, .Lfunc_end46-_ZNSaISt4pairINSt7__cxx1112basic_stringIcSt11char_traitsIcESaIcEEEmEEC2Ev
                                        # -- End function
	.section	.text._ZNSt6vectorISt4pairINSt7__cxx1112basic_stringIcSt11char_traitsIcESaIcEEEmESaIS7_EEC2ESt16initializer_listIS7_ERKS8_,"axG",@progbits,_ZNSt6vectorISt4pairINSt7__cxx1112basic_stringIcSt11char_traitsIcESaIcEEEmESaIS7_EEC2ESt16initializer_listIS7_ERKS8_,comdat
	.weak	_ZNSt6vectorISt4pairINSt7__cxx1112basic_stringIcSt11char_traitsIcESaIcEEEmESaIS7_EEC2ESt16initializer_listIS7_ERKS8_ # -- Begin function _ZNSt6vectorISt4pairINSt7__cxx1112basic_stringIcSt11char_traitsIcESaIcEEEmESaIS7_EEC2ESt16initializer_listIS7_ERKS8_
	.p2align	2
	.type	_ZNSt6vectorISt4pairINSt7__cxx1112basic_stringIcSt11char_traitsIcESaIcEEEmESaIS7_EEC2ESt16initializer_listIS7_ERKS8_,@function
_ZNSt6vectorISt4pairINSt7__cxx1112basic_stringIcSt11char_traitsIcESaIcEEEmESaIS7_EEC2ESt16initializer_listIS7_ERKS8_: # @_ZNSt6vectorISt4pairINSt7__cxx1112basic_stringIcSt11char_traitsIcESaIcEEEmESaIS7_EEC2ESt16initializer_listIS7_ERKS8_
.Lfunc_begin16:
	.cfi_startproc
	.cfi_personality 155, DW.ref.__gxx_personality_v0
	.cfi_lsda 27, .Lexception16
# %bb.0:                                # %entry
	addi	sp, sp, -112
	.cfi_def_cfa_offset 112
	sd	ra, 104(sp)
	sd	s0, 96(sp)
	sd	s1, 88(sp)
	sd	s2, 80(sp)
	sd	s3, 72(sp)
	.cfi_offset ra, -8
	.cfi_offset s0, -16
	.cfi_offset s1, -24
	.cfi_offset s2, -32
	.cfi_offset s3, -40
	addi	s0, sp, 112
	.cfi_def_cfa s0, 0
	sd	a2, -48(s0)
	sd	a1, -56(s0)
	sd	a0, -64(s0)
	sd	a3, -72(s0)
	ld	s1, -64(s0)
	ld	a1, -72(s0)
	mv	a0, s1
	call	_ZNSt12_Vector_baseISt4pairINSt7__cxx1112basic_stringIcSt11char_traitsIcESaIcEEEmESaIS7_EEC2ERKS8_
	addi	s2, s0, -56
	mv	a0, s2
	call	_ZNKSt16initializer_listISt4pairINSt7__cxx1112basic_stringIcSt11char_traitsIcESaIcEEEmEE5beginEv
	mv	s3, a0
	mv	a0, s2
	call	_ZNKSt16initializer_listISt4pairINSt7__cxx1112basic_stringIcSt11char_traitsIcESaIcEEEmEE3endEv
	mv	a2, a0
.Ltmp321:
	mv	a0, s1
	mv	a1, s3
	call	_ZNSt6vectorISt4pairINSt7__cxx1112basic_stringIcSt11char_traitsIcESaIcEEEmESaIS7_EE19_M_range_initializeIPKS7_EEvT_SD_St20forward_iterator_tag
.Ltmp322:
	j	.LBB47_1
.LBB47_1:                               # %invoke.cont
	ld	s3, 72(sp)
	ld	s2, 80(sp)
	ld	s1, 88(sp)
	ld	s0, 96(sp)
	.cfi_def_cfa sp, 112
	ld	ra, 104(sp)
	.cfi_restore ra
	.cfi_restore s0
	.cfi_restore s1
	.cfi_restore s2
	.cfi_restore s3
	addi	sp, sp, 112
	.cfi_def_cfa_offset 0
	ret
.LBB47_2:                               # %lpad
.Ltmp323:
	sd	a0, -96(s0)
	sw	a1, -100(s0)
	mv	a0, s1
	call	_ZNSt12_Vector_baseISt4pairINSt7__cxx1112basic_stringIcSt11char_traitsIcESaIcEEEmESaIS7_EED2Ev
	j	.LBB47_3
.LBB47_3:                               # %eh.resume
	ld	a0, -96(s0)
	call	_Unwind_Resume
.Lfunc_end47:
	.size	_ZNSt6vectorISt4pairINSt7__cxx1112basic_stringIcSt11char_traitsIcESaIcEEEmESaIS7_EEC2ESt16initializer_listIS7_ERKS8_, .Lfunc_end47-_ZNSt6vectorISt4pairINSt7__cxx1112basic_stringIcSt11char_traitsIcESaIcEEEmESaIS7_EEC2ESt16initializer_listIS7_ERKS8_
	.cfi_endproc
	.section	.gcc_except_table,"a",@progbits
	.p2align	2
GCC_except_table47:
.Lexception16:
	.byte	255                     # @LPStart Encoding = omit
	.byte	255                     # @TType Encoding = omit
	.byte	3                       # Call site Encoding = udata4
	.uleb128 .Lcst_end16-.Lcst_begin16
.Lcst_begin16:
	.word	.Ltmp321-.Lfunc_begin16 # >> Call Site 1 <<
	.word	.Ltmp322-.Ltmp321       #   Call between .Ltmp321 and .Ltmp322
	.word	.Ltmp323-.Lfunc_begin16 #     jumps to .Ltmp323
	.byte	0                       #   On action: cleanup
	.word	.Ltmp322-.Lfunc_begin16 # >> Call Site 2 <<
	.word	.Lfunc_end47-.Ltmp322   #   Call between .Ltmp322 and .Lfunc_end47
	.word	0                       #     has no landing pad
	.byte	0                       #   On action: cleanup
.Lcst_end16:
	.p2align	2
                                        # -- End function
	.section	.text._ZNSt6vectorISt4pairINSt7__cxx1112basic_stringIcSt11char_traitsIcESaIcEEEmESaIS7_EED2Ev,"axG",@progbits,_ZNSt6vectorISt4pairINSt7__cxx1112basic_stringIcSt11char_traitsIcESaIcEEEmESaIS7_EED2Ev,comdat
	.weak	_ZNSt6vectorISt4pairINSt7__cxx1112basic_stringIcSt11char_traitsIcESaIcEEEmESaIS7_EED2Ev # -- Begin function _ZNSt6vectorISt4pairINSt7__cxx1112basic_stringIcSt11char_traitsIcESaIcEEEmESaIS7_EED2Ev
	.p2align	2
	.type	_ZNSt6vectorISt4pairINSt7__cxx1112basic_stringIcSt11char_traitsIcESaIcEEEmESaIS7_EED2Ev,@function
_ZNSt6vectorISt4pairINSt7__cxx1112basic_stringIcSt11char_traitsIcESaIcEEEmESaIS7_EED2Ev: # @_ZNSt6vectorISt4pairINSt7__cxx1112basic_stringIcSt11char_traitsIcESaIcEEEmESaIS7_EED2Ev
.Lfunc_begin17:
	.cfi_startproc
	.cfi_personality 155, DW.ref.__gxx_personality_v0
	.cfi_lsda 27, .Lexception17
# %bb.0:                                # %entry
	addi	sp, sp, -64
	.cfi_def_cfa_offset 64
	sd	ra, 56(sp)
	sd	s0, 48(sp)
	sd	s1, 40(sp)
	sd	s2, 32(sp)
	sd	s3, 24(sp)
	.cfi_offset ra, -8
	.cfi_offset s0, -16
	.cfi_offset s1, -24
	.cfi_offset s2, -32
	.cfi_offset s3, -40
	addi	s0, sp, 64
	.cfi_def_cfa s0, 0
	sd	a0, -48(s0)
	ld	s1, -48(s0)
	ld	s2, 0(s1)
	ld	s3, 8(s1)
	mv	a0, s1
	call	_ZNSt12_Vector_baseISt4pairINSt7__cxx1112basic_stringIcSt11char_traitsIcESaIcEEEmESaIS7_EE19_M_get_Tp_allocatorEv
	mv	a2, a0
.Ltmp324:
	mv	a0, s2
	mv	a1, s3
	call	_ZSt8_DestroyIPSt4pairINSt7__cxx1112basic_stringIcSt11char_traitsIcESaIcEEEmES7_EvT_S9_RSaIT0_E
.Ltmp325:
	j	.LBB48_1
.LBB48_1:                               # %invoke.cont
	mv	a0, s1
	call	_ZNSt12_Vector_baseISt4pairINSt7__cxx1112basic_stringIcSt11char_traitsIcESaIcEEEmESaIS7_EED2Ev
	ld	s3, 24(sp)
	ld	s2, 32(sp)
	ld	s1, 40(sp)
	ld	s0, 48(sp)
	.cfi_def_cfa sp, 64
	ld	ra, 56(sp)
	.cfi_restore ra
	.cfi_restore s0
	.cfi_restore s1
	.cfi_restore s2
	.cfi_restore s3
	addi	sp, sp, 64
	.cfi_def_cfa_offset 0
	ret
.LBB48_2:                               # %lpad
.Ltmp326:
	sd	a0, -56(s0)
	sw	a1, -60(s0)
	mv	a0, s1
	call	_ZNSt12_Vector_baseISt4pairINSt7__cxx1112basic_stringIcSt11char_traitsIcESaIcEEEmESaIS7_EED2Ev
	j	.LBB48_3
.LBB48_3:                               # %terminate.handler
	ld	a0, -56(s0)
	call	__clang_call_terminate
.Lfunc_end48:
	.size	_ZNSt6vectorISt4pairINSt7__cxx1112basic_stringIcSt11char_traitsIcESaIcEEEmESaIS7_EED2Ev, .Lfunc_end48-_ZNSt6vectorISt4pairINSt7__cxx1112basic_stringIcSt11char_traitsIcESaIcEEEmESaIS7_EED2Ev
	.cfi_endproc
	.section	.gcc_except_table,"a",@progbits
	.p2align	2
GCC_except_table48:
.Lexception17:
	.byte	255                     # @LPStart Encoding = omit
	.byte	155                     # @TType Encoding = indirect pcrel sdata4
	.uleb128 .Lttbase4-.Lttbaseref4
.Lttbaseref4:
	.byte	3                       # Call site Encoding = udata4
	.uleb128 .Lcst_end17-.Lcst_begin17
.Lcst_begin17:
	.word	.Ltmp324-.Lfunc_begin17 # >> Call Site 1 <<
	.word	.Ltmp325-.Ltmp324       #   Call between .Ltmp324 and .Ltmp325
	.word	.Ltmp326-.Lfunc_begin17 #     jumps to .Ltmp326
	.byte	1                       #   On action: 1
.Lcst_end17:
	.byte	1                       # >> Action Record 1 <<
                                        #   Catch TypeInfo 1
	.byte	0                       #   No further actions
	.p2align	2
                                        # >> Catch TypeInfos <<
	.word	0                       # TypeInfo 1
.Lttbase4:
	.p2align	2
                                        # -- End function
	.section	.text._ZNSaISt4pairINSt7__cxx1112basic_stringIcSt11char_traitsIcESaIcEEEmEED2Ev,"axG",@progbits,_ZNSaISt4pairINSt7__cxx1112basic_stringIcSt11char_traitsIcESaIcEEEmEED2Ev,comdat
	.weak	_ZNSaISt4pairINSt7__cxx1112basic_stringIcSt11char_traitsIcESaIcEEEmEED2Ev # -- Begin function _ZNSaISt4pairINSt7__cxx1112basic_stringIcSt11char_traitsIcESaIcEEEmEED2Ev
	.p2align	2
	.type	_ZNSaISt4pairINSt7__cxx1112basic_stringIcSt11char_traitsIcESaIcEEEmEED2Ev,@function
_ZNSaISt4pairINSt7__cxx1112basic_stringIcSt11char_traitsIcESaIcEEEmEED2Ev: # @_ZNSaISt4pairINSt7__cxx1112basic_stringIcSt11char_traitsIcESaIcEEEmEED2Ev
# %bb.0:                                # %entry
	addi	sp, sp, -32
	sd	ra, 24(sp)
	sd	s0, 16(sp)
	addi	s0, sp, 32
	sd	a0, -24(s0)
	ld	a0, -24(s0)
	call	_ZN9__gnu_cxx13new_allocatorISt4pairINSt7__cxx1112basic_stringIcSt11char_traitsIcESaIcEEEmEED2Ev
	ld	s0, 16(sp)
	ld	ra, 24(sp)
	addi	sp, sp, 32
	ret
.Lfunc_end49:
	.size	_ZNSaISt4pairINSt7__cxx1112basic_stringIcSt11char_traitsIcESaIcEEEmEED2Ev, .Lfunc_end49-_ZNSaISt4pairINSt7__cxx1112basic_stringIcSt11char_traitsIcESaIcEEEmEED2Ev
                                        # -- End function
	.section	.text._ZStplIcSt11char_traitsIcESaIcEENSt7__cxx1112basic_stringIT_T0_T1_EEOS8_S5_,"axG",@progbits,_ZStplIcSt11char_traitsIcESaIcEENSt7__cxx1112basic_stringIT_T0_T1_EEOS8_S5_,comdat
	.weak	_ZStplIcSt11char_traitsIcESaIcEENSt7__cxx1112basic_stringIT_T0_T1_EEOS8_S5_ # -- Begin function _ZStplIcSt11char_traitsIcESaIcEENSt7__cxx1112basic_stringIT_T0_T1_EEOS8_S5_
	.p2align	2
	.type	_ZStplIcSt11char_traitsIcESaIcEENSt7__cxx1112basic_stringIT_T0_T1_EEOS8_S5_,@function
_ZStplIcSt11char_traitsIcESaIcEENSt7__cxx1112basic_stringIT_T0_T1_EEOS8_S5_: # @_ZStplIcSt11char_traitsIcESaIcEENSt7__cxx1112basic_stringIT_T0_T1_EEOS8_S5_
	.cfi_startproc
# %bb.0:                                # %entry
	addi	sp, sp, -48
	.cfi_def_cfa_offset 48
	sd	ra, 40(sp)
	sd	s0, 32(sp)
	sd	s1, 24(sp)
	.cfi_offset ra, -8
	.cfi_offset s0, -16
	.cfi_offset s1, -24
	addi	s0, sp, 48
	.cfi_def_cfa s0, 0
	mv	s1, a0
	sd	s1, -32(s0)
	sd	a1, -40(s0)
	sb	a2, -41(s0)
	ld	a0, -40(s0)
	lbu	a2, -41(s0)
	addi	a1, zero, 1
	call	_ZNSt7__cxx1112basic_stringIcSt11char_traitsIcESaIcEE6appendEmc
	call	_ZSt4moveIRNSt7__cxx1112basic_stringIcSt11char_traitsIcESaIcEEEEONSt16remove_referenceIT_E4typeEOS8_
	mv	a1, a0
	mv	a0, s1
	call	_ZNSt7__cxx1112basic_stringIcSt11char_traitsIcESaIcEEC1EOS4_
	ld	s1, 24(sp)
	ld	s0, 32(sp)
	.cfi_def_cfa sp, 48
	ld	ra, 40(sp)
	.cfi_restore ra
	.cfi_restore s0
	.cfi_restore s1
	addi	sp, sp, 48
	.cfi_def_cfa_offset 0
	ret
.Lfunc_end50:
	.size	_ZStplIcSt11char_traitsIcESaIcEENSt7__cxx1112basic_stringIT_T0_T1_EEOS8_S5_, .Lfunc_end50-_ZStplIcSt11char_traitsIcESaIcEENSt7__cxx1112basic_stringIT_T0_T1_EEOS8_S5_
	.cfi_endproc
                                        # -- End function
	.section	.text._ZStplIcSt11char_traitsIcESaIcEENSt7__cxx1112basic_stringIT_T0_T1_EEOS8_S9_,"axG",@progbits,_ZStplIcSt11char_traitsIcESaIcEENSt7__cxx1112basic_stringIT_T0_T1_EEOS8_S9_,comdat
	.weak	_ZStplIcSt11char_traitsIcESaIcEENSt7__cxx1112basic_stringIT_T0_T1_EEOS8_S9_ # -- Begin function _ZStplIcSt11char_traitsIcESaIcEENSt7__cxx1112basic_stringIT_T0_T1_EEOS8_S9_
	.p2align	2
	.type	_ZStplIcSt11char_traitsIcESaIcEENSt7__cxx1112basic_stringIT_T0_T1_EEOS8_S9_,@function
_ZStplIcSt11char_traitsIcESaIcEENSt7__cxx1112basic_stringIT_T0_T1_EEOS8_S9_: # @_ZStplIcSt11char_traitsIcESaIcEENSt7__cxx1112basic_stringIT_T0_T1_EEOS8_S9_
	.cfi_startproc
# %bb.0:                                # %entry
	addi	sp, sp, -80
	.cfi_def_cfa_offset 80
	sd	ra, 72(sp)
	sd	s0, 64(sp)
	sd	s1, 56(sp)
	sd	s2, 48(sp)
	.cfi_offset ra, -8
	.cfi_offset s0, -16
	.cfi_offset s1, -24
	.cfi_offset s2, -32
	addi	s0, sp, 80
	.cfi_def_cfa s0, 0
	mv	s2, a0
	sd	s2, -40(s0)
	sd	a1, -48(s0)
	sd	a2, -56(s0)
	sb	zero, -57(s0)
	addi	a0, zero, 1
	sb	a0, -57(s0)
	lbu	a0, -57(s0)
	andi	a0, a0, 1
	beqz	a0, .LBB51_5
	j	.LBB51_1
.LBB51_1:                               # %if.then
	ld	a0, -48(s0)
	call	_ZNKSt7__cxx1112basic_stringIcSt11char_traitsIcESaIcEE4sizeEv
	mv	s1, a0
	ld	a0, -56(s0)
	call	_ZNKSt7__cxx1112basic_stringIcSt11char_traitsIcESaIcEE4sizeEv
	add	a0, s1, a0
	sd	a0, -72(s0)
	ld	s1, -72(s0)
	ld	a0, -48(s0)
	call	_ZNKSt7__cxx1112basic_stringIcSt11char_traitsIcESaIcEE8capacityEv
	bgeu	a0, s1, .LBB51_4
	j	.LBB51_2
.LBB51_2:                               # %land.lhs.true
	ld	s1, -72(s0)
	ld	a0, -56(s0)
	call	_ZNKSt7__cxx1112basic_stringIcSt11char_traitsIcESaIcEE8capacityEv
	bltu	a0, s1, .LBB51_4
	j	.LBB51_3
.LBB51_3:                               # %if.then5
	ld	a0, -56(s0)
	ld	a2, -48(s0)
	mv	a1, zero
	call	_ZNSt7__cxx1112basic_stringIcSt11char_traitsIcESaIcEE6insertEmRKS4_
	call	_ZSt4moveIRNSt7__cxx1112basic_stringIcSt11char_traitsIcESaIcEEEEONSt16remove_referenceIT_E4typeEOS8_
	mv	a1, a0
	mv	a0, s2
	call	_ZNSt7__cxx1112basic_stringIcSt11char_traitsIcESaIcEEC1EOS4_
	j	.LBB51_6
.LBB51_4:                               # %if.end
	j	.LBB51_5
.LBB51_5:                               # %if.end8
	ld	a0, -48(s0)
	ld	a1, -56(s0)
	call	_ZNSt7__cxx1112basic_stringIcSt11char_traitsIcESaIcEE6appendERKS4_
	call	_ZSt4moveIRNSt7__cxx1112basic_stringIcSt11char_traitsIcESaIcEEEEONSt16remove_referenceIT_E4typeEOS8_
	mv	a1, a0
	mv	a0, s2
	call	_ZNSt7__cxx1112basic_stringIcSt11char_traitsIcESaIcEEC1EOS4_
	j	.LBB51_6
.LBB51_6:                               # %return
	ld	s2, 48(sp)
	ld	s1, 56(sp)
	ld	s0, 64(sp)
	.cfi_def_cfa sp, 80
	ld	ra, 72(sp)
	.cfi_restore ra
	.cfi_restore s0
	.cfi_restore s1
	.cfi_restore s2
	addi	sp, sp, 80
	.cfi_def_cfa_offset 0
	ret
.Lfunc_end51:
	.size	_ZStplIcSt11char_traitsIcESaIcEENSt7__cxx1112basic_stringIT_T0_T1_EEOS8_S9_, .Lfunc_end51-_ZStplIcSt11char_traitsIcESaIcEENSt7__cxx1112basic_stringIT_T0_T1_EEOS8_S9_
	.cfi_endproc
                                        # -- End function
	.section	.text._ZStplIcSt11char_traitsIcESaIcEENSt7__cxx1112basic_stringIT_T0_T1_EEPKS5_OS8_,"axG",@progbits,_ZStplIcSt11char_traitsIcESaIcEENSt7__cxx1112basic_stringIT_T0_T1_EEPKS5_OS8_,comdat
	.weak	_ZStplIcSt11char_traitsIcESaIcEENSt7__cxx1112basic_stringIT_T0_T1_EEPKS5_OS8_ # -- Begin function _ZStplIcSt11char_traitsIcESaIcEENSt7__cxx1112basic_stringIT_T0_T1_EEPKS5_OS8_
	.p2align	2
	.type	_ZStplIcSt11char_traitsIcESaIcEENSt7__cxx1112basic_stringIT_T0_T1_EEPKS5_OS8_,@function
_ZStplIcSt11char_traitsIcESaIcEENSt7__cxx1112basic_stringIT_T0_T1_EEPKS5_OS8_: # @_ZStplIcSt11char_traitsIcESaIcEENSt7__cxx1112basic_stringIT_T0_T1_EEPKS5_OS8_
	.cfi_startproc
# %bb.0:                                # %entry
	addi	sp, sp, -48
	.cfi_def_cfa_offset 48
	sd	ra, 40(sp)
	sd	s0, 32(sp)
	sd	s1, 24(sp)
	.cfi_offset ra, -8
	.cfi_offset s0, -16
	.cfi_offset s1, -24
	addi	s0, sp, 48
	.cfi_def_cfa s0, 0
	mv	s1, a0
	sd	s1, -32(s0)
	sd	a1, -40(s0)
	sd	a2, -48(s0)
	ld	a0, -48(s0)
	ld	a2, -40(s0)
	mv	a1, zero
	call	_ZNSt7__cxx1112basic_stringIcSt11char_traitsIcESaIcEE6insertEmPKc
	call	_ZSt4moveIRNSt7__cxx1112basic_stringIcSt11char_traitsIcESaIcEEEEONSt16remove_referenceIT_E4typeEOS8_
	mv	a1, a0
	mv	a0, s1
	call	_ZNSt7__cxx1112basic_stringIcSt11char_traitsIcESaIcEEC1EOS4_
	ld	s1, 24(sp)
	ld	s0, 32(sp)
	.cfi_def_cfa sp, 48
	ld	ra, 40(sp)
	.cfi_restore ra
	.cfi_restore s0
	.cfi_restore s1
	addi	sp, sp, 48
	.cfi_def_cfa_offset 0
	ret
.Lfunc_end52:
	.size	_ZStplIcSt11char_traitsIcESaIcEENSt7__cxx1112basic_stringIT_T0_T1_EEPKS5_OS8_, .Lfunc_end52-_ZStplIcSt11char_traitsIcESaIcEENSt7__cxx1112basic_stringIT_T0_T1_EEPKS5_OS8_
	.cfi_endproc
                                        # -- End function
	.section	.text._ZNKSt6vectorI6OptionSaIS0_EE4sizeEv,"axG",@progbits,_ZNKSt6vectorI6OptionSaIS0_EE4sizeEv,comdat
	.weak	_ZNKSt6vectorI6OptionSaIS0_EE4sizeEv # -- Begin function _ZNKSt6vectorI6OptionSaIS0_EE4sizeEv
	.p2align	2
	.type	_ZNKSt6vectorI6OptionSaIS0_EE4sizeEv,@function
_ZNKSt6vectorI6OptionSaIS0_EE4sizeEv:   # @_ZNKSt6vectorI6OptionSaIS0_EE4sizeEv
# %bb.0:                                # %entry
	addi	sp, sp, -32
	sd	ra, 24(sp)
	sd	s0, 16(sp)
	addi	s0, sp, 32
	sd	a0, -24(s0)
	ld	a0, -24(s0)
	ld	a1, 8(a0)
	ld	a0, 0(a0)
	sub	a0, a1, a0
	srai	a0, a0, 4
	lui	a1, 1035469
	addiw	a1, a1, -819
	slli	a1, a1, 12
	addi	a1, a1, -819
	slli	a1, a1, 12
	addi	a1, a1, -819
	slli	a1, a1, 12
	addi	a1, a1, -819
	mul	a0, a0, a1
	ld	s0, 16(sp)
	ld	ra, 24(sp)
	addi	sp, sp, 32
	ret
.Lfunc_end53:
	.size	_ZNKSt6vectorI6OptionSaIS0_EE4sizeEv, .Lfunc_end53-_ZNKSt6vectorI6OptionSaIS0_EE4sizeEv
                                        # -- End function
	.section	.text._ZNSt6vectorI6OptionSaIS0_EEixEm,"axG",@progbits,_ZNSt6vectorI6OptionSaIS0_EEixEm,comdat
	.weak	_ZNSt6vectorI6OptionSaIS0_EEixEm # -- Begin function _ZNSt6vectorI6OptionSaIS0_EEixEm
	.p2align	2
	.type	_ZNSt6vectorI6OptionSaIS0_EEixEm,@function
_ZNSt6vectorI6OptionSaIS0_EEixEm:       # @_ZNSt6vectorI6OptionSaIS0_EEixEm
# %bb.0:                                # %entry
	addi	sp, sp, -32
	sd	ra, 24(sp)
	sd	s0, 16(sp)
	addi	s0, sp, 32
	sd	a0, -24(s0)
	sd	a1, -32(s0)
	ld	a0, -24(s0)
	ld	a0, 0(a0)
	ld	a1, -32(s0)
	addi	a2, zero, 80
	mul	a1, a1, a2
	add	a0, a0, a1
	ld	s0, 16(sp)
	ld	ra, 24(sp)
	addi	sp, sp, 32
	ret
.Lfunc_end54:
	.size	_ZNSt6vectorI6OptionSaIS0_EEixEm, .Lfunc_end54-_ZNSt6vectorI6OptionSaIS0_EEixEm
                                        # -- End function
	.section	.text._ZNSt7__cxx119to_stringEi,"axG",@progbits,_ZNSt7__cxx119to_stringEi,comdat
	.weak	_ZNSt7__cxx119to_stringEi # -- Begin function _ZNSt7__cxx119to_stringEi
	.p2align	2
	.type	_ZNSt7__cxx119to_stringEi,@function
_ZNSt7__cxx119to_stringEi:              # @_ZNSt7__cxx119to_stringEi
.Lfunc_begin18:
	.cfi_startproc
	.cfi_personality 155, DW.ref.__gxx_personality_v0
	.cfi_lsda 27, .Lexception18
# %bb.0:                                # %entry
	addi	sp, sp, -96
	.cfi_def_cfa_offset 96
	sd	ra, 88(sp)
	sd	s0, 80(sp)
	sd	s1, 72(sp)
	sd	s2, 64(sp)
	sd	s3, 56(sp)
	.cfi_offset ra, -8
	.cfi_offset s0, -16
	.cfi_offset s1, -24
	.cfi_offset s2, -32
	.cfi_offset s3, -40
	addi	s0, sp, 96
	.cfi_def_cfa s0, 0
	mv	s2, a0
	sd	s2, -48(s0)
	sw	a1, -52(s0)
	lwu	a0, -52(s0)
	srli	a0, a0, 31
	sb	a0, -53(s0)
	lbu	a0, -53(s0)
	andi	a0, a0, 1
	beqz	a0, .LBB55_2
	j	.LBB55_1
.LBB55_1:                               # %cond.true
	lw	a0, -52(s0)
	negw	a0, a0
	j	.LBB55_3
.LBB55_2:                               # %cond.false
	lwu	a0, -52(s0)
	j	.LBB55_3
.LBB55_3:                               # %cond.end
	sw	a0, -60(s0)
	lw	a0, -60(s0)
	addi	a1, zero, 10
	call	_ZNSt8__detail14__to_chars_lenIjEEjT_i
	sw	a0, -64(s0)
	sb	zero, -65(s0)
	lbu	a0, -53(s0)
	andi	a0, a0, 1
	lw	a1, -64(s0)
	add	a0, a0, a1
	slli	a0, a0, 32
	srli	s1, a0, 32
	addi	s3, s0, -72
	mv	a0, s3
	call	_ZNSaIcEC1Ev
.Ltmp327:
	mv	a0, s2
	mv	a1, s1
	addi	a2, zero, 45
	mv	a3, s3
	call	_ZNSt7__cxx1112basic_stringIcSt11char_traitsIcESaIcEEC2IS3_EEmcRKS3_
.Ltmp328:
	j	.LBB55_4
.LBB55_4:                               # %invoke.cont
	addi	a0, s0, -72
	call	_ZNSaIcED1Ev
	lbu	a0, -53(s0)
	andi	a1, a0, 1
.Ltmp330:
	mv	a0, s2
	call	_ZNSt7__cxx1112basic_stringIcSt11char_traitsIcESaIcEEixEm
.Ltmp331:
	j	.LBB55_5
.LBB55_5:                               # %invoke.cont7
	lw	a1, -64(s0)
	lw	a2, -60(s0)
	call	_ZNSt8__detail18__to_chars_10_implIjEEvPcjT_
	addi	a0, zero, 1
	sb	a0, -65(s0)
	lbu	a0, -65(s0)
	bnez	a0, .LBB55_9
	j	.LBB55_8
.LBB55_6:                               # %lpad
.Ltmp329:
	sd	a0, -80(s0)
	sw	a1, -84(s0)
	addi	a0, s0, -72
	call	_ZNSaIcED1Ev
	j	.LBB55_10
.LBB55_7:                               # %lpad6
.Ltmp332:
	sd	a0, -80(s0)
	sw	a1, -84(s0)
	mv	a0, s2
	call	_ZNSt7__cxx1112basic_stringIcSt11char_traitsIcESaIcEED1Ev
	j	.LBB55_10
.LBB55_8:                               # %nrvo.unused
	mv	a0, s2
	call	_ZNSt7__cxx1112basic_stringIcSt11char_traitsIcESaIcEED1Ev
	j	.LBB55_9
.LBB55_9:                               # %nrvo.skipdtor
	ld	s3, 56(sp)
	ld	s2, 64(sp)
	ld	s1, 72(sp)
	ld	s0, 80(sp)
	.cfi_def_cfa sp, 96
	ld	ra, 88(sp)
	.cfi_restore ra
	.cfi_restore s0
	.cfi_restore s1
	.cfi_restore s2
	.cfi_restore s3
	addi	sp, sp, 96
	.cfi_def_cfa_offset 0
	ret
.LBB55_10:                              # %eh.resume
	ld	a0, -80(s0)
	call	_Unwind_Resume
.Lfunc_end55:
	.size	_ZNSt7__cxx119to_stringEi, .Lfunc_end55-_ZNSt7__cxx119to_stringEi
	.cfi_endproc
	.section	.gcc_except_table,"a",@progbits
	.p2align	2
GCC_except_table55:
.Lexception18:
	.byte	255                     # @LPStart Encoding = omit
	.byte	255                     # @TType Encoding = omit
	.byte	3                       # Call site Encoding = udata4
	.uleb128 .Lcst_end18-.Lcst_begin18
.Lcst_begin18:
	.word	.Ltmp327-.Lfunc_begin18 # >> Call Site 1 <<
	.word	.Ltmp328-.Ltmp327       #   Call between .Ltmp327 and .Ltmp328
	.word	.Ltmp329-.Lfunc_begin18 #     jumps to .Ltmp329
	.byte	0                       #   On action: cleanup
	.word	.Ltmp330-.Lfunc_begin18 # >> Call Site 2 <<
	.word	.Ltmp331-.Ltmp330       #   Call between .Ltmp330 and .Ltmp331
	.word	.Ltmp332-.Lfunc_begin18 #     jumps to .Ltmp332
	.byte	0                       #   On action: cleanup
	.word	.Ltmp331-.Lfunc_begin18 # >> Call Site 3 <<
	.word	.Lfunc_end55-.Ltmp331   #   Call between .Ltmp331 and .Lfunc_end55
	.word	0                       #     has no landing pad
	.byte	0                       #   On action: cleanup
.Lcst_end18:
	.p2align	2
                                        # -- End function
	.section	.text._ZNSt4pairINSt7__cxx1112basic_stringIcSt11char_traitsIcESaIcEEEmEC2IS5_RmLb1EEEOT_OT0_,"axG",@progbits,_ZNSt4pairINSt7__cxx1112basic_stringIcSt11char_traitsIcESaIcEEEmEC2IS5_RmLb1EEEOT_OT0_,comdat
	.weak	_ZNSt4pairINSt7__cxx1112basic_stringIcSt11char_traitsIcESaIcEEEmEC2IS5_RmLb1EEEOT_OT0_ # -- Begin function _ZNSt4pairINSt7__cxx1112basic_stringIcSt11char_traitsIcESaIcEEEmEC2IS5_RmLb1EEEOT_OT0_
	.p2align	2
	.type	_ZNSt4pairINSt7__cxx1112basic_stringIcSt11char_traitsIcESaIcEEEmEC2IS5_RmLb1EEEOT_OT0_,@function
_ZNSt4pairINSt7__cxx1112basic_stringIcSt11char_traitsIcESaIcEEEmEC2IS5_RmLb1EEEOT_OT0_: # @_ZNSt4pairINSt7__cxx1112basic_stringIcSt11char_traitsIcESaIcEEEmEC2IS5_RmLb1EEEOT_OT0_
# %bb.0:                                # %entry
	addi	sp, sp, -48
	sd	ra, 40(sp)
	sd	s0, 32(sp)
	sd	s1, 24(sp)
	addi	s0, sp, 48
	sd	a0, -32(s0)
	sd	a1, -40(s0)
	sd	a2, -48(s0)
	ld	s1, -32(s0)
	ld	a0, -40(s0)
	call	_ZSt7forwardINSt7__cxx1112basic_stringIcSt11char_traitsIcESaIcEEEEOT_RNSt16remove_referenceIS6_E4typeE
	mv	a1, a0
	mv	a0, s1
	call	_ZNSt7__cxx1112basic_stringIcSt11char_traitsIcESaIcEEC1EOS4_
	ld	a0, -48(s0)
	call	_ZSt7forwardIRmEOT_RNSt16remove_referenceIS1_E4typeE
	ld	a0, 0(a0)
	sd	a0, 32(s1)
	ld	s1, 24(sp)
	ld	s0, 32(sp)
	ld	ra, 40(sp)
	addi	sp, sp, 48
	ret
.Lfunc_end56:
	.size	_ZNSt4pairINSt7__cxx1112basic_stringIcSt11char_traitsIcESaIcEEEmEC2IS5_RmLb1EEEOT_OT0_, .Lfunc_end56-_ZNSt4pairINSt7__cxx1112basic_stringIcSt11char_traitsIcESaIcEEEmEC2IS5_RmLb1EEEOT_OT0_
                                        # -- End function
	.section	.text._ZNSt4pairINSt7__cxx1112basic_stringIcSt11char_traitsIcESaIcEEEmEC2IRS5_RmLb1EEEOT_OT0_,"axG",@progbits,_ZNSt4pairINSt7__cxx1112basic_stringIcSt11char_traitsIcESaIcEEEmEC2IRS5_RmLb1EEEOT_OT0_,comdat
	.weak	_ZNSt4pairINSt7__cxx1112basic_stringIcSt11char_traitsIcESaIcEEEmEC2IRS5_RmLb1EEEOT_OT0_ # -- Begin function _ZNSt4pairINSt7__cxx1112basic_stringIcSt11char_traitsIcESaIcEEEmEC2IRS5_RmLb1EEEOT_OT0_
	.p2align	2
	.type	_ZNSt4pairINSt7__cxx1112basic_stringIcSt11char_traitsIcESaIcEEEmEC2IRS5_RmLb1EEEOT_OT0_,@function
_ZNSt4pairINSt7__cxx1112basic_stringIcSt11char_traitsIcESaIcEEEmEC2IRS5_RmLb1EEEOT_OT0_: # @_ZNSt4pairINSt7__cxx1112basic_stringIcSt11char_traitsIcESaIcEEEmEC2IRS5_RmLb1EEEOT_OT0_
	.cfi_startproc
# %bb.0:                                # %entry
	addi	sp, sp, -48
	.cfi_def_cfa_offset 48
	sd	ra, 40(sp)
	sd	s0, 32(sp)
	sd	s1, 24(sp)
	.cfi_offset ra, -8
	.cfi_offset s0, -16
	.cfi_offset s1, -24
	addi	s0, sp, 48
	.cfi_def_cfa s0, 0
	sd	a0, -32(s0)
	sd	a1, -40(s0)
	sd	a2, -48(s0)
	ld	s1, -32(s0)
	ld	a0, -40(s0)
	call	_ZSt7forwardIRNSt7__cxx1112basic_stringIcSt11char_traitsIcESaIcEEEEOT_RNSt16remove_referenceIS7_E4typeE
	mv	a1, a0
	mv	a0, s1
	call	_ZNSt7__cxx1112basic_stringIcSt11char_traitsIcESaIcEEC1ERKS4_
	ld	a0, -48(s0)
	call	_ZSt7forwardIRmEOT_RNSt16remove_referenceIS1_E4typeE
	ld	a0, 0(a0)
	sd	a0, 32(s1)
	ld	s1, 24(sp)
	ld	s0, 32(sp)
	.cfi_def_cfa sp, 48
	ld	ra, 40(sp)
	.cfi_restore ra
	.cfi_restore s0
	.cfi_restore s1
	addi	sp, sp, 48
	.cfi_def_cfa_offset 0
	ret
.Lfunc_end57:
	.size	_ZNSt4pairINSt7__cxx1112basic_stringIcSt11char_traitsIcESaIcEEEmEC2IRS5_RmLb1EEEOT_OT0_, .Lfunc_end57-_ZNSt4pairINSt7__cxx1112basic_stringIcSt11char_traitsIcESaIcEEEmEC2IRS5_RmLb1EEEOT_OT0_
	.cfi_endproc
                                        # -- End function
	.section	.text._ZN6OptionC2ERKS_,"axG",@progbits,_ZN6OptionC2ERKS_,comdat
	.weak	_ZN6OptionC2ERKS_       # -- Begin function _ZN6OptionC2ERKS_
	.p2align	2
	.type	_ZN6OptionC2ERKS_,@function
_ZN6OptionC2ERKS_:                      # @_ZN6OptionC2ERKS_
.Lfunc_begin19:
	.cfi_startproc
	.cfi_personality 155, DW.ref.__gxx_personality_v0
	.cfi_lsda 27, .Lexception19
# %bb.0:                                # %entry
	addi	sp, sp, -64
	.cfi_def_cfa_offset 64
	sd	ra, 56(sp)
	sd	s0, 48(sp)
	sd	s1, 40(sp)
	.cfi_offset ra, -8
	.cfi_offset s0, -16
	.cfi_offset s1, -24
	addi	s0, sp, 64
	.cfi_def_cfa s0, 0
	sd	a0, -32(s0)
	sd	a1, -40(s0)
	ld	s1, -32(s0)
	ld	a1, -40(s0)
	mv	a0, s1
	call	_ZNSt10filesystem7__cxx114pathC2ERKS1_
	addi	a0, s1, 40
	ld	a1, -40(s0)
	addi	a1, a1, 40
.Ltmp333:
	call	_ZNSt7__cxx1112basic_stringIcSt11char_traitsIcESaIcEEC1ERKS4_
.Ltmp334:
	j	.LBB58_1
.LBB58_1:                               # %invoke.cont
	ld	a0, -40(s0)
	lb	a1, 76(a0)
	sb	a1, 76(s1)
	lw	a0, 72(a0)
	sw	a0, 72(s1)
	ld	s1, 40(sp)
	ld	s0, 48(sp)
	.cfi_def_cfa sp, 64
	ld	ra, 56(sp)
	.cfi_restore ra
	.cfi_restore s0
	.cfi_restore s1
	addi	sp, sp, 64
	.cfi_def_cfa_offset 0
	ret
.LBB58_2:                               # %lpad
.Ltmp335:
	sd	a0, -48(s0)
	sw	a1, -52(s0)
	mv	a0, s1
	call	_ZNSt10filesystem7__cxx114pathD2Ev
	j	.LBB58_3
.LBB58_3:                               # %eh.resume
	ld	a0, -48(s0)
	call	_Unwind_Resume
.Lfunc_end58:
	.size	_ZN6OptionC2ERKS_, .Lfunc_end58-_ZN6OptionC2ERKS_
	.cfi_endproc
	.section	.gcc_except_table,"a",@progbits
	.p2align	2
GCC_except_table58:
.Lexception19:
	.byte	255                     # @LPStart Encoding = omit
	.byte	255                     # @TType Encoding = omit
	.byte	3                       # Call site Encoding = udata4
	.uleb128 .Lcst_end19-.Lcst_begin19
.Lcst_begin19:
	.word	.Lfunc_begin19-.Lfunc_begin19 # >> Call Site 1 <<
	.word	.Ltmp333-.Lfunc_begin19 #   Call between .Lfunc_begin19 and .Ltmp333
	.word	0                       #     has no landing pad
	.byte	0                       #   On action: cleanup
	.word	.Ltmp333-.Lfunc_begin19 # >> Call Site 2 <<
	.word	.Ltmp334-.Ltmp333       #   Call between .Ltmp333 and .Ltmp334
	.word	.Ltmp335-.Lfunc_begin19 #     jumps to .Ltmp335
	.byte	0                       #   On action: cleanup
	.word	.Ltmp334-.Lfunc_begin19 # >> Call Site 3 <<
	.word	.Lfunc_end58-.Ltmp334   #   Call between .Ltmp334 and .Lfunc_end58
	.word	0                       #     has no landing pad
	.byte	0                       #   On action: cleanup
.Lcst_end19:
	.p2align	2
                                        # -- End function
	.section	.text._ZNSt12_Vector_baseI6OptionSaIS0_EEC2Ev,"axG",@progbits,_ZNSt12_Vector_baseI6OptionSaIS0_EEC2Ev,comdat
	.weak	_ZNSt12_Vector_baseI6OptionSaIS0_EEC2Ev # -- Begin function _ZNSt12_Vector_baseI6OptionSaIS0_EEC2Ev
	.p2align	2
	.type	_ZNSt12_Vector_baseI6OptionSaIS0_EEC2Ev,@function
_ZNSt12_Vector_baseI6OptionSaIS0_EEC2Ev: # @_ZNSt12_Vector_baseI6OptionSaIS0_EEC2Ev
# %bb.0:                                # %entry
	addi	sp, sp, -32
	sd	ra, 24(sp)
	sd	s0, 16(sp)
	addi	s0, sp, 32
	sd	a0, -24(s0)
	ld	a0, -24(s0)
	call	_ZNSt12_Vector_baseI6OptionSaIS0_EE12_Vector_implC2Ev
	ld	s0, 16(sp)
	ld	ra, 24(sp)
	addi	sp, sp, 32
	ret
.Lfunc_end59:
	.size	_ZNSt12_Vector_baseI6OptionSaIS0_EEC2Ev, .Lfunc_end59-_ZNSt12_Vector_baseI6OptionSaIS0_EEC2Ev
                                        # -- End function
	.section	.text._ZNSt12_Vector_baseI6OptionSaIS0_EE12_Vector_implC2Ev,"axG",@progbits,_ZNSt12_Vector_baseI6OptionSaIS0_EE12_Vector_implC2Ev,comdat
	.weak	_ZNSt12_Vector_baseI6OptionSaIS0_EE12_Vector_implC2Ev # -- Begin function _ZNSt12_Vector_baseI6OptionSaIS0_EE12_Vector_implC2Ev
	.p2align	2
	.type	_ZNSt12_Vector_baseI6OptionSaIS0_EE12_Vector_implC2Ev,@function
_ZNSt12_Vector_baseI6OptionSaIS0_EE12_Vector_implC2Ev: # @_ZNSt12_Vector_baseI6OptionSaIS0_EE12_Vector_implC2Ev
# %bb.0:                                # %entry
	addi	sp, sp, -32
	sd	ra, 24(sp)
	sd	s0, 16(sp)
	sd	s1, 8(sp)
	addi	s0, sp, 32
	sd	a0, -32(s0)
	ld	s1, -32(s0)
	mv	a0, s1
	call	_ZNSaI6OptionEC2Ev
	mv	a0, s1
	call	_ZNSt12_Vector_baseI6OptionSaIS0_EE17_Vector_impl_dataC2Ev
	ld	s1, 8(sp)
	ld	s0, 16(sp)
	ld	ra, 24(sp)
	addi	sp, sp, 32
	ret
.Lfunc_end60:
	.size	_ZNSt12_Vector_baseI6OptionSaIS0_EE12_Vector_implC2Ev, .Lfunc_end60-_ZNSt12_Vector_baseI6OptionSaIS0_EE12_Vector_implC2Ev
                                        # -- End function
	.section	.text._ZNSaI6OptionEC2Ev,"axG",@progbits,_ZNSaI6OptionEC2Ev,comdat
	.weak	_ZNSaI6OptionEC2Ev      # -- Begin function _ZNSaI6OptionEC2Ev
	.p2align	2
	.type	_ZNSaI6OptionEC2Ev,@function
_ZNSaI6OptionEC2Ev:                     # @_ZNSaI6OptionEC2Ev
# %bb.0:                                # %entry
	addi	sp, sp, -32
	sd	ra, 24(sp)
	sd	s0, 16(sp)
	addi	s0, sp, 32
	sd	a0, -24(s0)
	ld	a0, -24(s0)
	call	_ZN9__gnu_cxx13new_allocatorI6OptionEC2Ev
	ld	s0, 16(sp)
	ld	ra, 24(sp)
	addi	sp, sp, 32
	ret
.Lfunc_end61:
	.size	_ZNSaI6OptionEC2Ev, .Lfunc_end61-_ZNSaI6OptionEC2Ev
                                        # -- End function
	.section	.text._ZNSt12_Vector_baseI6OptionSaIS0_EE17_Vector_impl_dataC2Ev,"axG",@progbits,_ZNSt12_Vector_baseI6OptionSaIS0_EE17_Vector_impl_dataC2Ev,comdat
	.weak	_ZNSt12_Vector_baseI6OptionSaIS0_EE17_Vector_impl_dataC2Ev # -- Begin function _ZNSt12_Vector_baseI6OptionSaIS0_EE17_Vector_impl_dataC2Ev
	.p2align	2
	.type	_ZNSt12_Vector_baseI6OptionSaIS0_EE17_Vector_impl_dataC2Ev,@function
_ZNSt12_Vector_baseI6OptionSaIS0_EE17_Vector_impl_dataC2Ev: # @_ZNSt12_Vector_baseI6OptionSaIS0_EE17_Vector_impl_dataC2Ev
# %bb.0:                                # %entry
	addi	sp, sp, -32
	sd	ra, 24(sp)
	sd	s0, 16(sp)
	addi	s0, sp, 32
	sd	a0, -24(s0)
	ld	a0, -24(s0)
	sd	zero, 0(a0)
	sd	zero, 8(a0)
	sd	zero, 16(a0)
	ld	s0, 16(sp)
	ld	ra, 24(sp)
	addi	sp, sp, 32
	ret
.Lfunc_end62:
	.size	_ZNSt12_Vector_baseI6OptionSaIS0_EE17_Vector_impl_dataC2Ev, .Lfunc_end62-_ZNSt12_Vector_baseI6OptionSaIS0_EE17_Vector_impl_dataC2Ev
                                        # -- End function
	.section	.text._ZN9__gnu_cxx13new_allocatorI6OptionEC2Ev,"axG",@progbits,_ZN9__gnu_cxx13new_allocatorI6OptionEC2Ev,comdat
	.weak	_ZN9__gnu_cxx13new_allocatorI6OptionEC2Ev # -- Begin function _ZN9__gnu_cxx13new_allocatorI6OptionEC2Ev
	.p2align	2
	.type	_ZN9__gnu_cxx13new_allocatorI6OptionEC2Ev,@function
_ZN9__gnu_cxx13new_allocatorI6OptionEC2Ev: # @_ZN9__gnu_cxx13new_allocatorI6OptionEC2Ev
# %bb.0:                                # %entry
	addi	sp, sp, -32
	sd	ra, 24(sp)
	sd	s0, 16(sp)
	addi	s0, sp, 32
	sd	a0, -24(s0)
	ld	s0, 16(sp)
	ld	ra, 24(sp)
	addi	sp, sp, 32
	ret
.Lfunc_end63:
	.size	_ZN9__gnu_cxx13new_allocatorI6OptionEC2Ev, .Lfunc_end63-_ZN9__gnu_cxx13new_allocatorI6OptionEC2Ev
                                        # -- End function
	.section	.text._ZNSt10filesystem7__cxx1118directory_iteratorC2EOS1_,"axG",@progbits,_ZNSt10filesystem7__cxx1118directory_iteratorC2EOS1_,comdat
	.weak	_ZNSt10filesystem7__cxx1118directory_iteratorC2EOS1_ # -- Begin function _ZNSt10filesystem7__cxx1118directory_iteratorC2EOS1_
	.p2align	2
	.type	_ZNSt10filesystem7__cxx1118directory_iteratorC2EOS1_,@function
_ZNSt10filesystem7__cxx1118directory_iteratorC2EOS1_: # @_ZNSt10filesystem7__cxx1118directory_iteratorC2EOS1_
# %bb.0:                                # %entry
	addi	sp, sp, -32
	sd	ra, 24(sp)
	sd	s0, 16(sp)
	addi	s0, sp, 32
	sd	a0, -24(s0)
	sd	a1, -32(s0)
	ld	a0, -24(s0)
	ld	a1, -32(s0)
	call	_ZNSt12__shared_ptrINSt10filesystem7__cxx114_DirELN9__gnu_cxx12_Lock_policyE0EEC1EOS5_
	ld	s0, 16(sp)
	ld	ra, 24(sp)
	addi	sp, sp, 32
	ret
.Lfunc_end64:
	.size	_ZNSt10filesystem7__cxx1118directory_iteratorC2EOS1_, .Lfunc_end64-_ZNSt10filesystem7__cxx1118directory_iteratorC2EOS1_
                                        # -- End function
	.section	.text._ZNSt12__shared_ptrINSt10filesystem7__cxx114_DirELN9__gnu_cxx12_Lock_policyE0EEC2ERKS5_,"axG",@progbits,_ZNSt12__shared_ptrINSt10filesystem7__cxx114_DirELN9__gnu_cxx12_Lock_policyE0EEC2ERKS5_,comdat
	.weak	_ZNSt12__shared_ptrINSt10filesystem7__cxx114_DirELN9__gnu_cxx12_Lock_policyE0EEC2ERKS5_ # -- Begin function _ZNSt12__shared_ptrINSt10filesystem7__cxx114_DirELN9__gnu_cxx12_Lock_policyE0EEC2ERKS5_
	.p2align	2
	.type	_ZNSt12__shared_ptrINSt10filesystem7__cxx114_DirELN9__gnu_cxx12_Lock_policyE0EEC2ERKS5_,@function
_ZNSt12__shared_ptrINSt10filesystem7__cxx114_DirELN9__gnu_cxx12_Lock_policyE0EEC2ERKS5_: # @_ZNSt12__shared_ptrINSt10filesystem7__cxx114_DirELN9__gnu_cxx12_Lock_policyE0EEC2ERKS5_
# %bb.0:                                # %entry
	addi	sp, sp, -32
	sd	ra, 24(sp)
	sd	s0, 16(sp)
	addi	s0, sp, 32
	sd	a0, -24(s0)
	sd	a1, -32(s0)
	ld	a0, -24(s0)
	ld	a1, -32(s0)
	ld	a1, 0(a1)
	sd	a1, 0(a0)
	addi	a0, a0, 8
	ld	a1, -32(s0)
	addi	a1, a1, 8
	call	_ZNSt14__shared_countILN9__gnu_cxx12_Lock_policyE0EEC2ERKS2_
	ld	s0, 16(sp)
	ld	ra, 24(sp)
	addi	sp, sp, 32
	ret
.Lfunc_end65:
	.size	_ZNSt12__shared_ptrINSt10filesystem7__cxx114_DirELN9__gnu_cxx12_Lock_policyE0EEC2ERKS5_, .Lfunc_end65-_ZNSt12__shared_ptrINSt10filesystem7__cxx114_DirELN9__gnu_cxx12_Lock_policyE0EEC2ERKS5_
                                        # -- End function
	.section	.text._ZNSt14__shared_countILN9__gnu_cxx12_Lock_policyE0EEC2ERKS2_,"axG",@progbits,_ZNSt14__shared_countILN9__gnu_cxx12_Lock_policyE0EEC2ERKS2_,comdat
	.weak	_ZNSt14__shared_countILN9__gnu_cxx12_Lock_policyE0EEC2ERKS2_ # -- Begin function _ZNSt14__shared_countILN9__gnu_cxx12_Lock_policyE0EEC2ERKS2_
	.p2align	2
	.type	_ZNSt14__shared_countILN9__gnu_cxx12_Lock_policyE0EEC2ERKS2_,@function
_ZNSt14__shared_countILN9__gnu_cxx12_Lock_policyE0EEC2ERKS2_: # @_ZNSt14__shared_countILN9__gnu_cxx12_Lock_policyE0EEC2ERKS2_
.Lfunc_begin20:
	.cfi_startproc
	.cfi_personality 155, DW.ref.__gxx_personality_v0
	.cfi_lsda 27, .Lexception20
# %bb.0:                                # %entry
	addi	sp, sp, -32
	.cfi_def_cfa_offset 32
	sd	ra, 24(sp)
	sd	s0, 16(sp)
	.cfi_offset ra, -8
	.cfi_offset s0, -16
	addi	s0, sp, 32
	.cfi_def_cfa s0, 0
	sd	a0, -24(s0)
	sd	a1, -32(s0)
	ld	a0, -24(s0)
	ld	a1, -32(s0)
	ld	a1, 0(a1)
	sd	a1, 0(a0)
	ld	a1, 0(a0)
	beqz	a1, .LBB66_3
	j	.LBB66_1
.LBB66_1:                               # %if.then
	ld	a0, 0(a0)
.Ltmp336:
	call	_ZNSt16_Sp_counted_baseILN9__gnu_cxx12_Lock_policyE0EE15_M_add_ref_copyEv
.Ltmp337:
	j	.LBB66_2
.LBB66_2:                               # %invoke.cont
	j	.LBB66_3
.LBB66_3:                               # %if.end
	ld	s0, 16(sp)
	.cfi_def_cfa sp, 32
	ld	ra, 24(sp)
	.cfi_restore ra
	.cfi_restore s0
	addi	sp, sp, 32
	.cfi_def_cfa_offset 0
	ret
.LBB66_4:                               # %terminate.lpad
.Ltmp338:
	call	__clang_call_terminate
.Lfunc_end66:
	.size	_ZNSt14__shared_countILN9__gnu_cxx12_Lock_policyE0EEC2ERKS2_, .Lfunc_end66-_ZNSt14__shared_countILN9__gnu_cxx12_Lock_policyE0EEC2ERKS2_
	.cfi_endproc
	.section	.gcc_except_table,"a",@progbits
	.p2align	2
GCC_except_table66:
.Lexception20:
	.byte	255                     # @LPStart Encoding = omit
	.byte	155                     # @TType Encoding = indirect pcrel sdata4
	.uleb128 .Lttbase5-.Lttbaseref5
.Lttbaseref5:
	.byte	3                       # Call site Encoding = udata4
	.uleb128 .Lcst_end20-.Lcst_begin20
.Lcst_begin20:
	.word	.Ltmp336-.Lfunc_begin20 # >> Call Site 1 <<
	.word	.Ltmp337-.Ltmp336       #   Call between .Ltmp336 and .Ltmp337
	.word	.Ltmp338-.Lfunc_begin20 #     jumps to .Ltmp338
	.byte	1                       #   On action: 1
.Lcst_end20:
	.byte	1                       # >> Action Record 1 <<
                                        #   Catch TypeInfo 1
	.byte	0                       #   No further actions
	.p2align	2
                                        # >> Catch TypeInfos <<
	.word	0                       # TypeInfo 1
.Lttbase5:
	.p2align	2
                                        # -- End function
	.section	.text._ZNSt16_Sp_counted_baseILN9__gnu_cxx12_Lock_policyE0EE15_M_add_ref_copyEv,"axG",@progbits,_ZNSt16_Sp_counted_baseILN9__gnu_cxx12_Lock_policyE0EE15_M_add_ref_copyEv,comdat
	.weak	_ZNSt16_Sp_counted_baseILN9__gnu_cxx12_Lock_policyE0EE15_M_add_ref_copyEv # -- Begin function _ZNSt16_Sp_counted_baseILN9__gnu_cxx12_Lock_policyE0EE15_M_add_ref_copyEv
	.p2align	2
	.type	_ZNSt16_Sp_counted_baseILN9__gnu_cxx12_Lock_policyE0EE15_M_add_ref_copyEv,@function
_ZNSt16_Sp_counted_baseILN9__gnu_cxx12_Lock_policyE0EE15_M_add_ref_copyEv: # @_ZNSt16_Sp_counted_baseILN9__gnu_cxx12_Lock_policyE0EE15_M_add_ref_copyEv
# %bb.0:                                # %entry
	addi	sp, sp, -32
	sd	ra, 24(sp)
	sd	s0, 16(sp)
	addi	s0, sp, 32
	sd	a0, -24(s0)
	ld	a0, -24(s0)
	lw	a1, 8(a0)
	addi	a1, a1, 1
	sw	a1, 8(a0)
	ld	s0, 16(sp)
	ld	ra, 24(sp)
	addi	sp, sp, 32
	ret
.Lfunc_end67:
	.size	_ZNSt16_Sp_counted_baseILN9__gnu_cxx12_Lock_policyE0EE15_M_add_ref_copyEv, .Lfunc_end67-_ZNSt16_Sp_counted_baseILN9__gnu_cxx12_Lock_policyE0EE15_M_add_ref_copyEv
                                        # -- End function
	.section	.text.__clang_call_terminate,"axG",@progbits,__clang_call_terminate,comdat
	.hidden	__clang_call_terminate  # -- Begin function __clang_call_terminate
	.weak	__clang_call_terminate
	.p2align	2
	.type	__clang_call_terminate,@function
__clang_call_terminate:                 # @__clang_call_terminate
# %bb.0:
	addi	sp, sp, -16
	sd	ra, 8(sp)
	call	__cxa_begin_catch
	call	_ZSt9terminatev
.Lfunc_end68:
	.size	__clang_call_terminate, .Lfunc_end68-__clang_call_terminate
                                        # -- End function
	.section	.text._ZNSt12__shared_ptrINSt10filesystem7__cxx114_DirELN9__gnu_cxx12_Lock_policyE0EED2Ev,"axG",@progbits,_ZNSt12__shared_ptrINSt10filesystem7__cxx114_DirELN9__gnu_cxx12_Lock_policyE0EED2Ev,comdat
	.weak	_ZNSt12__shared_ptrINSt10filesystem7__cxx114_DirELN9__gnu_cxx12_Lock_policyE0EED2Ev # -- Begin function _ZNSt12__shared_ptrINSt10filesystem7__cxx114_DirELN9__gnu_cxx12_Lock_policyE0EED2Ev
	.p2align	2
	.type	_ZNSt12__shared_ptrINSt10filesystem7__cxx114_DirELN9__gnu_cxx12_Lock_policyE0EED2Ev,@function
_ZNSt12__shared_ptrINSt10filesystem7__cxx114_DirELN9__gnu_cxx12_Lock_policyE0EED2Ev: # @_ZNSt12__shared_ptrINSt10filesystem7__cxx114_DirELN9__gnu_cxx12_Lock_policyE0EED2Ev
# %bb.0:                                # %entry
	addi	sp, sp, -32
	sd	ra, 24(sp)
	sd	s0, 16(sp)
	addi	s0, sp, 32
	sd	a0, -24(s0)
	ld	a0, -24(s0)
	addi	a0, a0, 8
	call	_ZNSt14__shared_countILN9__gnu_cxx12_Lock_policyE0EED2Ev
	ld	s0, 16(sp)
	ld	ra, 24(sp)
	addi	sp, sp, 32
	ret
.Lfunc_end69:
	.size	_ZNSt12__shared_ptrINSt10filesystem7__cxx114_DirELN9__gnu_cxx12_Lock_policyE0EED2Ev, .Lfunc_end69-_ZNSt12__shared_ptrINSt10filesystem7__cxx114_DirELN9__gnu_cxx12_Lock_policyE0EED2Ev
                                        # -- End function
	.section	.text._ZNSt14__shared_countILN9__gnu_cxx12_Lock_policyE0EED2Ev,"axG",@progbits,_ZNSt14__shared_countILN9__gnu_cxx12_Lock_policyE0EED2Ev,comdat
	.weak	_ZNSt14__shared_countILN9__gnu_cxx12_Lock_policyE0EED2Ev # -- Begin function _ZNSt14__shared_countILN9__gnu_cxx12_Lock_policyE0EED2Ev
	.p2align	2
	.type	_ZNSt14__shared_countILN9__gnu_cxx12_Lock_policyE0EED2Ev,@function
_ZNSt14__shared_countILN9__gnu_cxx12_Lock_policyE0EED2Ev: # @_ZNSt14__shared_countILN9__gnu_cxx12_Lock_policyE0EED2Ev
# %bb.0:                                # %entry
	addi	sp, sp, -32
	sd	ra, 24(sp)
	sd	s0, 16(sp)
	addi	s0, sp, 32
	sd	a0, -24(s0)
	ld	a0, -24(s0)
	ld	a1, 0(a0)
	beqz	a1, .LBB70_2
	j	.LBB70_1
.LBB70_1:                               # %if.then
	ld	a0, 0(a0)
	call	_ZNSt16_Sp_counted_baseILN9__gnu_cxx12_Lock_policyE0EE10_M_releaseEv
	j	.LBB70_2
.LBB70_2:                               # %if.end
	ld	s0, 16(sp)
	ld	ra, 24(sp)
	addi	sp, sp, 32
	ret
.Lfunc_end70:
	.size	_ZNSt14__shared_countILN9__gnu_cxx12_Lock_policyE0EED2Ev, .Lfunc_end70-_ZNSt14__shared_countILN9__gnu_cxx12_Lock_policyE0EED2Ev
                                        # -- End function
	.section	.text._ZNSt16_Sp_counted_baseILN9__gnu_cxx12_Lock_policyE0EE10_M_releaseEv,"axG",@progbits,_ZNSt16_Sp_counted_baseILN9__gnu_cxx12_Lock_policyE0EE10_M_releaseEv,comdat
	.weak	_ZNSt16_Sp_counted_baseILN9__gnu_cxx12_Lock_policyE0EE10_M_releaseEv # -- Begin function _ZNSt16_Sp_counted_baseILN9__gnu_cxx12_Lock_policyE0EE10_M_releaseEv
	.p2align	2
	.type	_ZNSt16_Sp_counted_baseILN9__gnu_cxx12_Lock_policyE0EE10_M_releaseEv,@function
_ZNSt16_Sp_counted_baseILN9__gnu_cxx12_Lock_policyE0EE10_M_releaseEv: # @_ZNSt16_Sp_counted_baseILN9__gnu_cxx12_Lock_policyE0EE10_M_releaseEv
# %bb.0:                                # %entry
	addi	sp, sp, -32
	sd	ra, 24(sp)
	sd	s0, 16(sp)
	sd	s1, 8(sp)
	addi	s0, sp, 32
	sd	a0, -32(s0)
	ld	s1, -32(s0)
	lw	a0, 8(s1)
	addi	a0, a0, -1
	sw	a0, 8(s1)
	slli	a0, a0, 32
	srli	a0, a0, 32
	bnez	a0, .LBB71_4
	j	.LBB71_1
.LBB71_1:                               # %if.then
	ld	a0, 0(s1)
	ld	a1, 16(a0)
	mv	a0, s1
	jalr	a1
	lw	a0, 12(s1)
	addi	a0, a0, -1
	sw	a0, 12(s1)
	slli	a0, a0, 32
	srli	a0, a0, 32
	bnez	a0, .LBB71_3
	j	.LBB71_2
.LBB71_2:                               # %if.then4
	ld	a0, 0(s1)
	ld	a1, 24(a0)
	mv	a0, s1
	jalr	a1
	j	.LBB71_3
.LBB71_3:                               # %if.end
	j	.LBB71_4
.LBB71_4:                               # %if.end7
	ld	s1, 8(sp)
	ld	s0, 16(sp)
	ld	ra, 24(sp)
	addi	sp, sp, 32
	ret
.Lfunc_end71:
	.size	_ZNSt16_Sp_counted_baseILN9__gnu_cxx12_Lock_policyE0EE10_M_releaseEv, .Lfunc_end71-_ZNSt16_Sp_counted_baseILN9__gnu_cxx12_Lock_policyE0EE10_M_releaseEv
                                        # -- End function
	.section	.text._ZNSt10filesystem7__cxx1118directory_iteratorC2Ev,"axG",@progbits,_ZNSt10filesystem7__cxx1118directory_iteratorC2Ev,comdat
	.weak	_ZNSt10filesystem7__cxx1118directory_iteratorC2Ev # -- Begin function _ZNSt10filesystem7__cxx1118directory_iteratorC2Ev
	.p2align	2
	.type	_ZNSt10filesystem7__cxx1118directory_iteratorC2Ev,@function
_ZNSt10filesystem7__cxx1118directory_iteratorC2Ev: # @_ZNSt10filesystem7__cxx1118directory_iteratorC2Ev
# %bb.0:                                # %entry
	addi	sp, sp, -32
	sd	ra, 24(sp)
	sd	s0, 16(sp)
	addi	s0, sp, 32
	sd	a0, -24(s0)
	ld	a0, -24(s0)
	call	_ZNSt12__shared_ptrINSt10filesystem7__cxx114_DirELN9__gnu_cxx12_Lock_policyE0EEC1Ev
	ld	s0, 16(sp)
	ld	ra, 24(sp)
	addi	sp, sp, 32
	ret
.Lfunc_end72:
	.size	_ZNSt10filesystem7__cxx1118directory_iteratorC2Ev, .Lfunc_end72-_ZNSt10filesystem7__cxx1118directory_iteratorC2Ev
                                        # -- End function
	.section	.text._ZNSt10filesystem7__cxx11eqERKNS0_18directory_iteratorES3_,"axG",@progbits,_ZNSt10filesystem7__cxx11eqERKNS0_18directory_iteratorES3_,comdat
	.weak	_ZNSt10filesystem7__cxx11eqERKNS0_18directory_iteratorES3_ # -- Begin function _ZNSt10filesystem7__cxx11eqERKNS0_18directory_iteratorES3_
	.p2align	2
	.type	_ZNSt10filesystem7__cxx11eqERKNS0_18directory_iteratorES3_,@function
_ZNSt10filesystem7__cxx11eqERKNS0_18directory_iteratorES3_: # @_ZNSt10filesystem7__cxx11eqERKNS0_18directory_iteratorES3_
# %bb.0:                                # %entry
	addi	sp, sp, -32
	sd	ra, 24(sp)
	sd	s0, 16(sp)
	addi	s0, sp, 32
	sd	a0, -24(s0)
	sd	a1, -32(s0)
	ld	a0, -32(s0)
	ld	a1, -24(s0)
	call	_ZNKSt12__shared_ptrINSt10filesystem7__cxx114_DirELN9__gnu_cxx12_Lock_policyE0EE12owner_beforeIS2_EEbRKS_IT_LS4_0EE
	mv	a1, zero
	bnez	a0, .LBB73_2
	j	.LBB73_1
.LBB73_1:                               # %land.rhs
	ld	a0, -24(s0)
	ld	a1, -32(s0)
	call	_ZNKSt12__shared_ptrINSt10filesystem7__cxx114_DirELN9__gnu_cxx12_Lock_policyE0EE12owner_beforeIS2_EEbRKS_IT_LS4_0EE
	xori	a1, a0, 1
	j	.LBB73_2
.LBB73_2:                               # %land.end
	andi	a0, a1, 1
	ld	s0, 16(sp)
	ld	ra, 24(sp)
	addi	sp, sp, 32
	ret
.Lfunc_end73:
	.size	_ZNSt10filesystem7__cxx11eqERKNS0_18directory_iteratorES3_, .Lfunc_end73-_ZNSt10filesystem7__cxx11eqERKNS0_18directory_iteratorES3_
                                        # -- End function
	.section	.text._ZNKSt12__shared_ptrINSt10filesystem7__cxx114_DirELN9__gnu_cxx12_Lock_policyE0EE12owner_beforeIS2_EEbRKS_IT_LS4_0EE,"axG",@progbits,_ZNKSt12__shared_ptrINSt10filesystem7__cxx114_DirELN9__gnu_cxx12_Lock_policyE0EE12owner_beforeIS2_EEbRKS_IT_LS4_0EE,comdat
	.weak	_ZNKSt12__shared_ptrINSt10filesystem7__cxx114_DirELN9__gnu_cxx12_Lock_policyE0EE12owner_beforeIS2_EEbRKS_IT_LS4_0EE # -- Begin function _ZNKSt12__shared_ptrINSt10filesystem7__cxx114_DirELN9__gnu_cxx12_Lock_policyE0EE12owner_beforeIS2_EEbRKS_IT_LS4_0EE
	.p2align	2
	.type	_ZNKSt12__shared_ptrINSt10filesystem7__cxx114_DirELN9__gnu_cxx12_Lock_policyE0EE12owner_beforeIS2_EEbRKS_IT_LS4_0EE,@function
_ZNKSt12__shared_ptrINSt10filesystem7__cxx114_DirELN9__gnu_cxx12_Lock_policyE0EE12owner_beforeIS2_EEbRKS_IT_LS4_0EE: # @_ZNKSt12__shared_ptrINSt10filesystem7__cxx114_DirELN9__gnu_cxx12_Lock_policyE0EE12owner_beforeIS2_EEbRKS_IT_LS4_0EE
# %bb.0:                                # %entry
	addi	sp, sp, -32
	sd	ra, 24(sp)
	sd	s0, 16(sp)
	addi	s0, sp, 32
	sd	a0, -24(s0)
	sd	a1, -32(s0)
	ld	a0, -24(s0)
	addi	a0, a0, 8
	ld	a1, -32(s0)
	addi	a1, a1, 8
	call	_ZNKSt14__shared_countILN9__gnu_cxx12_Lock_policyE0EE7_M_lessERKS2_
	ld	s0, 16(sp)
	ld	ra, 24(sp)
	addi	sp, sp, 32
	ret
.Lfunc_end74:
	.size	_ZNKSt12__shared_ptrINSt10filesystem7__cxx114_DirELN9__gnu_cxx12_Lock_policyE0EE12owner_beforeIS2_EEbRKS_IT_LS4_0EE, .Lfunc_end74-_ZNKSt12__shared_ptrINSt10filesystem7__cxx114_DirELN9__gnu_cxx12_Lock_policyE0EE12owner_beforeIS2_EEbRKS_IT_LS4_0EE
                                        # -- End function
	.section	.text._ZNKSt14__shared_countILN9__gnu_cxx12_Lock_policyE0EE7_M_lessERKS2_,"axG",@progbits,_ZNKSt14__shared_countILN9__gnu_cxx12_Lock_policyE0EE7_M_lessERKS2_,comdat
	.weak	_ZNKSt14__shared_countILN9__gnu_cxx12_Lock_policyE0EE7_M_lessERKS2_ # -- Begin function _ZNKSt14__shared_countILN9__gnu_cxx12_Lock_policyE0EE7_M_lessERKS2_
	.p2align	2
	.type	_ZNKSt14__shared_countILN9__gnu_cxx12_Lock_policyE0EE7_M_lessERKS2_,@function
_ZNKSt14__shared_countILN9__gnu_cxx12_Lock_policyE0EE7_M_lessERKS2_: # @_ZNKSt14__shared_countILN9__gnu_cxx12_Lock_policyE0EE7_M_lessERKS2_
# %bb.0:                                # %entry
	addi	sp, sp, -48
	sd	ra, 40(sp)
	sd	s0, 32(sp)
	addi	s0, sp, 48
	sd	a0, -24(s0)
	sd	a1, -32(s0)
	ld	a0, -24(s0)
	ld	a1, 0(a0)
	ld	a0, -32(s0)
	ld	a2, 0(a0)
	addi	a0, s0, -40
	call	_ZNKSt4lessIPSt16_Sp_counted_baseILN9__gnu_cxx12_Lock_policyE0EEEclES4_S4_
	ld	s0, 32(sp)
	ld	ra, 40(sp)
	addi	sp, sp, 48
	ret
.Lfunc_end75:
	.size	_ZNKSt14__shared_countILN9__gnu_cxx12_Lock_policyE0EE7_M_lessERKS2_, .Lfunc_end75-_ZNKSt14__shared_countILN9__gnu_cxx12_Lock_policyE0EE7_M_lessERKS2_
                                        # -- End function
	.section	.text._ZNKSt4lessIPSt16_Sp_counted_baseILN9__gnu_cxx12_Lock_policyE0EEEclES4_S4_,"axG",@progbits,_ZNKSt4lessIPSt16_Sp_counted_baseILN9__gnu_cxx12_Lock_policyE0EEEclES4_S4_,comdat
	.weak	_ZNKSt4lessIPSt16_Sp_counted_baseILN9__gnu_cxx12_Lock_policyE0EEEclES4_S4_ # -- Begin function _ZNKSt4lessIPSt16_Sp_counted_baseILN9__gnu_cxx12_Lock_policyE0EEEclES4_S4_
	.p2align	2
	.type	_ZNKSt4lessIPSt16_Sp_counted_baseILN9__gnu_cxx12_Lock_policyE0EEEclES4_S4_,@function
_ZNKSt4lessIPSt16_Sp_counted_baseILN9__gnu_cxx12_Lock_policyE0EEEclES4_S4_: # @_ZNKSt4lessIPSt16_Sp_counted_baseILN9__gnu_cxx12_Lock_policyE0EEEclES4_S4_
# %bb.0:                                # %entry
	addi	sp, sp, -48
	sd	ra, 40(sp)
	sd	s0, 32(sp)
	addi	s0, sp, 48
	sd	a0, -24(s0)
	sd	a1, -32(s0)
	sd	a2, -40(s0)
	ld	a0, -32(s0)
	ld	a1, -40(s0)
	sltu	a0, a0, a1
	ld	s0, 32(sp)
	ld	ra, 40(sp)
	addi	sp, sp, 48
	ret
.Lfunc_end76:
	.size	_ZNKSt4lessIPSt16_Sp_counted_baseILN9__gnu_cxx12_Lock_policyE0EEEclES4_S4_, .Lfunc_end76-_ZNKSt4lessIPSt16_Sp_counted_baseILN9__gnu_cxx12_Lock_policyE0EEEclES4_S4_
                                        # -- End function
	.section	.text._ZNSt10filesystem7__cxx11eqERKNS0_4pathES3_,"axG",@progbits,_ZNSt10filesystem7__cxx11eqERKNS0_4pathES3_,comdat
	.weak	_ZNSt10filesystem7__cxx11eqERKNS0_4pathES3_ # -- Begin function _ZNSt10filesystem7__cxx11eqERKNS0_4pathES3_
	.p2align	2
	.type	_ZNSt10filesystem7__cxx11eqERKNS0_4pathES3_,@function
_ZNSt10filesystem7__cxx11eqERKNS0_4pathES3_: # @_ZNSt10filesystem7__cxx11eqERKNS0_4pathES3_
# %bb.0:                                # %entry
	addi	sp, sp, -32
	sd	ra, 24(sp)
	sd	s0, 16(sp)
	addi	s0, sp, 32
	sd	a0, -24(s0)
	sd	a1, -32(s0)
	ld	a0, -24(s0)
	ld	a1, -32(s0)
	call	_ZNKSt10filesystem7__cxx114path7compareERKS1_
	seqz	a0, a0
	ld	s0, 16(sp)
	ld	ra, 24(sp)
	addi	sp, sp, 32
	ret
.Lfunc_end77:
	.size	_ZNSt10filesystem7__cxx11eqERKNS0_4pathES3_, .Lfunc_end77-_ZNSt10filesystem7__cxx11eqERKNS0_4pathES3_
                                        # -- End function
	.section	.text._ZNSt10filesystem7__cxx114pathC2EONSt7__cxx1112basic_stringIcSt11char_traitsIcESaIcEEENS1_6formatE,"axG",@progbits,_ZNSt10filesystem7__cxx114pathC2EONSt7__cxx1112basic_stringIcSt11char_traitsIcESaIcEEENS1_6formatE,comdat
	.weak	_ZNSt10filesystem7__cxx114pathC2EONSt7__cxx1112basic_stringIcSt11char_traitsIcESaIcEEENS1_6formatE # -- Begin function _ZNSt10filesystem7__cxx114pathC2EONSt7__cxx1112basic_stringIcSt11char_traitsIcESaIcEEENS1_6formatE
	.p2align	2
	.type	_ZNSt10filesystem7__cxx114pathC2EONSt7__cxx1112basic_stringIcSt11char_traitsIcESaIcEEENS1_6formatE,@function
_ZNSt10filesystem7__cxx114pathC2EONSt7__cxx1112basic_stringIcSt11char_traitsIcESaIcEEENS1_6formatE: # @_ZNSt10filesystem7__cxx114pathC2EONSt7__cxx1112basic_stringIcSt11char_traitsIcESaIcEEENS1_6formatE
.Lfunc_begin21:
	.cfi_startproc
	.cfi_personality 155, DW.ref.__gxx_personality_v0
	.cfi_lsda 27, .Lexception21
# %bb.0:                                # %entry
	addi	sp, sp, -80
	.cfi_def_cfa_offset 80
	sd	ra, 72(sp)
	sd	s0, 64(sp)
	sd	s1, 56(sp)
	sd	s2, 48(sp)
	.cfi_offset ra, -8
	.cfi_offset s0, -16
	.cfi_offset s1, -24
	.cfi_offset s2, -32
	addi	s0, sp, 80
	.cfi_def_cfa s0, 0
	sd	a0, -40(s0)
	sd	a1, -48(s0)
	sb	a2, -49(s0)
	ld	s1, -40(s0)
	ld	a0, -48(s0)
	call	_ZSt4moveIRNSt7__cxx1112basic_stringIcSt11char_traitsIcESaIcEEEEONSt16remove_referenceIT_E4typeEOS8_
	mv	a1, a0
	mv	a0, s1
	call	_ZNSt7__cxx1112basic_stringIcSt11char_traitsIcESaIcEEC1EOS4_
	addi	s2, s1, 32
.Ltmp339:
	mv	a0, s2
	call	_ZNSt10filesystem7__cxx114path5_ListC1Ev
.Ltmp340:
	j	.LBB78_1
.LBB78_1:                               # %invoke.cont
.Ltmp342:
	mv	a0, s1
	call	_ZNSt10filesystem7__cxx114path14_M_split_cmptsEv
.Ltmp343:
	j	.LBB78_2
.LBB78_2:                               # %invoke.cont3
	ld	s2, 48(sp)
	ld	s1, 56(sp)
	ld	s0, 64(sp)
	.cfi_def_cfa sp, 80
	ld	ra, 72(sp)
	.cfi_restore ra
	.cfi_restore s0
	.cfi_restore s1
	.cfi_restore s2
	addi	sp, sp, 80
	.cfi_def_cfa_offset 0
	ret
.LBB78_3:                               # %lpad
.Ltmp341:
	sd	a0, -64(s0)
	sw	a1, -68(s0)
	j	.LBB78_5
.LBB78_4:                               # %lpad2
.Ltmp344:
	sd	a0, -64(s0)
	sw	a1, -68(s0)
	mv	a0, s2
	call	_ZNSt10filesystem7__cxx114path5_ListD2Ev
	j	.LBB78_5
.LBB78_5:                               # %ehcleanup
	mv	a0, s1
	call	_ZNSt7__cxx1112basic_stringIcSt11char_traitsIcESaIcEED1Ev
	j	.LBB78_6
.LBB78_6:                               # %eh.resume
	ld	a0, -64(s0)
	call	_Unwind_Resume
.Lfunc_end78:
	.size	_ZNSt10filesystem7__cxx114pathC2EONSt7__cxx1112basic_stringIcSt11char_traitsIcESaIcEEENS1_6formatE, .Lfunc_end78-_ZNSt10filesystem7__cxx114pathC2EONSt7__cxx1112basic_stringIcSt11char_traitsIcESaIcEEENS1_6formatE
	.cfi_endproc
	.section	.gcc_except_table,"a",@progbits
	.p2align	2
GCC_except_table78:
.Lexception21:
	.byte	255                     # @LPStart Encoding = omit
	.byte	255                     # @TType Encoding = omit
	.byte	3                       # Call site Encoding = udata4
	.uleb128 .Lcst_end21-.Lcst_begin21
.Lcst_begin21:
	.word	.Ltmp339-.Lfunc_begin21 # >> Call Site 1 <<
	.word	.Ltmp340-.Ltmp339       #   Call between .Ltmp339 and .Ltmp340
	.word	.Ltmp341-.Lfunc_begin21 #     jumps to .Ltmp341
	.byte	0                       #   On action: cleanup
	.word	.Ltmp342-.Lfunc_begin21 # >> Call Site 2 <<
	.word	.Ltmp343-.Ltmp342       #   Call between .Ltmp342 and .Ltmp343
	.word	.Ltmp344-.Lfunc_begin21 #     jumps to .Ltmp344
	.byte	0                       #   On action: cleanup
	.word	.Ltmp343-.Lfunc_begin21 # >> Call Site 3 <<
	.word	.Lfunc_end78-.Ltmp343   #   Call between .Ltmp343 and .Lfunc_end78
	.word	0                       #     has no landing pad
	.byte	0                       #   On action: cleanup
.Lcst_end21:
	.p2align	2
                                        # -- End function
	.section	.text._ZNSt10filesystem7__cxx114pathC2Ev,"axG",@progbits,_ZNSt10filesystem7__cxx114pathC2Ev,comdat
	.weak	_ZNSt10filesystem7__cxx114pathC2Ev # -- Begin function _ZNSt10filesystem7__cxx114pathC2Ev
	.p2align	2
	.type	_ZNSt10filesystem7__cxx114pathC2Ev,@function
_ZNSt10filesystem7__cxx114pathC2Ev:     # @_ZNSt10filesystem7__cxx114pathC2Ev
.Lfunc_begin22:
	.cfi_startproc
	.cfi_personality 155, DW.ref.__gxx_personality_v0
	.cfi_lsda 27, .Lexception22
# %bb.0:                                # %entry
	addi	sp, sp, -48
	.cfi_def_cfa_offset 48
	sd	ra, 40(sp)
	sd	s0, 32(sp)
	sd	s1, 24(sp)
	.cfi_offset ra, -8
	.cfi_offset s0, -16
	.cfi_offset s1, -24
	addi	s0, sp, 48
	.cfi_def_cfa s0, 0
	sd	a0, -32(s0)
	ld	s1, -32(s0)
	mv	a0, s1
	call	_ZNSt7__cxx1112basic_stringIcSt11char_traitsIcESaIcEEC1Ev
	addi	a0, s1, 32
.Ltmp345:
	call	_ZNSt10filesystem7__cxx114path5_ListC1Ev
.Ltmp346:
	j	.LBB79_1
.LBB79_1:                               # %invoke.cont
	ld	s1, 24(sp)
	ld	s0, 32(sp)
	.cfi_def_cfa sp, 48
	ld	ra, 40(sp)
	.cfi_restore ra
	.cfi_restore s0
	.cfi_restore s1
	addi	sp, sp, 48
	.cfi_def_cfa_offset 0
	ret
.LBB79_2:                               # %lpad
.Ltmp347:
	sd	a0, -40(s0)
	sw	a1, -44(s0)
	mv	a0, s1
	call	_ZNSt7__cxx1112basic_stringIcSt11char_traitsIcESaIcEED1Ev
	j	.LBB79_3
.LBB79_3:                               # %terminate.handler
	ld	a0, -40(s0)
	call	__clang_call_terminate
.Lfunc_end79:
	.size	_ZNSt10filesystem7__cxx114pathC2Ev, .Lfunc_end79-_ZNSt10filesystem7__cxx114pathC2Ev
	.cfi_endproc
	.section	.gcc_except_table,"a",@progbits
	.p2align	2
GCC_except_table79:
.Lexception22:
	.byte	255                     # @LPStart Encoding = omit
	.byte	155                     # @TType Encoding = indirect pcrel sdata4
	.uleb128 .Lttbase6-.Lttbaseref6
.Lttbaseref6:
	.byte	3                       # Call site Encoding = udata4
	.uleb128 .Lcst_end22-.Lcst_begin22
.Lcst_begin22:
	.word	.Ltmp345-.Lfunc_begin22 # >> Call Site 1 <<
	.word	.Ltmp346-.Ltmp345       #   Call between .Ltmp345 and .Ltmp346
	.word	.Ltmp347-.Lfunc_begin22 #     jumps to .Ltmp347
	.byte	1                       #   On action: 1
.Lcst_end22:
	.byte	1                       # >> Action Record 1 <<
                                        #   Catch TypeInfo 1
	.byte	0                       #   No further actions
	.p2align	2
                                        # >> Catch TypeInfos <<
	.word	0                       # TypeInfo 1
.Lttbase6:
	.p2align	2
                                        # -- End function
	.section	.text._ZSt4moveIRNSt7__cxx1112basic_stringIcSt11char_traitsIcESaIcEEEEONSt16remove_referenceIT_E4typeEOS8_,"axG",@progbits,_ZSt4moveIRNSt7__cxx1112basic_stringIcSt11char_traitsIcESaIcEEEEONSt16remove_referenceIT_E4typeEOS8_,comdat
	.weak	_ZSt4moveIRNSt7__cxx1112basic_stringIcSt11char_traitsIcESaIcEEEEONSt16remove_referenceIT_E4typeEOS8_ # -- Begin function _ZSt4moveIRNSt7__cxx1112basic_stringIcSt11char_traitsIcESaIcEEEEONSt16remove_referenceIT_E4typeEOS8_
	.p2align	2
	.type	_ZSt4moveIRNSt7__cxx1112basic_stringIcSt11char_traitsIcESaIcEEEEONSt16remove_referenceIT_E4typeEOS8_,@function
_ZSt4moveIRNSt7__cxx1112basic_stringIcSt11char_traitsIcESaIcEEEEONSt16remove_referenceIT_E4typeEOS8_: # @_ZSt4moveIRNSt7__cxx1112basic_stringIcSt11char_traitsIcESaIcEEEEONSt16remove_referenceIT_E4typeEOS8_
# %bb.0:                                # %entry
	addi	sp, sp, -32
	sd	ra, 24(sp)
	sd	s0, 16(sp)
	addi	s0, sp, 32
	sd	a0, -24(s0)
	ld	a0, -24(s0)
	ld	s0, 16(sp)
	ld	ra, 24(sp)
	addi	sp, sp, 32
	ret
.Lfunc_end80:
	.size	_ZSt4moveIRNSt7__cxx1112basic_stringIcSt11char_traitsIcESaIcEEEEONSt16remove_referenceIT_E4typeEOS8_, .Lfunc_end80-_ZSt4moveIRNSt7__cxx1112basic_stringIcSt11char_traitsIcESaIcEEEEONSt16remove_referenceIT_E4typeEOS8_
                                        # -- End function
	.section	.text._ZNSt10filesystem7__cxx114path5_ListD2Ev,"axG",@progbits,_ZNSt10filesystem7__cxx114path5_ListD2Ev,comdat
	.weak	_ZNSt10filesystem7__cxx114path5_ListD2Ev # -- Begin function _ZNSt10filesystem7__cxx114path5_ListD2Ev
	.p2align	2
	.type	_ZNSt10filesystem7__cxx114path5_ListD2Ev,@function
_ZNSt10filesystem7__cxx114path5_ListD2Ev: # @_ZNSt10filesystem7__cxx114path5_ListD2Ev
# %bb.0:                                # %entry
	addi	sp, sp, -32
	sd	ra, 24(sp)
	sd	s0, 16(sp)
	addi	s0, sp, 32
	sd	a0, -24(s0)
	ld	a0, -24(s0)
	call	_ZNSt10unique_ptrINSt10filesystem7__cxx114path5_List5_ImplENS3_13_Impl_deleterEED2Ev
	ld	s0, 16(sp)
	ld	ra, 24(sp)
	addi	sp, sp, 32
	ret
.Lfunc_end81:
	.size	_ZNSt10filesystem7__cxx114path5_ListD2Ev, .Lfunc_end81-_ZNSt10filesystem7__cxx114path5_ListD2Ev
                                        # -- End function
	.section	.text._ZNSt10unique_ptrINSt10filesystem7__cxx114path5_List5_ImplENS3_13_Impl_deleterEED2Ev,"axG",@progbits,_ZNSt10unique_ptrINSt10filesystem7__cxx114path5_List5_ImplENS3_13_Impl_deleterEED2Ev,comdat
	.weak	_ZNSt10unique_ptrINSt10filesystem7__cxx114path5_List5_ImplENS3_13_Impl_deleterEED2Ev # -- Begin function _ZNSt10unique_ptrINSt10filesystem7__cxx114path5_List5_ImplENS3_13_Impl_deleterEED2Ev
	.p2align	2
	.type	_ZNSt10unique_ptrINSt10filesystem7__cxx114path5_List5_ImplENS3_13_Impl_deleterEED2Ev,@function
_ZNSt10unique_ptrINSt10filesystem7__cxx114path5_List5_ImplENS3_13_Impl_deleterEED2Ev: # @_ZNSt10unique_ptrINSt10filesystem7__cxx114path5_List5_ImplENS3_13_Impl_deleterEED2Ev
.Lfunc_begin23:
	.cfi_startproc
	.cfi_personality 155, DW.ref.__gxx_personality_v0
	.cfi_lsda 27, .Lexception23
# %bb.0:                                # %entry
	addi	sp, sp, -48
	.cfi_def_cfa_offset 48
	sd	ra, 40(sp)
	sd	s0, 32(sp)
	sd	s1, 24(sp)
	.cfi_offset ra, -8
	.cfi_offset s0, -16
	.cfi_offset s1, -24
	addi	s0, sp, 48
	.cfi_def_cfa s0, 0
	sd	a0, -32(s0)
	ld	s1, -32(s0)
.Ltmp348:
	mv	a0, s1
	call	_ZNSt15__uniq_ptr_implINSt10filesystem7__cxx114path5_List5_ImplENS3_13_Impl_deleterEE6_M_ptrEv
.Ltmp349:
	j	.LBB82_1
.LBB82_1:                               # %invoke.cont
	sd	a0, -40(s0)
	ld	a0, -40(s0)
	ld	a0, 0(a0)
	beqz	a0, .LBB82_3
	j	.LBB82_2
.LBB82_2:                               # %if.then
	mv	a0, s1
	call	_ZNSt10unique_ptrINSt10filesystem7__cxx114path5_List5_ImplENS3_13_Impl_deleterEE11get_deleterEv
	mv	s1, a0
	ld	a0, -40(s0)
	call	_ZSt4moveIRPNSt10filesystem7__cxx114path5_List5_ImplEEONSt16remove_referenceIT_E4typeEOS8_
	ld	a1, 0(a0)
	mv	a0, s1
	call	_ZNKSt10filesystem7__cxx114path5_List13_Impl_deleterclEPNS2_5_ImplE
	j	.LBB82_3
.LBB82_3:                               # %if.end
	ld	a0, -40(s0)
	sd	zero, 0(a0)
	ld	s1, 24(sp)
	ld	s0, 32(sp)
	.cfi_def_cfa sp, 48
	ld	ra, 40(sp)
	.cfi_restore ra
	.cfi_restore s0
	.cfi_restore s1
	addi	sp, sp, 48
	.cfi_def_cfa_offset 0
	ret
.LBB82_4:                               # %terminate.lpad
.Ltmp350:
	call	__clang_call_terminate
.Lfunc_end82:
	.size	_ZNSt10unique_ptrINSt10filesystem7__cxx114path5_List5_ImplENS3_13_Impl_deleterEED2Ev, .Lfunc_end82-_ZNSt10unique_ptrINSt10filesystem7__cxx114path5_List5_ImplENS3_13_Impl_deleterEED2Ev
	.cfi_endproc
	.section	.gcc_except_table,"a",@progbits
	.p2align	2
GCC_except_table82:
.Lexception23:
	.byte	255                     # @LPStart Encoding = omit
	.byte	155                     # @TType Encoding = indirect pcrel sdata4
	.uleb128 .Lttbase7-.Lttbaseref7
.Lttbaseref7:
	.byte	3                       # Call site Encoding = udata4
	.uleb128 .Lcst_end23-.Lcst_begin23
.Lcst_begin23:
	.word	.Ltmp348-.Lfunc_begin23 # >> Call Site 1 <<
	.word	.Ltmp349-.Ltmp348       #   Call between .Ltmp348 and .Ltmp349
	.word	.Ltmp350-.Lfunc_begin23 #     jumps to .Ltmp350
	.byte	1                       #   On action: 1
.Lcst_end23:
	.byte	1                       # >> Action Record 1 <<
                                        #   Catch TypeInfo 1
	.byte	0                       #   No further actions
	.p2align	2
                                        # >> Catch TypeInfos <<
	.word	0                       # TypeInfo 1
.Lttbase7:
	.p2align	2
                                        # -- End function
	.section	.text._ZNSt15__uniq_ptr_implINSt10filesystem7__cxx114path5_List5_ImplENS3_13_Impl_deleterEE6_M_ptrEv,"axG",@progbits,_ZNSt15__uniq_ptr_implINSt10filesystem7__cxx114path5_List5_ImplENS3_13_Impl_deleterEE6_M_ptrEv,comdat
	.weak	_ZNSt15__uniq_ptr_implINSt10filesystem7__cxx114path5_List5_ImplENS3_13_Impl_deleterEE6_M_ptrEv # -- Begin function _ZNSt15__uniq_ptr_implINSt10filesystem7__cxx114path5_List5_ImplENS3_13_Impl_deleterEE6_M_ptrEv
	.p2align	2
	.type	_ZNSt15__uniq_ptr_implINSt10filesystem7__cxx114path5_List5_ImplENS3_13_Impl_deleterEE6_M_ptrEv,@function
_ZNSt15__uniq_ptr_implINSt10filesystem7__cxx114path5_List5_ImplENS3_13_Impl_deleterEE6_M_ptrEv: # @_ZNSt15__uniq_ptr_implINSt10filesystem7__cxx114path5_List5_ImplENS3_13_Impl_deleterEE6_M_ptrEv
# %bb.0:                                # %entry
	addi	sp, sp, -32
	sd	ra, 24(sp)
	sd	s0, 16(sp)
	addi	s0, sp, 32
	sd	a0, -24(s0)
	ld	a0, -24(s0)
	call	_ZSt3getILm0EJPNSt10filesystem7__cxx114path5_List5_ImplENS3_13_Impl_deleterEEERNSt13tuple_elementIXT_ESt5tupleIJDpT0_EEE4typeERSB_
	ld	s0, 16(sp)
	ld	ra, 24(sp)
	addi	sp, sp, 32
	ret
.Lfunc_end83:
	.size	_ZNSt15__uniq_ptr_implINSt10filesystem7__cxx114path5_List5_ImplENS3_13_Impl_deleterEE6_M_ptrEv, .Lfunc_end83-_ZNSt15__uniq_ptr_implINSt10filesystem7__cxx114path5_List5_ImplENS3_13_Impl_deleterEE6_M_ptrEv
                                        # -- End function
	.section	.text._ZNSt10unique_ptrINSt10filesystem7__cxx114path5_List5_ImplENS3_13_Impl_deleterEE11get_deleterEv,"axG",@progbits,_ZNSt10unique_ptrINSt10filesystem7__cxx114path5_List5_ImplENS3_13_Impl_deleterEE11get_deleterEv,comdat
	.weak	_ZNSt10unique_ptrINSt10filesystem7__cxx114path5_List5_ImplENS3_13_Impl_deleterEE11get_deleterEv # -- Begin function _ZNSt10unique_ptrINSt10filesystem7__cxx114path5_List5_ImplENS3_13_Impl_deleterEE11get_deleterEv
	.p2align	2
	.type	_ZNSt10unique_ptrINSt10filesystem7__cxx114path5_List5_ImplENS3_13_Impl_deleterEE11get_deleterEv,@function
_ZNSt10unique_ptrINSt10filesystem7__cxx114path5_List5_ImplENS3_13_Impl_deleterEE11get_deleterEv: # @_ZNSt10unique_ptrINSt10filesystem7__cxx114path5_List5_ImplENS3_13_Impl_deleterEE11get_deleterEv
.Lfunc_begin24:
	.cfi_startproc
	.cfi_personality 155, DW.ref.__gxx_personality_v0
	.cfi_lsda 27, .Lexception24
# %bb.0:                                # %entry
	addi	sp, sp, -32
	.cfi_def_cfa_offset 32
	sd	ra, 24(sp)
	sd	s0, 16(sp)
	.cfi_offset ra, -8
	.cfi_offset s0, -16
	addi	s0, sp, 32
	.cfi_def_cfa s0, 0
	sd	a0, -24(s0)
	ld	a0, -24(s0)
.Ltmp351:
	call	_ZNSt15__uniq_ptr_implINSt10filesystem7__cxx114path5_List5_ImplENS3_13_Impl_deleterEE10_M_deleterEv
.Ltmp352:
	j	.LBB84_1
.LBB84_1:                               # %invoke.cont
	ld	s0, 16(sp)
	.cfi_def_cfa sp, 32
	ld	ra, 24(sp)
	.cfi_restore ra
	.cfi_restore s0
	addi	sp, sp, 32
	.cfi_def_cfa_offset 0
	ret
.LBB84_2:                               # %terminate.lpad
.Ltmp353:
	call	__clang_call_terminate
.Lfunc_end84:
	.size	_ZNSt10unique_ptrINSt10filesystem7__cxx114path5_List5_ImplENS3_13_Impl_deleterEE11get_deleterEv, .Lfunc_end84-_ZNSt10unique_ptrINSt10filesystem7__cxx114path5_List5_ImplENS3_13_Impl_deleterEE11get_deleterEv
	.cfi_endproc
	.section	.gcc_except_table,"a",@progbits
	.p2align	2
GCC_except_table84:
.Lexception24:
	.byte	255                     # @LPStart Encoding = omit
	.byte	155                     # @TType Encoding = indirect pcrel sdata4
	.uleb128 .Lttbase8-.Lttbaseref8
.Lttbaseref8:
	.byte	3                       # Call site Encoding = udata4
	.uleb128 .Lcst_end24-.Lcst_begin24
.Lcst_begin24:
	.word	.Ltmp351-.Lfunc_begin24 # >> Call Site 1 <<
	.word	.Ltmp352-.Ltmp351       #   Call between .Ltmp351 and .Ltmp352
	.word	.Ltmp353-.Lfunc_begin24 #     jumps to .Ltmp353
	.byte	1                       #   On action: 1
.Lcst_end24:
	.byte	1                       # >> Action Record 1 <<
                                        #   Catch TypeInfo 1
	.byte	0                       #   No further actions
	.p2align	2
                                        # >> Catch TypeInfos <<
	.word	0                       # TypeInfo 1
.Lttbase8:
	.p2align	2
                                        # -- End function
	.section	.text._ZSt4moveIRPNSt10filesystem7__cxx114path5_List5_ImplEEONSt16remove_referenceIT_E4typeEOS8_,"axG",@progbits,_ZSt4moveIRPNSt10filesystem7__cxx114path5_List5_ImplEEONSt16remove_referenceIT_E4typeEOS8_,comdat
	.weak	_ZSt4moveIRPNSt10filesystem7__cxx114path5_List5_ImplEEONSt16remove_referenceIT_E4typeEOS8_ # -- Begin function _ZSt4moveIRPNSt10filesystem7__cxx114path5_List5_ImplEEONSt16remove_referenceIT_E4typeEOS8_
	.p2align	2
	.type	_ZSt4moveIRPNSt10filesystem7__cxx114path5_List5_ImplEEONSt16remove_referenceIT_E4typeEOS8_,@function
