	.text
	.file	"cppt.cpp"
	.globl	main                    # -- Begin function main
	.p2align	2
	.type	main,@function
main:                                   # @main
	.cfi_startproc
# %bb.0:                                # %entry
	addi	sp, sp, -32
	.cfi_def_cfa_offset 32
	sd	ra, 24(sp)
	sd	s0, 16(sp)
	.cfi_offset ra, -8
	.cfi_offset s0, -16
	addi	s0, sp, 32
	.cfi_def_cfa s0, 0
	sw	zero, -20(s0)
	sw	a0, -24(s0)
	sd	a1, -32(s0)
	lui	a0, %hi(.L.str)
	addi	a0, a0, %lo(.L.str)
	lui	a1, 49
	addiw	a1, a1, 1003
	call	printf
	mv	a0, zero
	ld	s0, 16(sp)
	.cfi_def_cfa sp, 32
	ld	ra, 24(sp)
	.cfi_restore ra
	.cfi_restore s0
	addi	sp, sp, 32
	.cfi_def_cfa_offset 0
	ret
.Lfunc_end0:
	.size	main, .Lfunc_end0-main
	.cfi_endproc
                                        # -- End function
	.type	.L.str,@object          # @.str
	.section	.rodata.str1.1,"aMS",@progbits,1
.L.str:
	.asciz	"%ld\n"
	.size	.L.str, 5

	.section	".linker-options","e",@llvm_linker_options

	.ident	"clang version 10.0.0 (git@geopelia.mtl.t.u-tokyo.ac.jp:tomida/approximatellvm.git e85b13db4532b11e8486c143a2fd6295890b6b31)"
	.section	".note.GNU-stack","",@progbits
