
a.out:     file format elf64-littleriscv


Disassembly of section .text:

0000000000010120 <exit>:
   10120:	1141                	addi	sp,sp,-16
   10122:	4581                	li	a1,0
   10124:	e022                	sd	s0,0(sp)
   10126:	e406                	sd	ra,8(sp)
   10128:	842a                	mv	s0,a0
   1012a:	087000ef          	jal	109b0 <__call_exitprocs>
   1012e:	2381b783          	ld	a5,568(gp) # 1b958 <__stdio_exit_handler>
   10132:	c391                	beqz	a5,10136 <exit+0x16>
   10134:	9782                	jalr	a5
   10136:	8522                	mv	a0,s0
   10138:	77b070ef          	jal	180b2 <_exit>

000000000001013c <register_fini>:
   1013c:	00000793          	li	a5,0
   10140:	c791                	beqz	a5,1014c <register_fini+0x10>
   10142:	6551                	lui	a0,0x14
   10144:	e3650513          	addi	a0,a0,-458 # 13e36 <__libc_fini_array>
   10148:	1370006f          	j	10a7e <atexit>
   1014c:	8082                	ret

000000000001014e <_start>:
   1014e:	0000b197          	auipc	gp,0xb
   10152:	5d218193          	addi	gp,gp,1490 # 1b720 <__global_pointer$>
   10156:	23818513          	addi	a0,gp,568 # 1b958 <__stdio_exit_handler>
   1015a:	0000c617          	auipc	a2,0xc
   1015e:	dc660613          	addi	a2,a2,-570 # 1bf20 <__BSS_END__>
   10162:	8e09                	sub	a2,a2,a0
   10164:	4581                	li	a1,0
   10166:	7a0000ef          	jal	10906 <memset>
   1016a:	00001517          	auipc	a0,0x1
   1016e:	91450513          	addi	a0,a0,-1772 # 10a7e <atexit>
   10172:	c519                	beqz	a0,10180 <_start+0x32>
   10174:	00004517          	auipc	a0,0x4
   10178:	cc250513          	addi	a0,a0,-830 # 13e36 <__libc_fini_array>
   1017c:	103000ef          	jal	10a7e <atexit>
   10180:	71c000ef          	jal	1089c <__libc_init_array>
   10184:	4502                	lw	a0,0(sp)
   10186:	002c                	addi	a1,sp,8
   10188:	4601                	li	a2,0
   1018a:	0be000ef          	jal	10248 <main>
   1018e:	bf49                	j	10120 <exit>

0000000000010190 <__do_global_dtors_aux>:
   10190:	1141                	addi	sp,sp,-16
   10192:	e022                	sd	s0,0(sp)
   10194:	2781c783          	lbu	a5,632(gp) # 1b998 <completed.1>
   10198:	e406                	sd	ra,8(sp)
   1019a:	ef91                	bnez	a5,101b6 <__do_global_dtors_aux+0x26>
   1019c:	00000793          	li	a5,0
   101a0:	cb81                	beqz	a5,101b0 <__do_global_dtors_aux+0x20>
   101a2:	6569                	lui	a0,0x1a
   101a4:	ce050513          	addi	a0,a0,-800 # 19ce0 <__EH_FRAME_BEGIN__>
   101a8:	00000097          	auipc	ra,0x0
   101ac:	000000e7          	jalr	zero # 0 <exit-0x10120>
   101b0:	4785                	li	a5,1
   101b2:	26f18c23          	sb	a5,632(gp) # 1b998 <completed.1>
   101b6:	60a2                	ld	ra,8(sp)
   101b8:	6402                	ld	s0,0(sp)
   101ba:	0141                	addi	sp,sp,16
   101bc:	8082                	ret

00000000000101be <frame_dummy>:
   101be:	00000793          	li	a5,0
   101c2:	cb91                	beqz	a5,101d6 <frame_dummy+0x18>
   101c4:	6569                	lui	a0,0x1a
   101c6:	28018593          	addi	a1,gp,640 # 1b9a0 <object.0>
   101ca:	ce050513          	addi	a0,a0,-800 # 19ce0 <__EH_FRAME_BEGIN__>
   101ce:	00000317          	auipc	t1,0x0
   101d2:	00000067          	jr	zero # 0 <exit-0x10120>
   101d6:	8082                	ret

00000000000101d8 <_Z15regular_routinei>:
   101d8:	fe010113          	addi	sp,sp,-32
   101dc:	00113c23          	sd	ra,24(sp)
   101e0:	00813823          	sd	s0,16(sp)
   101e4:	02010413          	addi	s0,sp,32
   101e8:	fea42623          	sw	a0,-20(s0)
   101ec:	fec42583          	lw	a1,-20(s0)
   101f0:	00019537          	lui	a0,0x19
   101f4:	4d050513          	addi	a0,a0,1232 # 194d0 <__clzdi2+0x2e>
   101f8:	0015859b          	addiw	a1,a1,1
   101fc:	432000ef          	jal	1062e <printf>
   10200:	01013403          	ld	s0,16(sp)
   10204:	01813083          	ld	ra,24(sp)
   10208:	02010113          	addi	sp,sp,32
   1020c:	00008067          	ret

0000000000010210 <_Z14approx_routinei>:
   10210:	fe010113          	addi	sp,sp,-32
   10214:	00113c23          	sd	ra,24(sp)
   10218:	00813823          	sd	s0,16(sp)
   1021c:	02010413          	addi	s0,sp,32
   10220:	fea42623          	sw	a0,-20(s0)
   10224:	fec42583          	lw	a1,-20(s0)
   10228:	00019537          	lui	a0,0x19
   1022c:	4e350513          	addi	a0,a0,1251 # 194e3 <__clzdi2+0x41>
   10230:	0015859b          	addiw	a1,a1,1
   10234:	3fa000ef          	jal	1062e <printf>
   10238:	01013403          	ld	s0,16(sp)
   1023c:	01813083          	ld	ra,24(sp)
   10240:	02010113          	addi	sp,sp,32
   10244:	00008067          	ret

0000000000010248 <main>:
   10248:	fd010113          	addi	sp,sp,-48
   1024c:	02113423          	sd	ra,40(sp)
   10250:	02813023          	sd	s0,32(sp)
   10254:	03010413          	addi	s0,sp,48
   10258:	fe042623          	sw	zero,-20(s0)
   1025c:	3ff00513          	li	a0,1023
   10260:	03451513          	slli	a0,a0,0x34
   10264:	fea43023          	sd	a0,-32(s0)
   10268:	000108b7          	lui	a7,0x10
   1026c:	0018889b          	addiw	a7,a7,1 # 10001 <exit-0x11f>
   10270:	00000073          	ecall
   10274:	fc042e23          	sw	zero,-36(s0)
   10278:	0040006f          	j	1027c <main+0x34>
   1027c:	fdc42503          	lw	a0,-36(s0)
   10280:	06300593          	li	a1,99
   10284:	06a5c263          	blt	a1,a0,102e8 <main+0xa0>
   10288:	0040006f          	j	1028c <main+0x44>
   1028c:	000b300b          	.word	0x000b300b
   10290:	0040006f          	j	10294 <main+0x4c>
   10294:	fe043007          	fld	ft0,-32(s0)
   10298:	21018513          	addi	a0,gp,528 # 1b930 <__dso_handle+0x8>
   1029c:	00053087          	fld	ft1,0(a0)
   102a0:	12107053          	fmul.d	ft0,ft0,ft1
   102a4:	fe043027          	fsd	ft0,-32(s0)
   102a8:	fdc42503          	lw	a0,-36(s0)
   102ac:	f2dff0ef          	jal	101d8 <_Z15regular_routinei>
   102b0:	0240006f          	j	102d4 <main+0x8c>
   102b4:	fe043007          	fld	ft0,-32(s0)
   102b8:	21818513          	addi	a0,gp,536 # 1b938 <__dso_handle+0x10>
   102bc:	00053087          	fld	ft1,0(a0)
   102c0:	1a107053          	fdiv.d	ft0,ft0,ft1
   102c4:	fe043027          	fsd	ft0,-32(s0)
   102c8:	fdc42503          	lw	a0,-36(s0)
   102cc:	f45ff0ef          	jal	10210 <_Z14approx_routinei>
   102d0:	0040006f          	j	102d4 <main+0x8c>
   102d4:	0040006f          	j	102d8 <main+0x90>
   102d8:	fdc42503          	lw	a0,-36(s0)
   102dc:	00150513          	addi	a0,a0,1
   102e0:	fca42e23          	sw	a0,-36(s0)
   102e4:	f99ff06f          	j	1027c <main+0x34>
   102e8:	fe043583          	ld	a1,-32(s0)
   102ec:	00019537          	lui	a0,0x19
   102f0:	4f550513          	addi	a0,a0,1269 # 194f5 <__clzdi2+0x53>
   102f4:	33a000ef          	jal	1062e <printf>
   102f8:	000108b7          	lui	a7,0x10
   102fc:	0018889b          	addiw	a7,a7,1 # 10001 <exit-0x11f>
   10300:	00000073          	ecall
   10304:	00000513          	li	a0,0
   10308:	02013403          	ld	s0,32(sp)
   1030c:	02813083          	ld	ra,40(sp)
   10310:	03010113          	addi	sp,sp,48
   10314:	00008067          	ret

0000000000010318 <__fp_lock>:
   10318:	4501                	li	a0,0
   1031a:	8082                	ret

000000000001031c <stdio_exit_handler>:
   1031c:	666d                	lui	a2,0x1b
   1031e:	65cd                	lui	a1,0x13
   10320:	656d                	lui	a0,0x1b
   10322:	d8860613          	addi	a2,a2,-632 # 1ad88 <__sglue>
   10326:	58258593          	addi	a1,a1,1410 # 13582 <_fclose_r>
   1032a:	da050513          	addi	a0,a0,-608 # 1ada0 <_impure_data>
   1032e:	ac99                	j	10584 <_fwalk_sglue>

0000000000010330 <cleanup_stdio>:
   10330:	650c                	ld	a1,8(a0)
   10332:	1141                	addi	sp,sp,-16
   10334:	e022                	sd	s0,0(sp)
   10336:	e406                	sd	ra,8(sp)
   10338:	2b018793          	addi	a5,gp,688 # 1b9d0 <__sf>
   1033c:	842a                	mv	s0,a0
   1033e:	00f58463          	beq	a1,a5,10346 <cleanup_stdio+0x16>
   10342:	240030ef          	jal	13582 <_fclose_r>
   10346:	680c                	ld	a1,16(s0)
   10348:	36018793          	addi	a5,gp,864 # 1ba80 <__sf+0xb0>
   1034c:	00f58563          	beq	a1,a5,10356 <cleanup_stdio+0x26>
   10350:	8522                	mv	a0,s0
   10352:	230030ef          	jal	13582 <_fclose_r>
   10356:	6c0c                	ld	a1,24(s0)
   10358:	41018793          	addi	a5,gp,1040 # 1bb30 <__sf+0x160>
   1035c:	00f58863          	beq	a1,a5,1036c <cleanup_stdio+0x3c>
   10360:	8522                	mv	a0,s0
   10362:	6402                	ld	s0,0(sp)
   10364:	60a2                	ld	ra,8(sp)
   10366:	0141                	addi	sp,sp,16
   10368:	21a0306f          	j	13582 <_fclose_r>
   1036c:	60a2                	ld	ra,8(sp)
   1036e:	6402                	ld	s0,0(sp)
   10370:	0141                	addi	sp,sp,16
   10372:	8082                	ret

0000000000010374 <__fp_unlock>:
   10374:	4501                	li	a0,0
   10376:	8082                	ret

0000000000010378 <global_stdio_init.part.0>:
   10378:	7179                	addi	sp,sp,-48
   1037a:	f022                	sd	s0,32(sp)
   1037c:	67c1                	lui	a5,0x10
   1037e:	2b018413          	addi	s0,gp,688 # 1b9d0 <__sf>
   10382:	f406                	sd	ra,40(sp)
   10384:	ec26                	sd	s1,24(sp)
   10386:	e84a                	sd	s2,16(sp)
   10388:	e44e                	sd	s3,8(sp)
   1038a:	e052                	sd	s4,0(sp)
   1038c:	4711                	li	a4,4
   1038e:	31c78793          	addi	a5,a5,796 # 1031c <stdio_exit_handler>
   10392:	4621                	li	a2,8
   10394:	4581                	li	a1,0
   10396:	35418513          	addi	a0,gp,852 # 1ba74 <__sf+0xa4>
   1039a:	22f1bc23          	sd	a5,568(gp) # 1b958 <__stdio_exit_handler>
   1039e:	c818                	sw	a4,16(s0)
   103a0:	00043023          	sd	zero,0(s0)
   103a4:	00043423          	sd	zero,8(s0)
   103a8:	0a042623          	sw	zero,172(s0)
   103ac:	00043c23          	sd	zero,24(s0)
   103b0:	02042023          	sw	zero,32(s0)
   103b4:	02042423          	sw	zero,40(s0)
   103b8:	54e000ef          	jal	10906 <memset>
   103bc:	67c1                	lui	a5,0x10
   103be:	6a41                	lui	s4,0x10
   103c0:	69c1                	lui	s3,0x10
   103c2:	6941                	lui	s2,0x10
   103c4:	64c1                	lui	s1,0x10
   103c6:	65aa0a13          	addi	s4,s4,1626 # 1065a <__sread>
   103ca:	69698993          	addi	s3,s3,1686 # 10696 <__swrite>
   103ce:	6e890913          	addi	s2,s2,1768 # 106e8 <__sseek>
   103d2:	72648493          	addi	s1,s1,1830 # 10726 <__sclose>
   103d6:	07a5                	addi	a5,a5,9 # 10009 <exit-0x117>
   103d8:	4621                	li	a2,8
   103da:	4581                	li	a1,0
   103dc:	40418513          	addi	a0,gp,1028 # 1bb24 <__sf+0x154>
   103e0:	0cf42023          	sw	a5,192(s0)
   103e4:	03443c23          	sd	s4,56(s0)
   103e8:	05343023          	sd	s3,64(s0)
   103ec:	05243423          	sd	s2,72(s0)
   103f0:	e824                	sd	s1,80(s0)
   103f2:	f800                	sd	s0,48(s0)
   103f4:	0a043823          	sd	zero,176(s0)
   103f8:	0a043c23          	sd	zero,184(s0)
   103fc:	14042e23          	sw	zero,348(s0)
   10400:	0c043423          	sd	zero,200(s0)
   10404:	0c042823          	sw	zero,208(s0)
   10408:	0c042c23          	sw	zero,216(s0)
   1040c:	4fa000ef          	jal	10906 <memset>
   10410:	000207b7          	lui	a5,0x20
   10414:	07c9                	addi	a5,a5,18 # 20012 <__BSS_END__+0x40f2>
   10416:	36018713          	addi	a4,gp,864 # 1ba80 <__sf+0xb0>
   1041a:	4b418513          	addi	a0,gp,1204 # 1bbd4 <__sf+0x204>
   1041e:	4621                	li	a2,8
   10420:	4581                	li	a1,0
   10422:	0f443423          	sd	s4,232(s0)
   10426:	0f343823          	sd	s3,240(s0)
   1042a:	0f243c23          	sd	s2,248(s0)
   1042e:	10943023          	sd	s1,256(s0)
   10432:	16f42823          	sw	a5,368(s0)
   10436:	16043023          	sd	zero,352(s0)
   1043a:	16043423          	sd	zero,360(s0)
   1043e:	20042623          	sw	zero,524(s0)
   10442:	16043c23          	sd	zero,376(s0)
   10446:	18042023          	sw	zero,384(s0)
   1044a:	18042423          	sw	zero,392(s0)
   1044e:	f078                	sd	a4,224(s0)
   10450:	4b6000ef          	jal	10906 <memset>
   10454:	41018793          	addi	a5,gp,1040 # 1bb30 <__sf+0x160>
   10458:	19443c23          	sd	s4,408(s0)
   1045c:	1b343023          	sd	s3,416(s0)
   10460:	1b243423          	sd	s2,424(s0)
   10464:	1a943823          	sd	s1,432(s0)
   10468:	70a2                	ld	ra,40(sp)
   1046a:	18f43823          	sd	a5,400(s0)
   1046e:	7402                	ld	s0,32(sp)
   10470:	64e2                	ld	s1,24(sp)
   10472:	6942                	ld	s2,16(sp)
   10474:	69a2                	ld	s3,8(sp)
   10476:	6a02                	ld	s4,0(sp)
   10478:	6145                	addi	sp,sp,48
   1047a:	8082                	ret

000000000001047c <__sfp>:
   1047c:	2381b783          	ld	a5,568(gp) # 1b958 <__stdio_exit_handler>
   10480:	7179                	addi	sp,sp,-48
   10482:	e84a                	sd	s2,16(sp)
   10484:	f406                	sd	ra,40(sp)
   10486:	f022                	sd	s0,32(sp)
   10488:	ec26                	sd	s1,24(sp)
   1048a:	e44e                	sd	s3,8(sp)
   1048c:	892a                	mv	s2,a0
   1048e:	c7cd                	beqz	a5,10538 <__sfp+0xbc>
   10490:	64ed                	lui	s1,0x1b
   10492:	d8848493          	addi	s1,s1,-632 # 1ad88 <__sglue>
   10496:	0b000993          	li	s3,176
   1049a:	4498                	lw	a4,8(s1)
   1049c:	6880                	ld	s0,16(s1)
   1049e:	06e05463          	blez	a4,10506 <__sfp+0x8a>
   104a2:	1702                	slli	a4,a4,0x20
   104a4:	9301                	srli	a4,a4,0x20
   104a6:	03370733          	mul	a4,a4,s3
   104aa:	9722                	add	a4,a4,s0
   104ac:	a029                	j	104b6 <__sfp+0x3a>
   104ae:	0b040413          	addi	s0,s0,176
   104b2:	04e40a63          	beq	s0,a4,10506 <__sfp+0x8a>
   104b6:	01041783          	lh	a5,16(s0)
   104ba:	fbf5                	bnez	a5,104ae <__sfp+0x32>
   104bc:	77c1                	lui	a5,0xffff0
   104be:	0785                	addi	a5,a5,1 # ffffffffffff0001 <__BSS_END__+0xfffffffffffd40e1>
   104c0:	0a042623          	sw	zero,172(s0)
   104c4:	00043023          	sd	zero,0(s0)
   104c8:	00043423          	sd	zero,8(s0)
   104cc:	00043c23          	sd	zero,24(s0)
   104d0:	02042023          	sw	zero,32(s0)
   104d4:	02042423          	sw	zero,40(s0)
   104d8:	c81c                	sw	a5,16(s0)
   104da:	4621                	li	a2,8
   104dc:	4581                	li	a1,0
   104de:	0a440513          	addi	a0,s0,164
   104e2:	424000ef          	jal	10906 <memset>
   104e6:	04043c23          	sd	zero,88(s0)
   104ea:	06042023          	sw	zero,96(s0)
   104ee:	06043c23          	sd	zero,120(s0)
   104f2:	08042023          	sw	zero,128(s0)
   104f6:	70a2                	ld	ra,40(sp)
   104f8:	8522                	mv	a0,s0
   104fa:	7402                	ld	s0,32(sp)
   104fc:	64e2                	ld	s1,24(sp)
   104fe:	6942                	ld	s2,16(sp)
   10500:	69a2                	ld	s3,8(sp)
   10502:	6145                	addi	sp,sp,48
   10504:	8082                	ret
   10506:	6080                	ld	s0,0(s1)
   10508:	c019                	beqz	s0,1050e <__sfp+0x92>
   1050a:	84a2                	mv	s1,s0
   1050c:	b779                	j	1049a <__sfp+0x1e>
   1050e:	2d800593          	li	a1,728
   10512:	854a                	mv	a0,s2
   10514:	085000ef          	jal	10d98 <_malloc_r>
   10518:	842a                	mv	s0,a0
   1051a:	c115                	beqz	a0,1053e <__sfp+0xc2>
   1051c:	4791                	li	a5,4
   1051e:	0561                	addi	a0,a0,24
   10520:	00043023          	sd	zero,0(s0)
   10524:	c41c                	sw	a5,8(s0)
   10526:	e808                	sd	a0,16(s0)
   10528:	2c000613          	li	a2,704
   1052c:	4581                	li	a1,0
   1052e:	3d8000ef          	jal	10906 <memset>
   10532:	e080                	sd	s0,0(s1)
   10534:	84a2                	mv	s1,s0
   10536:	b795                	j	1049a <__sfp+0x1e>
   10538:	e41ff0ef          	jal	10378 <global_stdio_init.part.0>
   1053c:	bf91                	j	10490 <__sfp+0x14>
   1053e:	0004b023          	sd	zero,0(s1)
   10542:	47b1                	li	a5,12
   10544:	00f92023          	sw	a5,0(s2)
   10548:	b77d                	j	104f6 <__sfp+0x7a>

000000000001054a <__sinit>:
   1054a:	653c                	ld	a5,72(a0)
   1054c:	c391                	beqz	a5,10550 <__sinit+0x6>
   1054e:	8082                	ret
   10550:	67c1                	lui	a5,0x10
   10552:	2381b703          	ld	a4,568(gp) # 1b958 <__stdio_exit_handler>
   10556:	33078793          	addi	a5,a5,816 # 10330 <cleanup_stdio>
   1055a:	e53c                	sd	a5,72(a0)
   1055c:	fb6d                	bnez	a4,1054e <__sinit+0x4>
   1055e:	bd29                	j	10378 <global_stdio_init.part.0>

0000000000010560 <__sfp_lock_acquire>:
   10560:	8082                	ret

0000000000010562 <__sfp_lock_release>:
   10562:	8082                	ret

0000000000010564 <__fp_lock_all>:
   10564:	666d                	lui	a2,0x1b
   10566:	65c1                	lui	a1,0x10
   10568:	d8860613          	addi	a2,a2,-632 # 1ad88 <__sglue>
   1056c:	31858593          	addi	a1,a1,792 # 10318 <__fp_lock>
   10570:	4501                	li	a0,0
   10572:	a809                	j	10584 <_fwalk_sglue>

0000000000010574 <__fp_unlock_all>:
   10574:	666d                	lui	a2,0x1b
   10576:	65c1                	lui	a1,0x10
   10578:	d8860613          	addi	a2,a2,-632 # 1ad88 <__sglue>
   1057c:	37458593          	addi	a1,a1,884 # 10374 <__fp_unlock>
   10580:	4501                	li	a0,0
   10582:	a009                	j	10584 <_fwalk_sglue>

0000000000010584 <_fwalk_sglue>:
   10584:	715d                	addi	sp,sp,-80
   10586:	f84a                	sd	s2,48(sp)
   10588:	f44e                	sd	s3,40(sp)
   1058a:	f052                	sd	s4,32(sp)
   1058c:	ec56                	sd	s5,24(sp)
   1058e:	e85a                	sd	s6,16(sp)
   10590:	e45e                	sd	s7,8(sp)
   10592:	e062                	sd	s8,0(sp)
   10594:	e486                	sd	ra,72(sp)
   10596:	e0a2                	sd	s0,64(sp)
   10598:	fc26                	sd	s1,56(sp)
   1059a:	8a2a                	mv	s4,a0
   1059c:	8b2e                	mv	s6,a1
   1059e:	89b2                	mv	s3,a2
   105a0:	4901                	li	s2,0
   105a2:	0b000b93          	li	s7,176
   105a6:	4c05                	li	s8,1
   105a8:	5afd                	li	s5,-1
   105aa:	0089a483          	lw	s1,8(s3)
   105ae:	0109b403          	ld	s0,16(s3)
   105b2:	02905963          	blez	s1,105e4 <_fwalk_sglue+0x60>
   105b6:	1482                	slli	s1,s1,0x20
   105b8:	9081                	srli	s1,s1,0x20
   105ba:	037484b3          	mul	s1,s1,s7
   105be:	94a2                	add	s1,s1,s0
   105c0:	01045783          	lhu	a5,16(s0)
   105c4:	00fc7c63          	bgeu	s8,a5,105dc <_fwalk_sglue+0x58>
   105c8:	01241783          	lh	a5,18(s0)
   105cc:	85a2                	mv	a1,s0
   105ce:	8552                	mv	a0,s4
   105d0:	01578663          	beq	a5,s5,105dc <_fwalk_sglue+0x58>
   105d4:	9b02                	jalr	s6
   105d6:	01256933          	or	s2,a0,s2
   105da:	2901                	sext.w	s2,s2
   105dc:	0b040413          	addi	s0,s0,176
   105e0:	fe9410e3          	bne	s0,s1,105c0 <_fwalk_sglue+0x3c>
   105e4:	0009b983          	ld	s3,0(s3)
   105e8:	fc0991e3          	bnez	s3,105aa <_fwalk_sglue+0x26>
   105ec:	60a6                	ld	ra,72(sp)
   105ee:	6406                	ld	s0,64(sp)
   105f0:	74e2                	ld	s1,56(sp)
   105f2:	79a2                	ld	s3,40(sp)
   105f4:	7a02                	ld	s4,32(sp)
   105f6:	6ae2                	ld	s5,24(sp)
   105f8:	6b42                	ld	s6,16(sp)
   105fa:	6ba2                	ld	s7,8(sp)
   105fc:	6c02                	ld	s8,0(sp)
   105fe:	854a                	mv	a0,s2
   10600:	7942                	ld	s2,48(sp)
   10602:	6161                	addi	sp,sp,80
   10604:	8082                	ret

0000000000010606 <_printf_r>:
   10606:	715d                	addi	sp,sp,-80
   10608:	8e2e                	mv	t3,a1
   1060a:	690c                	ld	a1,16(a0)
   1060c:	02010313          	addi	t1,sp,32
   10610:	f032                	sd	a2,32(sp)
   10612:	f436                	sd	a3,40(sp)
   10614:	8672                	mv	a2,t3
   10616:	869a                	mv	a3,t1
   10618:	ec06                	sd	ra,24(sp)
   1061a:	f83a                	sd	a4,48(sp)
   1061c:	fc3e                	sd	a5,56(sp)
   1061e:	e0c2                	sd	a6,64(sp)
   10620:	e4c6                	sd	a7,72(sp)
   10622:	e41a                	sd	t1,8(sp)
   10624:	5a5000ef          	jal	113c8 <_vfprintf_r>
   10628:	60e2                	ld	ra,24(sp)
   1062a:	6161                	addi	sp,sp,80
   1062c:	8082                	ret

000000000001062e <printf>:
   1062e:	2201b303          	ld	t1,544(gp) # 1b940 <_impure_ptr>
   10632:	711d                	addi	sp,sp,-96
   10634:	f832                	sd	a2,48(sp)
   10636:	fc36                	sd	a3,56(sp)
   10638:	f42e                	sd	a1,40(sp)
   1063a:	e0ba                	sd	a4,64(sp)
   1063c:	e4be                	sd	a5,72(sp)
   1063e:	e8c2                	sd	a6,80(sp)
   10640:	ecc6                	sd	a7,88(sp)
   10642:	01033583          	ld	a1,16(t1) # 101de <_Z15regular_routinei+0x6>
   10646:	1034                	addi	a3,sp,40
   10648:	862a                	mv	a2,a0
   1064a:	851a                	mv	a0,t1
   1064c:	ec06                	sd	ra,24(sp)
   1064e:	e436                	sd	a3,8(sp)
   10650:	579000ef          	jal	113c8 <_vfprintf_r>
   10654:	60e2                	ld	ra,24(sp)
   10656:	6125                	addi	sp,sp,96
   10658:	8082                	ret

000000000001065a <__sread>:
   1065a:	1141                	addi	sp,sp,-16
   1065c:	e022                	sd	s0,0(sp)
   1065e:	842e                	mv	s0,a1
   10660:	01259583          	lh	a1,18(a1)
   10664:	e406                	sd	ra,8(sp)
   10666:	1be000ef          	jal	10824 <_read_r>
   1066a:	00054963          	bltz	a0,1067c <__sread+0x22>
   1066e:	685c                	ld	a5,144(s0)
   10670:	60a2                	ld	ra,8(sp)
   10672:	97aa                	add	a5,a5,a0
   10674:	e85c                	sd	a5,144(s0)
   10676:	6402                	ld	s0,0(sp)
   10678:	0141                	addi	sp,sp,16
   1067a:	8082                	ret
   1067c:	01045783          	lhu	a5,16(s0)
   10680:	777d                	lui	a4,0xfffff
   10682:	177d                	addi	a4,a4,-1 # ffffffffffffefff <__BSS_END__+0xfffffffffffe30df>
   10684:	8ff9                	and	a5,a5,a4
   10686:	60a2                	ld	ra,8(sp)
   10688:	00f41823          	sh	a5,16(s0)
   1068c:	6402                	ld	s0,0(sp)
   1068e:	0141                	addi	sp,sp,16
   10690:	8082                	ret

0000000000010692 <__seofread>:
   10692:	4501                	li	a0,0
   10694:	8082                	ret

0000000000010696 <__swrite>:
   10696:	01059783          	lh	a5,16(a1)
   1069a:	7179                	addi	sp,sp,-48
   1069c:	f022                	sd	s0,32(sp)
   1069e:	ec26                	sd	s1,24(sp)
   106a0:	e84a                	sd	s2,16(sp)
   106a2:	e44e                	sd	s3,8(sp)
   106a4:	f406                	sd	ra,40(sp)
   106a6:	1007f713          	andi	a4,a5,256
   106aa:	842e                	mv	s0,a1
   106ac:	8932                	mv	s2,a2
   106ae:	89b6                	mv	s3,a3
   106b0:	84aa                	mv	s1,a0
   106b2:	e315                	bnez	a4,106d6 <__swrite+0x40>
   106b4:	777d                	lui	a4,0xfffff
   106b6:	177d                	addi	a4,a4,-1 # ffffffffffffefff <__BSS_END__+0xfffffffffffe30df>
   106b8:	8ff9                	and	a5,a5,a4
   106ba:	01241583          	lh	a1,18(s0)
   106be:	00f41823          	sh	a5,16(s0)
   106c2:	7402                	ld	s0,32(sp)
   106c4:	70a2                	ld	ra,40(sp)
   106c6:	86ce                	mv	a3,s3
   106c8:	864a                	mv	a2,s2
   106ca:	69a2                	ld	s3,8(sp)
   106cc:	6942                	ld	s2,16(sp)
   106ce:	8526                	mv	a0,s1
   106d0:	64e2                	ld	s1,24(sp)
   106d2:	6145                	addi	sp,sp,48
   106d4:	a271                	j	10860 <_write_r>
   106d6:	01259583          	lh	a1,18(a1)
   106da:	4689                	li	a3,2
   106dc:	4601                	li	a2,0
   106de:	10a000ef          	jal	107e8 <_lseek_r>
   106e2:	01041783          	lh	a5,16(s0)
   106e6:	b7f9                	j	106b4 <__swrite+0x1e>

00000000000106e8 <__sseek>:
   106e8:	1141                	addi	sp,sp,-16
   106ea:	e022                	sd	s0,0(sp)
   106ec:	842e                	mv	s0,a1
   106ee:	01259583          	lh	a1,18(a1)
   106f2:	e406                	sd	ra,8(sp)
   106f4:	0f4000ef          	jal	107e8 <_lseek_r>
   106f8:	577d                	li	a4,-1
   106fa:	01041783          	lh	a5,16(s0)
   106fe:	00e50b63          	beq	a0,a4,10714 <__sseek+0x2c>
   10702:	6705                	lui	a4,0x1
   10704:	8fd9                	or	a5,a5,a4
   10706:	60a2                	ld	ra,8(sp)
   10708:	e848                	sd	a0,144(s0)
   1070a:	00f41823          	sh	a5,16(s0)
   1070e:	6402                	ld	s0,0(sp)
   10710:	0141                	addi	sp,sp,16
   10712:	8082                	ret
   10714:	777d                	lui	a4,0xfffff
   10716:	177d                	addi	a4,a4,-1 # ffffffffffffefff <__BSS_END__+0xfffffffffffe30df>
   10718:	8ff9                	and	a5,a5,a4
   1071a:	60a2                	ld	ra,8(sp)
   1071c:	00f41823          	sh	a5,16(s0)
   10720:	6402                	ld	s0,0(sp)
   10722:	0141                	addi	sp,sp,16
   10724:	8082                	ret

0000000000010726 <__sclose>:
   10726:	01259583          	lh	a1,18(a1)
   1072a:	a009                	j	1072c <_close_r>

000000000001072c <_close_r>:
   1072c:	1101                	addi	sp,sp,-32
   1072e:	e822                	sd	s0,16(sp)
   10730:	e426                	sd	s1,8(sp)
   10732:	842a                	mv	s0,a0
   10734:	852e                	mv	a0,a1
   10736:	ec06                	sd	ra,24(sp)
   10738:	2401a023          	sw	zero,576(gp) # 1b960 <errno>
   1073c:	14b070ef          	jal	18086 <_close>
   10740:	57fd                	li	a5,-1
   10742:	00f50763          	beq	a0,a5,10750 <_close_r+0x24>
   10746:	60e2                	ld	ra,24(sp)
   10748:	6442                	ld	s0,16(sp)
   1074a:	64a2                	ld	s1,8(sp)
   1074c:	6105                	addi	sp,sp,32
   1074e:	8082                	ret
   10750:	2401a783          	lw	a5,576(gp) # 1b960 <errno>
   10754:	dbed                	beqz	a5,10746 <_close_r+0x1a>
   10756:	60e2                	ld	ra,24(sp)
   10758:	c01c                	sw	a5,0(s0)
   1075a:	6442                	ld	s0,16(sp)
   1075c:	64a2                	ld	s1,8(sp)
   1075e:	6105                	addi	sp,sp,32
   10760:	8082                	ret

0000000000010762 <_reclaim_reent>:
   10762:	2201b783          	ld	a5,544(gp) # 1b940 <_impure_ptr>
   10766:	08a78063          	beq	a5,a0,107e6 <_reclaim_reent+0x84>
   1076a:	752c                	ld	a1,104(a0)
   1076c:	7179                	addi	sp,sp,-48
   1076e:	ec26                	sd	s1,24(sp)
   10770:	f406                	sd	ra,40(sp)
   10772:	f022                	sd	s0,32(sp)
   10774:	84aa                	mv	s1,a0
   10776:	c98d                	beqz	a1,107a8 <_reclaim_reent+0x46>
   10778:	e84a                	sd	s2,16(sp)
   1077a:	e44e                	sd	s3,8(sp)
   1077c:	4901                	li	s2,0
   1077e:	20000993          	li	s3,512
   10782:	012587b3          	add	a5,a1,s2
   10786:	6380                	ld	s0,0(a5)
   10788:	c801                	beqz	s0,10798 <_reclaim_reent+0x36>
   1078a:	85a2                	mv	a1,s0
   1078c:	6000                	ld	s0,0(s0)
   1078e:	8526                	mv	a0,s1
   10790:	3c6000ef          	jal	10b56 <_free_r>
   10794:	f87d                	bnez	s0,1078a <_reclaim_reent+0x28>
   10796:	74ac                	ld	a1,104(s1)
   10798:	0921                	addi	s2,s2,8
   1079a:	ff3914e3          	bne	s2,s3,10782 <_reclaim_reent+0x20>
   1079e:	8526                	mv	a0,s1
   107a0:	3b6000ef          	jal	10b56 <_free_r>
   107a4:	6942                	ld	s2,16(sp)
   107a6:	69a2                	ld	s3,8(sp)
   107a8:	68ac                	ld	a1,80(s1)
   107aa:	c581                	beqz	a1,107b2 <_reclaim_reent+0x50>
   107ac:	8526                	mv	a0,s1
   107ae:	3a8000ef          	jal	10b56 <_free_r>
   107b2:	70a0                	ld	s0,96(s1)
   107b4:	c419                	beqz	s0,107c2 <_reclaim_reent+0x60>
   107b6:	85a2                	mv	a1,s0
   107b8:	6000                	ld	s0,0(s0)
   107ba:	8526                	mv	a0,s1
   107bc:	39a000ef          	jal	10b56 <_free_r>
   107c0:	f87d                	bnez	s0,107b6 <_reclaim_reent+0x54>
   107c2:	7cac                	ld	a1,120(s1)
   107c4:	c581                	beqz	a1,107cc <_reclaim_reent+0x6a>
   107c6:	8526                	mv	a0,s1
   107c8:	38e000ef          	jal	10b56 <_free_r>
   107cc:	64bc                	ld	a5,72(s1)
   107ce:	c799                	beqz	a5,107dc <_reclaim_reent+0x7a>
   107d0:	7402                	ld	s0,32(sp)
   107d2:	70a2                	ld	ra,40(sp)
   107d4:	8526                	mv	a0,s1
   107d6:	64e2                	ld	s1,24(sp)
   107d8:	6145                	addi	sp,sp,48
   107da:	8782                	jr	a5
   107dc:	70a2                	ld	ra,40(sp)
   107de:	7402                	ld	s0,32(sp)
   107e0:	64e2                	ld	s1,24(sp)
   107e2:	6145                	addi	sp,sp,48
   107e4:	8082                	ret
   107e6:	8082                	ret

00000000000107e8 <_lseek_r>:
   107e8:	1101                	addi	sp,sp,-32
   107ea:	872e                	mv	a4,a1
   107ec:	e822                	sd	s0,16(sp)
   107ee:	e426                	sd	s1,8(sp)
   107f0:	85b2                	mv	a1,a2
   107f2:	842a                	mv	s0,a0
   107f4:	8636                	mv	a2,a3
   107f6:	853a                	mv	a0,a4
   107f8:	ec06                	sd	ra,24(sp)
   107fa:	2401a023          	sw	zero,576(gp) # 1b960 <errno>
   107fe:	155070ef          	jal	18152 <_lseek>
   10802:	57fd                	li	a5,-1
   10804:	00f50763          	beq	a0,a5,10812 <_lseek_r+0x2a>
   10808:	60e2                	ld	ra,24(sp)
   1080a:	6442                	ld	s0,16(sp)
   1080c:	64a2                	ld	s1,8(sp)
   1080e:	6105                	addi	sp,sp,32
   10810:	8082                	ret
   10812:	2401a783          	lw	a5,576(gp) # 1b960 <errno>
   10816:	dbed                	beqz	a5,10808 <_lseek_r+0x20>
   10818:	60e2                	ld	ra,24(sp)
   1081a:	c01c                	sw	a5,0(s0)
   1081c:	6442                	ld	s0,16(sp)
   1081e:	64a2                	ld	s1,8(sp)
   10820:	6105                	addi	sp,sp,32
   10822:	8082                	ret

0000000000010824 <_read_r>:
   10824:	1101                	addi	sp,sp,-32
   10826:	872e                	mv	a4,a1
   10828:	e822                	sd	s0,16(sp)
   1082a:	e426                	sd	s1,8(sp)
   1082c:	85b2                	mv	a1,a2
   1082e:	842a                	mv	s0,a0
   10830:	8636                	mv	a2,a3
   10832:	853a                	mv	a0,a4
   10834:	ec06                	sd	ra,24(sp)
   10836:	2401a023          	sw	zero,576(gp) # 1b960 <errno>
   1083a:	145070ef          	jal	1817e <_read>
   1083e:	57fd                	li	a5,-1
   10840:	00f50763          	beq	a0,a5,1084e <_read_r+0x2a>
   10844:	60e2                	ld	ra,24(sp)
   10846:	6442                	ld	s0,16(sp)
   10848:	64a2                	ld	s1,8(sp)
   1084a:	6105                	addi	sp,sp,32
   1084c:	8082                	ret
   1084e:	2401a783          	lw	a5,576(gp) # 1b960 <errno>
   10852:	dbed                	beqz	a5,10844 <_read_r+0x20>
   10854:	60e2                	ld	ra,24(sp)
   10856:	c01c                	sw	a5,0(s0)
   10858:	6442                	ld	s0,16(sp)
   1085a:	64a2                	ld	s1,8(sp)
   1085c:	6105                	addi	sp,sp,32
   1085e:	8082                	ret

0000000000010860 <_write_r>:
   10860:	1101                	addi	sp,sp,-32
   10862:	872e                	mv	a4,a1
   10864:	e822                	sd	s0,16(sp)
   10866:	e426                	sd	s1,8(sp)
   10868:	85b2                	mv	a1,a2
   1086a:	842a                	mv	s0,a0
   1086c:	8636                	mv	a2,a3
   1086e:	853a                	mv	a0,a4
   10870:	ec06                	sd	ra,24(sp)
   10872:	2401a023          	sw	zero,576(gp) # 1b960 <errno>
   10876:	189070ef          	jal	181fe <_write>
   1087a:	57fd                	li	a5,-1
   1087c:	00f50763          	beq	a0,a5,1088a <_write_r+0x2a>
   10880:	60e2                	ld	ra,24(sp)
   10882:	6442                	ld	s0,16(sp)
   10884:	64a2                	ld	s1,8(sp)
   10886:	6105                	addi	sp,sp,32
   10888:	8082                	ret
   1088a:	2401a783          	lw	a5,576(gp) # 1b960 <errno>
   1088e:	dbed                	beqz	a5,10880 <_write_r+0x20>
   10890:	60e2                	ld	ra,24(sp)
   10892:	c01c                	sw	a5,0(s0)
   10894:	6442                	ld	s0,16(sp)
   10896:	64a2                	ld	s1,8(sp)
   10898:	6105                	addi	sp,sp,32
   1089a:	8082                	ret

000000000001089c <__libc_init_array>:
   1089c:	1101                	addi	sp,sp,-32
   1089e:	e822                	sd	s0,16(sp)
   108a0:	67ed                	lui	a5,0x1b
   108a2:	646d                	lui	s0,0x1b
   108a4:	e04a                	sd	s2,0(sp)
   108a6:	d7078793          	addi	a5,a5,-656 # 1ad70 <__init_array_start>
   108aa:	d7040713          	addi	a4,s0,-656 # 1ad70 <__init_array_start>
   108ae:	ec06                	sd	ra,24(sp)
   108b0:	e426                	sd	s1,8(sp)
   108b2:	40e78933          	sub	s2,a5,a4
   108b6:	00e78d63          	beq	a5,a4,108d0 <__libc_init_array+0x34>
   108ba:	40395913          	srai	s2,s2,0x3
   108be:	d7040413          	addi	s0,s0,-656
   108c2:	4481                	li	s1,0
   108c4:	601c                	ld	a5,0(s0)
   108c6:	0485                	addi	s1,s1,1
   108c8:	0421                	addi	s0,s0,8
   108ca:	9782                	jalr	a5
   108cc:	ff24ece3          	bltu	s1,s2,108c4 <__libc_init_array+0x28>
   108d0:	67ed                	lui	a5,0x1b
   108d2:	646d                	lui	s0,0x1b
   108d4:	d8078793          	addi	a5,a5,-640 # 1ad80 <__do_global_dtors_aux_fini_array_entry>
   108d8:	d7040713          	addi	a4,s0,-656 # 1ad70 <__init_array_start>
   108dc:	40e78933          	sub	s2,a5,a4
   108e0:	40395913          	srai	s2,s2,0x3
   108e4:	00e78b63          	beq	a5,a4,108fa <__libc_init_array+0x5e>
   108e8:	d7040413          	addi	s0,s0,-656
   108ec:	4481                	li	s1,0
   108ee:	601c                	ld	a5,0(s0)
   108f0:	0485                	addi	s1,s1,1
   108f2:	0421                	addi	s0,s0,8
   108f4:	9782                	jalr	a5
   108f6:	ff24ece3          	bltu	s1,s2,108ee <__libc_init_array+0x52>
   108fa:	60e2                	ld	ra,24(sp)
   108fc:	6442                	ld	s0,16(sp)
   108fe:	64a2                	ld	s1,8(sp)
   10900:	6902                	ld	s2,0(sp)
   10902:	6105                	addi	sp,sp,32
   10904:	8082                	ret

0000000000010906 <memset>:
   10906:	433d                	li	t1,15
   10908:	872a                	mv	a4,a0
   1090a:	02c37163          	bgeu	t1,a2,1092c <memset+0x26>
   1090e:	00f77793          	andi	a5,a4,15
   10912:	e3c1                	bnez	a5,10992 <memset+0x8c>
   10914:	e1bd                	bnez	a1,1097a <memset+0x74>
   10916:	ff067693          	andi	a3,a2,-16
   1091a:	8a3d                	andi	a2,a2,15
   1091c:	96ba                	add	a3,a3,a4
   1091e:	e30c                	sd	a1,0(a4)
   10920:	e70c                	sd	a1,8(a4)
   10922:	0741                	addi	a4,a4,16
   10924:	fed76de3          	bltu	a4,a3,1091e <memset+0x18>
   10928:	e211                	bnez	a2,1092c <memset+0x26>
   1092a:	8082                	ret
   1092c:	40c306b3          	sub	a3,t1,a2
   10930:	068a                	slli	a3,a3,0x2
   10932:	00000297          	auipc	t0,0x0
   10936:	9696                	add	a3,a3,t0
   10938:	00a68067          	jr	10(a3)
   1093c:	00b70723          	sb	a1,14(a4)
   10940:	00b706a3          	sb	a1,13(a4)
   10944:	00b70623          	sb	a1,12(a4)
   10948:	00b705a3          	sb	a1,11(a4)
   1094c:	00b70523          	sb	a1,10(a4)
   10950:	00b704a3          	sb	a1,9(a4)
   10954:	00b70423          	sb	a1,8(a4)
   10958:	00b703a3          	sb	a1,7(a4)
   1095c:	00b70323          	sb	a1,6(a4)
   10960:	00b702a3          	sb	a1,5(a4)
   10964:	00b70223          	sb	a1,4(a4)
   10968:	00b701a3          	sb	a1,3(a4)
   1096c:	00b70123          	sb	a1,2(a4)
   10970:	00b700a3          	sb	a1,1(a4)
   10974:	00b70023          	sb	a1,0(a4)
   10978:	8082                	ret
   1097a:	0ff5f593          	zext.b	a1,a1
   1097e:	00859693          	slli	a3,a1,0x8
   10982:	8dd5                	or	a1,a1,a3
   10984:	01059693          	slli	a3,a1,0x10
   10988:	8dd5                	or	a1,a1,a3
   1098a:	02059693          	slli	a3,a1,0x20
   1098e:	8dd5                	or	a1,a1,a3
   10990:	b759                	j	10916 <memset+0x10>
   10992:	00279693          	slli	a3,a5,0x2
   10996:	00000297          	auipc	t0,0x0
   1099a:	9696                	add	a3,a3,t0
   1099c:	8286                	mv	t0,ra
   1099e:	fa2680e7          	jalr	-94(a3)
   109a2:	8096                	mv	ra,t0
   109a4:	17c1                	addi	a5,a5,-16
   109a6:	8f1d                	sub	a4,a4,a5
   109a8:	963e                	add	a2,a2,a5
   109aa:	f8c371e3          	bgeu	t1,a2,1092c <memset+0x26>
   109ae:	b79d                	j	10914 <memset+0xe>

00000000000109b0 <__call_exitprocs>:
   109b0:	715d                	addi	sp,sp,-80
   109b2:	f052                	sd	s4,32(sp)
   109b4:	f84a                	sd	s2,48(sp)
   109b6:	2481b903          	ld	s2,584(gp) # 1b968 <__atexit>
   109ba:	e486                	sd	ra,72(sp)
   109bc:	04090663          	beqz	s2,10a08 <__call_exitprocs+0x58>
   109c0:	f44e                	sd	s3,40(sp)
   109c2:	ec56                	sd	s5,24(sp)
   109c4:	e85a                	sd	s6,16(sp)
   109c6:	e45e                	sd	s7,8(sp)
   109c8:	e0a2                	sd	s0,64(sp)
   109ca:	fc26                	sd	s1,56(sp)
   109cc:	e062                	sd	s8,0(sp)
   109ce:	8b2a                	mv	s6,a0
   109d0:	8bae                	mv	s7,a1
   109d2:	59fd                	li	s3,-1
   109d4:	4a85                	li	s5,1
   109d6:	00892483          	lw	s1,8(s2)
   109da:	fff4841b          	addiw	s0,s1,-1
   109de:	00044e63          	bltz	s0,109fa <__call_exitprocs+0x4a>
   109e2:	048e                	slli	s1,s1,0x3
   109e4:	94ca                	add	s1,s1,s2
   109e6:	020b8663          	beqz	s7,10a12 <__call_exitprocs+0x62>
   109ea:	2084b783          	ld	a5,520(s1)
   109ee:	03778263          	beq	a5,s7,10a12 <__call_exitprocs+0x62>
   109f2:	347d                	addiw	s0,s0,-1
   109f4:	14e1                	addi	s1,s1,-8
   109f6:	ff341ae3          	bne	s0,s3,109ea <__call_exitprocs+0x3a>
   109fa:	6406                	ld	s0,64(sp)
   109fc:	74e2                	ld	s1,56(sp)
   109fe:	79a2                	ld	s3,40(sp)
   10a00:	6ae2                	ld	s5,24(sp)
   10a02:	6b42                	ld	s6,16(sp)
   10a04:	6ba2                	ld	s7,8(sp)
   10a06:	6c02                	ld	s8,0(sp)
   10a08:	60a6                	ld	ra,72(sp)
   10a0a:	7942                	ld	s2,48(sp)
   10a0c:	7a02                	ld	s4,32(sp)
   10a0e:	6161                	addi	sp,sp,80
   10a10:	8082                	ret
   10a12:	00892783          	lw	a5,8(s2)
   10a16:	6494                	ld	a3,8(s1)
   10a18:	37fd                	addiw	a5,a5,-1
   10a1a:	04878c63          	beq	a5,s0,10a72 <__call_exitprocs+0xc2>
   10a1e:	0004b423          	sd	zero,8(s1)
   10a22:	c295                	beqz	a3,10a46 <__call_exitprocs+0x96>
   10a24:	31092783          	lw	a5,784(s2)
   10a28:	008a973b          	sllw	a4,s5,s0
   10a2c:	00892c03          	lw	s8,8(s2)
   10a30:	8ff9                	and	a5,a5,a4
   10a32:	ef99                	bnez	a5,10a50 <__call_exitprocs+0xa0>
   10a34:	9682                	jalr	a3
   10a36:	00892703          	lw	a4,8(s2)
   10a3a:	2481b783          	ld	a5,584(gp) # 1b968 <__atexit>
   10a3e:	03871763          	bne	a4,s8,10a6c <__call_exitprocs+0xbc>
   10a42:	03279563          	bne	a5,s2,10a6c <__call_exitprocs+0xbc>
   10a46:	347d                	addiw	s0,s0,-1
   10a48:	14e1                	addi	s1,s1,-8
   10a4a:	f9341ee3          	bne	s0,s3,109e6 <__call_exitprocs+0x36>
   10a4e:	b775                	j	109fa <__call_exitprocs+0x4a>
   10a50:	31492783          	lw	a5,788(s2)
   10a54:	1084b583          	ld	a1,264(s1)
   10a58:	8f7d                	and	a4,a4,a5
   10a5a:	ef19                	bnez	a4,10a78 <__call_exitprocs+0xc8>
   10a5c:	855a                	mv	a0,s6
   10a5e:	9682                	jalr	a3
   10a60:	00892703          	lw	a4,8(s2)
   10a64:	2481b783          	ld	a5,584(gp) # 1b968 <__atexit>
   10a68:	fd870de3          	beq	a4,s8,10a42 <__call_exitprocs+0x92>
   10a6c:	d7d9                	beqz	a5,109fa <__call_exitprocs+0x4a>
   10a6e:	893e                	mv	s2,a5
   10a70:	b79d                	j	109d6 <__call_exitprocs+0x26>
   10a72:	00892423          	sw	s0,8(s2)
   10a76:	b775                	j	10a22 <__call_exitprocs+0x72>
   10a78:	852e                	mv	a0,a1
   10a7a:	9682                	jalr	a3
   10a7c:	bf6d                	j	10a36 <__call_exitprocs+0x86>

0000000000010a7e <atexit>:
   10a7e:	85aa                	mv	a1,a0
   10a80:	4681                	li	a3,0
   10a82:	4601                	li	a2,0
   10a84:	4501                	li	a0,0
   10a86:	7000306f          	j	14186 <__register_exitproc>

0000000000010a8a <_malloc_trim_r>:
   10a8a:	7179                	addi	sp,sp,-48
   10a8c:	e44e                	sd	s3,8(sp)
   10a8e:	69ed                	lui	s3,0x1b
   10a90:	f022                	sd	s0,32(sp)
   10a92:	ec26                	sd	s1,24(sp)
   10a94:	e84a                	sd	s2,16(sp)
   10a96:	e052                	sd	s4,0(sp)
   10a98:	f406                	sd	ra,40(sp)
   10a9a:	8a2e                	mv	s4,a1
   10a9c:	892a                	mv	s2,a0
   10a9e:	ef898993          	addi	s3,s3,-264 # 1aef8 <__malloc_av_>
   10aa2:	123000ef          	jal	113c4 <__malloc_lock>
   10aa6:	0109b783          	ld	a5,16(s3)
   10aaa:	6405                	lui	s0,0x1
   10aac:	fdf40413          	addi	s0,s0,-33 # fdf <exit-0xf141>
   10ab0:	6784                	ld	s1,8(a5)
   10ab2:	6785                	lui	a5,0x1
   10ab4:	98f1                	andi	s1,s1,-4
   10ab6:	9426                	add	s0,s0,s1
   10ab8:	41440433          	sub	s0,s0,s4
   10abc:	8031                	srli	s0,s0,0xc
   10abe:	147d                	addi	s0,s0,-1
   10ac0:	0432                	slli	s0,s0,0xc
   10ac2:	00f44b63          	blt	s0,a5,10ad8 <_malloc_trim_r+0x4e>
   10ac6:	4581                	li	a1,0
   10ac8:	854a                	mv	a0,s2
   10aca:	336030ef          	jal	13e00 <_sbrk_r>
   10ace:	0109b783          	ld	a5,16(s3)
   10ad2:	97a6                	add	a5,a5,s1
   10ad4:	00f50e63          	beq	a0,a5,10af0 <_malloc_trim_r+0x66>
   10ad8:	854a                	mv	a0,s2
   10ada:	0ed000ef          	jal	113c6 <__malloc_unlock>
   10ade:	70a2                	ld	ra,40(sp)
   10ae0:	7402                	ld	s0,32(sp)
   10ae2:	64e2                	ld	s1,24(sp)
   10ae4:	6942                	ld	s2,16(sp)
   10ae6:	69a2                	ld	s3,8(sp)
   10ae8:	6a02                	ld	s4,0(sp)
   10aea:	4501                	li	a0,0
   10aec:	6145                	addi	sp,sp,48
   10aee:	8082                	ret
   10af0:	408005b3          	neg	a1,s0
   10af4:	854a                	mv	a0,s2
   10af6:	30a030ef          	jal	13e00 <_sbrk_r>
   10afa:	57fd                	li	a5,-1
   10afc:	02f50963          	beq	a0,a5,10b2e <_malloc_trim_r+0xa4>
   10b00:	4c018793          	addi	a5,gp,1216 # 1bbe0 <__malloc_current_mallinfo>
   10b04:	0109b683          	ld	a3,16(s3)
   10b08:	4398                	lw	a4,0(a5)
   10b0a:	8c81                	sub	s1,s1,s0
   10b0c:	0014e493          	ori	s1,s1,1
   10b10:	854a                	mv	a0,s2
   10b12:	9f01                	subw	a4,a4,s0
   10b14:	e684                	sd	s1,8(a3)
   10b16:	c398                	sw	a4,0(a5)
   10b18:	0af000ef          	jal	113c6 <__malloc_unlock>
   10b1c:	70a2                	ld	ra,40(sp)
   10b1e:	7402                	ld	s0,32(sp)
   10b20:	64e2                	ld	s1,24(sp)
   10b22:	6942                	ld	s2,16(sp)
   10b24:	69a2                	ld	s3,8(sp)
   10b26:	6a02                	ld	s4,0(sp)
   10b28:	4505                	li	a0,1
   10b2a:	6145                	addi	sp,sp,48
   10b2c:	8082                	ret
   10b2e:	4581                	li	a1,0
   10b30:	854a                	mv	a0,s2
   10b32:	2ce030ef          	jal	13e00 <_sbrk_r>
   10b36:	0109b703          	ld	a4,16(s3)
   10b3a:	46fd                	li	a3,31
   10b3c:	40e507b3          	sub	a5,a0,a4
   10b40:	f8f6dce3          	bge	a3,a5,10ad8 <_malloc_trim_r+0x4e>
   10b44:	2281b603          	ld	a2,552(gp) # 1b948 <__malloc_sbrk_base>
   10b48:	0017e793          	ori	a5,a5,1
   10b4c:	8d11                	sub	a0,a0,a2
   10b4e:	e71c                	sd	a5,8(a4)
   10b50:	4ca1a023          	sw	a0,1216(gp) # 1bbe0 <__malloc_current_mallinfo>
   10b54:	b751                	j	10ad8 <_malloc_trim_r+0x4e>

0000000000010b56 <_free_r>:
   10b56:	c5f5                	beqz	a1,10c42 <_free_r+0xec>
   10b58:	1101                	addi	sp,sp,-32
   10b5a:	e822                	sd	s0,16(sp)
   10b5c:	e426                	sd	s1,8(sp)
   10b5e:	842e                	mv	s0,a1
   10b60:	84aa                	mv	s1,a0
   10b62:	ec06                	sd	ra,24(sp)
   10b64:	061000ef          	jal	113c4 <__malloc_lock>
   10b68:	ff843503          	ld	a0,-8(s0)
   10b6c:	ff040713          	addi	a4,s0,-16
   10b70:	65ed                	lui	a1,0x1b
   10b72:	ffe57793          	andi	a5,a0,-2
   10b76:	00f70633          	add	a2,a4,a5
   10b7a:	ef858593          	addi	a1,a1,-264 # 1aef8 <__malloc_av_>
   10b7e:	6614                	ld	a3,8(a2)
   10b80:	0105b803          	ld	a6,16(a1)
   10b84:	00157893          	andi	a7,a0,1
   10b88:	9af1                	andi	a3,a3,-4
   10b8a:	12c80963          	beq	a6,a2,10cbc <_free_r+0x166>
   10b8e:	e614                	sd	a3,8(a2)
   10b90:	00d60833          	add	a6,a2,a3
   10b94:	00883803          	ld	a6,8(a6)
   10b98:	00187813          	andi	a6,a6,1
   10b9c:	06089e63          	bnez	a7,10c18 <_free_r+0xc2>
   10ba0:	ff043303          	ld	t1,-16(s0)
   10ba4:	656d                	lui	a0,0x1b
   10ba6:	f0850513          	addi	a0,a0,-248 # 1af08 <__malloc_av_+0x10>
   10baa:	40670733          	sub	a4,a4,t1
   10bae:	01073883          	ld	a7,16(a4)
   10bb2:	979a                	add	a5,a5,t1
   10bb4:	0ea88763          	beq	a7,a0,10ca2 <_free_r+0x14c>
   10bb8:	01873303          	ld	t1,24(a4)
   10bbc:	0068bc23          	sd	t1,24(a7)
   10bc0:	01133823          	sd	a7,16(t1)
   10bc4:	12080563          	beqz	a6,10cee <_free_r+0x198>
   10bc8:	0017e693          	ori	a3,a5,1
   10bcc:	e714                	sd	a3,8(a4)
   10bce:	e21c                	sd	a5,0(a2)
   10bd0:	1ff00693          	li	a3,511
   10bd4:	08f6e163          	bltu	a3,a5,10c56 <_free_r+0x100>
   10bd8:	838d                	srli	a5,a5,0x3
   10bda:	2781                	sext.w	a5,a5
   10bdc:	0017869b          	addiw	a3,a5,1 # 1001 <exit-0xf11f>
   10be0:	0016969b          	slliw	a3,a3,0x1
   10be4:	068e                	slli	a3,a3,0x3
   10be6:	0085b803          	ld	a6,8(a1)
   10bea:	96ae                	add	a3,a3,a1
   10bec:	6288                	ld	a0,0(a3)
   10bee:	4605                	li	a2,1
   10bf0:	4027d79b          	sraiw	a5,a5,0x2
   10bf4:	00f617b3          	sll	a5,a2,a5
   10bf8:	0107e7b3          	or	a5,a5,a6
   10bfc:	ff068613          	addi	a2,a3,-16
   10c00:	eb08                	sd	a0,16(a4)
   10c02:	ef10                	sd	a2,24(a4)
   10c04:	e59c                	sd	a5,8(a1)
   10c06:	e298                	sd	a4,0(a3)
   10c08:	ed18                	sd	a4,24(a0)
   10c0a:	6442                	ld	s0,16(sp)
   10c0c:	60e2                	ld	ra,24(sp)
   10c0e:	8526                	mv	a0,s1
   10c10:	64a2                	ld	s1,8(sp)
   10c12:	6105                	addi	sp,sp,32
   10c14:	7b20006f          	j	113c6 <__malloc_unlock>
   10c18:	02081663          	bnez	a6,10c44 <_free_r+0xee>
   10c1c:	656d                	lui	a0,0x1b
   10c1e:	97b6                	add	a5,a5,a3
   10c20:	f0850513          	addi	a0,a0,-248 # 1af08 <__malloc_av_+0x10>
   10c24:	6a14                	ld	a3,16(a2)
   10c26:	0017e893          	ori	a7,a5,1
   10c2a:	00f70833          	add	a6,a4,a5
   10c2e:	10a68063          	beq	a3,a0,10d2e <_free_r+0x1d8>
   10c32:	6e10                	ld	a2,24(a2)
   10c34:	ee90                	sd	a2,24(a3)
   10c36:	ea14                	sd	a3,16(a2)
   10c38:	01173423          	sd	a7,8(a4)
   10c3c:	00f83023          	sd	a5,0(a6)
   10c40:	bf41                	j	10bd0 <_free_r+0x7a>
   10c42:	8082                	ret
   10c44:	00156513          	ori	a0,a0,1
   10c48:	fea43c23          	sd	a0,-8(s0)
   10c4c:	e21c                	sd	a5,0(a2)
   10c4e:	1ff00693          	li	a3,511
   10c52:	f8f6f3e3          	bgeu	a3,a5,10bd8 <_free_r+0x82>
   10c56:	0097d693          	srli	a3,a5,0x9
   10c5a:	4611                	li	a2,4
   10c5c:	08d66b63          	bltu	a2,a3,10cf2 <_free_r+0x19c>
   10c60:	0067d693          	srli	a3,a5,0x6
   10c64:	0396851b          	addiw	a0,a3,57
   10c68:	0015151b          	slliw	a0,a0,0x1
   10c6c:	050e                	slli	a0,a0,0x3
   10c6e:	0386861b          	addiw	a2,a3,56
   10c72:	952e                	add	a0,a0,a1
   10c74:	6114                	ld	a3,0(a0)
   10c76:	1541                	addi	a0,a0,-16
   10c78:	00d51663          	bne	a0,a3,10c84 <_free_r+0x12e>
   10c7c:	a0d1                	j	10d40 <_free_r+0x1ea>
   10c7e:	6a94                	ld	a3,16(a3)
   10c80:	00d50663          	beq	a0,a3,10c8c <_free_r+0x136>
   10c84:	6690                	ld	a2,8(a3)
   10c86:	9a71                	andi	a2,a2,-4
   10c88:	fec7ebe3          	bltu	a5,a2,10c7e <_free_r+0x128>
   10c8c:	6e88                	ld	a0,24(a3)
   10c8e:	ef08                	sd	a0,24(a4)
   10c90:	eb14                	sd	a3,16(a4)
   10c92:	6442                	ld	s0,16(sp)
   10c94:	e918                	sd	a4,16(a0)
   10c96:	60e2                	ld	ra,24(sp)
   10c98:	8526                	mv	a0,s1
   10c9a:	64a2                	ld	s1,8(sp)
   10c9c:	ee98                	sd	a4,24(a3)
   10c9e:	6105                	addi	sp,sp,32
   10ca0:	a71d                	j	113c6 <__malloc_unlock>
   10ca2:	06081963          	bnez	a6,10d14 <_free_r+0x1be>
   10ca6:	6e0c                	ld	a1,24(a2)
   10ca8:	6a10                	ld	a2,16(a2)
   10caa:	96be                	add	a3,a3,a5
   10cac:	0016e793          	ori	a5,a3,1
   10cb0:	ee0c                	sd	a1,24(a2)
   10cb2:	e990                	sd	a2,16(a1)
   10cb4:	e71c                	sd	a5,8(a4)
   10cb6:	9736                	add	a4,a4,a3
   10cb8:	e314                	sd	a3,0(a4)
   10cba:	bf81                	j	10c0a <_free_r+0xb4>
   10cbc:	96be                	add	a3,a3,a5
   10cbe:	00089a63          	bnez	a7,10cd2 <_free_r+0x17c>
   10cc2:	ff043503          	ld	a0,-16(s0)
   10cc6:	8f09                	sub	a4,a4,a0
   10cc8:	6f1c                	ld	a5,24(a4)
   10cca:	6b10                	ld	a2,16(a4)
   10ccc:	96aa                	add	a3,a3,a0
   10cce:	ee1c                	sd	a5,24(a2)
   10cd0:	eb90                	sd	a2,16(a5)
   10cd2:	0016e613          	ori	a2,a3,1
   10cd6:	2301b783          	ld	a5,560(gp) # 1b950 <__malloc_trim_threshold>
   10cda:	e710                	sd	a2,8(a4)
   10cdc:	e998                	sd	a4,16(a1)
   10cde:	f2f6e6e3          	bltu	a3,a5,10c0a <_free_r+0xb4>
   10ce2:	2601b583          	ld	a1,608(gp) # 1b980 <__malloc_top_pad>
   10ce6:	8526                	mv	a0,s1
   10ce8:	da3ff0ef          	jal	10a8a <_malloc_trim_r>
   10cec:	bf39                	j	10c0a <_free_r+0xb4>
   10cee:	97b6                	add	a5,a5,a3
   10cf0:	bf15                	j	10c24 <_free_r+0xce>
   10cf2:	4651                	li	a2,20
   10cf4:	02d67563          	bgeu	a2,a3,10d1e <_free_r+0x1c8>
   10cf8:	05400613          	li	a2,84
   10cfc:	04d66d63          	bltu	a2,a3,10d56 <_free_r+0x200>
   10d00:	00c7d693          	srli	a3,a5,0xc
   10d04:	06f6851b          	addiw	a0,a3,111
   10d08:	0015151b          	slliw	a0,a0,0x1
   10d0c:	050e                	slli	a0,a0,0x3
   10d0e:	06e6861b          	addiw	a2,a3,110
   10d12:	b785                	j	10c72 <_free_r+0x11c>
   10d14:	0017e693          	ori	a3,a5,1
   10d18:	e714                	sd	a3,8(a4)
   10d1a:	e21c                	sd	a5,0(a2)
   10d1c:	b5fd                	j	10c0a <_free_r+0xb4>
   10d1e:	05c6851b          	addiw	a0,a3,92
   10d22:	0015151b          	slliw	a0,a0,0x1
   10d26:	050e                	slli	a0,a0,0x3
   10d28:	05b6861b          	addiw	a2,a3,91
   10d2c:	b799                	j	10c72 <_free_r+0x11c>
   10d2e:	f598                	sd	a4,40(a1)
   10d30:	f198                	sd	a4,32(a1)
   10d32:	ef08                	sd	a0,24(a4)
   10d34:	eb08                	sd	a0,16(a4)
   10d36:	01173423          	sd	a7,8(a4)
   10d3a:	00f83023          	sd	a5,0(a6)
   10d3e:	b5f1                	j	10c0a <_free_r+0xb4>
   10d40:	0085b803          	ld	a6,8(a1)
   10d44:	4026561b          	sraiw	a2,a2,0x2
   10d48:	4785                	li	a5,1
   10d4a:	00c797b3          	sll	a5,a5,a2
   10d4e:	0107e7b3          	or	a5,a5,a6
   10d52:	e59c                	sd	a5,8(a1)
   10d54:	bf2d                	j	10c8e <_free_r+0x138>
   10d56:	15400613          	li	a2,340
   10d5a:	00d66c63          	bltu	a2,a3,10d72 <_free_r+0x21c>
   10d5e:	00f7d693          	srli	a3,a5,0xf
   10d62:	0786851b          	addiw	a0,a3,120
   10d66:	0015151b          	slliw	a0,a0,0x1
   10d6a:	050e                	slli	a0,a0,0x3
   10d6c:	0776861b          	addiw	a2,a3,119
   10d70:	b709                	j	10c72 <_free_r+0x11c>
   10d72:	55400613          	li	a2,1364
   10d76:	00d66c63          	bltu	a2,a3,10d8e <_free_r+0x238>
   10d7a:	0127d693          	srli	a3,a5,0x12
   10d7e:	07d6851b          	addiw	a0,a3,125
   10d82:	0015151b          	slliw	a0,a0,0x1
   10d86:	050e                	slli	a0,a0,0x3
   10d88:	07c6861b          	addiw	a2,a3,124
   10d8c:	b5dd                	j	10c72 <_free_r+0x11c>
   10d8e:	7f000513          	li	a0,2032
   10d92:	07e00613          	li	a2,126
   10d96:	bdf1                	j	10c72 <_free_r+0x11c>

0000000000010d98 <_malloc_r>:
   10d98:	711d                	addi	sp,sp,-96
   10d9a:	e4a6                	sd	s1,72(sp)
   10d9c:	e0ca                	sd	s2,64(sp)
   10d9e:	ec86                	sd	ra,88(sp)
   10da0:	e8a2                	sd	s0,80(sp)
   10da2:	fc4e                	sd	s3,56(sp)
   10da4:	01758493          	addi	s1,a1,23
   10da8:	02e00793          	li	a5,46
   10dac:	892a                	mv	s2,a0
   10dae:	0497eb63          	bltu	a5,s1,10e04 <_malloc_r+0x6c>
   10db2:	02000493          	li	s1,32
   10db6:	18b4e863          	bltu	s1,a1,10f46 <_malloc_r+0x1ae>
   10dba:	60a000ef          	jal	113c4 <__malloc_lock>
   10dbe:	05000793          	li	a5,80
   10dc2:	4591                	li	a1,4
   10dc4:	69ed                	lui	s3,0x1b
   10dc6:	ef898993          	addi	s3,s3,-264 # 1aef8 <__malloc_av_>
   10dca:	97ce                	add	a5,a5,s3
   10dcc:	6780                	ld	s0,8(a5)
   10dce:	ff078713          	addi	a4,a5,-16
   10dd2:	32e40963          	beq	s0,a4,11104 <_malloc_r+0x36c>
   10dd6:	641c                	ld	a5,8(s0)
   10dd8:	6c14                	ld	a3,24(s0)
   10dda:	6810                	ld	a2,16(s0)
   10ddc:	9bf1                	andi	a5,a5,-4
   10dde:	97a2                	add	a5,a5,s0
   10de0:	6798                	ld	a4,8(a5)
   10de2:	ee14                	sd	a3,24(a2)
   10de4:	ea90                	sd	a2,16(a3)
   10de6:	00176713          	ori	a4,a4,1
   10dea:	854a                	mv	a0,s2
   10dec:	e798                	sd	a4,8(a5)
   10dee:	5d8000ef          	jal	113c6 <__malloc_unlock>
   10df2:	60e6                	ld	ra,88(sp)
   10df4:	01040513          	addi	a0,s0,16
   10df8:	6446                	ld	s0,80(sp)
   10dfa:	64a6                	ld	s1,72(sp)
   10dfc:	6906                	ld	s2,64(sp)
   10dfe:	79e2                	ld	s3,56(sp)
   10e00:	6125                	addi	sp,sp,96
   10e02:	8082                	ret
   10e04:	800007b7          	lui	a5,0x80000
   10e08:	98c1                	andi	s1,s1,-16
   10e0a:	fff7c793          	not	a5,a5
   10e0e:	1297ec63          	bltu	a5,s1,10f46 <_malloc_r+0x1ae>
   10e12:	12b4ea63          	bltu	s1,a1,10f46 <_malloc_r+0x1ae>
   10e16:	5ae000ef          	jal	113c4 <__malloc_lock>
   10e1a:	1f700793          	li	a5,503
   10e1e:	3c97fe63          	bgeu	a5,s1,111fa <_malloc_r+0x462>
   10e22:	0094d793          	srli	a5,s1,0x9
   10e26:	12078b63          	beqz	a5,10f5c <_malloc_r+0x1c4>
   10e2a:	4711                	li	a4,4
   10e2c:	32f76363          	bltu	a4,a5,11152 <_malloc_r+0x3ba>
   10e30:	0064d793          	srli	a5,s1,0x6
   10e34:	0397859b          	addiw	a1,a5,57 # ffffffff80000039 <__BSS_END__+0xffffffff7ffe4119>
   10e38:	0015961b          	slliw	a2,a1,0x1
   10e3c:	0387881b          	addiw	a6,a5,56
   10e40:	060e                	slli	a2,a2,0x3
   10e42:	69ed                	lui	s3,0x1b
   10e44:	ef898993          	addi	s3,s3,-264 # 1aef8 <__malloc_av_>
   10e48:	964e                	add	a2,a2,s3
   10e4a:	6600                	ld	s0,8(a2)
   10e4c:	1641                	addi	a2,a2,-16
   10e4e:	02860163          	beq	a2,s0,10e70 <_malloc_r+0xd8>
   10e52:	457d                	li	a0,31
   10e54:	a039                	j	10e62 <_malloc_r+0xca>
   10e56:	6c14                	ld	a3,24(s0)
   10e58:	28075263          	bgez	a4,110dc <_malloc_r+0x344>
   10e5c:	00d60a63          	beq	a2,a3,10e70 <_malloc_r+0xd8>
   10e60:	8436                	mv	s0,a3
   10e62:	641c                	ld	a5,8(s0)
   10e64:	9bf1                	andi	a5,a5,-4
   10e66:	40978733          	sub	a4,a5,s1
   10e6a:	fee556e3          	bge	a0,a4,10e56 <_malloc_r+0xbe>
   10e6e:	85c2                	mv	a1,a6
   10e70:	0209b403          	ld	s0,32(s3)
   10e74:	686d                	lui	a6,0x1b
   10e76:	f0880813          	addi	a6,a6,-248 # 1af08 <__malloc_av_+0x10>
   10e7a:	25040e63          	beq	s0,a6,110d6 <_malloc_r+0x33e>
   10e7e:	641c                	ld	a5,8(s0)
   10e80:	46fd                	li	a3,31
   10e82:	9bf1                	andi	a5,a5,-4
   10e84:	40978733          	sub	a4,a5,s1
   10e88:	34e6c263          	blt	a3,a4,111cc <_malloc_r+0x434>
   10e8c:	0309b423          	sd	a6,40(s3)
   10e90:	0309b023          	sd	a6,32(s3)
   10e94:	32075163          	bgez	a4,111b6 <_malloc_r+0x41e>
   10e98:	1ff00713          	li	a4,511
   10e9c:	0089b503          	ld	a0,8(s3)
   10ea0:	26f76763          	bltu	a4,a5,1110e <_malloc_r+0x376>
   10ea4:	838d                	srli	a5,a5,0x3
   10ea6:	2781                	sext.w	a5,a5
   10ea8:	0017871b          	addiw	a4,a5,1
   10eac:	0017171b          	slliw	a4,a4,0x1
   10eb0:	070e                	slli	a4,a4,0x3
   10eb2:	974e                	add	a4,a4,s3
   10eb4:	6310                	ld	a2,0(a4)
   10eb6:	4027d79b          	sraiw	a5,a5,0x2
   10eba:	4685                	li	a3,1
   10ebc:	00f697b3          	sll	a5,a3,a5
   10ec0:	8d5d                	or	a0,a0,a5
   10ec2:	ff070793          	addi	a5,a4,-16
   10ec6:	e810                	sd	a2,16(s0)
   10ec8:	ec1c                	sd	a5,24(s0)
   10eca:	00a9b423          	sd	a0,8(s3)
   10ece:	e300                	sd	s0,0(a4)
   10ed0:	ee00                	sd	s0,24(a2)
   10ed2:	4025d79b          	sraiw	a5,a1,0x2
   10ed6:	4605                	li	a2,1
   10ed8:	00f61633          	sll	a2,a2,a5
   10edc:	08c56763          	bltu	a0,a2,10f6a <_malloc_r+0x1d2>
   10ee0:	00a677b3          	and	a5,a2,a0
   10ee4:	ef81                	bnez	a5,10efc <_malloc_r+0x164>
   10ee6:	0606                	slli	a2,a2,0x1
   10ee8:	99f1                	andi	a1,a1,-4
   10eea:	00a677b3          	and	a5,a2,a0
   10eee:	2591                	addiw	a1,a1,4
   10ef0:	e791                	bnez	a5,10efc <_malloc_r+0x164>
   10ef2:	0606                	slli	a2,a2,0x1
   10ef4:	00a677b3          	and	a5,a2,a0
   10ef8:	2591                	addiw	a1,a1,4
   10efa:	dfe5                	beqz	a5,10ef2 <_malloc_r+0x15a>
   10efc:	48fd                	li	a7,31
   10efe:	0015831b          	addiw	t1,a1,1
   10f02:	0013131b          	slliw	t1,t1,0x1
   10f06:	030e                	slli	t1,t1,0x3
   10f08:	1341                	addi	t1,t1,-16
   10f0a:	934e                	add	t1,t1,s3
   10f0c:	851a                	mv	a0,t1
   10f0e:	6d1c                	ld	a5,24(a0)
   10f10:	8e2e                	mv	t3,a1
   10f12:	26f50163          	beq	a0,a5,11174 <_malloc_r+0x3dc>
   10f16:	6798                	ld	a4,8(a5)
   10f18:	843e                	mv	s0,a5
   10f1a:	6f9c                	ld	a5,24(a5)
   10f1c:	9b71                	andi	a4,a4,-4
   10f1e:	409706b3          	sub	a3,a4,s1
   10f22:	26d8c063          	blt	a7,a3,11182 <_malloc_r+0x3ea>
   10f26:	fe06c6e3          	bltz	a3,10f12 <_malloc_r+0x17a>
   10f2a:	9722                	add	a4,a4,s0
   10f2c:	6714                	ld	a3,8(a4)
   10f2e:	6810                	ld	a2,16(s0)
   10f30:	854a                	mv	a0,s2
   10f32:	0016e693          	ori	a3,a3,1
   10f36:	e714                	sd	a3,8(a4)
   10f38:	ee1c                	sd	a5,24(a2)
   10f3a:	eb90                	sd	a2,16(a5)
   10f3c:	48a000ef          	jal	113c6 <__malloc_unlock>
   10f40:	01040513          	addi	a0,s0,16
   10f44:	a029                	j	10f4e <_malloc_r+0x1b6>
   10f46:	47b1                	li	a5,12
   10f48:	00f92023          	sw	a5,0(s2)
   10f4c:	4501                	li	a0,0
   10f4e:	60e6                	ld	ra,88(sp)
   10f50:	6446                	ld	s0,80(sp)
   10f52:	64a6                	ld	s1,72(sp)
   10f54:	6906                	ld	s2,64(sp)
   10f56:	79e2                	ld	s3,56(sp)
   10f58:	6125                	addi	sp,sp,96
   10f5a:	8082                	ret
   10f5c:	40000613          	li	a2,1024
   10f60:	04000593          	li	a1,64
   10f64:	03f00813          	li	a6,63
   10f68:	bde9                	j	10e42 <_malloc_r+0xaa>
   10f6a:	0109b403          	ld	s0,16(s3)
   10f6e:	f456                	sd	s5,40(sp)
   10f70:	641c                	ld	a5,8(s0)
   10f72:	ffc7fa93          	andi	s5,a5,-4
   10f76:	009ae763          	bltu	s5,s1,10f84 <_malloc_r+0x1ec>
   10f7a:	409a8733          	sub	a4,s5,s1
   10f7e:	47fd                	li	a5,31
   10f80:	12e7c563          	blt	a5,a4,110aa <_malloc_r+0x312>
   10f84:	e466                	sd	s9,8(sp)
   10f86:	f852                	sd	s4,48(sp)
   10f88:	2281b703          	ld	a4,552(gp) # 1b948 <__malloc_sbrk_base>
   10f8c:	2601ba03          	ld	s4,608(gp) # 1b980 <__malloc_top_pad>
   10f90:	ec5e                	sd	s7,24(sp)
   10f92:	f05a                	sd	s6,32(sp)
   10f94:	57fd                	li	a5,-1
   10f96:	9a26                	add	s4,s4,s1
   10f98:	01540bb3          	add	s7,s0,s5
   10f9c:	2ef70363          	beq	a4,a5,11282 <_malloc_r+0x4ea>
   10fa0:	6785                	lui	a5,0x1
   10fa2:	07fd                	addi	a5,a5,31 # 101f <exit-0xf101>
   10fa4:	9a3e                	add	s4,s4,a5
   10fa6:	77fd                	lui	a5,0xfffff
   10fa8:	00fa7a33          	and	s4,s4,a5
   10fac:	85d2                	mv	a1,s4
   10fae:	854a                	mv	a0,s2
   10fb0:	651020ef          	jal	13e00 <_sbrk_r>
   10fb4:	57fd                	li	a5,-1
   10fb6:	8b2a                	mv	s6,a0
   10fb8:	36f50363          	beq	a0,a5,1131e <_malloc_r+0x586>
   10fbc:	e862                	sd	s8,16(sp)
   10fbe:	0d756463          	bltu	a0,s7,11086 <_malloc_r+0x2ee>
   10fc2:	4c018c13          	addi	s8,gp,1216 # 1bbe0 <__malloc_current_mallinfo>
   10fc6:	000c2703          	lw	a4,0(s8)
   10fca:	0147073b          	addw	a4,a4,s4
   10fce:	00ec2023          	sw	a4,0(s8)
   10fd2:	86ba                	mv	a3,a4
   10fd4:	34ab8963          	beq	s7,a0,11326 <_malloc_r+0x58e>
   10fd8:	2281b703          	ld	a4,552(gp) # 1b948 <__malloc_sbrk_base>
   10fdc:	57fd                	li	a5,-1
   10fde:	36f70163          	beq	a4,a5,11340 <_malloc_r+0x5a8>
   10fe2:	417b07b3          	sub	a5,s6,s7
   10fe6:	9fb5                	addw	a5,a5,a3
   10fe8:	00fc2023          	sw	a5,0(s8)
   10fec:	00fb7c93          	andi	s9,s6,15
   10ff0:	2a0c8563          	beqz	s9,1129a <_malloc_r+0x502>
   10ff4:	419b0b33          	sub	s6,s6,s9
   10ff8:	6685                	lui	a3,0x1
   10ffa:	0b41                	addi	s6,s6,16
   10ffc:	06c1                	addi	a3,a3,16 # 1010 <exit-0xf110>
   10ffe:	9a5a                	add	s4,s4,s6
   11000:	419686b3          	sub	a3,a3,s9
   11004:	414686b3          	sub	a3,a3,s4
   11008:	16d2                	slli	a3,a3,0x34
   1100a:	0346db93          	srli	s7,a3,0x34
   1100e:	85de                	mv	a1,s7
   11010:	854a                	mv	a0,s2
   11012:	5ef020ef          	jal	13e00 <_sbrk_r>
   11016:	57fd                	li	a5,-1
   11018:	36f50363          	beq	a0,a5,1137e <_malloc_r+0x5e6>
   1101c:	41650533          	sub	a0,a0,s6
   11020:	01750a33          	add	s4,a0,s7
   11024:	000b869b          	sext.w	a3,s7
   11028:	000c2703          	lw	a4,0(s8)
   1102c:	0169b823          	sd	s6,16(s3)
   11030:	001a6793          	ori	a5,s4,1
   11034:	9f35                	addw	a4,a4,a3
   11036:	00fb3423          	sd	a5,8(s6)
   1103a:	00ec2023          	sw	a4,0(s8)
   1103e:	03340563          	beq	s0,s3,11068 <_malloc_r+0x2d0>
   11042:	467d                	li	a2,31
   11044:	27567b63          	bgeu	a2,s5,112ba <_malloc_r+0x522>
   11048:	6414                	ld	a3,8(s0)
   1104a:	fe8a8793          	addi	a5,s5,-24
   1104e:	9bc1                	andi	a5,a5,-16
   11050:	8a85                	andi	a3,a3,1
   11052:	8edd                	or	a3,a3,a5
   11054:	e414                	sd	a3,8(s0)
   11056:	45a5                	li	a1,9
   11058:	00f406b3          	add	a3,s0,a5
   1105c:	e68c                	sd	a1,8(a3)
   1105e:	ea8c                	sd	a1,16(a3)
   11060:	20f66763          	bltu	a2,a5,1126e <_malloc_r+0x4d6>
   11064:	008b3783          	ld	a5,8(s6)
   11068:	2581b603          	ld	a2,600(gp) # 1b978 <__malloc_max_sbrked_mem>
   1106c:	00e67463          	bgeu	a2,a4,11074 <_malloc_r+0x2dc>
   11070:	24e1bc23          	sd	a4,600(gp) # 1b978 <__malloc_max_sbrked_mem>
   11074:	2501b603          	ld	a2,592(gp) # 1b970 <__malloc_max_total_mem>
   11078:	00e67463          	bgeu	a2,a4,11080 <_malloc_r+0x2e8>
   1107c:	24e1b823          	sd	a4,592(gp) # 1b970 <__malloc_max_total_mem>
   11080:	6c42                	ld	s8,16(sp)
   11082:	845a                	mv	s0,s6
   11084:	a039                	j	11092 <_malloc_r+0x2fa>
   11086:	29340363          	beq	s0,s3,1130c <_malloc_r+0x574>
   1108a:	0109b403          	ld	s0,16(s3)
   1108e:	6c42                	ld	s8,16(sp)
   11090:	641c                	ld	a5,8(s0)
   11092:	9bf1                	andi	a5,a5,-4
   11094:	40978733          	sub	a4,a5,s1
   11098:	2297e563          	bltu	a5,s1,112c2 <_malloc_r+0x52a>
   1109c:	47fd                	li	a5,31
   1109e:	22e7d263          	bge	a5,a4,112c2 <_malloc_r+0x52a>
   110a2:	7a42                	ld	s4,48(sp)
   110a4:	7b02                	ld	s6,32(sp)
   110a6:	6be2                	ld	s7,24(sp)
   110a8:	6ca2                	ld	s9,8(sp)
   110aa:	0014e793          	ori	a5,s1,1
   110ae:	e41c                	sd	a5,8(s0)
   110b0:	94a2                	add	s1,s1,s0
   110b2:	0099b823          	sd	s1,16(s3)
   110b6:	00176713          	ori	a4,a4,1
   110ba:	854a                	mv	a0,s2
   110bc:	e498                	sd	a4,8(s1)
   110be:	308000ef          	jal	113c6 <__malloc_unlock>
   110c2:	60e6                	ld	ra,88(sp)
   110c4:	01040513          	addi	a0,s0,16
   110c8:	6446                	ld	s0,80(sp)
   110ca:	7aa2                	ld	s5,40(sp)
   110cc:	64a6                	ld	s1,72(sp)
   110ce:	6906                	ld	s2,64(sp)
   110d0:	79e2                	ld	s3,56(sp)
   110d2:	6125                	addi	sp,sp,96
   110d4:	8082                	ret
   110d6:	0089b503          	ld	a0,8(s3)
   110da:	bbe5                	j	10ed2 <_malloc_r+0x13a>
   110dc:	6810                	ld	a2,16(s0)
   110de:	97a2                	add	a5,a5,s0
   110e0:	6798                	ld	a4,8(a5)
   110e2:	ee14                	sd	a3,24(a2)
   110e4:	ea90                	sd	a2,16(a3)
   110e6:	00176713          	ori	a4,a4,1
   110ea:	854a                	mv	a0,s2
   110ec:	e798                	sd	a4,8(a5)
   110ee:	2d8000ef          	jal	113c6 <__malloc_unlock>
   110f2:	60e6                	ld	ra,88(sp)
   110f4:	01040513          	addi	a0,s0,16
   110f8:	6446                	ld	s0,80(sp)
   110fa:	64a6                	ld	s1,72(sp)
   110fc:	6906                	ld	s2,64(sp)
   110fe:	79e2                	ld	s3,56(sp)
   11100:	6125                	addi	sp,sp,96
   11102:	8082                	ret
   11104:	6f80                	ld	s0,24(a5)
   11106:	2589                	addiw	a1,a1,2
   11108:	d68784e3          	beq	a5,s0,10e70 <_malloc_r+0xd8>
   1110c:	b1e9                	j	10dd6 <_malloc_r+0x3e>
   1110e:	0097d713          	srli	a4,a5,0x9
   11112:	4691                	li	a3,4
   11114:	0ee6fc63          	bgeu	a3,a4,1120c <_malloc_r+0x474>
   11118:	46d1                	li	a3,20
   1111a:	1ae6ed63          	bltu	a3,a4,112d4 <_malloc_r+0x53c>
   1111e:	05c7061b          	addiw	a2,a4,92
   11122:	0016161b          	slliw	a2,a2,0x1
   11126:	060e                	slli	a2,a2,0x3
   11128:	05b7069b          	addiw	a3,a4,91
   1112c:	964e                	add	a2,a2,s3
   1112e:	6218                	ld	a4,0(a2)
   11130:	1641                	addi	a2,a2,-16
   11132:	00e61663          	bne	a2,a4,1113e <_malloc_r+0x3a6>
   11136:	aa89                	j	11288 <_malloc_r+0x4f0>
   11138:	6b18                	ld	a4,16(a4)
   1113a:	00e60663          	beq	a2,a4,11146 <_malloc_r+0x3ae>
   1113e:	6714                	ld	a3,8(a4)
   11140:	9af1                	andi	a3,a3,-4
   11142:	fed7ebe3          	bltu	a5,a3,11138 <_malloc_r+0x3a0>
   11146:	6f10                	ld	a2,24(a4)
   11148:	ec10                	sd	a2,24(s0)
   1114a:	e818                	sd	a4,16(s0)
   1114c:	ea00                	sd	s0,16(a2)
   1114e:	ef00                	sd	s0,24(a4)
   11150:	b349                	j	10ed2 <_malloc_r+0x13a>
   11152:	4751                	li	a4,20
   11154:	0cf77663          	bgeu	a4,a5,11220 <_malloc_r+0x488>
   11158:	05400713          	li	a4,84
   1115c:	18f76a63          	bltu	a4,a5,112f0 <_malloc_r+0x558>
   11160:	00c4d793          	srli	a5,s1,0xc
   11164:	06f7859b          	addiw	a1,a5,111 # fffffffffffff06f <__BSS_END__+0xfffffffffffe314f>
   11168:	0015961b          	slliw	a2,a1,0x1
   1116c:	06e7881b          	addiw	a6,a5,110
   11170:	060e                	slli	a2,a2,0x3
   11172:	b9c1                	j	10e42 <_malloc_r+0xaa>
   11174:	2e05                	addiw	t3,t3,1
   11176:	003e7793          	andi	a5,t3,3
   1117a:	0541                	addi	a0,a0,16
   1117c:	cfdd                	beqz	a5,1123a <_malloc_r+0x4a2>
   1117e:	6d1c                	ld	a5,24(a0)
   11180:	bb49                	j	10f12 <_malloc_r+0x17a>
   11182:	6810                	ld	a2,16(s0)
   11184:	0014e593          	ori	a1,s1,1
   11188:	e40c                	sd	a1,8(s0)
   1118a:	ee1c                	sd	a5,24(a2)
   1118c:	eb90                	sd	a2,16(a5)
   1118e:	94a2                	add	s1,s1,s0
   11190:	0299b423          	sd	s1,40(s3)
   11194:	0299b023          	sd	s1,32(s3)
   11198:	0016e793          	ori	a5,a3,1
   1119c:	9722                	add	a4,a4,s0
   1119e:	0104bc23          	sd	a6,24(s1)
   111a2:	0104b823          	sd	a6,16(s1)
   111a6:	e49c                	sd	a5,8(s1)
   111a8:	854a                	mv	a0,s2
   111aa:	e314                	sd	a3,0(a4)
   111ac:	21a000ef          	jal	113c6 <__malloc_unlock>
   111b0:	01040513          	addi	a0,s0,16
   111b4:	bb69                	j	10f4e <_malloc_r+0x1b6>
   111b6:	97a2                	add	a5,a5,s0
   111b8:	6798                	ld	a4,8(a5)
   111ba:	854a                	mv	a0,s2
   111bc:	00176713          	ori	a4,a4,1
   111c0:	e798                	sd	a4,8(a5)
   111c2:	204000ef          	jal	113c6 <__malloc_unlock>
   111c6:	01040513          	addi	a0,s0,16
   111ca:	b351                	j	10f4e <_malloc_r+0x1b6>
   111cc:	0014e693          	ori	a3,s1,1
   111d0:	e414                	sd	a3,8(s0)
   111d2:	94a2                	add	s1,s1,s0
   111d4:	0299b423          	sd	s1,40(s3)
   111d8:	0299b023          	sd	s1,32(s3)
   111dc:	00176693          	ori	a3,a4,1
   111e0:	97a2                	add	a5,a5,s0
   111e2:	0104bc23          	sd	a6,24(s1)
   111e6:	0104b823          	sd	a6,16(s1)
   111ea:	e494                	sd	a3,8(s1)
   111ec:	854a                	mv	a0,s2
   111ee:	e398                	sd	a4,0(a5)
   111f0:	1d6000ef          	jal	113c6 <__malloc_unlock>
   111f4:	01040513          	addi	a0,s0,16
   111f8:	bb99                	j	10f4e <_malloc_r+0x1b6>
   111fa:	0034d593          	srli	a1,s1,0x3
   111fe:	0015879b          	addiw	a5,a1,1
   11202:	0017979b          	slliw	a5,a5,0x1
   11206:	078e                	slli	a5,a5,0x3
   11208:	2581                	sext.w	a1,a1
   1120a:	be6d                	j	10dc4 <_malloc_r+0x2c>
   1120c:	0067d713          	srli	a4,a5,0x6
   11210:	0397061b          	addiw	a2,a4,57
   11214:	0016161b          	slliw	a2,a2,0x1
   11218:	060e                	slli	a2,a2,0x3
   1121a:	0387069b          	addiw	a3,a4,56
   1121e:	b739                	j	1112c <_malloc_r+0x394>
   11220:	05c7859b          	addiw	a1,a5,92
   11224:	0015961b          	slliw	a2,a1,0x1
   11228:	05b7881b          	addiw	a6,a5,91
   1122c:	060e                	slli	a2,a2,0x3
   1122e:	b911                	j	10e42 <_malloc_r+0xaa>
   11230:	01033783          	ld	a5,16(t1)
   11234:	35fd                	addiw	a1,a1,-1
   11236:	18679463          	bne	a5,t1,113be <_malloc_r+0x626>
   1123a:	0035f793          	andi	a5,a1,3
   1123e:	1341                	addi	t1,t1,-16
   11240:	fbe5                	bnez	a5,11230 <_malloc_r+0x498>
   11242:	0089b703          	ld	a4,8(s3)
   11246:	fff64793          	not	a5,a2
   1124a:	8ff9                	and	a5,a5,a4
   1124c:	00f9b423          	sd	a5,8(s3)
   11250:	0606                	slli	a2,a2,0x1
   11252:	d0c7ece3          	bltu	a5,a2,10f6a <_malloc_r+0x1d2>
   11256:	d0060ae3          	beqz	a2,10f6a <_malloc_r+0x1d2>
   1125a:	00f67733          	and	a4,a2,a5
   1125e:	e711                	bnez	a4,1126a <_malloc_r+0x4d2>
   11260:	0606                	slli	a2,a2,0x1
   11262:	00f67733          	and	a4,a2,a5
   11266:	2e11                	addiw	t3,t3,4
   11268:	df65                	beqz	a4,11260 <_malloc_r+0x4c8>
   1126a:	85f2                	mv	a1,t3
   1126c:	b949                	j	10efe <_malloc_r+0x166>
   1126e:	01040593          	addi	a1,s0,16
   11272:	854a                	mv	a0,s2
   11274:	8e3ff0ef          	jal	10b56 <_free_r>
   11278:	000c2703          	lw	a4,0(s8)
   1127c:	0109bb03          	ld	s6,16(s3)
   11280:	b3d5                	j	11064 <_malloc_r+0x2cc>
   11282:	020a0a13          	addi	s4,s4,32
   11286:	b31d                	j	10fac <_malloc_r+0x214>
   11288:	4026d69b          	sraiw	a3,a3,0x2
   1128c:	4785                	li	a5,1
   1128e:	00d797b3          	sll	a5,a5,a3
   11292:	8d5d                	or	a0,a0,a5
   11294:	00a9b423          	sd	a0,8(s3)
   11298:	bd45                	j	11148 <_malloc_r+0x3b0>
   1129a:	014b0bb3          	add	s7,s6,s4
   1129e:	41700bb3          	neg	s7,s7
   112a2:	1bd2                	slli	s7,s7,0x34
   112a4:	034bdb93          	srli	s7,s7,0x34
   112a8:	85de                	mv	a1,s7
   112aa:	854a                	mv	a0,s2
   112ac:	355020ef          	jal	13e00 <_sbrk_r>
   112b0:	57fd                	li	a5,-1
   112b2:	4681                	li	a3,0
   112b4:	d6f514e3          	bne	a0,a5,1101c <_malloc_r+0x284>
   112b8:	bb85                	j	11028 <_malloc_r+0x290>
   112ba:	6c42                	ld	s8,16(sp)
   112bc:	4785                	li	a5,1
   112be:	00fb3423          	sd	a5,8(s6)
   112c2:	854a                	mv	a0,s2
   112c4:	102000ef          	jal	113c6 <__malloc_unlock>
   112c8:	7a42                	ld	s4,48(sp)
   112ca:	7aa2                	ld	s5,40(sp)
   112cc:	7b02                	ld	s6,32(sp)
   112ce:	6be2                	ld	s7,24(sp)
   112d0:	6ca2                	ld	s9,8(sp)
   112d2:	b9ad                	j	10f4c <_malloc_r+0x1b4>
   112d4:	05400693          	li	a3,84
   112d8:	06e6e763          	bltu	a3,a4,11346 <_malloc_r+0x5ae>
   112dc:	00c7d713          	srli	a4,a5,0xc
   112e0:	06f7061b          	addiw	a2,a4,111
   112e4:	0016161b          	slliw	a2,a2,0x1
   112e8:	060e                	slli	a2,a2,0x3
   112ea:	06e7069b          	addiw	a3,a4,110
   112ee:	bd3d                	j	1112c <_malloc_r+0x394>
   112f0:	15400713          	li	a4,340
   112f4:	06f76763          	bltu	a4,a5,11362 <_malloc_r+0x5ca>
   112f8:	00f4d793          	srli	a5,s1,0xf
   112fc:	0787859b          	addiw	a1,a5,120
   11300:	0015961b          	slliw	a2,a1,0x1
   11304:	0777881b          	addiw	a6,a5,119
   11308:	060e                	slli	a2,a2,0x3
   1130a:	be25                	j	10e42 <_malloc_r+0xaa>
   1130c:	4c018c13          	addi	s8,gp,1216 # 1bbe0 <__malloc_current_mallinfo>
   11310:	000c2683          	lw	a3,0(s8)
   11314:	014686bb          	addw	a3,a3,s4
   11318:	00dc2023          	sw	a3,0(s8)
   1131c:	b975                	j	10fd8 <_malloc_r+0x240>
   1131e:	0109b403          	ld	s0,16(s3)
   11322:	641c                	ld	a5,8(s0)
   11324:	b3bd                	j	11092 <_malloc_r+0x2fa>
   11326:	03451793          	slli	a5,a0,0x34
   1132a:	ca0797e3          	bnez	a5,10fd8 <_malloc_r+0x240>
   1132e:	0109bb03          	ld	s6,16(s3)
   11332:	014a87b3          	add	a5,s5,s4
   11336:	0017e793          	ori	a5,a5,1
   1133a:	00fb3423          	sd	a5,8(s6)
   1133e:	b32d                	j	11068 <_malloc_r+0x2d0>
   11340:	2361b423          	sd	s6,552(gp) # 1b948 <__malloc_sbrk_base>
   11344:	b165                	j	10fec <_malloc_r+0x254>
   11346:	15400693          	li	a3,340
   1134a:	04e6e063          	bltu	a3,a4,1138a <_malloc_r+0x5f2>
   1134e:	00f7d713          	srli	a4,a5,0xf
   11352:	0787061b          	addiw	a2,a4,120
   11356:	0016161b          	slliw	a2,a2,0x1
   1135a:	060e                	slli	a2,a2,0x3
   1135c:	0777069b          	addiw	a3,a4,119
   11360:	b3f1                	j	1112c <_malloc_r+0x394>
   11362:	55400713          	li	a4,1364
   11366:	04f76063          	bltu	a4,a5,113a6 <_malloc_r+0x60e>
   1136a:	0124d793          	srli	a5,s1,0x12
   1136e:	07d7859b          	addiw	a1,a5,125
   11372:	0015961b          	slliw	a2,a1,0x1
   11376:	07c7881b          	addiw	a6,a5,124
   1137a:	060e                	slli	a2,a2,0x3
   1137c:	b4d9                	j	10e42 <_malloc_r+0xaa>
   1137e:	1cc1                	addi	s9,s9,-16
   11380:	9a66                	add	s4,s4,s9
   11382:	416a0a33          	sub	s4,s4,s6
   11386:	4681                	li	a3,0
   11388:	b145                	j	11028 <_malloc_r+0x290>
   1138a:	55400693          	li	a3,1364
   1138e:	02e6e363          	bltu	a3,a4,113b4 <_malloc_r+0x61c>
   11392:	0127d713          	srli	a4,a5,0x12
   11396:	07d7061b          	addiw	a2,a4,125
   1139a:	0016161b          	slliw	a2,a2,0x1
   1139e:	060e                	slli	a2,a2,0x3
   113a0:	07c7069b          	addiw	a3,a4,124
   113a4:	b361                	j	1112c <_malloc_r+0x394>
   113a6:	7f000613          	li	a2,2032
   113aa:	07f00593          	li	a1,127
   113ae:	07e00813          	li	a6,126
   113b2:	bc41                	j	10e42 <_malloc_r+0xaa>
   113b4:	7f000613          	li	a2,2032
   113b8:	07e00693          	li	a3,126
   113bc:	bb85                	j	1112c <_malloc_r+0x394>
   113be:	0089b783          	ld	a5,8(s3)
   113c2:	b579                	j	11250 <_malloc_r+0x4b8>

00000000000113c4 <__malloc_lock>:
   113c4:	8082                	ret

00000000000113c6 <__malloc_unlock>:
   113c6:	8082                	ret

00000000000113c8 <_vfprintf_r>:
   113c8:	dc010113          	addi	sp,sp,-576
   113cc:	22113c23          	sd	ra,568(sp)
   113d0:	22813823          	sd	s0,560(sp)
   113d4:	23213023          	sd	s2,544(sp)
   113d8:	21513423          	sd	s5,520(sp)
   113dc:	892e                	mv	s2,a1
   113de:	8ab2                	mv	s5,a2
   113e0:	ec36                	sd	a3,24(sp)
   113e2:	842a                	mv	s0,a0
   113e4:	e02a                	sd	a0,0(sp)
   113e6:	20f020ef          	jal	13df4 <_localeconv_r>
   113ea:	611c                	ld	a5,0(a0)
   113ec:	853e                	mv	a0,a5
   113ee:	e4be                	sd	a5,72(sp)
   113f0:	44d020ef          	jal	1403c <strlen>
   113f4:	e0aa                	sd	a0,64(sp)
   113f6:	e182                	sd	zero,192(sp)
   113f8:	e582                	sd	zero,200(sp)
   113fa:	c409                	beqz	s0,11404 <_vfprintf_r+0x3c>
   113fc:	6438                	ld	a4,72(s0)
   113fe:	e319                	bnez	a4,11404 <_vfprintf_r+0x3c>
   11400:	4ce0106f          	j	128ce <_vfprintf_r+0x1506>
   11404:	01091703          	lh	a4,16(s2)
   11408:	0ac92683          	lw	a3,172(s2)
   1140c:	6589                	lui	a1,0x2
   1140e:	03271613          	slli	a2,a4,0x32
   11412:	26064e63          	bltz	a2,1168e <_vfprintf_r+0x2c6>
   11416:	7679                	lui	a2,0xffffe
   11418:	8f4d                	or	a4,a4,a1
   1141a:	167d                	addi	a2,a2,-1 # ffffffffffffdfff <__BSS_END__+0xfffffffffffe20df>
   1141c:	8ef1                	and	a3,a3,a2
   1141e:	00e91823          	sh	a4,16(s2)
   11422:	0107171b          	slliw	a4,a4,0x10
   11426:	4107571b          	sraiw	a4,a4,0x10
   1142a:	0ad92623          	sw	a3,172(s2)
   1142e:	00877693          	andi	a3,a4,8
   11432:	20068563          	beqz	a3,1163c <_vfprintf_r+0x274>
   11436:	01893683          	ld	a3,24(s2)
   1143a:	20068163          	beqz	a3,1163c <_vfprintf_r+0x274>
   1143e:	8b69                	andi	a4,a4,26
   11440:	46a9                	li	a3,10
   11442:	20d70863          	beq	a4,a3,11652 <_vfprintf_r+0x28a>
   11446:	22913423          	sd	s1,552(sp)
   1144a:	21313c23          	sd	s3,536(sp)
   1144e:	21413823          	sd	s4,528(sp)
   11452:	efee                	sd	s11,472(sp)
   11454:	21613023          	sd	s6,512(sp)
   11458:	ffde                	sd	s7,504(sp)
   1145a:	fbe2                	sd	s8,496(sp)
   1145c:	f7e6                	sd	s9,488(sp)
   1145e:	f3ea                	sd	s10,480(sp)
   11460:	8dd6                	mv	s11,s5
   11462:	000dc703          	lbu	a4,0(s11)
   11466:	15010a13          	addi	s4,sp,336
   1146a:	f182                	sd	zero,224(sp)
   1146c:	cd82                	sw	zero,216(sp)
   1146e:	e9d2                	sd	s4,208(sp)
   11470:	f402                	sd	zero,40(sp)
   11472:	ec82                	sd	zero,88(sp)
   11474:	f482                	sd	zero,104(sp)
   11476:	f882                	sd	zero,112(sp)
   11478:	f082                	sd	zero,96(sp)
   1147a:	e802                	sd	zero,16(sp)
   1147c:	e44a                	sd	s2,8(sp)
   1147e:	02500413          	li	s0,37
   11482:	44c1                	li	s1,16
   11484:	89d2                	mv	s3,s4
   11486:	18070963          	beqz	a4,11618 <_vfprintf_r+0x250>
   1148a:	8bee                	mv	s7,s11
   1148c:	1e870063          	beq	a4,s0,1166c <_vfprintf_r+0x2a4>
   11490:	001bc703          	lbu	a4,1(s7)
   11494:	0b85                	addi	s7,s7,1
   11496:	fb7d                	bnez	a4,1148c <_vfprintf_r+0xc4>
   11498:	41bb8abb          	subw	s5,s7,s11
   1149c:	160a8e63          	beqz	s5,11618 <_vfprintf_r+0x250>
   114a0:	768e                	ld	a3,224(sp)
   114a2:	476e                	lw	a4,216(sp)
   114a4:	01b9b023          	sd	s11,0(s3)
   114a8:	96d6                	add	a3,a3,s5
   114aa:	2705                	addiw	a4,a4,1
   114ac:	0159b423          	sd	s5,8(s3)
   114b0:	f1b6                	sd	a3,224(sp)
   114b2:	cdba                	sw	a4,216(sp)
   114b4:	469d                	li	a3,7
   114b6:	09c1                	addi	s3,s3,16
   114b8:	1ce6c163          	blt	a3,a4,1167a <_vfprintf_r+0x2b2>
   114bc:	67c2                	ld	a5,16(sp)
   114be:	000bc703          	lbu	a4,0(s7)
   114c2:	015787bb          	addw	a5,a5,s5
   114c6:	e83e                	sd	a5,16(sp)
   114c8:	14070863          	beqz	a4,11618 <_vfprintf_r+0x250>
   114cc:	537d                	li	t1,-1
   114ce:	4f01                	li	t5,0
   114d0:	001bce03          	lbu	t3,1(s7)
   114d4:	08010fa3          	sb	zero,159(sp)
   114d8:	0b85                	addi	s7,s7,1
   114da:	4c81                	li	s9,0
   114dc:	05a00a93          	li	s5,90
   114e0:	897a                	mv	s2,t5
   114e2:	8b1a                	mv	s6,t1
   114e4:	0b85                	addi	s7,s7,1
   114e6:	2e01                	sext.w	t3,t3
   114e8:	fe0e079b          	addiw	a5,t3,-32
   114ec:	04fae563          	bltu	s5,a5,11536 <_vfprintf_r+0x16e>
   114f0:	02079713          	slli	a4,a5,0x20
   114f4:	01e75793          	srli	a5,a4,0x1e
   114f8:	6765                	lui	a4,0x19
   114fa:	68070713          	addi	a4,a4,1664 # 19680 <__clzdi2+0x1de>
   114fe:	97ba                	add	a5,a5,a4
   11500:	439c                	lw	a5,0(a5)
   11502:	8782                	jr	a5
   11504:	4c81                	li	s9,0
   11506:	46a5                	li	a3,9
   11508:	000bc703          	lbu	a4,0(s7)
   1150c:	002c979b          	slliw	a5,s9,0x2
   11510:	01978cbb          	addw	s9,a5,s9
   11514:	fd0e0e1b          	addiw	t3,t3,-48
   11518:	001c9c9b          	slliw	s9,s9,0x1
   1151c:	fd07079b          	addiw	a5,a4,-48
   11520:	0b85                	addi	s7,s7,1
   11522:	019e0cbb          	addw	s9,t3,s9
   11526:	00070e1b          	sext.w	t3,a4
   1152a:	fcf6ffe3          	bgeu	a3,a5,11508 <_vfprintf_r+0x140>
   1152e:	fe0e079b          	addiw	a5,t3,-32
   11532:	fafaffe3          	bgeu	s5,a5,114f0 <_vfprintf_r+0x128>
   11536:	8f4a                	mv	t5,s2
   11538:	0e0e0063          	beqz	t3,11618 <_vfprintf_r+0x250>
   1153c:	4a85                	li	s5,1
   1153e:	0fc10423          	sb	t3,232(sp)
   11542:	08010fa3          	sb	zero,159(sp)
   11546:	8d56                	mv	s10,s5
   11548:	f002                	sd	zero,32(sp)
   1154a:	4301                	li	t1,0
   1154c:	fc02                	sd	zero,56(sp)
   1154e:	f802                	sd	zero,48(sp)
   11550:	4c01                	li	s8,0
   11552:	0e810d93          	addi	s11,sp,232
   11556:	7b0e                	ld	s6,224(sp)
   11558:	084f7913          	andi	s2,t5,132
   1155c:	865a                	mv	a2,s6
   1155e:	5c090f63          	beqz	s2,11b3c <_vfprintf_r+0x774>
   11562:	09f14703          	lbu	a4,159(sp)
   11566:	c331                	beqz	a4,115aa <_vfprintf_r+0x1e2>
   11568:	45ee                	lw	a1,216(sp)
   1156a:	4701                	li	a4,0
   1156c:	4685                	li	a3,1
   1156e:	0b05                	addi	s6,s6,1
   11570:	2585                	addiw	a1,a1,1 # 2001 <exit-0xe11f>
   11572:	09f10613          	addi	a2,sp,159
   11576:	00d9b423          	sd	a3,8(s3)
   1157a:	00c9b023          	sd	a2,0(s3)
   1157e:	f1da                	sd	s6,224(sp)
   11580:	cdae                	sw	a1,216(sp)
   11582:	469d                	li	a3,7
   11584:	09c1                	addi	s3,s3,16
   11586:	44b6ce63          	blt	a3,a1,119e2 <_vfprintf_r+0x61a>
   1158a:	c305                	beqz	a4,115aa <_vfprintf_r+0x1e2>
   1158c:	45ee                	lw	a1,216(sp)
   1158e:	4709                	li	a4,2
   11590:	0b09                	addi	s6,s6,2
   11592:	2585                	addiw	a1,a1,1
   11594:	1114                	addi	a3,sp,160
   11596:	00e9b423          	sd	a4,8(s3)
   1159a:	00d9b023          	sd	a3,0(s3)
   1159e:	f1da                	sd	s6,224(sp)
   115a0:	cdae                	sw	a1,216(sp)
   115a2:	471d                	li	a4,7
   115a4:	09c1                	addi	s3,s3,16
   115a6:	3eb74ae3          	blt	a4,a1,1219a <_vfprintf_r+0xdd2>
   115aa:	08000713          	li	a4,128
   115ae:	2ee903e3          	beq	s2,a4,12094 <_vfprintf_r+0xccc>
   115b2:	4153033b          	subw	t1,t1,s5
   115b6:	58604f63          	bgtz	t1,11b54 <_vfprintf_r+0x78c>
   115ba:	100f7713          	andi	a4,t5,256
   115be:	62071963          	bnez	a4,11bf0 <_vfprintf_r+0x828>
   115c2:	476e                	lw	a4,216(sp)
   115c4:	9b56                	add	s6,s6,s5
   115c6:	f1da                	sd	s6,224(sp)
   115c8:	2705                	addiw	a4,a4,1
   115ca:	01b9b023          	sd	s11,0(s3)
   115ce:	0159b423          	sd	s5,8(s3)
   115d2:	cdba                	sw	a4,216(sp)
   115d4:	479d                	li	a5,7
   115d6:	4ce7c663          	blt	a5,a4,11aa2 <_vfprintf_r+0x6da>
   115da:	09c1                	addi	s3,s3,16
   115dc:	004f7f13          	andi	t5,t5,4
   115e0:	000f0663          	beqz	t5,115ec <_vfprintf_r+0x224>
   115e4:	41ac8abb          	subw	s5,s9,s10
   115e8:	3d5049e3          	bgtz	s5,121ba <_vfprintf_r+0xdf2>
   115ec:	87e6                	mv	a5,s9
   115ee:	01acd363          	bge	s9,s10,115f4 <_vfprintf_r+0x22c>
   115f2:	87ea                	mv	a5,s10
   115f4:	6742                	ld	a4,16(sp)
   115f6:	9fb9                	addw	a5,a5,a4
   115f8:	e83e                	sd	a5,16(sp)
   115fa:	340b14e3          	bnez	s6,12142 <_vfprintf_r+0xd7a>
   115fe:	7782                	ld	a5,32(sp)
   11600:	cd82                	sw	zero,216(sp)
   11602:	c789                	beqz	a5,1160c <_vfprintf_r+0x244>
   11604:	7582                	ld	a1,32(sp)
   11606:	6502                	ld	a0,0(sp)
   11608:	d4eff0ef          	jal	10b56 <_free_r>
   1160c:	89d2                	mv	s3,s4
   1160e:	8dde                	mv	s11,s7
   11610:	000dc703          	lbu	a4,0(s11)
   11614:	e6071be3          	bnez	a4,1148a <_vfprintf_r+0xc2>
   11618:	778e                	ld	a5,224(sp)
   1161a:	6922                	ld	s2,8(sp)
   1161c:	340780e3          	beqz	a5,1215c <_vfprintf_r+0xd94>
   11620:	6502                	ld	a0,0(sp)
   11622:	0990                	addi	a2,sp,208
   11624:	85ca                	mv	a1,s2
   11626:	72f010ef          	jal	13554 <__sprint_r>
   1162a:	3330006f          	j	1215c <_vfprintf_r+0xd94>
   1162e:	01096f13          	ori	t5,s2,16
   11632:	000bce03          	lbu	t3,0(s7)
   11636:	000f091b          	sext.w	s2,t5
   1163a:	b56d                	j	114e4 <_vfprintf_r+0x11c>
   1163c:	6502                	ld	a0,0(sp)
   1163e:	85ca                	mv	a1,s2
   11640:	560020ef          	jal	13ba0 <__swsetup_r>
   11644:	e929                	bnez	a0,11696 <_vfprintf_r+0x2ce>
   11646:	01091703          	lh	a4,16(s2)
   1164a:	46a9                	li	a3,10
   1164c:	8b69                	andi	a4,a4,26
   1164e:	ded71ce3          	bne	a4,a3,11446 <_vfprintf_r+0x7e>
   11652:	01291703          	lh	a4,18(s2)
   11656:	de0748e3          	bltz	a4,11446 <_vfprintf_r+0x7e>
   1165a:	66e2                	ld	a3,24(sp)
   1165c:	6502                	ld	a0,0(sp)
   1165e:	8656                	mv	a2,s5
   11660:	85ca                	mv	a1,s2
   11662:	65d010ef          	jal	134be <__sbprintf>
   11666:	e82a                	sd	a0,16(sp)
   11668:	31b0006f          	j	12182 <_vfprintf_r+0xdba>
   1166c:	41bb8abb          	subw	s5,s7,s11
   11670:	e20a98e3          	bnez	s5,114a0 <_vfprintf_r+0xd8>
   11674:	000bc703          	lbu	a4,0(s7)
   11678:	bd81                	j	114c8 <_vfprintf_r+0x100>
   1167a:	65a2                	ld	a1,8(sp)
   1167c:	6502                	ld	a0,0(sp)
   1167e:	0990                	addi	a2,sp,208
   11680:	6d5010ef          	jal	13554 <__sprint_r>
   11684:	c119                	beqz	a0,1168a <_vfprintf_r+0x2c2>
   11686:	4970106f          	j	1331c <_vfprintf_r+0x1f54>
   1168a:	89d2                	mv	s3,s4
   1168c:	bd05                	j	114bc <_vfprintf_r+0xf4>
   1168e:	03269613          	slli	a2,a3,0x32
   11692:	d8065ee3          	bgez	a2,1142e <_vfprintf_r+0x66>
   11696:	57fd                	li	a5,-1
   11698:	e83e                	sd	a5,16(sp)
   1169a:	2e90006f          	j	12182 <_vfprintf_r+0xdba>
   1169e:	00897713          	andi	a4,s2,8
   116a2:	8f4a                	mv	t5,s2
   116a4:	835a                	mv	t1,s6
   116a6:	68071be3          	bnez	a4,1253c <_vfprintf_r+0x1174>
   116aa:	67e2                	ld	a5,24(sp)
   116ac:	f072                	sd	t3,32(sp)
   116ae:	fc5a                	sd	s6,56(sp)
   116b0:	2388                	fld	fa0,0(a5)
   116b2:	00878d13          	addi	s10,a5,8
   116b6:	f84a                	sd	s2,48(sp)
   116b8:	527070ef          	jal	193de <__extenddftf2>
   116bc:	7362                	ld	t1,56(sp)
   116be:	7f42                	ld	t5,48(sp)
   116c0:	7e02                	ld	t3,32(sp)
   116c2:	ec6a                	sd	s10,24(sp)
   116c4:	872a                	mv	a4,a0
   116c6:	0188                	addi	a0,sp,192
   116c8:	fc1a                	sd	t1,56(sp)
   116ca:	f87a                	sd	t5,48(sp)
   116cc:	f072                	sd	t3,32(sp)
   116ce:	e1ba                	sd	a4,192(sp)
   116d0:	e5ae                	sd	a1,200(sp)
   116d2:	493020ef          	jal	14364 <_ldcheck>
   116d6:	d52a                	sw	a0,168(sp)
   116d8:	4709                	li	a4,2
   116da:	7e02                	ld	t3,32(sp)
   116dc:	7f42                	ld	t5,48(sp)
   116de:	7362                	ld	t1,56(sp)
   116e0:	00e51463          	bne	a0,a4,116e8 <_vfprintf_r+0x320>
   116e4:	2320106f          	j	12916 <_vfprintf_r+0x154e>
   116e8:	4685                	li	a3,1
   116ea:	00d51463          	bne	a0,a3,116f2 <_vfprintf_r+0x32a>
   116ee:	3720106f          	j	12a60 <_vfprintf_r+0x1698>
   116f2:	06100713          	li	a4,97
   116f6:	00ee1463          	bne	t3,a4,116fe <_vfprintf_r+0x336>
   116fa:	0020106f          	j	126fc <_vfprintf_r+0x1334>
   116fe:	04100713          	li	a4,65
   11702:	05800793          	li	a5,88
   11706:	00ee1463          	bne	t3,a4,1170e <_vfprintf_r+0x346>
   1170a:	7f70006f          	j	12700 <_vfprintf_r+0x1338>
   1170e:	577d                	li	a4,-1
   11710:	00e31463          	bne	t1,a4,11718 <_vfprintf_r+0x350>
   11714:	3550106f          	j	13268 <_vfprintf_r+0x1ea0>
   11718:	678e                	ld	a5,192(sp)
   1171a:	100f6b13          	ori	s6,t5,256
   1171e:	06700613          	li	a2,103
   11722:	6aae                	ld	s5,200(sp)
   11724:	2b01                	sext.w	s6,s6
   11726:	8c3e                	mv	s8,a5
   11728:	00ce1463          	bne	t3,a2,11730 <_vfprintf_r+0x368>
   1172c:	3f70106f          	j	13322 <_vfprintf_r+0x1f5a>
   11730:	04700613          	li	a2,71
   11734:	00ce1463          	bne	t3,a2,1173c <_vfprintf_r+0x374>
   11738:	2070106f          	j	1313e <_vfprintf_r+0x1d76>
   1173c:	f87a                	sd	t5,48(sp)
   1173e:	000ad463          	bgez	s5,11746 <_vfprintf_r+0x37e>
   11742:	49b0106f          	j	133dc <_vfprintf_r+0x2014>
   11746:	fbfe069b          	addiw	a3,t3,-65
   1174a:	8f5a                	mv	t5,s6
   1174c:	f002                	sd	zero,32(sp)
   1174e:	e882                	sd	zero,80(sp)
   11750:	02000613          	li	a2,32
   11754:	02061713          	slli	a4,a2,0x20
   11758:	4905                	li	s2,1
   1175a:	9732                	add	a4,a4,a2
   1175c:	00d916b3          	sll	a3,s2,a3
   11760:	8f75                	and	a4,a4,a3
   11762:	c319                	beqz	a4,11768 <_vfprintf_r+0x3a0>
   11764:	70c0106f          	j	12e70 <_vfprintf_r+0x1aa8>
   11768:	4641                	li	a2,16
   1176a:	02061713          	slli	a4,a2,0x20
   1176e:	9732                	add	a4,a4,a2
   11770:	8f75                	and	a4,a4,a3
   11772:	c319                	beqz	a4,11778 <_vfprintf_r+0x3b0>
   11774:	1c10106f          	j	13134 <_vfprintf_r+0x1d6c>
   11778:	02091713          	slli	a4,s2,0x20
   1177c:	974a                	add	a4,a4,s2
   1177e:	8f75                	and	a4,a4,a3
   11780:	e319                	bnez	a4,11786 <_vfprintf_r+0x3be>
   11782:	1d90106f          	j	1315a <_vfprintf_r+0x1d92>
   11786:	8562                	mv	a0,s8
   11788:	1130                	addi	a2,sp,168
   1178a:	85d6                	mv	a1,s5
   1178c:	fc1a                	sd	t1,56(sp)
   1178e:	f472                	sd	t3,40(sp)
   11790:	147020ef          	jal	140d6 <frexpl>
   11794:	00fff6b7          	lui	a3,0xfff
   11798:	169a                	slli	a3,a3,0x26
   1179a:	4601                	li	a2,0
   1179c:	4cd060ef          	jal	18468 <__multf3>
   117a0:	4601                	li	a2,0
   117a2:	4681                	li	a3,0
   117a4:	8c2a                	mv	s8,a0
   117a6:	8b2e                	mv	s6,a1
   117a8:	2dd060ef          	jal	18284 <__eqtf2>
   117ac:	7e22                	ld	t3,40(sp)
   117ae:	7362                	ld	t1,56(sp)
   117b0:	e111                	bnez	a0,117b4 <_vfprintf_r+0x3ec>
   117b2:	d54a                	sw	s2,168(sp)
   117b4:	06100713          	li	a4,97
   117b8:	00ee1463          	bne	t3,a4,117c0 <_vfprintf_r+0x3f8>
   117bc:	4090106f          	j	133c4 <_vfprintf_r+0x1ffc>
   117c0:	6765                	lui	a4,0x19
   117c2:	53870a93          	addi	s5,a4,1336 # 19538 <__clzdi2+0x96>
   117c6:	02031713          	slli	a4,t1,0x20
   117ca:	9301                	srli	a4,a4,0x20
   117cc:	0705                	addi	a4,a4,1
   117ce:	00ed87b3          	add	a5,s11,a4
   117d2:	fc4e                	sd	s3,56(sp)
   117d4:	f45e                	sd	s7,40(sp)
   117d6:	89ee                	mv	s3,s11
   117d8:	893e                	mv	s2,a5
   117da:	ecf2                	sd	t3,88(sp)
   117dc:	8d1a                	mv	s10,t1
   117de:	a801                	j	117ee <_vfprintf_r+0x426>
   117e0:	4601                	li	a2,0
   117e2:	4681                	li	a3,0
   117e4:	2a1060ef          	jal	18284 <__eqtf2>
   117e8:	e119                	bnez	a0,117ee <_vfprintf_r+0x426>
   117ea:	38f0106f          	j	13378 <_vfprintf_r+0x1fb0>
   117ee:	040036b7          	lui	a3,0x4003
   117f2:	1692                	slli	a3,a3,0x24
   117f4:	4601                	li	a2,0
   117f6:	8562                	mv	a0,s8
   117f8:	85da                	mv	a1,s6
   117fa:	46f060ef          	jal	18468 <__multf3>
   117fe:	8b2e                	mv	s6,a1
   11800:	8c2a                	mv	s8,a0
   11802:	2ff070ef          	jal	19300 <__fixtfsi>
   11806:	00050b9b          	sext.w	s7,a0
   1180a:	855e                	mv	a0,s7
   1180c:	381070ef          	jal	1938c <__floatsitf>
   11810:	86ae                	mv	a3,a1
   11812:	862a                	mv	a2,a0
   11814:	85da                	mv	a1,s6
   11816:	8562                	mv	a0,s8
   11818:	24c070ef          	jal	18a64 <__subtf3>
   1181c:	017a87b3          	add	a5,s5,s7
   11820:	0007c683          	lbu	a3,0(a5)
   11824:	87ce                	mv	a5,s3
   11826:	0985                	addi	s3,s3,1
   11828:	fed98fa3          	sb	a3,-1(s3)
   1182c:	8c2a                	mv	s8,a0
   1182e:	8b2e                	mv	s6,a1
   11830:	fb3918e3          	bne	s2,s3,117e0 <_vfprintf_r+0x418>
   11834:	6e66                	ld	t3,88(sp)
   11836:	01fff6b7          	lui	a3,0x1fff
   1183a:	1696                	slli	a3,a3,0x25
   1183c:	4601                	li	a2,0
   1183e:	fcbe                	sd	a5,120(sp)
   11840:	8d5e                	mv	s10,s7
   11842:	7ba2                	ld	s7,40(sp)
   11844:	f472                	sd	t3,40(sp)
   11846:	2e7060ef          	jal	1832c <__getf2>
   1184a:	894e                	mv	s2,s3
   1184c:	7e22                	ld	t3,40(sp)
   1184e:	79e2                	ld	s3,56(sp)
   11850:	77e6                	ld	a5,120(sp)
   11852:	02a04263          	bgtz	a0,11876 <_vfprintf_r+0x4ae>
   11856:	01fff6b7          	lui	a3,0x1fff
   1185a:	8562                	mv	a0,s8
   1185c:	85da                	mv	a1,s6
   1185e:	1696                	slli	a3,a3,0x25
   11860:	4601                	li	a2,0
   11862:	fc72                	sd	t3,56(sp)
   11864:	f43e                	sd	a5,40(sp)
   11866:	21f060ef          	jal	18284 <__eqtf2>
   1186a:	7e62                	ld	t3,56(sp)
   1186c:	e521                	bnez	a0,118b4 <_vfprintf_r+0x4ec>
   1186e:	001d7713          	andi	a4,s10,1
   11872:	77a2                	ld	a5,40(sp)
   11874:	c321                	beqz	a4,118b4 <_vfprintf_r+0x4ec>
   11876:	fd3e                	sd	a5,184(sp)
   11878:	fff94683          	lbu	a3,-1(s2)
   1187c:	00fac603          	lbu	a2,15(s5)
   11880:	874a                	mv	a4,s2
   11882:	00c69e63          	bne	a3,a2,1189e <_vfprintf_r+0x4d6>
   11886:	03000593          	li	a1,48
   1188a:	feb70fa3          	sb	a1,-1(a4)
   1188e:	776a                	ld	a4,184(sp)
   11890:	fff70793          	addi	a5,a4,-1
   11894:	fd3e                	sd	a5,184(sp)
   11896:	fff74683          	lbu	a3,-1(a4)
   1189a:	fec688e3          	beq	a3,a2,1188a <_vfprintf_r+0x4c2>
   1189e:	03900613          	li	a2,57
   118a2:	00c69463          	bne	a3,a2,118aa <_vfprintf_r+0x4e2>
   118a6:	33d0106f          	j	133e2 <_vfprintf_r+0x201a>
   118aa:	2685                	addiw	a3,a3,1 # 1fff001 <__BSS_END__+0x1fe30e1>
   118ac:	0ff6f693          	zext.b	a3,a3
   118b0:	fed70fa3          	sb	a3,-1(a4)
   118b4:	5c2a                	lw	s8,168(sp)
   118b6:	41b907bb          	subw	a5,s2,s11
   118ba:	06100613          	li	a2,97
   118be:	fffc069b          	addiw	a3,s8,-1
   118c2:	f43e                	sd	a5,40(sp)
   118c4:	d536                	sw	a3,168(sp)
   118c6:	8736                	mv	a4,a3
   118c8:	00ce1463          	bne	t3,a2,118d0 <_vfprintf_r+0x508>
   118cc:	2e70106f          	j	133b2 <_vfprintf_r+0x1fea>
   118d0:	04100593          	li	a1,65
   118d4:	05000613          	li	a2,80
   118d8:	00be0463          	beq	t3,a1,118e0 <_vfprintf_r+0x518>
   118dc:	6220106f          	j	12efe <_vfprintf_r+0x1b36>
   118e0:	0ac10823          	sb	a2,176(sp)
   118e4:	0006d463          	bgez	a3,118ec <_vfprintf_r+0x524>
   118e8:	53e0106f          	j	12e26 <_vfprintf_r+0x1a5e>
   118ec:	02b00613          	li	a2,43
   118f0:	0ac108a3          	sb	a2,177(sp)
   118f4:	4625                	li	a2,9
   118f6:	00d64463          	blt	a2,a3,118fe <_vfprintf_r+0x536>
   118fa:	5440106f          	j	12e3e <_vfprintf_r+0x1a76>
   118fe:	0bf10893          	addi	a7,sp,191
   11902:	66666837          	lui	a6,0x66666
   11906:	85c6                	mv	a1,a7
   11908:	66780813          	addi	a6,a6,1639 # 66666667 <__BSS_END__+0x6664a747>
   1190c:	06300313          	li	t1,99
   11910:	030706b3          	mul	a3,a4,a6
   11914:	41f7579b          	sraiw	a5,a4,0x1f
   11918:	862e                	mv	a2,a1
   1191a:	853a                	mv	a0,a4
   1191c:	15fd                	addi	a1,a1,-1
   1191e:	9689                	srai	a3,a3,0x22
   11920:	9e9d                	subw	a3,a3,a5
   11922:	0026979b          	slliw	a5,a3,0x2
   11926:	9fb5                	addw	a5,a5,a3
   11928:	0017979b          	slliw	a5,a5,0x1
   1192c:	40f707bb          	subw	a5,a4,a5
   11930:	0307879b          	addiw	a5,a5,48
   11934:	fef60fa3          	sb	a5,-1(a2)
   11938:	8736                	mv	a4,a3
   1193a:	fca34be3          	blt	t1,a0,11910 <_vfprintf_r+0x548>
   1193e:	0306871b          	addiw	a4,a3,48
   11942:	fee58fa3          	sb	a4,-1(a1)
   11946:	ffe60713          	addi	a4,a2,-2
   1194a:	01176463          	bltu	a4,a7,11952 <_vfprintf_r+0x58a>
   1194e:	2cf0106f          	j	1341c <_vfprintf_r+0x2054>
   11952:	0b210513          	addi	a0,sp,178
   11956:	86aa                	mv	a3,a0
   11958:	00074783          	lbu	a5,0(a4)
   1195c:	0705                	addi	a4,a4,1
   1195e:	0685                	addi	a3,a3,1
   11960:	fef68fa3          	sb	a5,-1(a3)
   11964:	ff171ae3          	bne	a4,a7,11958 <_vfprintf_r+0x590>
   11968:	972a                	add	a4,a4,a0
   1196a:	0709                	addi	a4,a4,2
   1196c:	8f11                	sub	a4,a4,a2
   1196e:	1914                	addi	a3,sp,176
   11970:	40d707bb          	subw	a5,a4,a3
   11974:	ecbe                	sd	a5,88(sp)
   11976:	77a2                	ld	a5,40(sp)
   11978:	6766                	ld	a4,88(sp)
   1197a:	4685                	li	a3,1
   1197c:	9f3d                	addw	a4,a4,a5
   1197e:	8aba                	mv	s5,a4
   11980:	00f6c463          	blt	a3,a5,11988 <_vfprintf_r+0x5c0>
   11984:	0d70106f          	j	1325a <_vfprintf_r+0x1e92>
   11988:	6786                	ld	a5,64(sp)
   1198a:	00e78abb          	addw	s5,a5,a4
   1198e:	77c2                	ld	a5,48(sp)
   11990:	8856                	mv	a6,s5
   11992:	bff7ff13          	andi	t5,a5,-1025
   11996:	2f01                	sext.w	t5,t5
   11998:	100f6f13          	ori	t5,t5,256
   1199c:	000ad363          	bgez	s5,119a2 <_vfprintf_r+0x5da>
   119a0:	4801                	li	a6,0
   119a2:	00080d1b          	sext.w	s10,a6
   119a6:	fc02                	sd	zero,56(sp)
   119a8:	f802                	sd	zero,48(sp)
   119aa:	4c01                	li	s8,0
   119ac:	67c6                	ld	a5,80(sp)
   119ae:	002f7613          	andi	a2,t5,2
   119b2:	e399                	bnez	a5,119b8 <_vfprintf_r+0x5f0>
   119b4:	4a60106f          	j	12e5a <_vfprintf_r+0x1a92>
   119b8:	02d00513          	li	a0,45
   119bc:	08a10fa3          	sb	a0,159(sp)
   119c0:	2d05                	addiw	s10,s10,1
   119c2:	4301                	li	t1,0
   119c4:	b80609e3          	beqz	a2,11556 <_vfprintf_r+0x18e>
   119c8:	7b0e                	ld	s6,224(sp)
   119ca:	45ee                	lw	a1,216(sp)
   119cc:	084f7913          	andi	s2,t5,132
   119d0:	2d09                	addiw	s10,s10,2
   119d2:	865a                	mv	a2,s6
   119d4:	86ae                	mv	a3,a1
   119d6:	56090ee3          	beqz	s2,12752 <_vfprintf_r+0x138a>
   119da:	4709                	li	a4,2
   119dc:	b80518e3          	bnez	a0,1156c <_vfprintf_r+0x1a4>
   119e0:	b67d                	j	1158e <_vfprintf_r+0x1c6>
   119e2:	65a2                	ld	a1,8(sp)
   119e4:	6502                	ld	a0,0(sp)
   119e6:	0990                	addi	a2,sp,208
   119e8:	e51a                	sd	t1,136(sp)
   119ea:	e17a                	sd	t5,128(sp)
   119ec:	fcf2                	sd	t3,120(sp)
   119ee:	e8ba                	sd	a4,80(sp)
   119f0:	365010ef          	jal	13554 <__sprint_r>
   119f4:	74051e63          	bnez	a0,12150 <_vfprintf_r+0xd88>
   119f8:	7b0e                	ld	s6,224(sp)
   119fa:	632a                	ld	t1,136(sp)
   119fc:	6f0a                	ld	t5,128(sp)
   119fe:	7e66                	ld	t3,120(sp)
   11a00:	6746                	ld	a4,80(sp)
   11a02:	89d2                	mv	s3,s4
   11a04:	b659                	j	1158a <_vfprintf_r+0x1c2>
   11a06:	4aee                	lw	s5,216(sp)
   11a08:	77a2                	ld	a5,40(sp)
   11a0a:	4685                	li	a3,1
   11a0c:	2a85                	addiw	s5,s5,1
   11a0e:	9b36                	add	s6,s6,a3
   11a10:	8756                	mv	a4,s5
   11a12:	01098893          	addi	a7,s3,16
   11a16:	1cf6d3e3          	bge	a3,a5,123dc <_vfprintf_r+0x1014>
   11a1a:	4685                	li	a3,1
   11a1c:	00d9b423          	sd	a3,8(s3)
   11a20:	01b9b023          	sd	s11,0(s3)
   11a24:	f1da                	sd	s6,224(sp)
   11a26:	cdba                	sw	a4,216(sp)
   11a28:	469d                	li	a3,7
   11a2a:	58e6c6e3          	blt	a3,a4,127b6 <_vfprintf_r+0x13ee>
   11a2e:	6786                	ld	a5,64(sp)
   11a30:	6726                	ld	a4,72(sp)
   11a32:	2a85                	addiw	s5,s5,1
   11a34:	9b3e                	add	s6,s6,a5
   11a36:	00e8b023          	sd	a4,0(a7)
   11a3a:	00f8b423          	sd	a5,8(a7)
   11a3e:	f1da                	sd	s6,224(sp)
   11a40:	cdd6                	sw	s5,216(sp)
   11a42:	471d                	li	a4,7
   11a44:	08c1                	addi	a7,a7,16
   11a46:	595746e3          	blt	a4,s5,127d2 <_vfprintf_r+0x140a>
   11a4a:	77a2                	ld	a5,40(sp)
   11a4c:	650e                	ld	a0,192(sp)
   11a4e:	65ae                	ld	a1,200(sp)
   11a50:	4601                	li	a2,0
   11a52:	4681                	li	a3,0
   11a54:	fc7a                	sd	t5,56(sp)
   11a56:	f846                	sd	a7,48(sp)
   11a58:	fff7899b          	addiw	s3,a5,-1
   11a5c:	029060ef          	jal	18284 <__eqtf2>
   11a60:	78c2                	ld	a7,48(sp)
   11a62:	7f62                	ld	t5,56(sp)
   11a64:	1a0507e3          	beqz	a0,12412 <_vfprintf_r+0x104a>
   11a68:	001d8793          	addi	a5,s11,1
   11a6c:	2a85                	addiw	s5,s5,1
   11a6e:	9b4e                	add	s6,s6,s3
   11a70:	00f8b023          	sd	a5,0(a7)
   11a74:	cdd6                	sw	s5,216(sp)
   11a76:	f1da                	sd	s6,224(sp)
   11a78:	0138b423          	sd	s3,8(a7)
   11a7c:	479d                	li	a5,7
   11a7e:	1757cce3          	blt	a5,s5,123f6 <_vfprintf_r+0x102e>
   11a82:	08c1                	addi	a7,a7,16
   11a84:	6766                	ld	a4,88(sp)
   11a86:	191c                	addi	a5,sp,176
   11a88:	2a85                	addiw	s5,s5,1
   11a8a:	9b3a                	add	s6,s6,a4
   11a8c:	00f8b023          	sd	a5,0(a7)
   11a90:	f1da                	sd	s6,224(sp)
   11a92:	cdd6                	sw	s5,216(sp)
   11a94:	00e8b423          	sd	a4,8(a7)
   11a98:	479d                	li	a5,7
   11a9a:	01088993          	addi	s3,a7,16
   11a9e:	b357dfe3          	bge	a5,s5,115dc <_vfprintf_r+0x214>
   11aa2:	65a2                	ld	a1,8(sp)
   11aa4:	6502                	ld	a0,0(sp)
   11aa6:	0990                	addi	a2,sp,208
   11aa8:	f87a                	sd	t5,48(sp)
   11aaa:	2ab010ef          	jal	13554 <__sprint_r>
   11aae:	6a051163          	bnez	a0,12150 <_vfprintf_r+0xd88>
   11ab2:	7b0e                	ld	s6,224(sp)
   11ab4:	7f42                	ld	t5,48(sp)
   11ab6:	89d2                	mv	s3,s4
   11ab8:	b615                	j	115dc <_vfprintf_r+0x214>
   11aba:	6762                	ld	a4,24(sp)
   11abc:	8f4a                	mv	t5,s2
   11abe:	4a85                	li	s5,1
   11ac0:	431c                	lw	a5,0(a4)
   11ac2:	08010fa3          	sb	zero,159(sp)
   11ac6:	0ef10423          	sb	a5,232(sp)
   11aca:	00870793          	addi	a5,a4,8
   11ace:	ec3e                	sd	a5,24(sp)
   11ad0:	bc9d                	j	11546 <_vfprintf_r+0x17e>
   11ad2:	67e2                	ld	a5,24(sp)
   11ad4:	08010fa3          	sb	zero,159(sp)
   11ad8:	8f4a                	mv	t5,s2
   11ada:	0007bd83          	ld	s11,0(a5)
   11ade:	00878913          	addi	s2,a5,8
   11ae2:	3a0d86e3          	beqz	s11,1268e <_vfprintf_r+0x12c6>
   11ae6:	6c0b46e3          	bltz	s6,129b2 <_vfprintf_r+0x15ea>
   11aea:	865a                	mv	a2,s6
   11aec:	4581                	li	a1,0
   11aee:	856e                	mv	a0,s11
   11af0:	fc7a                	sd	t5,56(sp)
   11af2:	f872                	sd	t3,48(sp)
   11af4:	ec5a                	sd	s6,24(sp)
   11af6:	1c8020ef          	jal	13cbe <memchr>
   11afa:	f02a                	sd	a0,32(sp)
   11afc:	09f14703          	lbu	a4,159(sp)
   11b00:	6362                	ld	t1,24(sp)
   11b02:	7e42                	ld	t3,48(sp)
   11b04:	7f62                	ld	t5,56(sp)
   11b06:	e119                	bnez	a0,11b0c <_vfprintf_r+0x744>
   11b08:	57a0106f          	j	13082 <_vfprintf_r+0x1cba>
   11b0c:	41b50abb          	subw	s5,a0,s11
   11b10:	86d6                	mv	a3,s5
   11b12:	000ad463          	bgez	s5,11b1a <_vfprintf_r+0x752>
   11b16:	2500106f          	j	12d66 <_vfprintf_r+0x199e>
   11b1a:	00068d1b          	sext.w	s10,a3
   11b1e:	c319                	beqz	a4,11b24 <_vfprintf_r+0x75c>
   11b20:	1ee0106f          	j	12d0e <_vfprintf_r+0x1946>
   11b24:	ec4a                	sd	s2,24(sp)
   11b26:	7b0e                	ld	s6,224(sp)
   11b28:	f002                	sd	zero,32(sp)
   11b2a:	fc02                	sd	zero,56(sp)
   11b2c:	f802                	sd	zero,48(sp)
   11b2e:	084f7913          	andi	s2,t5,132
   11b32:	4301                	li	t1,0
   11b34:	4c01                	li	s8,0
   11b36:	865a                	mv	a2,s6
   11b38:	a20915e3          	bnez	s2,11562 <_vfprintf_r+0x19a>
   11b3c:	41ac873b          	subw	a4,s9,s10
   11b40:	00e043e3          	bgtz	a4,12346 <_vfprintf_r+0xf7e>
   11b44:	09f14703          	lbu	a4,159(sp)
   11b48:	a20710e3          	bnez	a4,11568 <_vfprintf_r+0x1a0>
   11b4c:	4153033b          	subw	t1,t1,s5
   11b50:	a66055e3          	blez	t1,115ba <_vfprintf_r+0x1f2>
   11b54:	6765                	lui	a4,0x19
   11b56:	466e                	lw	a2,216(sp)
   11b58:	7f070913          	addi	s2,a4,2032 # 197f0 <zeroes.0>
   11b5c:	0464dd63          	bge	s1,t1,11bb6 <_vfprintf_r+0x7ee>
   11b60:	87ce                	mv	a5,s3
   11b62:	875a                	mv	a4,s6
   11b64:	89ca                	mv	s3,s2
   11b66:	8b56                	mv	s6,s5
   11b68:	469d                	li	a3,7
   11b6a:	e8f2                	sd	t3,80(sp)
   11b6c:	8afa                	mv	s5,t5
   11b6e:	891a                	mv	s2,t1
   11b70:	a021                	j	11b78 <_vfprintf_r+0x7b0>
   11b72:	3941                	addiw	s2,s2,-16
   11b74:	0324da63          	bge	s1,s2,11ba8 <_vfprintf_r+0x7e0>
   11b78:	0741                	addi	a4,a4,16
   11b7a:	2605                	addiw	a2,a2,1
   11b7c:	0137b023          	sd	s3,0(a5)
   11b80:	e784                	sd	s1,8(a5)
   11b82:	f1ba                	sd	a4,224(sp)
   11b84:	cdb2                	sw	a2,216(sp)
   11b86:	07c1                	addi	a5,a5,16
   11b88:	fec6d5e3          	bge	a3,a2,11b72 <_vfprintf_r+0x7aa>
   11b8c:	65a2                	ld	a1,8(sp)
   11b8e:	6502                	ld	a0,0(sp)
   11b90:	0990                	addi	a2,sp,208
   11b92:	1c3010ef          	jal	13554 <__sprint_r>
   11b96:	5a051d63          	bnez	a0,12150 <_vfprintf_r+0xd88>
   11b9a:	3941                	addiw	s2,s2,-16
   11b9c:	770e                	ld	a4,224(sp)
   11b9e:	466e                	lw	a2,216(sp)
   11ba0:	87d2                	mv	a5,s4
   11ba2:	469d                	li	a3,7
   11ba4:	fd24cae3          	blt	s1,s2,11b78 <_vfprintf_r+0x7b0>
   11ba8:	6e46                	ld	t3,80(sp)
   11baa:	834a                	mv	t1,s2
   11bac:	8f56                	mv	t5,s5
   11bae:	894e                	mv	s2,s3
   11bb0:	8ada                	mv	s5,s6
   11bb2:	89be                	mv	s3,a5
   11bb4:	8b3a                	mv	s6,a4
   11bb6:	9b1a                	add	s6,s6,t1
   11bb8:	2605                	addiw	a2,a2,1
   11bba:	0129b023          	sd	s2,0(s3)
   11bbe:	0069b423          	sd	t1,8(s3)
   11bc2:	f1da                	sd	s6,224(sp)
   11bc4:	cdb2                	sw	a2,216(sp)
   11bc6:	471d                	li	a4,7
   11bc8:	09c1                	addi	s3,s3,16
   11bca:	9ec758e3          	bge	a4,a2,115ba <_vfprintf_r+0x1f2>
   11bce:	65a2                	ld	a1,8(sp)
   11bd0:	6502                	ld	a0,0(sp)
   11bd2:	0990                	addi	a2,sp,208
   11bd4:	fcfa                	sd	t5,120(sp)
   11bd6:	e8f2                	sd	t3,80(sp)
   11bd8:	17d010ef          	jal	13554 <__sprint_r>
   11bdc:	56051a63          	bnez	a0,12150 <_vfprintf_r+0xd88>
   11be0:	7f66                	ld	t5,120(sp)
   11be2:	7b0e                	ld	s6,224(sp)
   11be4:	6e46                	ld	t3,80(sp)
   11be6:	100f7713          	andi	a4,t5,256
   11bea:	89d2                	mv	s3,s4
   11bec:	9c070be3          	beqz	a4,115c2 <_vfprintf_r+0x1fa>
   11bf0:	06500713          	li	a4,101
   11bf4:	e1c759e3          	bge	a4,t3,11a06 <_vfprintf_r+0x63e>
   11bf8:	650e                	ld	a0,192(sp)
   11bfa:	65ae                	ld	a1,200(sp)
   11bfc:	4601                	li	a2,0
   11bfe:	4681                	li	a3,0
   11c00:	e8fa                	sd	t5,80(sp)
   11c02:	682060ef          	jal	18284 <__eqtf2>
   11c06:	6f46                	ld	t5,80(sp)
   11c08:	62051663          	bnez	a0,12234 <_vfprintf_r+0xe6c>
   11c0c:	47ee                	lw	a5,216(sp)
   11c0e:	6765                	lui	a4,0x19
   11c10:	55870713          	addi	a4,a4,1368 # 19558 <__clzdi2+0xb6>
   11c14:	0b05                	addi	s6,s6,1
   11c16:	2785                	addiw	a5,a5,1
   11c18:	4685                	li	a3,1
   11c1a:	00e9b023          	sd	a4,0(s3)
   11c1e:	00d9b423          	sd	a3,8(s3)
   11c22:	f1da                	sd	s6,224(sp)
   11c24:	cdbe                	sw	a5,216(sp)
   11c26:	471d                	li	a4,7
   11c28:	09c1                	addi	s3,s3,16
   11c2a:	4af747e3          	blt	a4,a5,128d8 <_vfprintf_r+0x1510>
   11c2e:	57aa                	lw	a5,168(sp)
   11c30:	7722                	ld	a4,40(sp)
   11c32:	02e7dee3          	bge	a5,a4,1246e <_vfprintf_r+0x10a6>
   11c36:	6706                	ld	a4,64(sp)
   11c38:	47ee                	lw	a5,216(sp)
   11c3a:	66a6                	ld	a3,72(sp)
   11c3c:	9b3a                	add	s6,s6,a4
   11c3e:	2785                	addiw	a5,a5,1
   11c40:	00e9b423          	sd	a4,8(s3)
   11c44:	00d9b023          	sd	a3,0(s3)
   11c48:	f1da                	sd	s6,224(sp)
   11c4a:	cdbe                	sw	a5,216(sp)
   11c4c:	471d                	li	a4,7
   11c4e:	09c1                	addi	s3,s3,16
   11c50:	1ef74ee3          	blt	a4,a5,1264c <_vfprintf_r+0x1284>
   11c54:	77a2                	ld	a5,40(sp)
   11c56:	fff78a9b          	addiw	s5,a5,-1
   11c5a:	995051e3          	blez	s5,115dc <_vfprintf_r+0x214>
   11c5e:	6765                	lui	a4,0x19
   11c60:	46c1                	li	a3,16
   11c62:	47ee                	lw	a5,216(sp)
   11c64:	7f070913          	addi	s2,a4,2032 # 197f0 <zeroes.0>
   11c68:	4956d8e3          	bge	a3,s5,128f8 <_vfprintf_r+0x1530>
   11c6c:	8c4a                	mv	s8,s2
   11c6e:	8336                	mv	t1,a3
   11c70:	8956                	mv	s2,s5
   11c72:	4d9d                	li	s11,7
   11c74:	8afa                	mv	s5,t5
   11c76:	a021                	j	11c7e <_vfprintf_r+0x8b6>
   11c78:	3941                	addiw	s2,s2,-16
   11c7a:	47235ce3          	bge	t1,s2,128f2 <_vfprintf_r+0x152a>
   11c7e:	0b41                	addi	s6,s6,16
   11c80:	2785                	addiw	a5,a5,1
   11c82:	0189b023          	sd	s8,0(s3)
   11c86:	00d9b423          	sd	a3,8(s3)
   11c8a:	f1da                	sd	s6,224(sp)
   11c8c:	cdbe                	sw	a5,216(sp)
   11c8e:	09c1                	addi	s3,s3,16
   11c90:	fefdd4e3          	bge	s11,a5,11c78 <_vfprintf_r+0x8b0>
   11c94:	65a2                	ld	a1,8(sp)
   11c96:	6502                	ld	a0,0(sp)
   11c98:	0990                	addi	a2,sp,208
   11c9a:	0bb010ef          	jal	13554 <__sprint_r>
   11c9e:	4a051963          	bnez	a0,12150 <_vfprintf_r+0xd88>
   11ca2:	4341                	li	t1,16
   11ca4:	7b0e                	ld	s6,224(sp)
   11ca6:	47ee                	lw	a5,216(sp)
   11ca8:	89d2                	mv	s3,s4
   11caa:	869a                	mv	a3,t1
   11cac:	b7f1                	j	11c78 <_vfprintf_r+0x8b0>
   11cae:	67e2                	ld	a5,24(sp)
   11cb0:	02097713          	andi	a4,s2,32
   11cb4:	8f4a                	mv	t5,s2
   11cb6:	835a                	mv	t1,s6
   11cb8:	07a1                	addi	a5,a5,8
   11cba:	ef31                	bnez	a4,11d16 <_vfprintf_r+0x94e>
   11cbc:	01097713          	andi	a4,s2,16
   11cc0:	c319                	beqz	a4,11cc6 <_vfprintf_r+0x8fe>
   11cc2:	41c0106f          	j	130de <_vfprintf_r+0x1d16>
   11cc6:	66e2                	ld	a3,24(sp)
   11cc8:	04097713          	andi	a4,s2,64
   11ccc:	0006aa83          	lw	s5,0(a3)
   11cd0:	52070fe3          	beqz	a4,12a0e <_vfprintf_r+0x1646>
   11cd4:	010a9a9b          	slliw	s5,s5,0x10
   11cd8:	410ada9b          	sraiw	s5,s5,0x10
   11cdc:	ec3e                	sd	a5,24(sp)
   11cde:	8756                	mv	a4,s5
   11ce0:	04074163          	bltz	a4,11d22 <_vfprintf_r+0x95a>
   11ce4:	04034a63          	bltz	t1,11d38 <_vfprintf_r+0x970>
   11ce8:	f7ff7f13          	andi	t5,t5,-129
   11cec:	2f01                	sext.w	t5,t5
   11cee:	040a9563          	bnez	s5,11d38 <_vfprintf_r+0x970>
   11cf2:	00031463          	bnez	t1,11cfa <_vfprintf_r+0x932>
   11cf6:	7f10006f          	j	12ce6 <_vfprintf_r+0x191e>
   11cfa:	03000793          	li	a5,48
   11cfe:	a0a1                	j	11d46 <_vfprintf_r+0x97e>
   11d00:	01096693          	ori	a3,s2,16
   11d04:	02097f13          	andi	t5,s2,32
   11d08:	835a                	mv	t1,s6
   11d0a:	2681                	sext.w	a3,a3
   11d0c:	040f03e3          	beqz	t5,12552 <_vfprintf_r+0x118a>
   11d10:	67e2                	ld	a5,24(sp)
   11d12:	8f36                	mv	t5,a3
   11d14:	07a1                	addi	a5,a5,8
   11d16:	6762                	ld	a4,24(sp)
   11d18:	ec3e                	sd	a5,24(sp)
   11d1a:	6318                	ld	a4,0(a4)
   11d1c:	8aba                	mv	s5,a4
   11d1e:	fc0753e3          	bgez	a4,11ce4 <_vfprintf_r+0x91c>
   11d22:	02d00793          	li	a5,45
   11d26:	08f10fa3          	sb	a5,159(sp)
   11d2a:	41500ab3          	neg	s5,s5
   11d2e:	00034563          	bltz	t1,11d38 <_vfprintf_r+0x970>
   11d32:	f7ff7f13          	andi	t5,t5,-129
   11d36:	2f01                	sext.w	t5,t5
   11d38:	4da5                	li	s11,9
   11d3a:	775def63          	bltu	s11,s5,124b8 <_vfprintf_r+0x10f0>
   11d3e:	030a879b          	addiw	a5,s5,48
   11d42:	0ff7f793          	zext.b	a5,a5
   11d46:	14f105a3          	sb	a5,331(sp)
   11d4a:	881a                	mv	a6,t1
   11d4c:	00604363          	bgtz	t1,11d52 <_vfprintf_r+0x98a>
   11d50:	4805                	li	a6,1
   11d52:	09f14703          	lbu	a4,159(sp)
   11d56:	00080d1b          	sext.w	s10,a6
   11d5a:	4a85                	li	s5,1
   11d5c:	14b10d93          	addi	s11,sp,331
   11d60:	cf65                	beqz	a4,11e58 <_vfprintf_r+0xa90>
   11d62:	2d05                	addiw	s10,s10,1
   11d64:	f002                	sd	zero,32(sp)
   11d66:	fc02                	sd	zero,56(sp)
   11d68:	f802                	sd	zero,48(sp)
   11d6a:	4c01                	li	s8,0
   11d6c:	feaff06f          	j	11556 <_vfprintf_r+0x18e>
   11d70:	67e2                	ld	a5,24(sp)
   11d72:	0007ac83          	lw	s9,0(a5)
   11d76:	07a1                	addi	a5,a5,8
   11d78:	700cd163          	bgez	s9,1247a <_vfprintf_r+0x10b2>
   11d7c:	41900cbb          	negw	s9,s9
   11d80:	ec3e                	sd	a5,24(sp)
   11d82:	00496f13          	ori	t5,s2,4
   11d86:	000bce03          	lbu	t3,0(s7)
   11d8a:	000f091b          	sext.w	s2,t5
   11d8e:	f56ff06f          	j	114e4 <_vfprintf_r+0x11c>
   11d92:	66e2                	ld	a3,24(sp)
   11d94:	01096793          	ori	a5,s2,16
   11d98:	08010fa3          	sb	zero,159(sp)
   11d9c:	835a                	mv	t1,s6
   11d9e:	0006ba83          	ld	s5,0(a3)
   11da2:	2781                	sext.w	a5,a5
   11da4:	00868713          	addi	a4,a3,8
   11da8:	70034363          	bltz	t1,124ae <_vfprintf_r+0x10e6>
   11dac:	f7f7f793          	andi	a5,a5,-129
   11db0:	00078f1b          	sext.w	t5,a5
   11db4:	140a9b63          	bnez	s5,11f0a <_vfprintf_r+0xb42>
   11db8:	ec3a                	sd	a4,24(sp)
   11dba:	24030ce3          	beqz	t1,12812 <_vfprintf_r+0x144a>
   11dbe:	4a81                	li	s5,0
   11dc0:	bfbd                	j	11d3e <_vfprintf_r+0x976>
   11dc2:	67e2                	ld	a5,24(sp)
   11dc4:	01096813          	ori	a6,s2,16
   11dc8:	835a                	mv	t1,s6
   11dca:	2801                	sext.w	a6,a6
   11dcc:	07a1                	addi	a5,a5,8
   11dce:	6762                	ld	a4,24(sp)
   11dd0:	6318                	ld	a4,0(a4)
   11dd2:	ec3e                	sd	a5,24(sp)
   11dd4:	08010fa3          	sb	zero,159(sp)
   11dd8:	02034463          	bltz	t1,11e00 <_vfprintf_r+0xa38>
   11ddc:	b7f87f13          	andi	t5,a6,-1153
   11de0:	2f01                	sext.w	t5,t5
   11de2:	e31d                	bnez	a4,11e08 <_vfprintf_r+0xa40>
   11de4:	02031263          	bnez	t1,11e08 <_vfprintf_r+0xa40>
   11de8:	00187d13          	andi	s10,a6,1
   11dec:	2a0d0be3          	beqz	s10,128a2 <_vfprintf_r+0x14da>
   11df0:	03000793          	li	a5,48
   11df4:	14f105a3          	sb	a5,331(sp)
   11df8:	8aea                	mv	s5,s10
   11dfa:	14b10d93          	addi	s11,sp,331
   11dfe:	a8a9                	j	11e58 <_vfprintf_r+0xa90>
   11e00:	bff87813          	andi	a6,a6,-1025
   11e04:	00080f1b          	sext.w	t5,a6
   11e08:	14c10913          	addi	s2,sp,332
   11e0c:	8dca                	mv	s11,s2
   11e0e:	00777693          	andi	a3,a4,7
   11e12:	866e                	mv	a2,s11
   11e14:	03068693          	addi	a3,a3,48
   11e18:	830d                	srli	a4,a4,0x3
   11e1a:	fedd8fa3          	sb	a3,-1(s11)
   11e1e:	1dfd                	addi	s11,s11,-1
   11e20:	f77d                	bnez	a4,11e0e <_vfprintf_r+0xa46>
   11e22:	001f7713          	andi	a4,t5,1
   11e26:	c315                	beqz	a4,11e4a <_vfprintf_r+0xa82>
   11e28:	03000713          	li	a4,48
   11e2c:	00e68f63          	beq	a3,a4,11e4a <_vfprintf_r+0xa82>
   11e30:	1679                	addi	a2,a2,-2
   11e32:	40c90abb          	subw	s5,s2,a2
   11e36:	feed8fa3          	sb	a4,-1(s11)
   11e3a:	881a                	mv	a6,t1
   11e3c:	01535363          	bge	t1,s5,11e42 <_vfprintf_r+0xa7a>
   11e40:	8856                	mv	a6,s5
   11e42:	00080d1b          	sext.w	s10,a6
   11e46:	8db2                	mv	s11,a2
   11e48:	a801                	j	11e58 <_vfprintf_r+0xa90>
   11e4a:	41b90abb          	subw	s5,s2,s11
   11e4e:	881a                	mv	a6,t1
   11e50:	61534d63          	blt	t1,s5,1246a <_vfprintf_r+0x10a2>
   11e54:	00080d1b          	sext.w	s10,a6
   11e58:	f002                	sd	zero,32(sp)
   11e5a:	fc02                	sd	zero,56(sp)
   11e5c:	f802                	sd	zero,48(sp)
   11e5e:	4c01                	li	s8,0
   11e60:	ef6ff06f          	j	11556 <_vfprintf_r+0x18e>
   11e64:	000bce03          	lbu	t3,0(s7)
   11e68:	06800793          	li	a5,104
   11e6c:	00fe06e3          	beq	t3,a5,12678 <_vfprintf_r+0x12b0>
   11e70:	04096f13          	ori	t5,s2,64
   11e74:	000f091b          	sext.w	s2,t5
   11e78:	e6cff06f          	j	114e4 <_vfprintf_r+0x11c>
   11e7c:	66e2                	ld	a3,24(sp)
   11e7e:	02097793          	andi	a5,s2,32
   11e82:	6298                	ld	a4,0(a3)
   11e84:	06a1                	addi	a3,a3,8
   11e86:	ec36                	sd	a3,24(sp)
   11e88:	60079263          	bnez	a5,1248c <_vfprintf_r+0x10c4>
   11e8c:	01097793          	andi	a5,s2,16
   11e90:	5e079e63          	bnez	a5,1248c <_vfprintf_r+0x10c4>
   11e94:	04097793          	andi	a5,s2,64
   11e98:	700790e3          	bnez	a5,12d98 <_vfprintf_r+0x19d0>
   11e9c:	20097f13          	andi	t5,s2,512
   11ea0:	67c2                	ld	a5,16(sp)
   11ea2:	000f1463          	bnez	t5,11eaa <_vfprintf_r+0xae2>
   11ea6:	3200106f          	j	131c6 <_vfprintf_r+0x1dfe>
   11eaa:	00f70023          	sb	a5,0(a4)
   11eae:	8dde                	mv	s11,s7
   11eb0:	f60ff06f          	j	11610 <_vfprintf_r+0x248>
   11eb4:	000bce03          	lbu	t3,0(s7)
   11eb8:	06c00793          	li	a5,108
   11ebc:	7afe0563          	beq	t3,a5,12666 <_vfprintf_r+0x129e>
   11ec0:	01096f13          	ori	t5,s2,16
   11ec4:	000f091b          	sext.w	s2,t5
   11ec8:	e1cff06f          	j	114e4 <_vfprintf_r+0x11c>
   11ecc:	02097793          	andi	a5,s2,32
   11ed0:	8f4a                	mv	t5,s2
   11ed2:	835a                	mv	t1,s6
   11ed4:	5c079363          	bnez	a5,1249a <_vfprintf_r+0x10d2>
   11ed8:	01097793          	andi	a5,s2,16
   11edc:	5a079f63          	bnez	a5,1249a <_vfprintf_r+0x10d2>
   11ee0:	66e2                	ld	a3,24(sp)
   11ee2:	04097793          	andi	a5,s2,64
   11ee6:	0006aa83          	lw	s5,0(a3)
   11eea:	00868713          	addi	a4,a3,8
   11eee:	32078ce3          	beqz	a5,12a26 <_vfprintf_r+0x165e>
   11ef2:	1ac2                	slli	s5,s5,0x30
   11ef4:	08010fa3          	sb	zero,159(sp)
   11ef8:	030ada93          	srli	s5,s5,0x30
   11efc:	000b4763          	bltz	s6,11f0a <_vfprintf_r+0xb42>
   11f00:	f7ff7f13          	andi	t5,t5,-129
   11f04:	2f01                	sext.w	t5,t5
   11f06:	ea0a89e3          	beqz	s5,11db8 <_vfprintf_r+0x9f0>
   11f0a:	ec3a                	sd	a4,24(sp)
   11f0c:	b535                	j	11d38 <_vfprintf_r+0x970>
   11f0e:	02096f13          	ori	t5,s2,32
   11f12:	000bce03          	lbu	t3,0(s7)
   11f16:	000f091b          	sext.w	s2,t5
   11f1a:	dcaff06f          	j	114e4 <_vfprintf_r+0x11c>
   11f1e:	66e2                	ld	a3,24(sp)
   11f20:	67a1                	lui	a5,0x8
   11f22:	83078793          	addi	a5,a5,-2000 # 7830 <exit-0x88f0>
   11f26:	6298                	ld	a4,0(a3)
   11f28:	0af11023          	sh	a5,160(sp)
   11f2c:	08010fa3          	sb	zero,159(sp)
   11f30:	f03a                	sd	a4,32(sp)
   11f32:	835a                	mv	t1,s6
   11f34:	00868793          	addi	a5,a3,8
   11f38:	620b4663          	bltz	s6,12564 <_vfprintf_r+0x119c>
   11f3c:	f7f97693          	andi	a3,s2,-129
   11f40:	2681                	sext.w	a3,a3
   11f42:	0026e513          	ori	a0,a3,2
   11f46:	200716e3          	bnez	a4,12952 <_vfprintf_r+0x158a>
   11f4a:	5c0b18e3          	bnez	s6,12d1a <_vfprintf_r+0x1952>
   11f4e:	7b0e                	ld	s6,224(sp)
   11f50:	45ee                	lw	a1,216(sp)
   11f52:	00497713          	andi	a4,s2,4
   11f56:	f83a                	sd	a4,48(sp)
   11f58:	865a                	mv	a2,s6
   11f5a:	86ae                	mv	a3,a1
   11f5c:	7e070063          	beqz	a4,1273c <_vfprintf_r+0x1374>
   11f60:	ec3e                	sd	a5,24(sp)
   11f62:	8f2a                	mv	t5,a0
   11f64:	4a81                	li	s5,0
   11f66:	fc02                	sd	zero,56(sp)
   11f68:	f802                	sd	zero,48(sp)
   11f6a:	4c01                	li	s8,0
   11f6c:	4d09                	li	s10,2
   11f6e:	14c10d93          	addi	s11,sp,332
   11f72:	07800e13          	li	t3,120
   11f76:	4911                	li	s2,4
   11f78:	e16ff06f          	j	1158e <_vfprintf_r+0x1c6>
   11f7c:	67e2                	ld	a5,24(sp)
   11f7e:	02097713          	andi	a4,s2,32
   11f82:	8f4a                	mv	t5,s2
   11f84:	835a                	mv	t1,s6
   11f86:	07a1                	addi	a5,a5,8
   11f88:	50071763          	bnez	a4,12496 <_vfprintf_r+0x10ce>
   11f8c:	01097713          	andi	a4,s2,16
   11f90:	50071363          	bnez	a4,12496 <_vfprintf_r+0x10ce>
   11f94:	6762                	ld	a4,24(sp)
   11f96:	04097693          	andi	a3,s2,64
   11f9a:	4318                	lw	a4,0(a4)
   11f9c:	2a0688e3          	beqz	a3,12a4c <_vfprintf_r+0x1684>
   11fa0:	1742                	slli	a4,a4,0x30
   11fa2:	9341                	srli	a4,a4,0x30
   11fa4:	ec3e                	sd	a5,24(sp)
   11fa6:	884a                	mv	a6,s2
   11fa8:	b535                	j	11dd4 <_vfprintf_r+0xa0c>
   11faa:	00896f13          	ori	t5,s2,8
   11fae:	000bce03          	lbu	t3,0(s7)
   11fb2:	000f091b          	sext.w	s2,t5
   11fb6:	d2eff06f          	j	114e4 <_vfprintf_r+0x11c>
   11fba:	6c02                	ld	s8,0(sp)
   11fbc:	8562                	mv	a0,s8
   11fbe:	637010ef          	jal	13df4 <_localeconv_r>
   11fc2:	651c                	ld	a5,8(a0)
   11fc4:	853e                	mv	a0,a5
   11fc6:	f0be                	sd	a5,96(sp)
   11fc8:	074020ef          	jal	1403c <strlen>
   11fcc:	87aa                	mv	a5,a0
   11fce:	8562                	mv	a0,s8
   11fd0:	f8be                	sd	a5,112(sp)
   11fd2:	8c3e                	mv	s8,a5
   11fd4:	621010ef          	jal	13df4 <_localeconv_r>
   11fd8:	691c                	ld	a5,16(a0)
   11fda:	000bce03          	lbu	t3,0(s7)
   11fde:	f4be                	sd	a5,104(sp)
   11fe0:	d00c0263          	beqz	s8,114e4 <_vfprintf_r+0x11c>
   11fe4:	d0078063          	beqz	a5,114e4 <_vfprintf_r+0x11c>
   11fe8:	0007c783          	lbu	a5,0(a5)
   11fec:	ce078c63          	beqz	a5,114e4 <_vfprintf_r+0x11c>
   11ff0:	40096f13          	ori	t5,s2,1024
   11ff4:	000f091b          	sext.w	s2,t5
   11ff8:	cecff06f          	j	114e4 <_vfprintf_r+0x11c>
   11ffc:	00196f13          	ori	t5,s2,1
   12000:	000bce03          	lbu	t3,0(s7)
   12004:	000f091b          	sext.w	s2,t5
   12008:	cdcff06f          	j	114e4 <_vfprintf_r+0x11c>
   1200c:	09f14783          	lbu	a5,159(sp)
   12010:	000bce03          	lbu	t3,0(s7)
   12014:	cc079863          	bnez	a5,114e4 <_vfprintf_r+0x11c>
   12018:	02000793          	li	a5,32
   1201c:	08f10fa3          	sb	a5,159(sp)
   12020:	cc4ff06f          	j	114e4 <_vfprintf_r+0x11c>
   12024:	08096f13          	ori	t5,s2,128
   12028:	000bce03          	lbu	t3,0(s7)
   1202c:	000f091b          	sext.w	s2,t5
   12030:	cb4ff06f          	j	114e4 <_vfprintf_r+0x11c>
   12034:	02b00793          	li	a5,43
   12038:	000bce03          	lbu	t3,0(s7)
   1203c:	08f10fa3          	sb	a5,159(sp)
   12040:	ca4ff06f          	j	114e4 <_vfprintf_r+0x11c>
   12044:	000bce03          	lbu	t3,0(s7)
   12048:	02a00793          	li	a5,42
   1204c:	001b8613          	addi	a2,s7,1
   12050:	00fe1463          	bne	t3,a5,12058 <_vfprintf_r+0xc90>
   12054:	3aa0106f          	j	133fe <_vfprintf_r+0x2036>
   12058:	fd0e071b          	addiw	a4,t3,-48
   1205c:	45a5                	li	a1,9
   1205e:	4681                	li	a3,0
   12060:	8bb2                	mv	s7,a2
   12062:	4b01                	li	s6,0
   12064:	c8e5e263          	bltu	a1,a4,114e8 <_vfprintf_r+0x120>
   12068:	0026979b          	slliw	a5,a3,0x2
   1206c:	00064e03          	lbu	t3,0(a2)
   12070:	9fb5                	addw	a5,a5,a3
   12072:	0017979b          	slliw	a5,a5,0x1
   12076:	00e786bb          	addw	a3,a5,a4
   1207a:	fd0e071b          	addiw	a4,t3,-48
   1207e:	0605                	addi	a2,a2,1
   12080:	fee5f4e3          	bgeu	a1,a4,12068 <_vfprintf_r+0xca0>
   12084:	8336                	mv	t1,a3
   12086:	5406ca63          	bltz	a3,125da <_vfprintf_r+0x1212>
   1208a:	00030b1b          	sext.w	s6,t1
   1208e:	8bb2                	mv	s7,a2
   12090:	c58ff06f          	j	114e8 <_vfprintf_r+0x120>
   12094:	41ac86bb          	subw	a3,s9,s10
   12098:	d0d05d63          	blez	a3,115b2 <_vfprintf_r+0x1ea>
   1209c:	6765                	lui	a4,0x19
   1209e:	4fc1                	li	t6,16
   120a0:	466e                	lw	a2,216(sp)
   120a2:	7f070913          	addi	s2,a4,2032 # 197f0 <zeroes.0>
   120a6:	06dfd263          	bge	t6,a3,1210a <_vfprintf_r+0xd42>
   120aa:	87ce                	mv	a5,s3
   120ac:	875a                	mv	a4,s6
   120ae:	89ca                	mv	s3,s2
   120b0:	8b56                	mv	s6,s5
   120b2:	83fe                	mv	t2,t6
   120b4:	429d                	li	t0,7
   120b6:	e8f2                	sd	t3,80(sp)
   120b8:	fcfa                	sd	t5,120(sp)
   120ba:	8a9a                	mv	s5,t1
   120bc:	8936                	mv	s2,a3
   120be:	a021                	j	120c6 <_vfprintf_r+0xcfe>
   120c0:	3941                	addiw	s2,s2,-16
   120c2:	0323dc63          	bge	t2,s2,120fa <_vfprintf_r+0xd32>
   120c6:	0741                	addi	a4,a4,16
   120c8:	2605                	addiw	a2,a2,1
   120ca:	0137b023          	sd	s3,0(a5)
   120ce:	01f7b423          	sd	t6,8(a5)
   120d2:	f1ba                	sd	a4,224(sp)
   120d4:	cdb2                	sw	a2,216(sp)
   120d6:	07c1                	addi	a5,a5,16
   120d8:	fec2d4e3          	bge	t0,a2,120c0 <_vfprintf_r+0xcf8>
   120dc:	65a2                	ld	a1,8(sp)
   120de:	6502                	ld	a0,0(sp)
   120e0:	0990                	addi	a2,sp,208
   120e2:	472010ef          	jal	13554 <__sprint_r>
   120e6:	e52d                	bnez	a0,12150 <_vfprintf_r+0xd88>
   120e8:	43c1                	li	t2,16
   120ea:	3941                	addiw	s2,s2,-16
   120ec:	770e                	ld	a4,224(sp)
   120ee:	466e                	lw	a2,216(sp)
   120f0:	87d2                	mv	a5,s4
   120f2:	429d                	li	t0,7
   120f4:	8f9e                	mv	t6,t2
   120f6:	fd23c8e3          	blt	t2,s2,120c6 <_vfprintf_r+0xcfe>
   120fa:	6e46                	ld	t3,80(sp)
   120fc:	7f66                	ld	t5,120(sp)
   120fe:	86ca                	mv	a3,s2
   12100:	8356                	mv	t1,s5
   12102:	894e                	mv	s2,s3
   12104:	8ada                	mv	s5,s6
   12106:	89be                	mv	s3,a5
   12108:	8b3a                	mv	s6,a4
   1210a:	9b36                	add	s6,s6,a3
   1210c:	2605                	addiw	a2,a2,1
   1210e:	0129b023          	sd	s2,0(s3)
   12112:	00d9b423          	sd	a3,8(s3)
   12116:	f1da                	sd	s6,224(sp)
   12118:	cdb2                	sw	a2,216(sp)
   1211a:	471d                	li	a4,7
   1211c:	09c1                	addi	s3,s3,16
   1211e:	c8c75a63          	bge	a4,a2,115b2 <_vfprintf_r+0x1ea>
   12122:	65a2                	ld	a1,8(sp)
   12124:	6502                	ld	a0,0(sp)
   12126:	0990                	addi	a2,sp,208
   12128:	e11a                	sd	t1,128(sp)
   1212a:	fcfa                	sd	t5,120(sp)
   1212c:	e8f2                	sd	t3,80(sp)
   1212e:	426010ef          	jal	13554 <__sprint_r>
   12132:	ed19                	bnez	a0,12150 <_vfprintf_r+0xd88>
   12134:	7b0e                	ld	s6,224(sp)
   12136:	6e46                	ld	t3,80(sp)
   12138:	7f66                	ld	t5,120(sp)
   1213a:	630a                	ld	t1,128(sp)
   1213c:	89d2                	mv	s3,s4
   1213e:	c74ff06f          	j	115b2 <_vfprintf_r+0x1ea>
   12142:	65a2                	ld	a1,8(sp)
   12144:	6502                	ld	a0,0(sp)
   12146:	0990                	addi	a2,sp,208
   12148:	40c010ef          	jal	13554 <__sprint_r>
   1214c:	ca050963          	beqz	a0,115fe <_vfprintf_r+0x236>
   12150:	6922                	ld	s2,8(sp)
   12152:	7582                	ld	a1,32(sp)
   12154:	c581                	beqz	a1,1215c <_vfprintf_r+0xd94>
   12156:	6502                	ld	a0,0(sp)
   12158:	9fffe0ef          	jal	10b56 <_free_r>
   1215c:	01095783          	lhu	a5,16(s2)
   12160:	22813483          	ld	s1,552(sp)
   12164:	21813983          	ld	s3,536(sp)
   12168:	0407f793          	andi	a5,a5,64
   1216c:	21013a03          	ld	s4,528(sp)
   12170:	20013b03          	ld	s6,512(sp)
   12174:	7bfe                	ld	s7,504(sp)
   12176:	7c5e                	ld	s8,496(sp)
   12178:	7cbe                	ld	s9,488(sp)
   1217a:	7d1e                	ld	s10,480(sp)
   1217c:	6dfe                	ld	s11,472(sp)
   1217e:	d0079c63          	bnez	a5,11696 <_vfprintf_r+0x2ce>
   12182:	23813083          	ld	ra,568(sp)
   12186:	23013403          	ld	s0,560(sp)
   1218a:	6542                	ld	a0,16(sp)
   1218c:	22013903          	ld	s2,544(sp)
   12190:	20813a83          	ld	s5,520(sp)
   12194:	24010113          	addi	sp,sp,576
   12198:	8082                	ret
   1219a:	65a2                	ld	a1,8(sp)
   1219c:	6502                	ld	a0,0(sp)
   1219e:	0990                	addi	a2,sp,208
   121a0:	e11a                	sd	t1,128(sp)
   121a2:	fcfa                	sd	t5,120(sp)
   121a4:	e8f2                	sd	t3,80(sp)
   121a6:	3ae010ef          	jal	13554 <__sprint_r>
   121aa:	f15d                	bnez	a0,12150 <_vfprintf_r+0xd88>
   121ac:	7b0e                	ld	s6,224(sp)
   121ae:	630a                	ld	t1,128(sp)
   121b0:	7f66                	ld	t5,120(sp)
   121b2:	6e46                	ld	t3,80(sp)
   121b4:	89d2                	mv	s3,s4
   121b6:	bf4ff06f          	j	115aa <_vfprintf_r+0x1e2>
   121ba:	66e9                	lui	a3,0x1a
   121bc:	4741                	li	a4,16
   121be:	47ee                	lw	a5,216(sp)
   121c0:	80068693          	addi	a3,a3,-2048 # 19800 <blanks.1>
   121c4:	05575463          	bge	a4,s5,1220c <_vfprintf_r+0xe44>
   121c8:	8956                	mv	s2,s5
   121ca:	8dba                	mv	s11,a4
   121cc:	4c1d                	li	s8,7
   121ce:	8ab6                	mv	s5,a3
   121d0:	a021                	j	121d8 <_vfprintf_r+0xe10>
   121d2:	3941                	addiw	s2,s2,-16
   121d4:	032dda63          	bge	s11,s2,12208 <_vfprintf_r+0xe40>
   121d8:	0b41                	addi	s6,s6,16
   121da:	2785                	addiw	a5,a5,1
   121dc:	0159b023          	sd	s5,0(s3)
   121e0:	00e9b423          	sd	a4,8(s3)
   121e4:	f1da                	sd	s6,224(sp)
   121e6:	cdbe                	sw	a5,216(sp)
   121e8:	09c1                	addi	s3,s3,16
   121ea:	fefc54e3          	bge	s8,a5,121d2 <_vfprintf_r+0xe0a>
   121ee:	65a2                	ld	a1,8(sp)
   121f0:	6502                	ld	a0,0(sp)
   121f2:	0990                	addi	a2,sp,208
   121f4:	360010ef          	jal	13554 <__sprint_r>
   121f8:	fd21                	bnez	a0,12150 <_vfprintf_r+0xd88>
   121fa:	3941                	addiw	s2,s2,-16
   121fc:	7b0e                	ld	s6,224(sp)
   121fe:	47ee                	lw	a5,216(sp)
   12200:	89d2                	mv	s3,s4
   12202:	4741                	li	a4,16
   12204:	fd2dcae3          	blt	s11,s2,121d8 <_vfprintf_r+0xe10>
   12208:	86d6                	mv	a3,s5
   1220a:	8aca                	mv	s5,s2
   1220c:	9b56                	add	s6,s6,s5
   1220e:	2785                	addiw	a5,a5,1
   12210:	f1da                	sd	s6,224(sp)
   12212:	cdbe                	sw	a5,216(sp)
   12214:	00d9b023          	sd	a3,0(s3)
   12218:	0159b423          	sd	s5,8(s3)
   1221c:	471d                	li	a4,7
   1221e:	bcf75763          	bge	a4,a5,115ec <_vfprintf_r+0x224>
   12222:	65a2                	ld	a1,8(sp)
   12224:	6502                	ld	a0,0(sp)
   12226:	0990                	addi	a2,sp,208
   12228:	32c010ef          	jal	13554 <__sprint_r>
   1222c:	f115                	bnez	a0,12150 <_vfprintf_r+0xd88>
   1222e:	7b0e                	ld	s6,224(sp)
   12230:	bbcff06f          	j	115ec <_vfprintf_r+0x224>
   12234:	562a                	lw	a2,168(sp)
   12236:	5ec05363          	blez	a2,1281c <_vfprintf_r+0x1454>
   1223a:	77a2                	ld	a5,40(sp)
   1223c:	8762                	mv	a4,s8
   1223e:	3987c863          	blt	a5,s8,125ce <_vfprintf_r+0x1206>
   12242:	0007091b          	sext.w	s2,a4
   12246:	01205f63          	blez	s2,12264 <_vfprintf_r+0xe9c>
   1224a:	46ee                	lw	a3,216(sp)
   1224c:	9b4a                	add	s6,s6,s2
   1224e:	01b9b023          	sd	s11,0(s3)
   12252:	2685                	addiw	a3,a3,1
   12254:	0129b423          	sd	s2,8(s3)
   12258:	f1da                	sd	s6,224(sp)
   1225a:	cdb6                	sw	a3,216(sp)
   1225c:	461d                	li	a2,7
   1225e:	09c1                	addi	s3,s3,16
   12260:	28d64ae3          	blt	a2,a3,12cf4 <_vfprintf_r+0x192c>
   12264:	86ca                	mv	a3,s2
   12266:	42094263          	bltz	s2,1268a <_vfprintf_r+0x12c2>
   1226a:	40dc0abb          	subw	s5,s8,a3
   1226e:	43504d63          	bgtz	s5,126a8 <_vfprintf_r+0x12e0>
   12272:	400f7713          	andi	a4,t5,1024
   12276:	018d8933          	add	s2,s11,s8
   1227a:	0c0710e3          	bnez	a4,12b3a <_vfprintf_r+0x1772>
   1227e:	5aaa                	lw	s5,168(sp)
   12280:	77a2                	ld	a5,40(sp)
   12282:	00fac663          	blt	s5,a5,1228e <_vfprintf_r+0xec6>
   12286:	001f7713          	andi	a4,t5,1
   1228a:	2a070ae3          	beqz	a4,12d3e <_vfprintf_r+0x1976>
   1228e:	476e                	lw	a4,216(sp)
   12290:	6786                	ld	a5,64(sp)
   12292:	66a6                	ld	a3,72(sp)
   12294:	2705                	addiw	a4,a4,1
   12296:	9b3e                	add	s6,s6,a5
   12298:	00d9b023          	sd	a3,0(s3)
   1229c:	00f9b423          	sd	a5,8(s3)
   122a0:	f1da                	sd	s6,224(sp)
   122a2:	cdba                	sw	a4,216(sp)
   122a4:	469d                	li	a3,7
   122a6:	09c1                	addi	s3,s3,16
   122a8:	58e6c0e3          	blt	a3,a4,13028 <_vfprintf_r+0x1c60>
   122ac:	7722                	ld	a4,40(sp)
   122ae:	00ed87b3          	add	a5,s11,a4
   122b2:	412787b3          	sub	a5,a5,s2
   122b6:	4157073b          	subw	a4,a4,s5
   122ba:	0007869b          	sext.w	a3,a5
   122be:	00d75363          	bge	a4,a3,122c4 <_vfprintf_r+0xefc>
   122c2:	87ba                	mv	a5,a4
   122c4:	00078a9b          	sext.w	s5,a5
   122c8:	01505f63          	blez	s5,122e6 <_vfprintf_r+0xf1e>
   122cc:	47ee                	lw	a5,216(sp)
   122ce:	9b56                	add	s6,s6,s5
   122d0:	0129b023          	sd	s2,0(s3)
   122d4:	2785                	addiw	a5,a5,1
   122d6:	0159b423          	sd	s5,8(s3)
   122da:	f1da                	sd	s6,224(sp)
   122dc:	cdbe                	sw	a5,216(sp)
   122de:	469d                	li	a3,7
   122e0:	09c1                	addi	s3,s3,16
   122e2:	5af6cce3          	blt	a3,a5,1309a <_vfprintf_r+0x1cd2>
   122e6:	87d6                	mv	a5,s5
   122e8:	000ad363          	bgez	s5,122ee <_vfprintf_r+0xf26>
   122ec:	4781                	li	a5,0
   122ee:	40f70abb          	subw	s5,a4,a5
   122f2:	af505563          	blez	s5,115dc <_vfprintf_r+0x214>
   122f6:	6765                	lui	a4,0x19
   122f8:	46c1                	li	a3,16
   122fa:	47ee                	lw	a5,216(sp)
   122fc:	7f070913          	addi	s2,a4,2032 # 197f0 <zeroes.0>
   12300:	5f56dc63          	bge	a3,s5,128f8 <_vfprintf_r+0x1530>
   12304:	8c4a                	mv	s8,s2
   12306:	8336                	mv	t1,a3
   12308:	8956                	mv	s2,s5
   1230a:	4d9d                	li	s11,7
   1230c:	8afa                	mv	s5,t5
   1230e:	a021                	j	12316 <_vfprintf_r+0xf4e>
   12310:	3941                	addiw	s2,s2,-16
   12312:	5f235063          	bge	t1,s2,128f2 <_vfprintf_r+0x152a>
   12316:	0b41                	addi	s6,s6,16
   12318:	2785                	addiw	a5,a5,1
   1231a:	0189b023          	sd	s8,0(s3)
   1231e:	00d9b423          	sd	a3,8(s3)
   12322:	f1da                	sd	s6,224(sp)
   12324:	cdbe                	sw	a5,216(sp)
   12326:	09c1                	addi	s3,s3,16
   12328:	fefdd4e3          	bge	s11,a5,12310 <_vfprintf_r+0xf48>
   1232c:	65a2                	ld	a1,8(sp)
   1232e:	6502                	ld	a0,0(sp)
   12330:	0990                	addi	a2,sp,208
   12332:	222010ef          	jal	13554 <__sprint_r>
   12336:	e0051de3          	bnez	a0,12150 <_vfprintf_r+0xd88>
   1233a:	4341                	li	t1,16
   1233c:	7b0e                	ld	s6,224(sp)
   1233e:	47ee                	lw	a5,216(sp)
   12340:	89d2                	mv	s3,s4
   12342:	869a                	mv	a3,t1
   12344:	b7f1                	j	12310 <_vfprintf_r+0xf48>
   12346:	46ee                	lw	a3,216(sp)
   12348:	85b6                	mv	a1,a3
   1234a:	4b41                	li	s6,16
   1234c:	66e9                	lui	a3,0x1a
   1234e:	80068693          	addi	a3,a3,-2048 # 19800 <blanks.1>
   12352:	06eb5063          	bge	s6,a4,123b2 <_vfprintf_r+0xfea>
   12356:	87ce                	mv	a5,s3
   12358:	e8ca                	sd	s2,80(sp)
   1235a:	83da                	mv	t2,s6
   1235c:	429d                	li	t0,7
   1235e:	893a                	mv	s2,a4
   12360:	fcf2                	sd	t3,120(sp)
   12362:	e17a                	sd	t5,128(sp)
   12364:	e51a                	sd	t1,136(sp)
   12366:	89b6                	mv	s3,a3
   12368:	a021                	j	12370 <_vfprintf_r+0xfa8>
   1236a:	3941                	addiw	s2,s2,-16
   1236c:	0323dc63          	bge	t2,s2,123a4 <_vfprintf_r+0xfdc>
   12370:	0641                	addi	a2,a2,16
   12372:	2585                	addiw	a1,a1,1
   12374:	0137b023          	sd	s3,0(a5)
   12378:	0167b423          	sd	s6,8(a5)
   1237c:	f1b2                	sd	a2,224(sp)
   1237e:	cdae                	sw	a1,216(sp)
   12380:	07c1                	addi	a5,a5,16
   12382:	feb2d4e3          	bge	t0,a1,1236a <_vfprintf_r+0xfa2>
   12386:	65a2                	ld	a1,8(sp)
   12388:	6502                	ld	a0,0(sp)
   1238a:	0990                	addi	a2,sp,208
   1238c:	1c8010ef          	jal	13554 <__sprint_r>
   12390:	dc0510e3          	bnez	a0,12150 <_vfprintf_r+0xd88>
   12394:	43c1                	li	t2,16
   12396:	3941                	addiw	s2,s2,-16
   12398:	760e                	ld	a2,224(sp)
   1239a:	45ee                	lw	a1,216(sp)
   1239c:	87d2                	mv	a5,s4
   1239e:	429d                	li	t0,7
   123a0:	fd23c8e3          	blt	t2,s2,12370 <_vfprintf_r+0xfa8>
   123a4:	874a                	mv	a4,s2
   123a6:	7e66                	ld	t3,120(sp)
   123a8:	6946                	ld	s2,80(sp)
   123aa:	6f0a                	ld	t5,128(sp)
   123ac:	632a                	ld	t1,136(sp)
   123ae:	86ce                	mv	a3,s3
   123b0:	89be                	mv	s3,a5
   123b2:	00c70b33          	add	s6,a4,a2
   123b6:	2585                	addiw	a1,a1,1
   123b8:	00e9b423          	sd	a4,8(s3)
   123bc:	f1da                	sd	s6,224(sp)
   123be:	cdae                	sw	a1,216(sp)
   123c0:	00d9b023          	sd	a3,0(s3)
   123c4:	471d                	li	a4,7
   123c6:	4ab74663          	blt	a4,a1,12872 <_vfprintf_r+0x14aa>
   123ca:	09f14703          	lbu	a4,159(sp)
   123ce:	09c1                	addi	s3,s3,16
   123d0:	eb55                	bnez	a4,12484 <_vfprintf_r+0x10bc>
   123d2:	9e090063          	beqz	s2,115b2 <_vfprintf_r+0x1ea>
   123d6:	4901                	li	s2,0
   123d8:	9b6ff06f          	j	1158e <_vfprintf_r+0x1c6>
   123dc:	00df7633          	and	a2,t5,a3
   123e0:	e2061d63          	bnez	a2,11a1a <_vfprintf_r+0x652>
   123e4:	01b9b023          	sd	s11,0(s3)
   123e8:	00d9b423          	sd	a3,8(s3)
   123ec:	f1da                	sd	s6,224(sp)
   123ee:	cdd6                	sw	s5,216(sp)
   123f0:	479d                	li	a5,7
   123f2:	e957d963          	bge	a5,s5,11a84 <_vfprintf_r+0x6bc>
   123f6:	65a2                	ld	a1,8(sp)
   123f8:	6502                	ld	a0,0(sp)
   123fa:	0990                	addi	a2,sp,208
   123fc:	f87a                	sd	t5,48(sp)
   123fe:	156010ef          	jal	13554 <__sprint_r>
   12402:	d40517e3          	bnez	a0,12150 <_vfprintf_r+0xd88>
   12406:	7b0e                	ld	s6,224(sp)
   12408:	4aee                	lw	s5,216(sp)
   1240a:	7f42                	ld	t5,48(sp)
   1240c:	88d2                	mv	a7,s4
   1240e:	e76ff06f          	j	11a84 <_vfprintf_r+0x6bc>
   12412:	7722                	ld	a4,40(sp)
   12414:	4785                	li	a5,1
   12416:	e6e7d763          	bge	a5,a4,11a84 <_vfprintf_r+0x6bc>
   1241a:	47c5                	li	a5,17
   1241c:	00e7c463          	blt	a5,a4,12424 <_vfprintf_r+0x105c>
   12420:	79b0006f          	j	133ba <_vfprintf_r+0x1ff2>
   12424:	6765                	lui	a4,0x19
   12426:	7f070913          	addi	s2,a4,2032 # 197f0 <zeroes.0>
   1242a:	8c4a                	mv	s8,s2
   1242c:	47c1                	li	a5,16
   1242e:	894e                	mv	s2,s3
   12430:	4d9d                	li	s11,7
   12432:	89fa                	mv	s3,t5
   12434:	a021                	j	1243c <_vfprintf_r+0x1074>
   12436:	3941                	addiw	s2,s2,-16
   12438:	5b27da63          	bge	a5,s2,129ec <_vfprintf_r+0x1624>
   1243c:	0b41                	addi	s6,s6,16
   1243e:	2a85                	addiw	s5,s5,1
   12440:	0188b023          	sd	s8,0(a7)
   12444:	00f8b423          	sd	a5,8(a7)
   12448:	f1da                	sd	s6,224(sp)
   1244a:	cdd6                	sw	s5,216(sp)
   1244c:	08c1                	addi	a7,a7,16
   1244e:	ff5dd4e3          	bge	s11,s5,12436 <_vfprintf_r+0x106e>
   12452:	65a2                	ld	a1,8(sp)
   12454:	6502                	ld	a0,0(sp)
   12456:	0990                	addi	a2,sp,208
   12458:	0fc010ef          	jal	13554 <__sprint_r>
   1245c:	ce051ae3          	bnez	a0,12150 <_vfprintf_r+0xd88>
   12460:	7b0e                	ld	s6,224(sp)
   12462:	4aee                	lw	s5,216(sp)
   12464:	88d2                	mv	a7,s4
   12466:	47c1                	li	a5,16
   12468:	b7f9                	j	12436 <_vfprintf_r+0x106e>
   1246a:	8856                	mv	a6,s5
   1246c:	b2e5                	j	11e54 <_vfprintf_r+0xa8c>
   1246e:	001f7793          	andi	a5,t5,1
   12472:	96078563          	beqz	a5,115dc <_vfprintf_r+0x214>
   12476:	fc0ff06f          	j	11c36 <_vfprintf_r+0x86e>
   1247a:	000bce03          	lbu	t3,0(s7)
   1247e:	ec3e                	sd	a5,24(sp)
   12480:	864ff06f          	j	114e4 <_vfprintf_r+0x11c>
   12484:	874a                	mv	a4,s2
   12486:	4901                	li	s2,0
   12488:	8e4ff06f          	j	1156c <_vfprintf_r+0x1a4>
   1248c:	67c2                	ld	a5,16(sp)
   1248e:	8dde                	mv	s11,s7
   12490:	e31c                	sd	a5,0(a4)
   12492:	97eff06f          	j	11610 <_vfprintf_r+0x248>
   12496:	887a                	mv	a6,t5
   12498:	ba1d                	j	11dce <_vfprintf_r+0xa06>
   1249a:	66e2                	ld	a3,24(sp)
   1249c:	08010fa3          	sb	zero,159(sp)
   124a0:	87fa                	mv	a5,t5
   124a2:	0006ba83          	ld	s5,0(a3)
   124a6:	00868713          	addi	a4,a3,8
   124aa:	900351e3          	bgez	t1,11dac <_vfprintf_r+0x9e4>
   124ae:	ec3a                	sd	a4,24(sp)
   124b0:	4da5                	li	s11,9
   124b2:	8f3e                	mv	t5,a5
   124b4:	895df5e3          	bgeu	s11,s5,11d3e <_vfprintf_r+0x976>
   124b8:	ccccd7b7          	lui	a5,0xccccd
   124bc:	ccd78793          	addi	a5,a5,-819 # ffffffffcccccccd <__BSS_END__+0xffffffffcccb0dad>
   124c0:	02079b13          	slli	s6,a5,0x20
   124c4:	14c10913          	addi	s2,sp,332
   124c8:	7c26                	ld	s8,104(sp)
   124ca:	886e                	mv	a6,s11
   124cc:	9b3e                	add	s6,s6,a5
   124ce:	864a                	mv	a2,s2
   124d0:	400f7f93          	andi	t6,t5,1024
   124d4:	4681                	li	a3,0
   124d6:	0ff00d13          	li	s10,255
   124da:	a809                	j	124ec <_vfprintf_r+0x1124>
   124dc:	87d6                	mv	a5,s5
   124de:	036abab3          	mulhu	s5,s5,s6
   124e2:	866e                	mv	a2,s11
   124e4:	003ada93          	srli	s5,s5,0x3
   124e8:	02f87c63          	bgeu	a6,a5,12520 <_vfprintf_r+0x1158>
   124ec:	036ab733          	mulhu	a4,s5,s6
   124f0:	2685                	addiw	a3,a3,1
   124f2:	fff60d93          	addi	s11,a2,-1
   124f6:	830d                	srli	a4,a4,0x3
   124f8:	00271793          	slli	a5,a4,0x2
   124fc:	97ba                	add	a5,a5,a4
   124fe:	0786                	slli	a5,a5,0x1
   12500:	40fa87b3          	sub	a5,s5,a5
   12504:	0307879b          	addiw	a5,a5,48
   12508:	fef60fa3          	sb	a5,-1(a2)
   1250c:	fc0f88e3          	beqz	t6,124dc <_vfprintf_r+0x1114>
   12510:	000c4783          	lbu	a5,0(s8)
   12514:	fcd794e3          	bne	a5,a3,124dc <_vfprintf_r+0x1114>
   12518:	fda782e3          	beq	a5,s10,124dc <_vfprintf_r+0x1114>
   1251c:	5b586b63          	bltu	a6,s5,12ad2 <_vfprintf_r+0x170a>
   12520:	f4e2                	sd	s8,104(sp)
   12522:	f436                	sd	a3,40(sp)
   12524:	41b90abb          	subw	s5,s2,s11
   12528:	881a                	mv	a6,t1
   1252a:	01535363          	bge	t1,s5,12530 <_vfprintf_r+0x1168>
   1252e:	8856                	mv	a6,s5
   12530:	09f14703          	lbu	a4,159(sp)
   12534:	00080d1b          	sext.w	s10,a6
   12538:	829ff06f          	j	11d60 <_vfprintf_r+0x998>
   1253c:	67e2                	ld	a5,24(sp)
   1253e:	00f78693          	addi	a3,a5,15
   12542:	9ac1                	andi	a3,a3,-16
   12544:	01068793          	addi	a5,a3,16
   12548:	6298                	ld	a4,0(a3)
   1254a:	668c                	ld	a1,8(a3)
   1254c:	ec3e                	sd	a5,24(sp)
   1254e:	978ff06f          	j	116c6 <_vfprintf_r+0x2fe>
   12552:	67e2                	ld	a5,24(sp)
   12554:	07a1                	addi	a5,a5,8
   12556:	6762                	ld	a4,24(sp)
   12558:	8f36                	mv	t5,a3
   1255a:	ec3e                	sd	a5,24(sp)
   1255c:	6318                	ld	a4,0(a4)
   1255e:	8aba                	mv	s5,a4
   12560:	f80ff06f          	j	11ce0 <_vfprintf_r+0x918>
   12564:	7602                	ld	a2,32(sp)
   12566:	65e5                	lui	a1,0x19
   12568:	52058713          	addi	a4,a1,1312 # 19520 <__clzdi2+0x7e>
   1256c:	00f67693          	andi	a3,a2,15
   12570:	9736                	add	a4,a4,a3
   12572:	00074683          	lbu	a3,0(a4)
   12576:	00296f13          	ori	t5,s2,2
   1257a:	00465713          	srli	a4,a2,0x4
   1257e:	14d105a3          	sb	a3,331(sp)
   12582:	ec3e                	sd	a5,24(sp)
   12584:	2f01                	sext.w	t5,t5
   12586:	6e0703e3          	beqz	a4,1346c <_vfprintf_r+0x20a4>
   1258a:	52058593          	addi	a1,a1,1312
   1258e:	4609                	li	a2,2
   12590:	07800e13          	li	t3,120
   12594:	14b10d93          	addi	s11,sp,331
   12598:	00f77793          	andi	a5,a4,15
   1259c:	97ae                	add	a5,a5,a1
   1259e:	0007c783          	lbu	a5,0(a5)
   125a2:	8311                	srli	a4,a4,0x4
   125a4:	1dfd                	addi	s11,s11,-1
   125a6:	00fd8023          	sb	a5,0(s11)
   125aa:	f77d                	bnez	a4,12598 <_vfprintf_r+0x11d0>
   125ac:	14c10893          	addi	a7,sp,332
   125b0:	41b88abb          	subw	s5,a7,s11
   125b4:	881a                	mv	a6,t1
   125b6:	01535363          	bge	t1,s5,125bc <_vfprintf_r+0x11f4>
   125ba:	8856                	mv	a6,s5
   125bc:	00080d1b          	sext.w	s10,a6
   125c0:	f002                	sd	zero,32(sp)
   125c2:	fc02                	sd	zero,56(sp)
   125c4:	f802                	sd	zero,48(sp)
   125c6:	4c01                	li	s8,0
   125c8:	4501                	li	a0,0
   125ca:	bfaff06f          	j	119c4 <_vfprintf_r+0x5fc>
   125ce:	873e                	mv	a4,a5
   125d0:	0007091b          	sext.w	s2,a4
   125d4:	c7204be3          	bgtz	s2,1224a <_vfprintf_r+0xe82>
   125d8:	b171                	j	12264 <_vfprintf_r+0xe9c>
   125da:	537d                	li	t1,-1
   125dc:	b47d                	j	1208a <_vfprintf_r+0xcc2>
   125de:	65e5                	lui	a1,0x19
   125e0:	8f4a                	mv	t5,s2
   125e2:	835a                	mv	t1,s6
   125e4:	53858593          	addi	a1,a1,1336 # 19538 <__clzdi2+0x96>
   125e8:	66e2                	ld	a3,24(sp)
   125ea:	020f7713          	andi	a4,t5,32
   125ee:	00868793          	addi	a5,a3,8
   125f2:	1a070b63          	beqz	a4,127a8 <_vfprintf_r+0x13e0>
   125f6:	6298                	ld	a4,0(a3)
   125f8:	001f7693          	andi	a3,t5,1
   125fc:	16068863          	beqz	a3,1276c <_vfprintf_r+0x13a4>
   12600:	2a070f63          	beqz	a4,128be <_vfprintf_r+0x14f6>
   12604:	03000693          	li	a3,48
   12608:	0bc100a3          	sb	t3,161(sp)
   1260c:	08010fa3          	sb	zero,159(sp)
   12610:	0ad10023          	sb	a3,160(sp)
   12614:	1c034d63          	bltz	t1,127ee <_vfprintf_r+0x1426>
   12618:	b7ff7f13          	andi	t5,t5,-1153
   1261c:	2f01                	sext.w	t5,t5
   1261e:	002f6f13          	ori	t5,t5,2
   12622:	00f77693          	andi	a3,a4,15
   12626:	96ae                	add	a3,a3,a1
   12628:	0006c683          	lbu	a3,0(a3)
   1262c:	002f7613          	andi	a2,t5,2
   12630:	ec3e                	sd	a5,24(sp)
   12632:	14d105a3          	sb	a3,331(sp)
   12636:	8311                	srli	a4,a4,0x4
   12638:	ff31                	bnez	a4,12594 <_vfprintf_r+0x11cc>
   1263a:	14b10d93          	addi	s11,sp,331
   1263e:	b7bd                	j	125ac <_vfprintf_r+0x11e4>
   12640:	65e5                	lui	a1,0x19
   12642:	8f4a                	mv	t5,s2
   12644:	835a                	mv	t1,s6
   12646:	52058593          	addi	a1,a1,1312 # 19520 <__clzdi2+0x7e>
   1264a:	bf79                	j	125e8 <_vfprintf_r+0x1220>
   1264c:	65a2                	ld	a1,8(sp)
   1264e:	6502                	ld	a0,0(sp)
   12650:	0990                	addi	a2,sp,208
   12652:	f87a                	sd	t5,48(sp)
   12654:	701000ef          	jal	13554 <__sprint_r>
   12658:	ae051ce3          	bnez	a0,12150 <_vfprintf_r+0xd88>
   1265c:	7b0e                	ld	s6,224(sp)
   1265e:	7f42                	ld	t5,48(sp)
   12660:	89d2                	mv	s3,s4
   12662:	df2ff06f          	j	11c54 <_vfprintf_r+0x88c>
   12666:	02096f13          	ori	t5,s2,32
   1266a:	001bce03          	lbu	t3,1(s7)
   1266e:	000f091b          	sext.w	s2,t5
   12672:	0b85                	addi	s7,s7,1
   12674:	e71fe06f          	j	114e4 <_vfprintf_r+0x11c>
   12678:	20096f13          	ori	t5,s2,512
   1267c:	001bce03          	lbu	t3,1(s7)
   12680:	000f091b          	sext.w	s2,t5
   12684:	0b85                	addi	s7,s7,1
   12686:	e5ffe06f          	j	114e4 <_vfprintf_r+0x11c>
   1268a:	4681                	li	a3,0
   1268c:	bef9                	j	1226a <_vfprintf_r+0xea2>
   1268e:	4799                	li	a5,6
   12690:	885a                	mv	a6,s6
   12692:	6967e263          	bltu	a5,s6,12d16 <_vfprintf_r+0x194e>
   12696:	00080d1b          	sext.w	s10,a6
   1269a:	67e5                	lui	a5,0x19
   1269c:	ec4a                	sd	s2,24(sp)
   1269e:	8aea                	mv	s5,s10
   126a0:	55078d93          	addi	s11,a5,1360 # 19550 <__clzdi2+0xae>
   126a4:	c82ff06f          	j	11b26 <_vfprintf_r+0x75e>
   126a8:	6765                	lui	a4,0x19
   126aa:	48c1                	li	a7,16
   126ac:	466e                	lw	a2,216(sp)
   126ae:	7f070913          	addi	s2,a4,2032 # 197f0 <zeroes.0>
   126b2:	3f58d763          	bge	a7,s5,12aa0 <_vfprintf_r+0x16d8>
   126b6:	87ce                	mv	a5,s3
   126b8:	8e46                	mv	t3,a7
   126ba:	89ca                	mv	s3,s2
   126bc:	431d                	li	t1,7
   126be:	8956                	mv	s2,s5
   126c0:	8afa                	mv	s5,t5
   126c2:	a021                	j	126ca <_vfprintf_r+0x1302>
   126c4:	3941                	addiw	s2,s2,-16
   126c6:	3d2e5963          	bge	t3,s2,12a98 <_vfprintf_r+0x16d0>
   126ca:	0b41                	addi	s6,s6,16
   126cc:	2605                	addiw	a2,a2,1
   126ce:	0137b023          	sd	s3,0(a5)
   126d2:	0117b423          	sd	a7,8(a5)
   126d6:	f1da                	sd	s6,224(sp)
   126d8:	cdb2                	sw	a2,216(sp)
   126da:	07c1                	addi	a5,a5,16
   126dc:	fec354e3          	bge	t1,a2,126c4 <_vfprintf_r+0x12fc>
   126e0:	65a2                	ld	a1,8(sp)
   126e2:	6502                	ld	a0,0(sp)
   126e4:	0990                	addi	a2,sp,208
   126e6:	66f000ef          	jal	13554 <__sprint_r>
   126ea:	a60513e3          	bnez	a0,12150 <_vfprintf_r+0xd88>
   126ee:	4e41                	li	t3,16
   126f0:	7b0e                	ld	s6,224(sp)
   126f2:	466e                	lw	a2,216(sp)
   126f4:	87d2                	mv	a5,s4
   126f6:	431d                	li	t1,7
   126f8:	88f2                	mv	a7,t3
   126fa:	b7e9                	j	126c4 <_vfprintf_r+0x12fc>
   126fc:	07800793          	li	a5,120
   12700:	0af100a3          	sb	a5,161(sp)
   12704:	002f6793          	ori	a5,t5,2
   12708:	03000713          	li	a4,48
   1270c:	2781                	sext.w	a5,a5
   1270e:	0ae10023          	sb	a4,160(sp)
   12712:	f83e                	sd	a5,48(sp)
   12714:	06300713          	li	a4,99
   12718:	6c674b63          	blt	a4,t1,12dee <_vfprintf_r+0x1a26>
   1271c:	678e                	ld	a5,192(sp)
   1271e:	6aae                	ld	s5,200(sp)
   12720:	102f6f13          	ori	t5,t5,258
   12724:	2f01                	sext.w	t5,t5
   12726:	8c3e                	mv	s8,a5
   12728:	2a0ac3e3          	bltz	s5,131ce <_vfprintf_r+0x1e06>
   1272c:	fbfe069b          	addiw	a3,t3,-65
   12730:	f002                	sd	zero,32(sp)
   12732:	0e810d93          	addi	s11,sp,232
   12736:	e882                	sd	zero,80(sp)
   12738:	818ff06f          	j	11750 <_vfprintf_r+0x388>
   1273c:	8f2a                	mv	t5,a0
   1273e:	ec3e                	sd	a5,24(sp)
   12740:	4c01                	li	s8,0
   12742:	4a81                	li	s5,0
   12744:	fc02                	sd	zero,56(sp)
   12746:	4501                	li	a0,0
   12748:	07800e13          	li	t3,120
   1274c:	14c10d93          	addi	s11,sp,332
   12750:	4d09                	li	s10,2
   12752:	41ac873b          	subw	a4,s9,s10
   12756:	00e04963          	bgtz	a4,12768 <_vfprintf_r+0x13a0>
   1275a:	4901                	li	s2,0
   1275c:	e119                	bnez	a0,12762 <_vfprintf_r+0x139a>
   1275e:	e31fe06f          	j	1158e <_vfprintf_r+0x1c6>
   12762:	4709                	li	a4,2
   12764:	e09fe06f          	j	1156c <_vfprintf_r+0x1a4>
   12768:	4909                	li	s2,2
   1276a:	bef9                	j	12348 <_vfprintf_r+0xf80>
   1276c:	08010fa3          	sb	zero,159(sp)
   12770:	08034263          	bltz	t1,127f4 <_vfprintf_r+0x142c>
   12774:	b7ff7f13          	andi	t5,t5,-1153
   12778:	2f01                	sext.w	t5,t5
   1277a:	ea0714e3          	bnez	a4,12622 <_vfprintf_r+0x125a>
   1277e:	08030863          	beqz	t1,1280e <_vfprintf_r+0x1446>
   12782:	0005c703          	lbu	a4,0(a1)
   12786:	881a                	mv	a6,t1
   12788:	14e105a3          	sb	a4,331(sp)
   1278c:	5c605b63          	blez	t1,12d62 <_vfprintf_r+0x199a>
   12790:	00080d1b          	sext.w	s10,a6
   12794:	ec3e                	sd	a5,24(sp)
   12796:	f002                	sd	zero,32(sp)
   12798:	4a85                	li	s5,1
   1279a:	fc02                	sd	zero,56(sp)
   1279c:	f802                	sd	zero,48(sp)
   1279e:	4c01                	li	s8,0
   127a0:	14b10d93          	addi	s11,sp,331
   127a4:	db3fe06f          	j	11556 <_vfprintf_r+0x18e>
   127a8:	010f7713          	andi	a4,t5,16
   127ac:	10070063          	beqz	a4,128ac <_vfprintf_r+0x14e4>
   127b0:	6762                	ld	a4,24(sp)
   127b2:	6318                	ld	a4,0(a4)
   127b4:	b591                	j	125f8 <_vfprintf_r+0x1230>
   127b6:	65a2                	ld	a1,8(sp)
   127b8:	6502                	ld	a0,0(sp)
   127ba:	0990                	addi	a2,sp,208
   127bc:	f87a                	sd	t5,48(sp)
   127be:	597000ef          	jal	13554 <__sprint_r>
   127c2:	980517e3          	bnez	a0,12150 <_vfprintf_r+0xd88>
   127c6:	7b0e                	ld	s6,224(sp)
   127c8:	4aee                	lw	s5,216(sp)
   127ca:	7f42                	ld	t5,48(sp)
   127cc:	88d2                	mv	a7,s4
   127ce:	a60ff06f          	j	11a2e <_vfprintf_r+0x666>
   127d2:	65a2                	ld	a1,8(sp)
   127d4:	6502                	ld	a0,0(sp)
   127d6:	0990                	addi	a2,sp,208
   127d8:	f87a                	sd	t5,48(sp)
   127da:	57b000ef          	jal	13554 <__sprint_r>
   127de:	960519e3          	bnez	a0,12150 <_vfprintf_r+0xd88>
   127e2:	7b0e                	ld	s6,224(sp)
   127e4:	4aee                	lw	s5,216(sp)
   127e6:	7f42                	ld	t5,48(sp)
   127e8:	88d2                	mv	a7,s4
   127ea:	a60ff06f          	j	11a4a <_vfprintf_r+0x682>
   127ee:	002f6f13          	ori	t5,t5,2
   127f2:	2f01                	sext.w	t5,t5
   127f4:	00f77693          	andi	a3,a4,15
   127f8:	96ae                	add	a3,a3,a1
   127fa:	bfff7513          	andi	a0,t5,-1025
   127fe:	002f7613          	andi	a2,t5,2
   12802:	0006c683          	lbu	a3,0(a3)
   12806:	ec3e                	sd	a5,24(sp)
   12808:	00050f1b          	sext.w	t5,a0
   1280c:	b51d                	j	12632 <_vfprintf_r+0x126a>
   1280e:	ec3e                	sd	a5,24(sp)
   12810:	4a81                	li	s5,0
   12812:	4d01                	li	s10,0
   12814:	14c10d93          	addi	s11,sp,332
   12818:	e40ff06f          	j	11e58 <_vfprintf_r+0xa90>
   1281c:	476e                	lw	a4,216(sp)
   1281e:	66e5                	lui	a3,0x19
   12820:	55868693          	addi	a3,a3,1368 # 19558 <__clzdi2+0xb6>
   12824:	0b05                	addi	s6,s6,1
   12826:	2705                	addiw	a4,a4,1
   12828:	4585                	li	a1,1
   1282a:	00d9b023          	sd	a3,0(s3)
   1282e:	00b9b423          	sd	a1,8(s3)
   12832:	f1da                	sd	s6,224(sp)
   12834:	cdba                	sw	a4,216(sp)
   12836:	469d                	li	a3,7
   12838:	09c1                	addi	s3,s3,16
   1283a:	48e6c963          	blt	a3,a4,12ccc <_vfprintf_r+0x1904>
   1283e:	12061963          	bnez	a2,12970 <_vfprintf_r+0x15a8>
   12842:	77a2                	ld	a5,40(sp)
   12844:	001f7713          	andi	a4,t5,1
   12848:	8f5d                	or	a4,a4,a5
   1284a:	2701                	sext.w	a4,a4
   1284c:	e319                	bnez	a4,12852 <_vfprintf_r+0x148a>
   1284e:	d8ffe06f          	j	115dc <_vfprintf_r+0x214>
   12852:	46ee                	lw	a3,216(sp)
   12854:	6786                	ld	a5,64(sp)
   12856:	6726                	ld	a4,72(sp)
   12858:	2685                	addiw	a3,a3,1
   1285a:	9b3e                	add	s6,s6,a5
   1285c:	00e9b023          	sd	a4,0(s3)
   12860:	f1da                	sd	s6,224(sp)
   12862:	00f9b423          	sd	a5,8(s3)
   12866:	cdb6                	sw	a3,216(sp)
   12868:	471d                	li	a4,7
   1286a:	56d74063          	blt	a4,a3,12dca <_vfprintf_r+0x1a02>
   1286e:	09c1                	addi	s3,s3,16
   12870:	a20d                	j	12992 <_vfprintf_r+0x15ca>
   12872:	65a2                	ld	a1,8(sp)
   12874:	6502                	ld	a0,0(sp)
   12876:	0990                	addi	a2,sp,208
   12878:	e11a                	sd	t1,128(sp)
   1287a:	fcfa                	sd	t5,120(sp)
   1287c:	e8f2                	sd	t3,80(sp)
   1287e:	4d7000ef          	jal	13554 <__sprint_r>
   12882:	8c0517e3          	bnez	a0,12150 <_vfprintf_r+0xd88>
   12886:	09f14703          	lbu	a4,159(sp)
   1288a:	7b0e                	ld	s6,224(sp)
   1288c:	6e46                	ld	t3,80(sp)
   1288e:	7f66                	ld	t5,120(sp)
   12890:	630a                	ld	t1,128(sp)
   12892:	14070663          	beqz	a4,129de <_vfprintf_r+0x1616>
   12896:	874a                	mv	a4,s2
   12898:	45ee                	lw	a1,216(sp)
   1289a:	4901                	li	s2,0
   1289c:	89d2                	mv	s3,s4
   1289e:	ccffe06f          	j	1156c <_vfprintf_r+0x1a4>
   128a2:	4a81                	li	s5,0
   128a4:	14c10d93          	addi	s11,sp,332
   128a8:	db0ff06f          	j	11e58 <_vfprintf_r+0xa90>
   128ac:	6762                	ld	a4,24(sp)
   128ae:	040f7693          	andi	a3,t5,64
   128b2:	4318                	lw	a4,0(a4)
   128b4:	18068563          	beqz	a3,12a3e <_vfprintf_r+0x1676>
   128b8:	1742                	slli	a4,a4,0x30
   128ba:	9341                	srli	a4,a4,0x30
   128bc:	bb35                	j	125f8 <_vfprintf_r+0x1230>
   128be:	08010fa3          	sb	zero,159(sp)
   128c2:	3e034963          	bltz	t1,12cb4 <_vfprintf_r+0x18ec>
   128c6:	b7ff7f13          	andi	t5,t5,-1153
   128ca:	2f01                	sext.w	t5,t5
   128cc:	bd4d                	j	1277e <_vfprintf_r+0x13b6>
   128ce:	6502                	ld	a0,0(sp)
   128d0:	c7bfd0ef          	jal	1054a <__sinit>
   128d4:	b31fe06f          	j	11404 <_vfprintf_r+0x3c>
   128d8:	65a2                	ld	a1,8(sp)
   128da:	6502                	ld	a0,0(sp)
   128dc:	0990                	addi	a2,sp,208
   128de:	f87a                	sd	t5,48(sp)
   128e0:	475000ef          	jal	13554 <__sprint_r>
   128e4:	860516e3          	bnez	a0,12150 <_vfprintf_r+0xd88>
   128e8:	7b0e                	ld	s6,224(sp)
   128ea:	7f42                	ld	t5,48(sp)
   128ec:	89d2                	mv	s3,s4
   128ee:	b40ff06f          	j	11c2e <_vfprintf_r+0x866>
   128f2:	8f56                	mv	t5,s5
   128f4:	8aca                	mv	s5,s2
   128f6:	8962                	mv	s2,s8
   128f8:	9b56                	add	s6,s6,s5
   128fa:	2785                	addiw	a5,a5,1
   128fc:	f1da                	sd	s6,224(sp)
   128fe:	cdbe                	sw	a5,216(sp)
   12900:	0129b023          	sd	s2,0(s3)
   12904:	0159b423          	sd	s5,8(s3)
   12908:	471d                	li	a4,7
   1290a:	00f74463          	blt	a4,a5,12912 <_vfprintf_r+0x154a>
   1290e:	ccdfe06f          	j	115da <_vfprintf_r+0x212>
   12912:	990ff06f          	j	11aa2 <_vfprintf_r+0x6da>
   12916:	650e                	ld	a0,192(sp)
   12918:	65ae                	ld	a1,200(sp)
   1291a:	f7ff7f13          	andi	t5,t5,-129
   1291e:	2f01                	sext.w	t5,t5
   12920:	4601                	li	a2,0
   12922:	4681                	li	a3,0
   12924:	f872                	sd	t3,48(sp)
   12926:	f07a                	sd	t5,32(sp)
   12928:	2a3050ef          	jal	183ca <__letf2>
   1292c:	7f02                	ld	t5,32(sp)
   1292e:	7e42                	ld	t3,48(sp)
   12930:	70054a63          	bltz	a0,13044 <_vfprintf_r+0x1c7c>
   12934:	04700793          	li	a5,71
   12938:	09f14703          	lbu	a4,159(sp)
   1293c:	4bc7d563          	bge	a5,t3,12de6 <_vfprintf_r+0x1a1e>
   12940:	67e5                	lui	a5,0x19
   12942:	50878d93          	addi	s11,a5,1288 # 19508 <__clzdi2+0x66>
   12946:	14071063          	bnez	a4,12a86 <_vfprintf_r+0x16be>
   1294a:	4a8d                	li	s5,3
   1294c:	8d56                	mv	s10,s5
   1294e:	9d8ff06f          	j	11b26 <_vfprintf_r+0x75e>
   12952:	65e5                	lui	a1,0x19
   12954:	52058693          	addi	a3,a1,1312 # 19520 <__clzdi2+0x7e>
   12958:	00f77613          	andi	a2,a4,15
   1295c:	9636                	add	a2,a2,a3
   1295e:	00064683          	lbu	a3,0(a2)
   12962:	8f2a                	mv	t5,a0
   12964:	52058593          	addi	a1,a1,1312
   12968:	4609                	li	a2,2
   1296a:	07800e13          	li	t3,120
   1296e:	b1c9                	j	12630 <_vfprintf_r+0x1268>
   12970:	46ee                	lw	a3,216(sp)
   12972:	6786                	ld	a5,64(sp)
   12974:	6726                	ld	a4,72(sp)
   12976:	2685                	addiw	a3,a3,1
   12978:	9b3e                	add	s6,s6,a5
   1297a:	00e9b023          	sd	a4,0(s3)
   1297e:	00f9b423          	sd	a5,8(s3)
   12982:	f1da                	sd	s6,224(sp)
   12984:	cdb6                	sw	a3,216(sp)
   12986:	471d                	li	a4,7
   12988:	09c1                	addi	s3,s3,16
   1298a:	44d74063          	blt	a4,a3,12dca <_vfprintf_r+0x1a02>
   1298e:	74064b63          	bltz	a2,130e4 <_vfprintf_r+0x1d1c>
   12992:	77a2                	ld	a5,40(sp)
   12994:	2685                	addiw	a3,a3,1
   12996:	cdb6                	sw	a3,216(sp)
   12998:	9b3e                	add	s6,s6,a5
   1299a:	00f9b423          	sd	a5,8(s3)
   1299e:	f1da                	sd	s6,224(sp)
   129a0:	01b9b023          	sd	s11,0(s3)
   129a4:	479d                	li	a5,7
   129a6:	00d7c463          	blt	a5,a3,129ae <_vfprintf_r+0x15e6>
   129aa:	c31fe06f          	j	115da <_vfprintf_r+0x212>
   129ae:	8f4ff06f          	j	11aa2 <_vfprintf_r+0x6da>
   129b2:	856e                	mv	a0,s11
   129b4:	f07a                	sd	t5,32(sp)
   129b6:	ec72                	sd	t3,24(sp)
   129b8:	684010ef          	jal	1403c <strlen>
   129bc:	00050a9b          	sext.w	s5,a0
   129c0:	6e62                	ld	t3,24(sp)
   129c2:	7f02                	ld	t5,32(sp)
   129c4:	8756                	mv	a4,s5
   129c6:	3a0ac763          	bltz	s5,12d74 <_vfprintf_r+0x19ac>
   129ca:	09f14683          	lbu	a3,159(sp)
   129ce:	00070d1b          	sext.w	s10,a4
   129d2:	94068963          	beqz	a3,11b24 <_vfprintf_r+0x75c>
   129d6:	00170d1b          	addiw	s10,a4,1
   129da:	94aff06f          	j	11b24 <_vfprintf_r+0x75c>
   129de:	36090f63          	beqz	s2,12d5c <_vfprintf_r+0x1994>
   129e2:	45ee                	lw	a1,216(sp)
   129e4:	4901                	li	s2,0
   129e6:	89d2                	mv	s3,s4
   129e8:	ba7fe06f          	j	1158e <_vfprintf_r+0x1c6>
   129ec:	8f4e                	mv	t5,s3
   129ee:	89ca                	mv	s3,s2
   129f0:	8962                	mv	s2,s8
   129f2:	9b4e                	add	s6,s6,s3
   129f4:	2a85                	addiw	s5,s5,1
   129f6:	f1da                	sd	s6,224(sp)
   129f8:	cdd6                	sw	s5,216(sp)
   129fa:	0128b023          	sd	s2,0(a7)
   129fe:	0138b423          	sd	s3,8(a7)
   12a02:	479d                	li	a5,7
   12a04:	0157c463          	blt	a5,s5,12a0c <_vfprintf_r+0x1644>
   12a08:	87aff06f          	j	11a82 <_vfprintf_r+0x6ba>
   12a0c:	b2ed                	j	123f6 <_vfprintf_r+0x102e>
   12a0e:	20097713          	andi	a4,s2,512
   12a12:	34070d63          	beqz	a4,12d6c <_vfprintf_r+0x19a4>
   12a16:	018a9a9b          	slliw	s5,s5,0x18
   12a1a:	418ada9b          	sraiw	s5,s5,0x18
   12a1e:	ec3e                	sd	a5,24(sp)
   12a20:	8756                	mv	a4,s5
   12a22:	abeff06f          	j	11ce0 <_vfprintf_r+0x918>
   12a26:	20097793          	andi	a5,s2,512
   12a2a:	08010fa3          	sb	zero,159(sp)
   12a2e:	34078e63          	beqz	a5,12d8a <_vfprintf_r+0x19c2>
   12a32:	0ffafa93          	zext.b	s5,s5
   12a36:	cc0b5563          	bgez	s6,11f00 <_vfprintf_r+0xb38>
   12a3a:	cd0ff06f          	j	11f0a <_vfprintf_r+0xb42>
   12a3e:	200f7693          	andi	a3,t5,512
   12a42:	34068163          	beqz	a3,12d84 <_vfprintf_r+0x19bc>
   12a46:	0ff77713          	zext.b	a4,a4
   12a4a:	b67d                	j	125f8 <_vfprintf_r+0x1230>
   12a4c:	20097693          	andi	a3,s2,512
   12a50:	32068463          	beqz	a3,12d78 <_vfprintf_r+0x19b0>
   12a54:	0ff77713          	zext.b	a4,a4
   12a58:	ec3e                	sd	a5,24(sp)
   12a5a:	884a                	mv	a6,s2
   12a5c:	b78ff06f          	j	11dd4 <_vfprintf_r+0xa0c>
   12a60:	67ae                	ld	a5,200(sp)
   12a62:	f7ff7f13          	andi	t5,t5,-129
   12a66:	2f01                	sext.w	t5,t5
   12a68:	03f7dc13          	srli	s8,a5,0x3f
   12a6c:	3207dc63          	bgez	a5,12da4 <_vfprintf_r+0x19dc>
   12a70:	02d00793          	li	a5,45
   12a74:	08f10fa3          	sb	a5,159(sp)
   12a78:	04700793          	li	a5,71
   12a7c:	01c7d4e3          	bge	a5,t3,13284 <_vfprintf_r+0x1ebc>
   12a80:	67e5                	lui	a5,0x19
   12a82:	51878d93          	addi	s11,a5,1304 # 19518 <__clzdi2+0x76>
   12a86:	f002                	sd	zero,32(sp)
   12a88:	4a8d                	li	s5,3
   12a8a:	4301                	li	t1,0
   12a8c:	fc02                	sd	zero,56(sp)
   12a8e:	f802                	sd	zero,48(sp)
   12a90:	4c01                	li	s8,0
   12a92:	4d11                	li	s10,4
   12a94:	ac3fe06f          	j	11556 <_vfprintf_r+0x18e>
   12a98:	8f56                	mv	t5,s5
   12a9a:	8aca                	mv	s5,s2
   12a9c:	894e                	mv	s2,s3
   12a9e:	89be                	mv	s3,a5
   12aa0:	9b56                	add	s6,s6,s5
   12aa2:	2605                	addiw	a2,a2,1
   12aa4:	0129b023          	sd	s2,0(s3)
   12aa8:	0159b423          	sd	s5,8(s3)
   12aac:	f1da                	sd	s6,224(sp)
   12aae:	cdb2                	sw	a2,216(sp)
   12ab0:	471d                	li	a4,7
   12ab2:	09c1                	addi	s3,s3,16
   12ab4:	fac75f63          	bge	a4,a2,12272 <_vfprintf_r+0xeaa>
   12ab8:	65a2                	ld	a1,8(sp)
   12aba:	6502                	ld	a0,0(sp)
   12abc:	0990                	addi	a2,sp,208
   12abe:	e8fa                	sd	t5,80(sp)
   12ac0:	295000ef          	jal	13554 <__sprint_r>
   12ac4:	e8051663          	bnez	a0,12150 <_vfprintf_r+0xd88>
   12ac8:	7b0e                	ld	s6,224(sp)
   12aca:	6f46                	ld	t5,80(sp)
   12acc:	89d2                	mv	s3,s4
   12ace:	fa4ff06f          	j	12272 <_vfprintf_r+0xeaa>
   12ad2:	7646                	ld	a2,112(sp)
   12ad4:	7586                	ld	a1,96(sp)
   12ad6:	e8fe                	sd	t6,80(sp)
   12ad8:	40cd88b3          	sub	a7,s11,a2
   12adc:	8546                	mv	a0,a7
   12ade:	fc1a                	sd	t1,56(sp)
   12ae0:	f87a                	sd	t5,48(sp)
   12ae2:	f472                	sd	t3,40(sp)
   12ae4:	f046                	sd	a7,32(sp)
   12ae6:	280010ef          	jal	13d66 <strncpy>
   12aea:	ccccd737          	lui	a4,0xccccd
   12aee:	ccd70713          	addi	a4,a4,-819 # ffffffffcccccccd <__BSS_END__+0xffffffffcccb0dad>
   12af2:	02071793          	slli	a5,a4,0x20
   12af6:	97ba                	add	a5,a5,a4
   12af8:	02fabab3          	mulhu	s5,s5,a5
   12afc:	001c4703          	lbu	a4,1(s8)
   12b00:	7882                	ld	a7,32(sp)
   12b02:	7e22                	ld	t3,40(sp)
   12b04:	00e03733          	snez	a4,a4
   12b08:	9c3a                	add	s8,s8,a4
   12b0a:	7f42                	ld	t5,48(sp)
   12b0c:	7362                	ld	t1,56(sp)
   12b0e:	6fc6                	ld	t6,80(sp)
   12b10:	fff88d93          	addi	s11,a7,-1
   12b14:	003ada93          	srli	s5,s5,0x3
   12b18:	02fab7b3          	mulhu	a5,s5,a5
   12b1c:	4685                	li	a3,1
   12b1e:	4825                	li	a6,9
   12b20:	0037d713          	srli	a4,a5,0x3
   12b24:	00271793          	slli	a5,a4,0x2
   12b28:	97ba                	add	a5,a5,a4
   12b2a:	0786                	slli	a5,a5,0x1
   12b2c:	40fa87b3          	sub	a5,s5,a5
   12b30:	0307879b          	addiw	a5,a5,48
   12b34:	fef88fa3          	sb	a5,-1(a7)
   12b38:	bae1                	j	12510 <_vfprintf_r+0x1148>
   12b3a:	77a2                	ld	a5,40(sp)
   12b3c:	e166                	sd	s9,128(sp)
   12b3e:	8cca                	mv	s9,s2
   12b40:	7942                	ld	s2,48(sp)
   12b42:	97ee                	add	a5,a5,s11
   12b44:	e8be                	sd	a5,80(sp)
   12b46:	f86a                	sd	s10,48(sp)
   12b48:	87ce                	mv	a5,s3
   12b4a:	fcde                	sd	s7,120(sp)
   12b4c:	79e2                	ld	s3,56(sp)
   12b4e:	e57a                	sd	t5,136(sp)
   12b50:	fc6e                	sd	s11,56(sp)
   12b52:	7d46                	ld	s10,112(sp)
   12b54:	6c22                	ld	s8,8(sp)
   12b56:	7da6                	ld	s11,104(sp)
   12b58:	469d                	li	a3,7
   12b5a:	4ac1                	li	s5,16
   12b5c:	875a                	mv	a4,s6
   12b5e:	07205c63          	blez	s2,12bd6 <_vfprintf_r+0x180e>
   12b62:	11305c63          	blez	s3,12c7a <_vfprintf_r+0x18b2>
   12b66:	39fd                	addiw	s3,s3,-1
   12b68:	466e                	lw	a2,216(sp)
   12b6a:	7586                	ld	a1,96(sp)
   12b6c:	976a                	add	a4,a4,s10
   12b6e:	2605                	addiw	a2,a2,1
   12b70:	e38c                	sd	a1,0(a5)
   12b72:	01a7b423          	sd	s10,8(a5)
   12b76:	f1ba                	sd	a4,224(sp)
   12b78:	cdb2                	sw	a2,216(sp)
   12b7a:	07c1                	addi	a5,a5,16
   12b7c:	10c6c263          	blt	a3,a2,12c80 <_vfprintf_r+0x18b8>
   12b80:	65c6                	ld	a1,80(sp)
   12b82:	000dc603          	lbu	a2,0(s11)
   12b86:	419588b3          	sub	a7,a1,s9
   12b8a:	0008859b          	sext.w	a1,a7
   12b8e:	0006081b          	sext.w	a6,a2
   12b92:	00b65363          	bge	a2,a1,12b98 <_vfprintf_r+0x17d0>
   12b96:	88c2                	mv	a7,a6
   12b98:	00088b1b          	sext.w	s6,a7
   12b9c:	03605263          	blez	s6,12bc0 <_vfprintf_r+0x17f8>
   12ba0:	466e                	lw	a2,216(sp)
   12ba2:	975a                	add	a4,a4,s6
   12ba4:	f1ba                	sd	a4,224(sp)
   12ba6:	2605                	addiw	a2,a2,1
   12ba8:	0197b023          	sd	s9,0(a5)
   12bac:	0167b423          	sd	s6,8(a5)
   12bb0:	cdb2                	sw	a2,216(sp)
   12bb2:	0ec6c263          	blt	a3,a2,12c96 <_vfprintf_r+0x18ce>
   12bb6:	000dc603          	lbu	a2,0(s11)
   12bba:	07c1                	addi	a5,a5,16
   12bbc:	0006081b          	sext.w	a6,a2
   12bc0:	85da                	mv	a1,s6
   12bc2:	000b5363          	bgez	s6,12bc8 <_vfprintf_r+0x1800>
   12bc6:	4581                	li	a1,0
   12bc8:	40b80b3b          	subw	s6,a6,a1
   12bcc:	03604863          	bgtz	s6,12bfc <_vfprintf_r+0x1834>
   12bd0:	9cb2                	add	s9,s9,a2
   12bd2:	f92048e3          	bgtz	s2,12b62 <_vfprintf_r+0x179a>
   12bd6:	f93048e3          	bgtz	s3,12b66 <_vfprintf_r+0x179e>
   12bda:	f4ee                	sd	s11,104(sp)
   12bdc:	89be                	mv	s3,a5
   12bde:	7de2                	ld	s11,56(sp)
   12be0:	77a2                	ld	a5,40(sp)
   12be2:	8966                	mv	s2,s9
   12be4:	8b3a                	mv	s6,a4
   12be6:	00fd8733          	add	a4,s11,a5
   12bea:	7be6                	ld	s7,120(sp)
   12bec:	6c8a                	ld	s9,128(sp)
   12bee:	6f2a                	ld	t5,136(sp)
   12bf0:	7d42                	ld	s10,48(sp)
   12bf2:	e9277663          	bgeu	a4,s2,1227e <_vfprintf_r+0xeb6>
   12bf6:	893a                	mv	s2,a4
   12bf8:	e86ff06f          	j	1227e <_vfprintf_r+0xeb6>
   12bfc:	68e5                	lui	a7,0x19
   12bfe:	466e                	lw	a2,216(sp)
   12c00:	7f088b93          	addi	s7,a7,2032 # 197f0 <zeroes.0>
   12c04:	056adc63          	bge	s5,s6,12c5c <_vfprintf_r+0x1894>
   12c08:	65e5                	lui	a1,0x19
   12c0a:	7f058b93          	addi	s7,a1,2032 # 197f0 <zeroes.0>
   12c0e:	85de                	mv	a1,s7
   12c10:	8bda                	mv	s7,s6
   12c12:	8b4e                	mv	s6,s3
   12c14:	89ca                	mv	s3,s2
   12c16:	892e                	mv	s2,a1
   12c18:	a021                	j	12c20 <_vfprintf_r+0x1858>
   12c1a:	3bc1                	addiw	s7,s7,-16
   12c1c:	037adb63          	bge	s5,s7,12c52 <_vfprintf_r+0x188a>
   12c20:	0741                	addi	a4,a4,16
   12c22:	2605                	addiw	a2,a2,1
   12c24:	0127b023          	sd	s2,0(a5)
   12c28:	0157b423          	sd	s5,8(a5)
   12c2c:	f1ba                	sd	a4,224(sp)
   12c2e:	cdb2                	sw	a2,216(sp)
   12c30:	07c1                	addi	a5,a5,16
   12c32:	fec6d4e3          	bge	a3,a2,12c1a <_vfprintf_r+0x1852>
   12c36:	6502                	ld	a0,0(sp)
   12c38:	0990                	addi	a2,sp,208
   12c3a:	85e2                	mv	a1,s8
   12c3c:	119000ef          	jal	13554 <__sprint_r>
   12c40:	22051563          	bnez	a0,12e6a <_vfprintf_r+0x1aa2>
   12c44:	3bc1                	addiw	s7,s7,-16
   12c46:	770e                	ld	a4,224(sp)
   12c48:	466e                	lw	a2,216(sp)
   12c4a:	87d2                	mv	a5,s4
   12c4c:	469d                	li	a3,7
   12c4e:	fd7ac9e3          	blt	s5,s7,12c20 <_vfprintf_r+0x1858>
   12c52:	85ca                	mv	a1,s2
   12c54:	894e                	mv	s2,s3
   12c56:	89da                	mv	s3,s6
   12c58:	8b5e                	mv	s6,s7
   12c5a:	8bae                	mv	s7,a1
   12c5c:	975a                	add	a4,a4,s6
   12c5e:	2605                	addiw	a2,a2,1
   12c60:	f1ba                	sd	a4,224(sp)
   12c62:	cdb2                	sw	a2,216(sp)
   12c64:	0177b023          	sd	s7,0(a5)
   12c68:	0167b423          	sd	s6,8(a5)
   12c6c:	2ac6cd63          	blt	a3,a2,12f26 <_vfprintf_r+0x1b5e>
   12c70:	000dc603          	lbu	a2,0(s11)
   12c74:	07c1                	addi	a5,a5,16
   12c76:	9cb2                	add	s9,s9,a2
   12c78:	bfa9                	j	12bd2 <_vfprintf_r+0x180a>
   12c7a:	1dfd                	addi	s11,s11,-1
   12c7c:	397d                	addiw	s2,s2,-1
   12c7e:	b5ed                	j	12b68 <_vfprintf_r+0x17a0>
   12c80:	6502                	ld	a0,0(sp)
   12c82:	0990                	addi	a2,sp,208
   12c84:	85e2                	mv	a1,s8
   12c86:	0cf000ef          	jal	13554 <__sprint_r>
   12c8a:	1e051063          	bnez	a0,12e6a <_vfprintf_r+0x1aa2>
   12c8e:	770e                	ld	a4,224(sp)
   12c90:	87d2                	mv	a5,s4
   12c92:	469d                	li	a3,7
   12c94:	b5f5                	j	12b80 <_vfprintf_r+0x17b8>
   12c96:	6502                	ld	a0,0(sp)
   12c98:	0990                	addi	a2,sp,208
   12c9a:	85e2                	mv	a1,s8
   12c9c:	0b9000ef          	jal	13554 <__sprint_r>
   12ca0:	1c051563          	bnez	a0,12e6a <_vfprintf_r+0x1aa2>
   12ca4:	000dc603          	lbu	a2,0(s11)
   12ca8:	770e                	ld	a4,224(sp)
   12caa:	87d2                	mv	a5,s4
   12cac:	0006081b          	sext.w	a6,a2
   12cb0:	469d                	li	a3,7
   12cb2:	b739                	j	12bc0 <_vfprintf_r+0x17f8>
   12cb4:	0005c703          	lbu	a4,0(a1)
   12cb8:	bfff7f13          	andi	t5,t5,-1025
   12cbc:	2f01                	sext.w	t5,t5
   12cbe:	14e105a3          	sb	a4,331(sp)
   12cc2:	ec3e                	sd	a5,24(sp)
   12cc4:	4601                	li	a2,0
   12cc6:	14b10d93          	addi	s11,sp,331
   12cca:	b0cd                	j	125ac <_vfprintf_r+0x11e4>
   12ccc:	65a2                	ld	a1,8(sp)
   12cce:	6502                	ld	a0,0(sp)
   12cd0:	0990                	addi	a2,sp,208
   12cd2:	f87a                	sd	t5,48(sp)
   12cd4:	081000ef          	jal	13554 <__sprint_r>
   12cd8:	c6051c63          	bnez	a0,12150 <_vfprintf_r+0xd88>
   12cdc:	562a                	lw	a2,168(sp)
   12cde:	7b0e                	ld	s6,224(sp)
   12ce0:	7f42                	ld	t5,48(sp)
   12ce2:	89d2                	mv	s3,s4
   12ce4:	bea9                	j	1283e <_vfprintf_r+0x1476>
   12ce6:	09f14703          	lbu	a4,159(sp)
   12cea:	4d01                	li	s10,0
   12cec:	14c10d93          	addi	s11,sp,332
   12cf0:	870ff06f          	j	11d60 <_vfprintf_r+0x998>
   12cf4:	65a2                	ld	a1,8(sp)
   12cf6:	6502                	ld	a0,0(sp)
   12cf8:	0990                	addi	a2,sp,208
   12cfa:	e8fa                	sd	t5,80(sp)
   12cfc:	059000ef          	jal	13554 <__sprint_r>
   12d00:	c4051863          	bnez	a0,12150 <_vfprintf_r+0xd88>
   12d04:	7b0e                	ld	s6,224(sp)
   12d06:	6f46                	ld	t5,80(sp)
   12d08:	89d2                	mv	s3,s4
   12d0a:	d5aff06f          	j	12264 <_vfprintf_r+0xe9c>
   12d0e:	00168d1b          	addiw	s10,a3,1
   12d12:	e13fe06f          	j	11b24 <_vfprintf_r+0x75c>
   12d16:	883e                	mv	a6,a5
   12d18:	babd                	j	12696 <_vfprintf_r+0x12ce>
   12d1a:	03000713          	li	a4,48
   12d1e:	8f2a                	mv	t5,a0
   12d20:	ec3e                	sd	a5,24(sp)
   12d22:	14e105a3          	sb	a4,331(sp)
   12d26:	8d5a                	mv	s10,s6
   12d28:	f802                	sd	zero,48(sp)
   12d2a:	fc02                	sd	zero,56(sp)
   12d2c:	4a85                	li	s5,1
   12d2e:	4c01                	li	s8,0
   12d30:	14b10d93          	addi	s11,sp,331
   12d34:	07800e13          	li	t3,120
   12d38:	4501                	li	a0,0
   12d3a:	c8ffe06f          	j	119c8 <_vfprintf_r+0x600>
   12d3e:	873e                	mv	a4,a5
   12d40:	97ee                	add	a5,a5,s11
   12d42:	412787b3          	sub	a5,a5,s2
   12d46:	4157073b          	subw	a4,a4,s5
   12d4a:	0007869b          	sext.w	a3,a5
   12d4e:	00d75363          	bge	a4,a3,12d54 <_vfprintf_r+0x198c>
   12d52:	87ba                	mv	a5,a4
   12d54:	00078a9b          	sext.w	s5,a5
   12d58:	d8eff06f          	j	122e6 <_vfprintf_r+0xf1e>
   12d5c:	89d2                	mv	s3,s4
   12d5e:	855fe06f          	j	115b2 <_vfprintf_r+0x1ea>
   12d62:	4805                	li	a6,1
   12d64:	b435                	j	12790 <_vfprintf_r+0x13c8>
   12d66:	4681                	li	a3,0
   12d68:	db3fe06f          	j	11b1a <_vfprintf_r+0x752>
   12d6c:	ec3e                	sd	a5,24(sp)
   12d6e:	8756                	mv	a4,s5
   12d70:	f71fe06f          	j	11ce0 <_vfprintf_r+0x918>
   12d74:	4701                	li	a4,0
   12d76:	b991                	j	129ca <_vfprintf_r+0x1602>
   12d78:	1702                	slli	a4,a4,0x20
   12d7a:	9301                	srli	a4,a4,0x20
   12d7c:	ec3e                	sd	a5,24(sp)
   12d7e:	884a                	mv	a6,s2
   12d80:	854ff06f          	j	11dd4 <_vfprintf_r+0xa0c>
   12d84:	1702                	slli	a4,a4,0x20
   12d86:	9301                	srli	a4,a4,0x20
   12d88:	b885                	j	125f8 <_vfprintf_r+0x1230>
   12d8a:	1a82                	slli	s5,s5,0x20
   12d8c:	020ada93          	srli	s5,s5,0x20
   12d90:	960b5863          	bgez	s6,11f00 <_vfprintf_r+0xb38>
   12d94:	976ff06f          	j	11f0a <_vfprintf_r+0xb42>
   12d98:	67c2                	ld	a5,16(sp)
   12d9a:	8dde                	mv	s11,s7
   12d9c:	00f71023          	sh	a5,0(a4)
   12da0:	871fe06f          	j	11610 <_vfprintf_r+0x248>
   12da4:	04700793          	li	a5,71
   12da8:	09f14703          	lbu	a4,159(sp)
   12dac:	57c7d463          	bge	a5,t3,13314 <_vfprintf_r+0x1f4c>
   12db0:	67e5                	lui	a5,0x19
   12db2:	51878d93          	addi	s11,a5,1304 # 19518 <__clzdi2+0x76>
   12db6:	6c071a63          	bnez	a4,1348a <_vfprintf_r+0x20c2>
   12dba:	4a8d                	li	s5,3
   12dbc:	8d56                	mv	s10,s5
   12dbe:	4301                	li	t1,0
   12dc0:	fc02                	sd	zero,56(sp)
   12dc2:	f802                	sd	zero,48(sp)
   12dc4:	f002                	sd	zero,32(sp)
   12dc6:	f90fe06f          	j	11556 <_vfprintf_r+0x18e>
   12dca:	65a2                	ld	a1,8(sp)
   12dcc:	6502                	ld	a0,0(sp)
   12dce:	0990                	addi	a2,sp,208
   12dd0:	f87a                	sd	t5,48(sp)
   12dd2:	782000ef          	jal	13554 <__sprint_r>
   12dd6:	b6051d63          	bnez	a0,12150 <_vfprintf_r+0xd88>
   12dda:	562a                	lw	a2,168(sp)
   12ddc:	7b0e                	ld	s6,224(sp)
   12dde:	46ee                	lw	a3,216(sp)
   12de0:	7f42                	ld	t5,48(sp)
   12de2:	89d2                	mv	s3,s4
   12de4:	b66d                	j	1298e <_vfprintf_r+0x15c6>
   12de6:	67e5                	lui	a5,0x19
   12de8:	50078d93          	addi	s11,a5,1280 # 19500 <__clzdi2+0x5e>
   12dec:	bea9                	j	12946 <_vfprintf_r+0x157e>
   12dee:	6502                	ld	a0,0(sp)
   12df0:	0013059b          	addiw	a1,t1,1
   12df4:	e8fa                	sd	t5,80(sp)
   12df6:	fc72                	sd	t3,56(sp)
   12df8:	f41a                	sd	t1,40(sp)
   12dfa:	f9ffd0ef          	jal	10d98 <_malloc_r>
   12dfe:	f02a                	sd	a0,32(sp)
   12e00:	7322                	ld	t1,40(sp)
   12e02:	7e62                	ld	t3,56(sp)
   12e04:	6f46                	ld	t5,80(sp)
   12e06:	64050a63          	beqz	a0,1345a <_vfprintf_r+0x2092>
   12e0a:	678e                	ld	a5,192(sp)
   12e0c:	6aae                	ld	s5,200(sp)
   12e0e:	102f6f13          	ori	t5,t5,258
   12e12:	2f01                	sext.w	t5,t5
   12e14:	8c3e                	mv	s8,a5
   12e16:	5c0ac163          	bltz	s5,133d8 <_vfprintf_r+0x2010>
   12e1a:	7d82                	ld	s11,32(sp)
   12e1c:	fbfe069b          	addiw	a3,t3,-65
   12e20:	e882                	sd	zero,80(sp)
   12e22:	92ffe06f          	j	11750 <_vfprintf_r+0x388>
   12e26:	02d00693          	li	a3,45
   12e2a:	4705                	li	a4,1
   12e2c:	0ad108a3          	sb	a3,177(sp)
   12e30:	4187073b          	subw	a4,a4,s8
   12e34:	46a5                	li	a3,9
   12e36:	00e6d463          	bge	a3,a4,12e3e <_vfprintf_r+0x1a76>
   12e3a:	ac5fe06f          	j	118fe <_vfprintf_r+0x536>
   12e3e:	0b210693          	addi	a3,sp,178
   12e42:	0b9c                	addi	a5,sp,464
   12e44:	40f68633          	sub	a2,a3,a5
   12e48:	0307071b          	addiw	a4,a4,48
   12e4c:	1216079b          	addiw	a5,a2,289
   12e50:	00e68023          	sb	a4,0(a3)
   12e54:	ecbe                	sd	a5,88(sp)
   12e56:	b21fe06f          	j	11976 <_vfprintf_r+0x5ae>
   12e5a:	09f14503          	lbu	a0,159(sp)
   12e5e:	c119                	beqz	a0,12e64 <_vfprintf_r+0x1a9c>
   12e60:	b61fe06f          	j	119c0 <_vfprintf_r+0x5f8>
   12e64:	4301                	li	t1,0
   12e66:	b5ffe06f          	j	119c4 <_vfprintf_r+0x5fc>
   12e6a:	8962                	mv	s2,s8
   12e6c:	ae6ff06f          	j	12152 <_vfprintf_r+0xd8a>
   12e70:	f41a                	sd	t1,40(sp)
   12e72:	468d                	li	a3,3
   12e74:	7722                	ld	a4,40(sp)
   12e76:	6502                	ld	a0,0(sp)
   12e78:	0b810893          	addi	a7,sp,184
   12e7c:	0ac10813          	addi	a6,sp,172
   12e80:	113c                	addi	a5,sp,168
   12e82:	85e2                	mv	a1,s8
   12e84:	8656                	mv	a2,s5
   12e86:	e11a                	sd	t1,128(sp)
   12e88:	fcfa                	sd	t5,120(sp)
   12e8a:	fc72                	sd	t3,56(sp)
   12e8c:	36e010ef          	jal	141fa <_ldtoa_r>
   12e90:	7e62                	ld	t3,56(sp)
   12e92:	7f66                	ld	t5,120(sp)
   12e94:	630a                	ld	t1,128(sp)
   12e96:	8daa                	mv	s11,a0
   12e98:	77a2                	ld	a5,40(sp)
   12e9a:	fdfe7913          	andi	s2,t3,-33
   12e9e:	04600693          	li	a3,70
   12ea2:	00fd8b33          	add	s6,s11,a5
   12ea6:	10d90663          	beq	s2,a3,12fb2 <_vfprintf_r+0x1bea>
   12eaa:	8562                	mv	a0,s8
   12eac:	85d6                	mv	a1,s5
   12eae:	4601                	li	a2,0
   12eb0:	4681                	li	a3,0
   12eb2:	e11a                	sd	t1,128(sp)
   12eb4:	fcfa                	sd	t5,120(sp)
   12eb6:	fc72                	sd	t3,56(sp)
   12eb8:	3cc050ef          	jal	18284 <__eqtf2>
   12ebc:	7e62                	ld	t3,56(sp)
   12ebe:	7f66                	ld	t5,120(sp)
   12ec0:	630a                	ld	t1,128(sp)
   12ec2:	48050d63          	beqz	a0,1335c <_vfprintf_r+0x1f94>
   12ec6:	77ea                	ld	a5,184(sp)
   12ec8:	5d67f963          	bgeu	a5,s6,1349a <_vfprintf_r+0x20d2>
   12ecc:	03000613          	li	a2,48
   12ed0:	00178713          	addi	a4,a5,1
   12ed4:	fd3a                	sd	a4,184(sp)
   12ed6:	00c78023          	sb	a2,0(a5)
   12eda:	77ea                	ld	a5,184(sp)
   12edc:	ff67eae3          	bltu	a5,s6,12ed0 <_vfprintf_r+0x1b08>
   12ee0:	41b787bb          	subw	a5,a5,s11
   12ee4:	04700693          	li	a3,71
   12ee8:	f43e                	sd	a5,40(sp)
   12eea:	5c2a                	lw	s8,168(sp)
   12eec:	06d90263          	beq	s2,a3,12f50 <_vfprintf_r+0x1b88>
   12ef0:	04600693          	li	a3,70
   12ef4:	0ed90f63          	beq	s2,a3,12ff2 <_vfprintf_r+0x1c2a>
   12ef8:	fffc071b          	addiw	a4,s8,-1
   12efc:	d53a                	sw	a4,168(sp)
   12efe:	0bc10823          	sb	t3,176(sp)
   12f02:	16074363          	bltz	a4,13068 <_vfprintf_r+0x1ca0>
   12f06:	02b00693          	li	a3,43
   12f0a:	0ad108a3          	sb	a3,177(sp)
   12f0e:	46a5                	li	a3,9
   12f10:	00e6d463          	bge	a3,a4,12f18 <_vfprintf_r+0x1b50>
   12f14:	9ebfe06f          	j	118fe <_vfprintf_r+0x536>
   12f18:	03000693          	li	a3,48
   12f1c:	0ad10923          	sb	a3,178(sp)
   12f20:	0b310693          	addi	a3,sp,179
   12f24:	bf39                	j	12e42 <_vfprintf_r+0x1a7a>
   12f26:	6502                	ld	a0,0(sp)
   12f28:	0990                	addi	a2,sp,208
   12f2a:	85e2                	mv	a1,s8
   12f2c:	628000ef          	jal	13554 <__sprint_r>
   12f30:	fd0d                	bnez	a0,12e6a <_vfprintf_r+0x1aa2>
   12f32:	000dc603          	lbu	a2,0(s11)
   12f36:	770e                	ld	a4,224(sp)
   12f38:	87d2                	mv	a5,s4
   12f3a:	469d                	li	a3,7
   12f3c:	9cb2                	add	s9,s9,a2
   12f3e:	b951                	j	12bd2 <_vfprintf_r+0x180a>
   12f40:	5c2a                	lw	s8,168(sp)
   12f42:	41bb07bb          	subw	a5,s6,s11
   12f46:	04700693          	li	a3,71
   12f4a:	f43e                	sd	a5,40(sp)
   12f4c:	0ad91363          	bne	s2,a3,12ff2 <_vfprintf_r+0x1c2a>
   12f50:	5775                	li	a4,-3
   12f52:	10ec4563          	blt	s8,a4,1305c <_vfprintf_r+0x1c94>
   12f56:	03835263          	bge	t1,s8,12f7a <_vfprintf_r+0x1bb2>
   12f5a:	3e79                	addiw	t3,t3,-2
   12f5c:	fffc071b          	addiw	a4,s8,-1
   12f60:	0bc10823          	sb	t3,176(sp)
   12f64:	d53a                	sw	a4,168(sp)
   12f66:	fa0750e3          	bgez	a4,12f06 <_vfprintf_r+0x1b3e>
   12f6a:	4705                	li	a4,1
   12f6c:	02d00693          	li	a3,45
   12f70:	4187073b          	subw	a4,a4,s8
   12f74:	0ad108a3          	sb	a3,177(sp)
   12f78:	b745                	j	12f18 <_vfprintf_r+0x1b50>
   12f7a:	77a2                	ld	a5,40(sp)
   12f7c:	14fc4063          	blt	s8,a5,130bc <_vfprintf_r+0x1cf4>
   12f80:	77c2                	ld	a5,48(sp)
   12f82:	8ae2                	mv	s5,s8
   12f84:	0017f713          	andi	a4,a5,1
   12f88:	c701                	beqz	a4,12f90 <_vfprintf_r+0x1bc8>
   12f8a:	6786                	ld	a5,64(sp)
   12f8c:	01878abb          	addw	s5,a5,s8
   12f90:	77c2                	ld	a5,48(sp)
   12f92:	4007f713          	andi	a4,a5,1024
   12f96:	c319                	beqz	a4,12f9c <_vfprintf_r+0x1bd4>
   12f98:	2f804b63          	bgtz	s8,1328e <_vfprintf_r+0x1ec6>
   12f9c:	8856                	mv	a6,s5
   12f9e:	120ace63          	bltz	s5,130da <_vfprintf_r+0x1d12>
   12fa2:	00080d1b          	sext.w	s10,a6
   12fa6:	06700e13          	li	t3,103
   12faa:	fc02                	sd	zero,56(sp)
   12fac:	f802                	sd	zero,48(sp)
   12fae:	9fffe06f          	j	119ac <_vfprintf_r+0x5e4>
   12fb2:	000dc603          	lbu	a2,0(s11)
   12fb6:	03000693          	li	a3,48
   12fba:	32d60d63          	beq	a2,a3,132f4 <_vfprintf_r+0x1f2c>
   12fbe:	56aa                	lw	a3,168(sp)
   12fc0:	9b36                	add	s6,s6,a3
   12fc2:	8562                	mv	a0,s8
   12fc4:	85d6                	mv	a1,s5
   12fc6:	4601                	li	a2,0
   12fc8:	4681                	li	a3,0
   12fca:	fc9a                	sd	t1,120(sp)
   12fcc:	fc7a                	sd	t5,56(sp)
   12fce:	f472                	sd	t3,40(sp)
   12fd0:	2b4050ef          	jal	18284 <__eqtf2>
   12fd4:	7e22                	ld	t3,40(sp)
   12fd6:	7f62                	ld	t5,56(sp)
   12fd8:	7366                	ld	t1,120(sp)
   12fda:	d13d                	beqz	a0,12f40 <_vfprintf_r+0x1b78>
   12fdc:	77ea                	ld	a5,184(sp)
   12fde:	ef67e7e3          	bltu	a5,s6,12ecc <_vfprintf_r+0x1b04>
   12fe2:	41b787bb          	subw	a5,a5,s11
   12fe6:	04700693          	li	a3,71
   12fea:	f43e                	sd	a5,40(sp)
   12fec:	5c2a                	lw	s8,168(sp)
   12fee:	f6d901e3          	beq	s2,a3,12f50 <_vfprintf_r+0x1b88>
   12ff2:	77c2                	ld	a5,48(sp)
   12ff4:	0017f713          	andi	a4,a5,1
   12ff8:	00e36733          	or	a4,t1,a4
   12ffc:	43805463          	blez	s8,13424 <_vfprintf_r+0x205c>
   13000:	36071463          	bnez	a4,13368 <_vfprintf_r+0x1fa0>
   13004:	8ae2                	mv	s5,s8
   13006:	06600e13          	li	t3,102
   1300a:	77c2                	ld	a5,48(sp)
   1300c:	4007f713          	andi	a4,a5,1024
   13010:	28071163          	bnez	a4,13292 <_vfprintf_r+0x1eca>
   13014:	8856                	mv	a6,s5
   13016:	000ac563          	bltz	s5,13020 <_vfprintf_r+0x1c58>
   1301a:	00080d1b          	sext.w	s10,a6
   1301e:	b771                	j	12faa <_vfprintf_r+0x1be2>
   13020:	4801                	li	a6,0
   13022:	00080d1b          	sext.w	s10,a6
   13026:	b751                	j	12faa <_vfprintf_r+0x1be2>
   13028:	65a2                	ld	a1,8(sp)
   1302a:	6502                	ld	a0,0(sp)
   1302c:	0990                	addi	a2,sp,208
   1302e:	f87a                	sd	t5,48(sp)
   13030:	524000ef          	jal	13554 <__sprint_r>
   13034:	90051e63          	bnez	a0,12150 <_vfprintf_r+0xd88>
   13038:	5aaa                	lw	s5,168(sp)
   1303a:	7b0e                	ld	s6,224(sp)
   1303c:	7f42                	ld	t5,48(sp)
   1303e:	89d2                	mv	s3,s4
   13040:	a6cff06f          	j	122ac <_vfprintf_r+0xee4>
   13044:	02d00793          	li	a5,45
   13048:	08f10fa3          	sb	a5,159(sp)
   1304c:	04700793          	li	a5,71
   13050:	21c7d063          	bge	a5,t3,13250 <_vfprintf_r+0x1e88>
   13054:	67e5                	lui	a5,0x19
   13056:	50878d93          	addi	s11,a5,1288 # 19508 <__clzdi2+0x66>
   1305a:	b435                	j	12a86 <_vfprintf_r+0x16be>
   1305c:	3e79                	addiw	t3,t3,-2
   1305e:	fffc071b          	addiw	a4,s8,-1
   13062:	0bc10823          	sb	t3,176(sp)
   13066:	d53a                	sw	a4,168(sp)
   13068:	02d00693          	li	a3,45
   1306c:	4705                	li	a4,1
   1306e:	0ad108a3          	sb	a3,177(sp)
   13072:	4187073b          	subw	a4,a4,s8
   13076:	46a5                	li	a3,9
   13078:	00e6d463          	bge	a3,a4,13080 <_vfprintf_r+0x1cb8>
   1307c:	883fe06f          	j	118fe <_vfprintf_r+0x536>
   13080:	bd61                	j	12f18 <_vfprintf_r+0x1b50>
   13082:	ec4a                	sd	s2,24(sp)
   13084:	12070963          	beqz	a4,131b6 <_vfprintf_r+0x1dee>
   13088:	00130d1b          	addiw	s10,t1,1
   1308c:	8a9a                	mv	s5,t1
   1308e:	fc02                	sd	zero,56(sp)
   13090:	4301                	li	t1,0
   13092:	f802                	sd	zero,48(sp)
   13094:	4c01                	li	s8,0
   13096:	cc0fe06f          	j	11556 <_vfprintf_r+0x18e>
   1309a:	65a2                	ld	a1,8(sp)
   1309c:	6502                	ld	a0,0(sp)
   1309e:	0990                	addi	a2,sp,208
   130a0:	f87a                	sd	t5,48(sp)
   130a2:	4b2000ef          	jal	13554 <__sprint_r>
   130a6:	8a051563          	bnez	a0,12150 <_vfprintf_r+0xd88>
   130aa:	572a                	lw	a4,168(sp)
   130ac:	77a2                	ld	a5,40(sp)
   130ae:	7b0e                	ld	s6,224(sp)
   130b0:	7f42                	ld	t5,48(sp)
   130b2:	89d2                	mv	s3,s4
   130b4:	40e7873b          	subw	a4,a5,a4
   130b8:	a2eff06f          	j	122e6 <_vfprintf_r+0xf1e>
   130bc:	6786                	ld	a5,64(sp)
   130be:	7722                	ld	a4,40(sp)
   130c0:	06700e13          	li	t3,103
   130c4:	00e78abb          	addw	s5,a5,a4
   130c8:	f58041e3          	bgtz	s8,1300a <_vfprintf_r+0x1c42>
   130cc:	418a88bb          	subw	a7,s5,s8
   130d0:	00188a9b          	addiw	s5,a7,1
   130d4:	8856                	mv	a6,s5
   130d6:	ec0ad6e3          	bgez	s5,12fa2 <_vfprintf_r+0x1bda>
   130da:	4801                	li	a6,0
   130dc:	b5d9                	j	12fa2 <_vfprintf_r+0x1bda>
   130de:	86ca                	mv	a3,s2
   130e0:	c76ff06f          	j	12556 <_vfprintf_r+0x118e>
   130e4:	5741                	li	a4,-16
   130e6:	40c00abb          	negw	s5,a2
   130ea:	36e65463          	bge	a2,a4,13452 <_vfprintf_r+0x208a>
   130ee:	6765                	lui	a4,0x19
   130f0:	7f070913          	addi	s2,a4,2032 # 197f0 <zeroes.0>
   130f4:	48c1                	li	a7,16
   130f6:	431d                	li	t1,7
   130f8:	8c7a                	mv	s8,t5
   130fa:	a021                	j	13102 <_vfprintf_r+0x1d3a>
   130fc:	3ac1                	addiw	s5,s5,-16
   130fe:	1158de63          	bge	a7,s5,1321a <_vfprintf_r+0x1e52>
   13102:	0b41                	addi	s6,s6,16
   13104:	2685                	addiw	a3,a3,1
   13106:	0129b023          	sd	s2,0(s3)
   1310a:	0119b423          	sd	a7,8(s3)
   1310e:	f1da                	sd	s6,224(sp)
   13110:	cdb6                	sw	a3,216(sp)
   13112:	09c1                	addi	s3,s3,16
   13114:	fed354e3          	bge	t1,a3,130fc <_vfprintf_r+0x1d34>
   13118:	65a2                	ld	a1,8(sp)
   1311a:	6502                	ld	a0,0(sp)
   1311c:	0990                	addi	a2,sp,208
   1311e:	436000ef          	jal	13554 <__sprint_r>
   13122:	c119                	beqz	a0,13128 <_vfprintf_r+0x1d60>
   13124:	82cff06f          	j	12150 <_vfprintf_r+0xd88>
   13128:	7b0e                	ld	s6,224(sp)
   1312a:	46ee                	lw	a3,216(sp)
   1312c:	89d2                	mv	s3,s4
   1312e:	431d                	li	t1,7
   13130:	48c1                	li	a7,16
   13132:	b7e9                	j	130fc <_vfprintf_r+0x1d34>
   13134:	0013079b          	addiw	a5,t1,1
   13138:	f43e                	sd	a5,40(sp)
   1313a:	4689                	li	a3,2
   1313c:	bb25                	j	12e74 <_vfprintf_r+0x1aac>
   1313e:	00031363          	bnez	t1,13144 <_vfprintf_r+0x1d7c>
   13142:	8336                	mv	t1,a3
   13144:	1e0ad463          	bgez	s5,1332c <_vfprintf_r+0x1f64>
   13148:	177e                	slli	a4,a4,0x3f
   1314a:	02d00793          	li	a5,45
   1314e:	f87a                	sd	t5,48(sp)
   13150:	00eacab3          	xor	s5,s5,a4
   13154:	f002                	sd	zero,32(sp)
   13156:	8f5a                	mv	t5,s6
   13158:	e8be                	sd	a5,80(sp)
   1315a:	6502                	ld	a0,0(sp)
   1315c:	871a                	mv	a4,t1
   1315e:	0b810893          	addi	a7,sp,184
   13162:	0ac10813          	addi	a6,sp,172
   13166:	113c                	addi	a5,sp,168
   13168:	4689                	li	a3,2
   1316a:	85e2                	mv	a1,s8
   1316c:	8656                	mv	a2,s5
   1316e:	fcfa                	sd	t5,120(sp)
   13170:	fc72                	sd	t3,56(sp)
   13172:	f41a                	sd	t1,40(sp)
   13174:	086010ef          	jal	141fa <_ldtoa_r>
   13178:	7e62                	ld	t3,56(sp)
   1317a:	04700713          	li	a4,71
   1317e:	7322                	ld	t1,40(sp)
   13180:	7f66                	ld	t5,120(sp)
   13182:	8daa                	mv	s11,a0
   13184:	30ee1163          	bne	t3,a4,13486 <_vfprintf_r+0x20be>
   13188:	77c2                	ld	a5,48(sp)
   1318a:	0017f713          	andi	a4,a5,1
   1318e:	ef19                	bnez	a4,131ac <_vfprintf_r+0x1de4>
   13190:	77ea                	ld	a5,184(sp)
   13192:	5c2a                	lw	s8,168(sp)
   13194:	5775                	li	a4,-3
   13196:	41b787bb          	subw	a5,a5,s11
   1319a:	f43e                	sd	a5,40(sp)
   1319c:	ecec40e3          	blt	s8,a4,1305c <_vfprintf_r+0x1c94>
   131a0:	db834de3          	blt	t1,s8,12f5a <_vfprintf_r+0x1b92>
   131a4:	f0fc4ce3          	blt	s8,a5,130bc <_vfprintf_r+0x1cf4>
   131a8:	8ae2                	mv	s5,s8
   131aa:	b3dd                	j	12f90 <_vfprintf_r+0x1bc8>
   131ac:	006d8b33          	add	s6,s11,t1
   131b0:	04700913          	li	s2,71
   131b4:	b539                	j	12fc2 <_vfprintf_r+0x1bfa>
   131b6:	8a9a                	mv	s5,t1
   131b8:	8d1a                	mv	s10,t1
   131ba:	fc02                	sd	zero,56(sp)
   131bc:	4301                	li	t1,0
   131be:	f802                	sd	zero,48(sp)
   131c0:	4c01                	li	s8,0
   131c2:	b94fe06f          	j	11556 <_vfprintf_r+0x18e>
   131c6:	c31c                	sw	a5,0(a4)
   131c8:	8dde                	mv	s11,s7
   131ca:	c46fe06f          	j	11610 <_vfprintf_r+0x248>
   131ce:	f002                	sd	zero,32(sp)
   131d0:	0e810d93          	addi	s11,sp,232
   131d4:	577d                	li	a4,-1
   131d6:	177e                	slli	a4,a4,0x3f
   131d8:	02d00793          	li	a5,45
   131dc:	00eacab3          	xor	s5,s5,a4
   131e0:	e8be                	sd	a5,80(sp)
   131e2:	fbfe069b          	addiw	a3,t3,-65
   131e6:	02600713          	li	a4,38
   131ea:	00e68463          	beq	a3,a4,131f2 <_vfprintf_r+0x1e2a>
   131ee:	d62fe06f          	j	11750 <_vfprintf_r+0x388>
   131f2:	6502                	ld	a0,0(sp)
   131f4:	871a                	mv	a4,t1
   131f6:	0b810893          	addi	a7,sp,184
   131fa:	0ac10813          	addi	a6,sp,172
   131fe:	113c                	addi	a5,sp,168
   13200:	4689                	li	a3,2
   13202:	85e2                	mv	a1,s8
   13204:	8656                	mv	a2,s5
   13206:	fcfa                	sd	t5,120(sp)
   13208:	fc72                	sd	t3,56(sp)
   1320a:	f41a                	sd	t1,40(sp)
   1320c:	7ef000ef          	jal	141fa <_ldtoa_r>
   13210:	7322                	ld	t1,40(sp)
   13212:	7e62                	ld	t3,56(sp)
   13214:	7f66                	ld	t5,120(sp)
   13216:	8daa                	mv	s11,a0
   13218:	bf85                	j	13188 <_vfprintf_r+0x1dc0>
   1321a:	8f62                	mv	t5,s8
   1321c:	9b56                	add	s6,s6,s5
   1321e:	2685                	addiw	a3,a3,1
   13220:	f1da                	sd	s6,224(sp)
   13222:	cdb6                	sw	a3,216(sp)
   13224:	0129b023          	sd	s2,0(s3)
   13228:	0159b423          	sd	s5,8(s3)
   1322c:	471d                	li	a4,7
   1322e:	e4d75063          	bge	a4,a3,1286e <_vfprintf_r+0x14a6>
   13232:	65a2                	ld	a1,8(sp)
   13234:	6502                	ld	a0,0(sp)
   13236:	0990                	addi	a2,sp,208
   13238:	f87a                	sd	t5,48(sp)
   1323a:	31a000ef          	jal	13554 <__sprint_r>
   1323e:	c119                	beqz	a0,13244 <_vfprintf_r+0x1e7c>
   13240:	f11fe06f          	j	12150 <_vfprintf_r+0xd88>
   13244:	7b0e                	ld	s6,224(sp)
   13246:	46ee                	lw	a3,216(sp)
   13248:	7f42                	ld	t5,48(sp)
   1324a:	89d2                	mv	s3,s4
   1324c:	f46ff06f          	j	12992 <_vfprintf_r+0x15ca>
   13250:	67e5                	lui	a5,0x19
   13252:	50078d93          	addi	s11,a5,1280 # 19500 <__clzdi2+0x5e>
   13256:	831ff06f          	j	12a86 <_vfprintf_r+0x16be>
   1325a:	77c2                	ld	a5,48(sp)
   1325c:	8efd                	and	a3,a3,a5
   1325e:	e299                	bnez	a3,13264 <_vfprintf_r+0x1e9c>
   13260:	f2efe06f          	j	1198e <_vfprintf_r+0x5c6>
   13264:	f24fe06f          	j	11988 <_vfprintf_r+0x5c0>
   13268:	678e                	ld	a5,192(sp)
   1326a:	6aae                	ld	s5,200(sp)
   1326c:	100f6713          	ori	a4,t5,256
   13270:	2701                	sext.w	a4,a4
   13272:	f87a                	sd	t5,48(sp)
   13274:	f002                	sd	zero,32(sp)
   13276:	8c3e                	mv	s8,a5
   13278:	8f3a                	mv	t5,a4
   1327a:	4319                	li	t1,6
   1327c:	f40acce3          	bltz	s5,131d4 <_vfprintf_r+0x1e0c>
   13280:	e882                	sd	zero,80(sp)
   13282:	b785                	j	131e2 <_vfprintf_r+0x1e1a>
   13284:	67e5                	lui	a5,0x19
   13286:	51078d93          	addi	s11,a5,1296 # 19510 <__clzdi2+0x6e>
   1328a:	ffcff06f          	j	12a86 <_vfprintf_r+0x16be>
   1328e:	06700e13          	li	t3,103
   13292:	77a6                	ld	a5,104(sp)
   13294:	0ff00693          	li	a3,255
   13298:	0007c703          	lbu	a4,0(a5)
   1329c:	1ad70863          	beq	a4,a3,1344c <_vfprintf_r+0x2084>
   132a0:	4501                	li	a0,0
   132a2:	4581                	li	a1,0
   132a4:	0007061b          	sext.w	a2,a4
   132a8:	01875b63          	bge	a4,s8,132be <_vfprintf_r+0x1ef6>
   132ac:	0017c703          	lbu	a4,1(a5)
   132b0:	40cc0c3b          	subw	s8,s8,a2
   132b4:	cf05                	beqz	a4,132ec <_vfprintf_r+0x1f24>
   132b6:	2585                	addiw	a1,a1,1
   132b8:	0785                	addi	a5,a5,1
   132ba:	fed715e3          	bne	a4,a3,132a4 <_vfprintf_r+0x1edc>
   132be:	f4be                	sd	a5,104(sp)
   132c0:	f82e                	sd	a1,48(sp)
   132c2:	fc2a                	sd	a0,56(sp)
   132c4:	77e2                	ld	a5,56(sp)
   132c6:	7742                	ld	a4,48(sp)
   132c8:	9f3d                	addw	a4,a4,a5
   132ca:	77c6                	ld	a5,112(sp)
   132cc:	02f7073b          	mulw	a4,a4,a5
   132d0:	01570abb          	addw	s5,a4,s5
   132d4:	8856                	mv	a6,s5
   132d6:	000ac663          	bltz	s5,132e2 <_vfprintf_r+0x1f1a>
   132da:	00080d1b          	sext.w	s10,a6
   132de:	ecefe06f          	j	119ac <_vfprintf_r+0x5e4>
   132e2:	4801                	li	a6,0
   132e4:	00080d1b          	sext.w	s10,a6
   132e8:	ec4fe06f          	j	119ac <_vfprintf_r+0x5e4>
   132ec:	0007c703          	lbu	a4,0(a5)
   132f0:	2505                	addiw	a0,a0,1
   132f2:	b7e1                	j	132ba <_vfprintf_r+0x1ef2>
   132f4:	4601                	li	a2,0
   132f6:	4681                	li	a3,0
   132f8:	8562                	mv	a0,s8
   132fa:	85d6                	mv	a1,s5
   132fc:	e11a                	sd	t1,128(sp)
   132fe:	fcfa                	sd	t5,120(sp)
   13300:	fc72                	sd	t3,56(sp)
   13302:	783040ef          	jal	18284 <__eqtf2>
   13306:	7e62                	ld	t3,56(sp)
   13308:	7f66                	ld	t5,120(sp)
   1330a:	630a                	ld	t1,128(sp)
   1330c:	e169                	bnez	a0,133ce <_vfprintf_r+0x2006>
   1330e:	5c2a                	lw	s8,168(sp)
   13310:	9b62                	add	s6,s6,s8
   13312:	b905                	j	12f42 <_vfprintf_r+0x1b7a>
   13314:	67e5                	lui	a5,0x19
   13316:	51078d93          	addi	s11,a5,1296 # 19510 <__clzdi2+0x6e>
   1331a:	bc71                	j	12db6 <_vfprintf_r+0x19ee>
   1331c:	6922                	ld	s2,8(sp)
   1331e:	e3ffe06f          	j	1215c <_vfprintf_r+0xd94>
   13322:	00031363          	bnez	t1,13328 <_vfprintf_r+0x1f60>
   13326:	8336                	mv	t1,a3
   13328:	0c0ac163          	bltz	s5,133ea <_vfprintf_r+0x2022>
   1332c:	6502                	ld	a0,0(sp)
   1332e:	871a                	mv	a4,t1
   13330:	0b810893          	addi	a7,sp,184
   13334:	0ac10813          	addi	a6,sp,172
   13338:	113c                	addi	a5,sp,168
   1333a:	4689                	li	a3,2
   1333c:	85e2                	mv	a1,s8
   1333e:	8656                	mv	a2,s5
   13340:	f07a                	sd	t5,32(sp)
   13342:	fc72                	sd	t3,56(sp)
   13344:	f41a                	sd	t1,40(sp)
   13346:	6b5000ef          	jal	141fa <_ldtoa_r>
   1334a:	7f02                	ld	t5,32(sp)
   1334c:	7322                	ld	t1,40(sp)
   1334e:	7e62                	ld	t3,56(sp)
   13350:	f87a                	sd	t5,48(sp)
   13352:	8daa                	mv	s11,a0
   13354:	8f5a                	mv	t5,s6
   13356:	e882                	sd	zero,80(sp)
   13358:	f002                	sd	zero,32(sp)
   1335a:	b53d                	j	13188 <_vfprintf_r+0x1dc0>
   1335c:	04700693          	li	a3,71
   13360:	5c2a                	lw	s8,168(sp)
   13362:	b8d91be3          	bne	s2,a3,12ef8 <_vfprintf_r+0x1b30>
   13366:	b6ed                	j	12f50 <_vfprintf_r+0x1b88>
   13368:	6786                	ld	a5,64(sp)
   1336a:	018308bb          	addw	a7,t1,s8
   1336e:	06600e13          	li	t3,102
   13372:	00f88abb          	addw	s5,a7,a5
   13376:	b951                	j	1300a <_vfprintf_r+0x1c42>
   13378:	894e                	mv	s2,s3
   1337a:	01ad86bb          	addw	a3,s11,s10
   1337e:	412686bb          	subw	a3,a3,s2
   13382:	7ba2                	ld	s7,40(sp)
   13384:	79e2                	ld	s3,56(sp)
   13386:	6e66                	ld	t3,88(sp)
   13388:	0006d463          	bgez	a3,13390 <_vfprintf_r+0x1fc8>
   1338c:	d28fe06f          	j	118b4 <_vfprintf_r+0x4ec>
   13390:	00168613          	addi	a2,a3,1
   13394:	964a                	add	a2,a2,s2
   13396:	874a                	mv	a4,s2
   13398:	03000593          	li	a1,48
   1339c:	0705                	addi	a4,a4,1
   1339e:	feb70fa3          	sb	a1,-1(a4)
   133a2:	fec71de3          	bne	a4,a2,1339c <_vfprintf_r+0x1fd4>
   133a6:	00190793          	addi	a5,s2,1
   133aa:	00d78933          	add	s2,a5,a3
   133ae:	d06fe06f          	j	118b4 <_vfprintf_r+0x4ec>
   133b2:	07000613          	li	a2,112
   133b6:	d2afe06f          	j	118e0 <_vfprintf_r+0x518>
   133ba:	6765                	lui	a4,0x19
   133bc:	7f070913          	addi	s2,a4,2032 # 197f0 <zeroes.0>
   133c0:	e32ff06f          	j	129f2 <_vfprintf_r+0x162a>
   133c4:	6765                	lui	a4,0x19
   133c6:	52070a93          	addi	s5,a4,1312 # 19520 <__clzdi2+0x7e>
   133ca:	bfcfe06f          	j	117c6 <_vfprintf_r+0x3fe>
   133ce:	77a2                	ld	a5,40(sp)
   133d0:	4685                	li	a3,1
   133d2:	9e9d                	subw	a3,a3,a5
   133d4:	d536                	sw	a3,168(sp)
   133d6:	b6ed                	j	12fc0 <_vfprintf_r+0x1bf8>
   133d8:	7d82                	ld	s11,32(sp)
   133da:	bbed                	j	131d4 <_vfprintf_r+0x1e0c>
   133dc:	f002                	sd	zero,32(sp)
   133de:	8f5a                	mv	t5,s6
   133e0:	bbd5                	j	131d4 <_vfprintf_r+0x1e0c>
   133e2:	00aac683          	lbu	a3,10(s5)
   133e6:	ccafe06f          	j	118b0 <_vfprintf_r+0x4e8>
   133ea:	177e                	slli	a4,a4,0x3f
   133ec:	02d00793          	li	a5,45
   133f0:	f87a                	sd	t5,48(sp)
   133f2:	00eacab3          	xor	s5,s5,a4
   133f6:	f002                	sd	zero,32(sp)
   133f8:	8f5a                	mv	t5,s6
   133fa:	e8be                	sd	a5,80(sp)
   133fc:	bbdd                	j	131f2 <_vfprintf_r+0x1e2a>
   133fe:	6762                	ld	a4,24(sp)
   13400:	431c                	lw	a5,0(a4)
   13402:	0721                	addi	a4,a4,8
   13404:	833e                	mv	t1,a5
   13406:	0007d363          	bgez	a5,1340c <_vfprintf_r+0x2044>
   1340a:	537d                	li	t1,-1
   1340c:	001bce03          	lbu	t3,1(s7)
   13410:	00030b1b          	sext.w	s6,t1
   13414:	ec3a                	sd	a4,24(sp)
   13416:	8bb2                	mv	s7,a2
   13418:	8ccfe06f          	j	114e4 <_vfprintf_r+0x11c>
   1341c:	4789                	li	a5,2
   1341e:	ecbe                	sd	a5,88(sp)
   13420:	d56fe06f          	j	11976 <_vfprintf_r+0x5ae>
   13424:	e711                	bnez	a4,13430 <_vfprintf_r+0x2068>
   13426:	4d05                	li	s10,1
   13428:	8aea                	mv	s5,s10
   1342a:	06600e13          	li	t3,102
   1342e:	beb5                	j	12faa <_vfprintf_r+0x1be2>
   13430:	6786                	ld	a5,64(sp)
   13432:	0017889b          	addiw	a7,a5,1
   13436:	00688abb          	addw	s5,a7,t1
   1343a:	8856                	mv	a6,s5
   1343c:	000ad363          	bgez	s5,13442 <_vfprintf_r+0x207a>
   13440:	4801                	li	a6,0
   13442:	00080d1b          	sext.w	s10,a6
   13446:	06600e13          	li	t3,102
   1344a:	b685                	j	12faa <_vfprintf_r+0x1be2>
   1344c:	fc02                	sd	zero,56(sp)
   1344e:	f802                	sd	zero,48(sp)
   13450:	bd95                	j	132c4 <_vfprintf_r+0x1efc>
   13452:	6765                	lui	a4,0x19
   13454:	7f070913          	addi	s2,a4,2032 # 197f0 <zeroes.0>
   13458:	b3d1                	j	1321c <_vfprintf_r+0x1e54>
   1345a:	6922                	ld	s2,8(sp)
   1345c:	01095783          	lhu	a5,16(s2)
   13460:	0407e793          	ori	a5,a5,64
   13464:	00f91823          	sh	a5,16(s2)
   13468:	cf5fe06f          	j	1215c <_vfprintf_r+0xd94>
   1346c:	4d05                	li	s10,1
   1346e:	f802                	sd	zero,48(sp)
   13470:	fc02                	sd	zero,56(sp)
   13472:	8aea                	mv	s5,s10
   13474:	f002                	sd	zero,32(sp)
   13476:	4c01                	li	s8,0
   13478:	14b10d93          	addi	s11,sp,331
   1347c:	07800e13          	li	t3,120
   13480:	4501                	li	a0,0
   13482:	d46fe06f          	j	119c8 <_vfprintf_r+0x600>
   13486:	f41a                	sd	t1,40(sp)
   13488:	bc01                	j	12e98 <_vfprintf_r+0x1ad0>
   1348a:	4301                	li	t1,0
   1348c:	fc02                	sd	zero,56(sp)
   1348e:	f802                	sd	zero,48(sp)
   13490:	f002                	sd	zero,32(sp)
   13492:	4a8d                	li	s5,3
   13494:	4d11                	li	s10,4
   13496:	8c0fe06f          	j	11556 <_vfprintf_r+0x18e>
   1349a:	41b787bb          	subw	a5,a5,s11
   1349e:	04700693          	li	a3,71
   134a2:	f43e                	sd	a5,40(sp)
   134a4:	5c2a                	lw	s8,168(sp)
   134a6:	a4d919e3          	bne	s2,a3,12ef8 <_vfprintf_r+0x1b30>
   134aa:	b45d                	j	12f50 <_vfprintf_r+0x1b88>

00000000000134ac <vfprintf>:
   134ac:	872a                	mv	a4,a0
   134ae:	2201b503          	ld	a0,544(gp) # 1b940 <_impure_ptr>
   134b2:	87ae                	mv	a5,a1
   134b4:	86b2                	mv	a3,a2
   134b6:	85ba                	mv	a1,a4
   134b8:	863e                	mv	a2,a5
   134ba:	f0ffd06f          	j	113c8 <_vfprintf_r>

00000000000134be <__sbprintf>:
   134be:	0105d783          	lhu	a5,16(a1)
   134c2:	0ac5ae83          	lw	t4,172(a1)
   134c6:	0125de03          	lhu	t3,18(a1)
   134ca:	0305b303          	ld	t1,48(a1)
   134ce:	0405b883          	ld	a7,64(a1)
   134d2:	b3010113          	addi	sp,sp,-1232
   134d6:	0b010813          	addi	a6,sp,176
   134da:	40000713          	li	a4,1024
   134de:	4c813023          	sd	s0,1216(sp)
   134e2:	9bf5                	andi	a5,a5,-3
   134e4:	842e                	mv	s0,a1
   134e6:	858a                	mv	a1,sp
   134e8:	4a913c23          	sd	s1,1208(sp)
   134ec:	4b213823          	sd	s2,1200(sp)
   134f0:	4c113423          	sd	ra,1224(sp)
   134f4:	d402                	sw	zero,40(sp)
   134f6:	00f11823          	sh	a5,16(sp)
   134fa:	d776                	sw	t4,172(sp)
   134fc:	01c11923          	sh	t3,18(sp)
   13500:	f81a                	sd	t1,48(sp)
   13502:	e0c6                	sd	a7,64(sp)
   13504:	892a                	mv	s2,a0
   13506:	e042                	sd	a6,0(sp)
   13508:	ec42                	sd	a6,24(sp)
   1350a:	c63a                	sw	a4,12(sp)
   1350c:	d03a                	sw	a4,32(sp)
   1350e:	ebbfd0ef          	jal	113c8 <_vfprintf_r>
   13512:	84aa                	mv	s1,a0
   13514:	02055963          	bgez	a0,13546 <__sbprintf+0x88>
   13518:	01015783          	lhu	a5,16(sp)
   1351c:	0407f793          	andi	a5,a5,64
   13520:	c799                	beqz	a5,1352e <__sbprintf+0x70>
   13522:	01045783          	lhu	a5,16(s0)
   13526:	0407e793          	ori	a5,a5,64
   1352a:	00f41823          	sh	a5,16(s0)
   1352e:	4c813083          	ld	ra,1224(sp)
   13532:	4c013403          	ld	s0,1216(sp)
   13536:	4b013903          	ld	s2,1200(sp)
   1353a:	8526                	mv	a0,s1
   1353c:	4b813483          	ld	s1,1208(sp)
   13540:	4d010113          	addi	sp,sp,1232
   13544:	8082                	ret
   13546:	858a                	mv	a1,sp
   13548:	854a                	mv	a0,s2
   1354a:	280000ef          	jal	137ca <_fflush_r>
   1354e:	d569                	beqz	a0,13518 <__sbprintf+0x5a>
   13550:	54fd                	li	s1,-1
   13552:	b7d9                	j	13518 <__sbprintf+0x5a>

0000000000013554 <__sprint_r>:
   13554:	6a1c                	ld	a5,16(a2)
   13556:	1141                	addi	sp,sp,-16
   13558:	e022                	sd	s0,0(sp)
   1355a:	e406                	sd	ra,8(sp)
   1355c:	8432                	mv	s0,a2
   1355e:	eb81                	bnez	a5,1356e <__sprint_r+0x1a>
   13560:	60a2                	ld	ra,8(sp)
   13562:	00042423          	sw	zero,8(s0)
   13566:	6402                	ld	s0,0(sp)
   13568:	4501                	li	a0,0
   1356a:	0141                	addi	sp,sp,16
   1356c:	8082                	ret
   1356e:	2e2000ef          	jal	13850 <__sfvwrite_r>
   13572:	60a2                	ld	ra,8(sp)
   13574:	00043823          	sd	zero,16(s0)
   13578:	00042423          	sw	zero,8(s0)
   1357c:	6402                	ld	s0,0(sp)
   1357e:	0141                	addi	sp,sp,16
   13580:	8082                	ret

0000000000013582 <_fclose_r>:
   13582:	1101                	addi	sp,sp,-32
   13584:	ec06                	sd	ra,24(sp)
   13586:	e04a                	sd	s2,0(sp)
   13588:	cd89                	beqz	a1,135a2 <_fclose_r+0x20>
   1358a:	e822                	sd	s0,16(sp)
   1358c:	e426                	sd	s1,8(sp)
   1358e:	842e                	mv	s0,a1
   13590:	84aa                	mv	s1,a0
   13592:	c119                	beqz	a0,13598 <_fclose_r+0x16>
   13594:	653c                	ld	a5,72(a0)
   13596:	c7d9                	beqz	a5,13624 <_fclose_r+0xa2>
   13598:	01041783          	lh	a5,16(s0)
   1359c:	eb89                	bnez	a5,135ae <_fclose_r+0x2c>
   1359e:	6442                	ld	s0,16(sp)
   135a0:	64a2                	ld	s1,8(sp)
   135a2:	60e2                	ld	ra,24(sp)
   135a4:	4901                	li	s2,0
   135a6:	854a                	mv	a0,s2
   135a8:	6902                	ld	s2,0(sp)
   135aa:	6105                	addi	sp,sp,32
   135ac:	8082                	ret
   135ae:	85a2                	mv	a1,s0
   135b0:	8526                	mv	a0,s1
   135b2:	080000ef          	jal	13632 <__sflush_r>
   135b6:	683c                	ld	a5,80(s0)
   135b8:	892a                	mv	s2,a0
   135ba:	c791                	beqz	a5,135c6 <_fclose_r+0x44>
   135bc:	780c                	ld	a1,48(s0)
   135be:	8526                	mv	a0,s1
   135c0:	9782                	jalr	a5
   135c2:	04054663          	bltz	a0,1360e <_fclose_r+0x8c>
   135c6:	01045783          	lhu	a5,16(s0)
   135ca:	0807f793          	andi	a5,a5,128
   135ce:	e7b1                	bnez	a5,1361a <_fclose_r+0x98>
   135d0:	6c2c                	ld	a1,88(s0)
   135d2:	c991                	beqz	a1,135e6 <_fclose_r+0x64>
   135d4:	07440793          	addi	a5,s0,116
   135d8:	00f58563          	beq	a1,a5,135e2 <_fclose_r+0x60>
   135dc:	8526                	mv	a0,s1
   135de:	d78fd0ef          	jal	10b56 <_free_r>
   135e2:	04043c23          	sd	zero,88(s0)
   135e6:	7c2c                	ld	a1,120(s0)
   135e8:	c591                	beqz	a1,135f4 <_fclose_r+0x72>
   135ea:	8526                	mv	a0,s1
   135ec:	d6afd0ef          	jal	10b56 <_free_r>
   135f0:	06043c23          	sd	zero,120(s0)
   135f4:	f6dfc0ef          	jal	10560 <__sfp_lock_acquire>
   135f8:	00041823          	sh	zero,16(s0)
   135fc:	f67fc0ef          	jal	10562 <__sfp_lock_release>
   13600:	60e2                	ld	ra,24(sp)
   13602:	6442                	ld	s0,16(sp)
   13604:	64a2                	ld	s1,8(sp)
   13606:	854a                	mv	a0,s2
   13608:	6902                	ld	s2,0(sp)
   1360a:	6105                	addi	sp,sp,32
   1360c:	8082                	ret
   1360e:	01045783          	lhu	a5,16(s0)
   13612:	597d                	li	s2,-1
   13614:	0807f793          	andi	a5,a5,128
   13618:	dfc5                	beqz	a5,135d0 <_fclose_r+0x4e>
   1361a:	6c0c                	ld	a1,24(s0)
   1361c:	8526                	mv	a0,s1
   1361e:	d38fd0ef          	jal	10b56 <_free_r>
   13622:	b77d                	j	135d0 <_fclose_r+0x4e>
   13624:	f27fc0ef          	jal	1054a <__sinit>
   13628:	bf85                	j	13598 <_fclose_r+0x16>

000000000001362a <fclose>:
   1362a:	85aa                	mv	a1,a0
   1362c:	2201b503          	ld	a0,544(gp) # 1b940 <_impure_ptr>
   13630:	bf89                	j	13582 <_fclose_r>

0000000000013632 <__sflush_r>:
   13632:	01059703          	lh	a4,16(a1)
   13636:	7179                	addi	sp,sp,-48
   13638:	f022                	sd	s0,32(sp)
   1363a:	e44e                	sd	s3,8(sp)
   1363c:	f406                	sd	ra,40(sp)
   1363e:	00877793          	andi	a5,a4,8
   13642:	842e                	mv	s0,a1
   13644:	89aa                	mv	s3,a0
   13646:	e7e1                	bnez	a5,1370e <__sflush_r+0xdc>
   13648:	6785                	lui	a5,0x1
   1364a:	80078793          	addi	a5,a5,-2048 # 800 <exit-0xf920>
   1364e:	4594                	lw	a3,8(a1)
   13650:	8fd9                	or	a5,a5,a4
   13652:	00f59823          	sh	a5,16(a1)
   13656:	10d05963          	blez	a3,13768 <__sflush_r+0x136>
   1365a:	04843803          	ld	a6,72(s0)
   1365e:	0a080263          	beqz	a6,13702 <__sflush_r+0xd0>
   13662:	ec26                	sd	s1,24(sp)
   13664:	03371693          	slli	a3,a4,0x33
   13668:	0009a483          	lw	s1,0(s3)
   1366c:	0009a023          	sw	zero,0(s3)
   13670:	1006c363          	bltz	a3,13776 <__sflush_r+0x144>
   13674:	780c                	ld	a1,48(s0)
   13676:	4601                	li	a2,0
   13678:	4685                	li	a3,1
   1367a:	854e                	mv	a0,s3
   1367c:	9802                	jalr	a6
   1367e:	57fd                	li	a5,-1
   13680:	862a                	mv	a2,a0
   13682:	12f50163          	beq	a0,a5,137a4 <__sflush_r+0x172>
   13686:	01041783          	lh	a5,16(s0)
   1368a:	04843803          	ld	a6,72(s0)
   1368e:	8b91                	andi	a5,a5,4
   13690:	c799                	beqz	a5,1369e <__sflush_r+0x6c>
   13692:	4418                	lw	a4,8(s0)
   13694:	6c3c                	ld	a5,88(s0)
   13696:	8e19                	sub	a2,a2,a4
   13698:	c399                	beqz	a5,1369e <__sflush_r+0x6c>
   1369a:	583c                	lw	a5,112(s0)
   1369c:	8e1d                	sub	a2,a2,a5
   1369e:	780c                	ld	a1,48(s0)
   136a0:	4681                	li	a3,0
   136a2:	854e                	mv	a0,s3
   136a4:	9802                	jalr	a6
   136a6:	577d                	li	a4,-1
   136a8:	01041783          	lh	a5,16(s0)
   136ac:	0ce51763          	bne	a0,a4,1377a <__sflush_r+0x148>
   136b0:	0009a683          	lw	a3,0(s3)
   136b4:	4775                	li	a4,29
   136b6:	10d76363          	bltu	a4,a3,137bc <__sflush_r+0x18a>
   136ba:	20400737          	lui	a4,0x20400
   136be:	0705                	addi	a4,a4,1 # 20400001 <__BSS_END__+0x203e40e1>
   136c0:	00d75733          	srl	a4,a4,a3
   136c4:	8b05                	andi	a4,a4,1
   136c6:	cb7d                	beqz	a4,137bc <__sflush_r+0x18a>
   136c8:	6c10                	ld	a2,24(s0)
   136ca:	777d                	lui	a4,0xfffff
   136cc:	7ff70713          	addi	a4,a4,2047 # fffffffffffff7ff <__BSS_END__+0xfffffffffffe38df>
   136d0:	8f7d                	and	a4,a4,a5
   136d2:	00e41823          	sh	a4,16(s0)
   136d6:	00042423          	sw	zero,8(s0)
   136da:	e010                	sd	a2,0(s0)
   136dc:	03379713          	slli	a4,a5,0x33
   136e0:	00075363          	bgez	a4,136e6 <__sflush_r+0xb4>
   136e4:	cacd                	beqz	a3,13796 <__sflush_r+0x164>
   136e6:	6c2c                	ld	a1,88(s0)
   136e8:	0099a023          	sw	s1,0(s3)
   136ec:	c9d5                	beqz	a1,137a0 <__sflush_r+0x16e>
   136ee:	07440793          	addi	a5,s0,116
   136f2:	00f58563          	beq	a1,a5,136fc <__sflush_r+0xca>
   136f6:	854e                	mv	a0,s3
   136f8:	c5efd0ef          	jal	10b56 <_free_r>
   136fc:	64e2                	ld	s1,24(sp)
   136fe:	04043c23          	sd	zero,88(s0)
   13702:	70a2                	ld	ra,40(sp)
   13704:	7402                	ld	s0,32(sp)
   13706:	69a2                	ld	s3,8(sp)
   13708:	4501                	li	a0,0
   1370a:	6145                	addi	sp,sp,48
   1370c:	8082                	ret
   1370e:	e84a                	sd	s2,16(sp)
   13710:	0185b903          	ld	s2,24(a1)
   13714:	04090f63          	beqz	s2,13772 <__sflush_r+0x140>
   13718:	ec26                	sd	s1,24(sp)
   1371a:	6184                	ld	s1,0(a1)
   1371c:	8b0d                	andi	a4,a4,3
   1371e:	0125b023          	sd	s2,0(a1)
   13722:	412484bb          	subw	s1,s1,s2
   13726:	4781                	li	a5,0
   13728:	e311                	bnez	a4,1372c <__sflush_r+0xfa>
   1372a:	519c                	lw	a5,32(a1)
   1372c:	c45c                	sw	a5,12(s0)
   1372e:	00904663          	bgtz	s1,1373a <__sflush_r+0x108>
   13732:	a83d                	j	13770 <__sflush_r+0x13e>
   13734:	992a                	add	s2,s2,a0
   13736:	02905d63          	blez	s1,13770 <__sflush_r+0x13e>
   1373a:	603c                	ld	a5,64(s0)
   1373c:	780c                	ld	a1,48(s0)
   1373e:	86a6                	mv	a3,s1
   13740:	864a                	mv	a2,s2
   13742:	854e                	mv	a0,s3
   13744:	9782                	jalr	a5
   13746:	9c89                	subw	s1,s1,a0
   13748:	fea046e3          	bgtz	a0,13734 <__sflush_r+0x102>
   1374c:	01041783          	lh	a5,16(s0)
   13750:	6942                	ld	s2,16(sp)
   13752:	0407e793          	ori	a5,a5,64
   13756:	70a2                	ld	ra,40(sp)
   13758:	00f41823          	sh	a5,16(s0)
   1375c:	7402                	ld	s0,32(sp)
   1375e:	64e2                	ld	s1,24(sp)
   13760:	69a2                	ld	s3,8(sp)
   13762:	557d                	li	a0,-1
   13764:	6145                	addi	sp,sp,48
   13766:	8082                	ret
   13768:	59b4                	lw	a3,112(a1)
   1376a:	eed048e3          	bgtz	a3,1365a <__sflush_r+0x28>
   1376e:	bf51                	j	13702 <__sflush_r+0xd0>
   13770:	64e2                	ld	s1,24(sp)
   13772:	6942                	ld	s2,16(sp)
   13774:	b779                	j	13702 <__sflush_r+0xd0>
   13776:	6850                	ld	a2,144(s0)
   13778:	bf19                	j	1368e <__sflush_r+0x5c>
   1377a:	6c14                	ld	a3,24(s0)
   1377c:	777d                	lui	a4,0xfffff
   1377e:	7ff70713          	addi	a4,a4,2047 # fffffffffffff7ff <__BSS_END__+0xfffffffffffe38df>
   13782:	8f7d                	and	a4,a4,a5
   13784:	00e41823          	sh	a4,16(s0)
   13788:	00042423          	sw	zero,8(s0)
   1378c:	e014                	sd	a3,0(s0)
   1378e:	03379713          	slli	a4,a5,0x33
   13792:	f4075ae3          	bgez	a4,136e6 <__sflush_r+0xb4>
   13796:	6c2c                	ld	a1,88(s0)
   13798:	e848                	sd	a0,144(s0)
   1379a:	0099a023          	sw	s1,0(s3)
   1379e:	f9a1                	bnez	a1,136ee <__sflush_r+0xbc>
   137a0:	64e2                	ld	s1,24(sp)
   137a2:	b785                	j	13702 <__sflush_r+0xd0>
   137a4:	0009a783          	lw	a5,0(s3)
   137a8:	ec078fe3          	beqz	a5,13686 <__sflush_r+0x54>
   137ac:	4775                	li	a4,29
   137ae:	00e78a63          	beq	a5,a4,137c2 <__sflush_r+0x190>
   137b2:	4759                	li	a4,22
   137b4:	00e78763          	beq	a5,a4,137c2 <__sflush_r+0x190>
   137b8:	01041783          	lh	a5,16(s0)
   137bc:	0407e793          	ori	a5,a5,64
   137c0:	bf59                	j	13756 <__sflush_r+0x124>
   137c2:	0099a023          	sw	s1,0(s3)
   137c6:	64e2                	ld	s1,24(sp)
   137c8:	bf2d                	j	13702 <__sflush_r+0xd0>

00000000000137ca <_fflush_r>:
   137ca:	1101                	addi	sp,sp,-32
   137cc:	e822                	sd	s0,16(sp)
   137ce:	ec06                	sd	ra,24(sp)
   137d0:	842a                	mv	s0,a0
   137d2:	c119                	beqz	a0,137d8 <_fflush_r+0xe>
   137d4:	653c                	ld	a5,72(a0)
   137d6:	cf91                	beqz	a5,137f2 <_fflush_r+0x28>
   137d8:	01059783          	lh	a5,16(a1)
   137dc:	e791                	bnez	a5,137e8 <_fflush_r+0x1e>
   137de:	60e2                	ld	ra,24(sp)
   137e0:	6442                	ld	s0,16(sp)
   137e2:	4501                	li	a0,0
   137e4:	6105                	addi	sp,sp,32
   137e6:	8082                	ret
   137e8:	8522                	mv	a0,s0
   137ea:	6442                	ld	s0,16(sp)
   137ec:	60e2                	ld	ra,24(sp)
   137ee:	6105                	addi	sp,sp,32
   137f0:	b589                	j	13632 <__sflush_r>
   137f2:	e42e                	sd	a1,8(sp)
   137f4:	d57fc0ef          	jal	1054a <__sinit>
   137f8:	65a2                	ld	a1,8(sp)
   137fa:	bff9                	j	137d8 <_fflush_r+0xe>

00000000000137fc <fflush>:
   137fc:	cd05                	beqz	a0,13834 <fflush+0x38>
   137fe:	85aa                	mv	a1,a0
   13800:	2201b503          	ld	a0,544(gp) # 1b940 <_impure_ptr>
   13804:	c119                	beqz	a0,1380a <fflush+0xe>
   13806:	653c                	ld	a5,72(a0)
   13808:	c799                	beqz	a5,13816 <fflush+0x1a>
   1380a:	01059783          	lh	a5,16(a1)
   1380e:	e399                	bnez	a5,13814 <fflush+0x18>
   13810:	4501                	li	a0,0
   13812:	8082                	ret
   13814:	bd39                	j	13632 <__sflush_r>
   13816:	1101                	addi	sp,sp,-32
   13818:	e42e                	sd	a1,8(sp)
   1381a:	e02a                	sd	a0,0(sp)
   1381c:	ec06                	sd	ra,24(sp)
   1381e:	d2dfc0ef          	jal	1054a <__sinit>
   13822:	65a2                	ld	a1,8(sp)
   13824:	6502                	ld	a0,0(sp)
   13826:	01059783          	lh	a5,16(a1)
   1382a:	e385                	bnez	a5,1384a <fflush+0x4e>
   1382c:	60e2                	ld	ra,24(sp)
   1382e:	4501                	li	a0,0
   13830:	6105                	addi	sp,sp,32
   13832:	8082                	ret
   13834:	666d                	lui	a2,0x1b
   13836:	65cd                	lui	a1,0x13
   13838:	656d                	lui	a0,0x1b
   1383a:	d8860613          	addi	a2,a2,-632 # 1ad88 <__sglue>
   1383e:	7ca58593          	addi	a1,a1,1994 # 137ca <_fflush_r>
   13842:	da050513          	addi	a0,a0,-608 # 1ada0 <_impure_data>
   13846:	d3ffc06f          	j	10584 <_fwalk_sglue>
   1384a:	60e2                	ld	ra,24(sp)
   1384c:	6105                	addi	sp,sp,32
   1384e:	b3d5                	j	13632 <__sflush_r>

0000000000013850 <__sfvwrite_r>:
   13850:	6a1c                	ld	a5,16(a2)
   13852:	1a078063          	beqz	a5,139f2 <__sfvwrite_r+0x1a2>
   13856:	01059703          	lh	a4,16(a1)
   1385a:	711d                	addi	sp,sp,-96
   1385c:	e8a2                	sd	s0,80(sp)
   1385e:	f852                	sd	s4,48(sp)
   13860:	f05a                	sd	s6,32(sp)
   13862:	ec86                	sd	ra,88(sp)
   13864:	00877793          	andi	a5,a4,8
   13868:	8a32                	mv	s4,a2
   1386a:	8b2a                	mv	s6,a0
   1386c:	842e                	mv	s0,a1
   1386e:	c7bd                	beqz	a5,138dc <__sfvwrite_r+0x8c>
   13870:	6d9c                	ld	a5,24(a1)
   13872:	c7ad                	beqz	a5,138dc <__sfvwrite_r+0x8c>
   13874:	e4a6                	sd	s1,72(sp)
   13876:	e0ca                	sd	s2,64(sp)
   13878:	fc4e                	sd	s3,56(sp)
   1387a:	f456                	sd	s5,40(sp)
   1387c:	00277793          	andi	a5,a4,2
   13880:	000a3483          	ld	s1,0(s4)
   13884:	cfad                	beqz	a5,138fe <__sfvwrite_r+0xae>
   13886:	80000ab7          	lui	s5,0x80000
   1388a:	c00aca93          	xori	s5,s5,-1024
   1388e:	4981                	li	s3,0
   13890:	4901                	li	s2,0
   13892:	864e                	mv	a2,s3
   13894:	855a                	mv	a0,s6
   13896:	14090863          	beqz	s2,139e6 <__sfvwrite_r+0x196>
   1389a:	800007b7          	lui	a5,0x80000
   1389e:	86ca                	mv	a3,s2
   138a0:	012af463          	bgeu	s5,s2,138a8 <__sfvwrite_r+0x58>
   138a4:	c007c693          	xori	a3,a5,-1024
   138a8:	603c                	ld	a5,64(s0)
   138aa:	780c                	ld	a1,48(s0)
   138ac:	2681                	sext.w	a3,a3
   138ae:	9782                	jalr	a5
   138b0:	2ca05c63          	blez	a0,13b88 <__sfvwrite_r+0x338>
   138b4:	010a3783          	ld	a5,16(s4)
   138b8:	99aa                	add	s3,s3,a0
   138ba:	40a90933          	sub	s2,s2,a0
   138be:	8f89                	sub	a5,a5,a0
   138c0:	00fa3823          	sd	a5,16(s4)
   138c4:	f7f9                	bnez	a5,13892 <__sfvwrite_r+0x42>
   138c6:	64a6                	ld	s1,72(sp)
   138c8:	6906                	ld	s2,64(sp)
   138ca:	79e2                	ld	s3,56(sp)
   138cc:	7aa2                	ld	s5,40(sp)
   138ce:	4501                	li	a0,0
   138d0:	60e6                	ld	ra,88(sp)
   138d2:	6446                	ld	s0,80(sp)
   138d4:	7a42                	ld	s4,48(sp)
   138d6:	7b02                	ld	s6,32(sp)
   138d8:	6125                	addi	sp,sp,96
   138da:	8082                	ret
   138dc:	85a2                	mv	a1,s0
   138de:	855a                	mv	a0,s6
   138e0:	2c0000ef          	jal	13ba0 <__swsetup_r>
   138e4:	1e051663          	bnez	a0,13ad0 <__sfvwrite_r+0x280>
   138e8:	01041703          	lh	a4,16(s0)
   138ec:	e4a6                	sd	s1,72(sp)
   138ee:	e0ca                	sd	s2,64(sp)
   138f0:	fc4e                	sd	s3,56(sp)
   138f2:	f456                	sd	s5,40(sp)
   138f4:	00277793          	andi	a5,a4,2
   138f8:	000a3483          	ld	s1,0(s4)
   138fc:	f7c9                	bnez	a5,13886 <__sfvwrite_r+0x36>
   138fe:	ec5e                	sd	s7,24(sp)
   13900:	e862                	sd	s8,16(sp)
   13902:	e466                	sd	s9,8(sp)
   13904:	00177793          	andi	a5,a4,1
   13908:	e7fd                	bnez	a5,139f6 <__sfvwrite_r+0x1a6>
   1390a:	80000bb7          	lui	s7,0x80000
   1390e:	fffbcb93          	not	s7,s7
   13912:	4c01                	li	s8,0
   13914:	4901                	li	s2,0
   13916:	0c090263          	beqz	s2,139da <__sfvwrite_r+0x18a>
   1391a:	20077793          	andi	a5,a4,512
   1391e:	00c42a83          	lw	s5,12(s0)
   13922:	6008                	ld	a0,0(s0)
   13924:	1a078863          	beqz	a5,13ad4 <__sfvwrite_r+0x284>
   13928:	07596e63          	bltu	s2,s5,139a4 <__sfvwrite_r+0x154>
   1392c:	48077793          	andi	a5,a4,1152
   13930:	22078163          	beqz	a5,13b52 <__sfvwrite_r+0x302>
   13934:	5014                	lw	a3,32(s0)
   13936:	6c0c                	ld	a1,24(s0)
   13938:	0016979b          	slliw	a5,a3,0x1
   1393c:	9fb5                	addw	a5,a5,a3
   1393e:	8d0d                	sub	a0,a0,a1
   13940:	01f7d99b          	srliw	s3,a5,0x1f
   13944:	00050a9b          	sext.w	s5,a0
   13948:	00f989bb          	addw	s3,s3,a5
   1394c:	001a8793          	addi	a5,s5,1 # ffffffff80000001 <__BSS_END__+0xffffffff7ffe40e1>
   13950:	4019d99b          	sraiw	s3,s3,0x1
   13954:	97ca                	add	a5,a5,s2
   13956:	00f9f563          	bgeu	s3,a5,13960 <__sfvwrite_r+0x110>
   1395a:	2505                	addiw	a0,a0,1
   1395c:	012509bb          	addw	s3,a0,s2
   13960:	40077713          	andi	a4,a4,1024
   13964:	1e070963          	beqz	a4,13b56 <__sfvwrite_r+0x306>
   13968:	85ce                	mv	a1,s3
   1396a:	855a                	mv	a0,s6
   1396c:	c2cfd0ef          	jal	10d98 <_malloc_r>
   13970:	8caa                	mv	s9,a0
   13972:	20050e63          	beqz	a0,13b8e <__sfvwrite_r+0x33e>
   13976:	6c0c                	ld	a1,24(s0)
   13978:	8656                	mv	a2,s5
   1397a:	5d6000ef          	jal	13f50 <memcpy>
   1397e:	01045783          	lhu	a5,16(s0)
   13982:	b7f7f793          	andi	a5,a5,-1153
   13986:	0807e793          	ori	a5,a5,128
   1398a:	00f41823          	sh	a5,16(s0)
   1398e:	015c8533          	add	a0,s9,s5
   13992:	41598abb          	subw	s5,s3,s5
   13996:	01943c23          	sd	s9,24(s0)
   1399a:	e008                	sd	a0,0(s0)
   1399c:	01542623          	sw	s5,12(s0)
   139a0:	03342023          	sw	s3,32(s0)
   139a4:	8cca                	mv	s9,s2
   139a6:	8aca                	mv	s5,s2
   139a8:	8656                	mv	a2,s5
   139aa:	85e2                	mv	a1,s8
   139ac:	4be000ef          	jal	13e6a <memmove>
   139b0:	4458                	lw	a4,12(s0)
   139b2:	601c                	ld	a5,0(s0)
   139b4:	89ca                	mv	s3,s2
   139b6:	4197073b          	subw	a4,a4,s9
   139ba:	97d6                	add	a5,a5,s5
   139bc:	c458                	sw	a4,12(s0)
   139be:	e01c                	sd	a5,0(s0)
   139c0:	4901                	li	s2,0
   139c2:	010a3783          	ld	a5,16(s4)
   139c6:	9c4e                	add	s8,s8,s3
   139c8:	413787b3          	sub	a5,a5,s3
   139cc:	00fa3823          	sd	a5,16(s4)
   139d0:	c7c1                	beqz	a5,13a58 <__sfvwrite_r+0x208>
   139d2:	01041703          	lh	a4,16(s0)
   139d6:	f40912e3          	bnez	s2,1391a <__sfvwrite_r+0xca>
   139da:	0004bc03          	ld	s8,0(s1)
   139de:	0084b903          	ld	s2,8(s1)
   139e2:	04c1                	addi	s1,s1,16
   139e4:	bf0d                	j	13916 <__sfvwrite_r+0xc6>
   139e6:	0004b983          	ld	s3,0(s1)
   139ea:	0084b903          	ld	s2,8(s1)
   139ee:	04c1                	addi	s1,s1,16
   139f0:	b54d                	j	13892 <__sfvwrite_r+0x42>
   139f2:	4501                	li	a0,0
   139f4:	8082                	ret
   139f6:	4981                	li	s3,0
   139f8:	4501                	li	a0,0
   139fa:	4c81                	li	s9,0
   139fc:	4c01                	li	s8,0
   139fe:	060c0163          	beqz	s8,13a60 <__sfvwrite_r+0x210>
   13a02:	c53d                	beqz	a0,13a70 <__sfvwrite_r+0x220>
   13a04:	8bce                	mv	s7,s3
   13a06:	013c7363          	bgeu	s8,s3,13a0c <__sfvwrite_r+0x1bc>
   13a0a:	8be2                	mv	s7,s8
   13a0c:	6008                	ld	a0,0(s0)
   13a0e:	6c1c                	ld	a5,24(s0)
   13a10:	5014                	lw	a3,32(s0)
   13a12:	895e                	mv	s2,s7
   13a14:	00a7f763          	bgeu	a5,a0,13a22 <__sfvwrite_r+0x1d2>
   13a18:	445c                	lw	a5,12(s0)
   13a1a:	00d78abb          	addw	s5,a5,a3
   13a1e:	077ac463          	blt	s5,s7,13a86 <__sfvwrite_r+0x236>
   13a22:	10dbca63          	blt	s7,a3,13b36 <__sfvwrite_r+0x2e6>
   13a26:	603c                	ld	a5,64(s0)
   13a28:	780c                	ld	a1,48(s0)
   13a2a:	8666                	mv	a2,s9
   13a2c:	855a                	mv	a0,s6
   13a2e:	9782                	jalr	a5
   13a30:	892a                	mv	s2,a0
   13a32:	08a05263          	blez	a0,13ab6 <__sfvwrite_r+0x266>
   13a36:	0005079b          	sext.w	a5,a0
   13a3a:	40f989bb          	subw	s3,s3,a5
   13a3e:	4505                	li	a0,1
   13a40:	06098663          	beqz	s3,13aac <__sfvwrite_r+0x25c>
   13a44:	010a3783          	ld	a5,16(s4)
   13a48:	9cca                	add	s9,s9,s2
   13a4a:	412c0c33          	sub	s8,s8,s2
   13a4e:	412787b3          	sub	a5,a5,s2
   13a52:	00fa3823          	sd	a5,16(s4)
   13a56:	f7c5                	bnez	a5,139fe <__sfvwrite_r+0x1ae>
   13a58:	6be2                	ld	s7,24(sp)
   13a5a:	6c42                	ld	s8,16(sp)
   13a5c:	6ca2                	ld	s9,8(sp)
   13a5e:	b5a5                	j	138c6 <__sfvwrite_r+0x76>
   13a60:	0084bc03          	ld	s8,8(s1)
   13a64:	87a6                	mv	a5,s1
   13a66:	04c1                	addi	s1,s1,16
   13a68:	fe0c0ce3          	beqz	s8,13a60 <__sfvwrite_r+0x210>
   13a6c:	0007bc83          	ld	s9,0(a5) # ffffffff80000000 <__BSS_END__+0xffffffff7ffe40e0>
   13a70:	8662                	mv	a2,s8
   13a72:	45a9                	li	a1,10
   13a74:	8566                	mv	a0,s9
   13a76:	248000ef          	jal	13cbe <memchr>
   13a7a:	10050463          	beqz	a0,13b82 <__sfvwrite_r+0x332>
   13a7e:	0505                	addi	a0,a0,1
   13a80:	419509bb          	subw	s3,a0,s9
   13a84:	b741                	j	13a04 <__sfvwrite_r+0x1b4>
   13a86:	85e6                	mv	a1,s9
   13a88:	8656                	mv	a2,s5
   13a8a:	3e0000ef          	jal	13e6a <memmove>
   13a8e:	601c                	ld	a5,0(s0)
   13a90:	85a2                	mv	a1,s0
   13a92:	855a                	mv	a0,s6
   13a94:	97d6                	add	a5,a5,s5
   13a96:	e01c                	sd	a5,0(s0)
   13a98:	d33ff0ef          	jal	137ca <_fflush_r>
   13a9c:	ed09                	bnez	a0,13ab6 <__sfvwrite_r+0x266>
   13a9e:	87d6                	mv	a5,s5
   13aa0:	40f989bb          	subw	s3,s3,a5
   13aa4:	8956                	mv	s2,s5
   13aa6:	4505                	li	a0,1
   13aa8:	f8099ee3          	bnez	s3,13a44 <__sfvwrite_r+0x1f4>
   13aac:	85a2                	mv	a1,s0
   13aae:	855a                	mv	a0,s6
   13ab0:	d1bff0ef          	jal	137ca <_fflush_r>
   13ab4:	d941                	beqz	a0,13a44 <__sfvwrite_r+0x1f4>
   13ab6:	01041783          	lh	a5,16(s0)
   13aba:	6be2                	ld	s7,24(sp)
   13abc:	6c42                	ld	s8,16(sp)
   13abe:	6ca2                	ld	s9,8(sp)
   13ac0:	64a6                	ld	s1,72(sp)
   13ac2:	6906                	ld	s2,64(sp)
   13ac4:	79e2                	ld	s3,56(sp)
   13ac6:	7aa2                	ld	s5,40(sp)
   13ac8:	0407e793          	ori	a5,a5,64
   13acc:	00f41823          	sh	a5,16(s0)
   13ad0:	557d                	li	a0,-1
   13ad2:	bbfd                	j	138d0 <__sfvwrite_r+0x80>
   13ad4:	6c1c                	ld	a5,24(s0)
   13ad6:	02a7e863          	bltu	a5,a0,13b06 <__sfvwrite_r+0x2b6>
   13ada:	501c                	lw	a5,32(s0)
   13adc:	02f96563          	bltu	s2,a5,13b06 <__sfvwrite_r+0x2b6>
   13ae0:	86ca                	mv	a3,s2
   13ae2:	012bf363          	bgeu	s7,s2,13ae8 <__sfvwrite_r+0x298>
   13ae6:	86de                	mv	a3,s7
   13ae8:	02f6c6bb          	divw	a3,a3,a5
   13aec:	6038                	ld	a4,64(s0)
   13aee:	780c                	ld	a1,48(s0)
   13af0:	8662                	mv	a2,s8
   13af2:	855a                	mv	a0,s6
   13af4:	02f686bb          	mulw	a3,a3,a5
   13af8:	9702                	jalr	a4
   13afa:	89aa                	mv	s3,a0
   13afc:	faa05de3          	blez	a0,13ab6 <__sfvwrite_r+0x266>
   13b00:	41390933          	sub	s2,s2,s3
   13b04:	bd7d                	j	139c2 <__sfvwrite_r+0x172>
   13b06:	89d6                	mv	s3,s5
   13b08:	01597363          	bgeu	s2,s5,13b0e <__sfvwrite_r+0x2be>
   13b0c:	89ca                	mv	s3,s2
   13b0e:	864e                	mv	a2,s3
   13b10:	85e2                	mv	a1,s8
   13b12:	358000ef          	jal	13e6a <memmove>
   13b16:	6018                	ld	a4,0(s0)
   13b18:	445c                	lw	a5,12(s0)
   13b1a:	974e                	add	a4,a4,s3
   13b1c:	413787bb          	subw	a5,a5,s3
   13b20:	e018                	sd	a4,0(s0)
   13b22:	c45c                	sw	a5,12(s0)
   13b24:	fff1                	bnez	a5,13b00 <__sfvwrite_r+0x2b0>
   13b26:	85a2                	mv	a1,s0
   13b28:	855a                	mv	a0,s6
   13b2a:	ca1ff0ef          	jal	137ca <_fflush_r>
   13b2e:	f541                	bnez	a0,13ab6 <__sfvwrite_r+0x266>
   13b30:	41390933          	sub	s2,s2,s3
   13b34:	b579                	j	139c2 <__sfvwrite_r+0x172>
   13b36:	865e                	mv	a2,s7
   13b38:	85e6                	mv	a1,s9
   13b3a:	330000ef          	jal	13e6a <memmove>
   13b3e:	4454                	lw	a3,12(s0)
   13b40:	6018                	ld	a4,0(s0)
   13b42:	000b879b          	sext.w	a5,s7
   13b46:	417686bb          	subw	a3,a3,s7
   13b4a:	975e                	add	a4,a4,s7
   13b4c:	c454                	sw	a3,12(s0)
   13b4e:	e018                	sd	a4,0(s0)
   13b50:	b5ed                	j	13a3a <__sfvwrite_r+0x1ea>
   13b52:	8cd6                	mv	s9,s5
   13b54:	bd91                	j	139a8 <__sfvwrite_r+0x158>
   13b56:	864e                	mv	a2,s3
   13b58:	855a                	mv	a0,s6
   13b5a:	185020ef          	jal	164de <_realloc_r>
   13b5e:	8caa                	mv	s9,a0
   13b60:	e20517e3          	bnez	a0,1398e <__sfvwrite_r+0x13e>
   13b64:	6c0c                	ld	a1,24(s0)
   13b66:	855a                	mv	a0,s6
   13b68:	feffc0ef          	jal	10b56 <_free_r>
   13b6c:	01041783          	lh	a5,16(s0)
   13b70:	4731                	li	a4,12
   13b72:	6be2                	ld	s7,24(sp)
   13b74:	6c42                	ld	s8,16(sp)
   13b76:	6ca2                	ld	s9,8(sp)
   13b78:	00eb2023          	sw	a4,0(s6)
   13b7c:	f7f7f793          	andi	a5,a5,-129
   13b80:	b781                	j	13ac0 <__sfvwrite_r+0x270>
   13b82:	001c099b          	addiw	s3,s8,1
   13b86:	bdbd                	j	13a04 <__sfvwrite_r+0x1b4>
   13b88:	01041783          	lh	a5,16(s0)
   13b8c:	bf15                	j	13ac0 <__sfvwrite_r+0x270>
   13b8e:	47b1                	li	a5,12
   13b90:	00fb2023          	sw	a5,0(s6)
   13b94:	6be2                	ld	s7,24(sp)
   13b96:	01041783          	lh	a5,16(s0)
   13b9a:	6c42                	ld	s8,16(sp)
   13b9c:	6ca2                	ld	s9,8(sp)
   13b9e:	b70d                	j	13ac0 <__sfvwrite_r+0x270>

0000000000013ba0 <__swsetup_r>:
   13ba0:	2201b783          	ld	a5,544(gp) # 1b940 <_impure_ptr>
   13ba4:	1101                	addi	sp,sp,-32
   13ba6:	e822                	sd	s0,16(sp)
   13ba8:	e426                	sd	s1,8(sp)
   13baa:	ec06                	sd	ra,24(sp)
   13bac:	84aa                	mv	s1,a0
   13bae:	842e                	mv	s0,a1
   13bb0:	c399                	beqz	a5,13bb6 <__swsetup_r+0x16>
   13bb2:	67b8                	ld	a4,72(a5)
   13bb4:	cb69                	beqz	a4,13c86 <__swsetup_r+0xe6>
   13bb6:	01041783          	lh	a5,16(s0)
   13bba:	0087f713          	andi	a4,a5,8
   13bbe:	c315                	beqz	a4,13be2 <__swsetup_r+0x42>
   13bc0:	6c18                	ld	a4,24(s0)
   13bc2:	cf05                	beqz	a4,13bfa <__swsetup_r+0x5a>
   13bc4:	0017f713          	andi	a4,a5,1
   13bc8:	c32d                	beqz	a4,13c2a <__swsetup_r+0x8a>
   13bca:	501c                	lw	a5,32(s0)
   13bcc:	00042623          	sw	zero,12(s0)
   13bd0:	40f007bb          	negw	a5,a5
   13bd4:	d41c                	sw	a5,40(s0)
   13bd6:	4501                	li	a0,0
   13bd8:	60e2                	ld	ra,24(sp)
   13bda:	6442                	ld	s0,16(sp)
   13bdc:	64a2                	ld	s1,8(sp)
   13bde:	6105                	addi	sp,sp,32
   13be0:	8082                	ret
   13be2:	0107f713          	andi	a4,a5,16
   13be6:	c761                	beqz	a4,13cae <__swsetup_r+0x10e>
   13be8:	0047f713          	andi	a4,a5,4
   13bec:	e721                	bnez	a4,13c34 <__swsetup_r+0x94>
   13bee:	6c18                	ld	a4,24(s0)
   13bf0:	0087e793          	ori	a5,a5,8
   13bf4:	00f41823          	sh	a5,16(s0)
   13bf8:	f771                	bnez	a4,13bc4 <__swsetup_r+0x24>
   13bfa:	2807f693          	andi	a3,a5,640
   13bfe:	20000613          	li	a2,512
   13c02:	06c69063          	bne	a3,a2,13c62 <__swsetup_r+0xc2>
   13c06:	0017f693          	andi	a3,a5,1
   13c0a:	c2d1                	beqz	a3,13c8e <__swsetup_r+0xee>
   13c0c:	5018                	lw	a4,32(s0)
   13c0e:	00042623          	sw	zero,12(s0)
   13c12:	40e0073b          	negw	a4,a4
   13c16:	d418                	sw	a4,40(s0)
   13c18:	0807f713          	andi	a4,a5,128
   13c1c:	df4d                	beqz	a4,13bd6 <__swsetup_r+0x36>
   13c1e:	0407e793          	ori	a5,a5,64
   13c22:	00f41823          	sh	a5,16(s0)
   13c26:	557d                	li	a0,-1
   13c28:	bf45                	j	13bd8 <__swsetup_r+0x38>
   13c2a:	8b89                	andi	a5,a5,2
   13c2c:	eb85                	bnez	a5,13c5c <__swsetup_r+0xbc>
   13c2e:	501c                	lw	a5,32(s0)
   13c30:	c45c                	sw	a5,12(s0)
   13c32:	b755                	j	13bd6 <__swsetup_r+0x36>
   13c34:	6c2c                	ld	a1,88(s0)
   13c36:	cd81                	beqz	a1,13c4e <__swsetup_r+0xae>
   13c38:	07440713          	addi	a4,s0,116
   13c3c:	00e58763          	beq	a1,a4,13c4a <__swsetup_r+0xaa>
   13c40:	8526                	mv	a0,s1
   13c42:	f15fc0ef          	jal	10b56 <_free_r>
   13c46:	01041783          	lh	a5,16(s0)
   13c4a:	04043c23          	sd	zero,88(s0)
   13c4e:	6c18                	ld	a4,24(s0)
   13c50:	fdb7f793          	andi	a5,a5,-37
   13c54:	00042423          	sw	zero,8(s0)
   13c58:	e018                	sd	a4,0(s0)
   13c5a:	bf59                	j	13bf0 <__swsetup_r+0x50>
   13c5c:	00042623          	sw	zero,12(s0)
   13c60:	bf9d                	j	13bd6 <__swsetup_r+0x36>
   13c62:	8526                	mv	a0,s1
   13c64:	85a2                	mv	a1,s0
   13c66:	4a5020ef          	jal	1690a <__smakebuf_r>
   13c6a:	01041783          	lh	a5,16(s0)
   13c6e:	6c18                	ld	a4,24(s0)
   13c70:	0017f693          	andi	a3,a5,1
   13c74:	c685                	beqz	a3,13c9c <__swsetup_r+0xfc>
   13c76:	5014                	lw	a3,32(s0)
   13c78:	00042623          	sw	zero,12(s0)
   13c7c:	40d006bb          	negw	a3,a3
   13c80:	d414                	sw	a3,40(s0)
   13c82:	db59                	beqz	a4,13c18 <__swsetup_r+0x78>
   13c84:	bf89                	j	13bd6 <__swsetup_r+0x36>
   13c86:	853e                	mv	a0,a5
   13c88:	8c3fc0ef          	jal	1054a <__sinit>
   13c8c:	b72d                	j	13bb6 <__swsetup_r+0x16>
   13c8e:	0027f693          	andi	a3,a5,2
   13c92:	ea99                	bnez	a3,13ca8 <__swsetup_r+0x108>
   13c94:	5010                	lw	a2,32(s0)
   13c96:	c450                	sw	a2,12(s0)
   13c98:	d341                	beqz	a4,13c18 <__swsetup_r+0x78>
   13c9a:	bf35                	j	13bd6 <__swsetup_r+0x36>
   13c9c:	0027f693          	andi	a3,a5,2
   13ca0:	4601                	li	a2,0
   13ca2:	faf5                	bnez	a3,13c96 <__swsetup_r+0xf6>
   13ca4:	5010                	lw	a2,32(s0)
   13ca6:	bfc5                	j	13c96 <__swsetup_r+0xf6>
   13ca8:	00042623          	sw	zero,12(s0)
   13cac:	b7b5                	j	13c18 <__swsetup_r+0x78>
   13cae:	4725                	li	a4,9
   13cb0:	0407e793          	ori	a5,a5,64
   13cb4:	c098                	sw	a4,0(s1)
   13cb6:	00f41823          	sh	a5,16(s0)
   13cba:	557d                	li	a0,-1
   13cbc:	bf31                	j	13bd8 <__swsetup_r+0x38>

0000000000013cbe <memchr>:
   13cbe:	00757713          	andi	a4,a0,7
   13cc2:	87aa                	mv	a5,a0
   13cc4:	0ff5f813          	zext.b	a6,a1
   13cc8:	832a                	mv	t1,a0
   13cca:	c70d                	beqz	a4,13cf4 <memchr+0x36>
   13ccc:	00c508b3          	add	a7,a0,a2
   13cd0:	a039                	j	13cde <memchr+0x20>
   13cd2:	0007c683          	lbu	a3,0(a5)
   13cd6:	09068663          	beq	a3,a6,13d62 <memchr+0xa4>
   13cda:	cb11                	beqz	a4,13cee <memchr+0x30>
   13cdc:	87aa                	mv	a5,a0
   13cde:	00178513          	addi	a0,a5,1
   13ce2:	00757713          	andi	a4,a0,7
   13ce6:	fef896e3          	bne	a7,a5,13cd2 <memchr+0x14>
   13cea:	4501                	li	a0,0
   13cec:	8082                	ret
   13cee:	167d                	addi	a2,a2,-1
   13cf0:	961a                	add	a2,a2,t1
   13cf2:	8e1d                	sub	a2,a2,a5
   13cf4:	489d                	li	a7,7
   13cf6:	04c8fb63          	bgeu	a7,a2,13d4c <memchr+0x8e>
   13cfa:	0ff5f593          	zext.b	a1,a1
   13cfe:	0085971b          	slliw	a4,a1,0x8
   13d02:	972e                	add	a4,a4,a1
   13d04:	01071593          	slli	a1,a4,0x10
   13d08:	feff07b7          	lui	a5,0xfeff0
   13d0c:	808086b7          	lui	a3,0x80808
   13d10:	95ba                	add	a1,a1,a4
   13d12:	eff78793          	addi	a5,a5,-257 # fffffffffefefeff <__BSS_END__+0xfffffffffefd3fdf>
   13d16:	08168693          	addi	a3,a3,129 # ffffffff80808081 <__BSS_END__+0xffffffff807ec161>
   13d1a:	80808737          	lui	a4,0x80808
   13d1e:	02059e13          	slli	t3,a1,0x20
   13d22:	02079313          	slli	t1,a5,0x20
   13d26:	1682                	slli	a3,a3,0x20
   13d28:	08070713          	addi	a4,a4,128 # ffffffff80808080 <__BSS_END__+0xffffffff807ec160>
   13d2c:	95f2                	add	a1,a1,t3
   13d2e:	933e                	add	t1,t1,a5
   13d30:	96ba                	add	a3,a3,a4
   13d32:	611c                	ld	a5,0(a0)
   13d34:	8fad                	xor	a5,a5,a1
   13d36:	00678733          	add	a4,a5,t1
   13d3a:	fff7c793          	not	a5,a5
   13d3e:	8ff9                	and	a5,a5,a4
   13d40:	8ff5                	and	a5,a5,a3
   13d42:	e791                	bnez	a5,13d4e <memchr+0x90>
   13d44:	1661                	addi	a2,a2,-8
   13d46:	0521                	addi	a0,a0,8
   13d48:	fec8e5e3          	bltu	a7,a2,13d32 <memchr+0x74>
   13d4c:	de59                	beqz	a2,13cea <memchr+0x2c>
   13d4e:	962a                	add	a2,a2,a0
   13d50:	a021                	j	13d58 <memchr+0x9a>
   13d52:	0505                	addi	a0,a0,1
   13d54:	f8c50be3          	beq	a0,a2,13cea <memchr+0x2c>
   13d58:	00054783          	lbu	a5,0(a0)
   13d5c:	ff079be3          	bne	a5,a6,13d52 <memchr+0x94>
   13d60:	8082                	ret
   13d62:	853e                	mv	a0,a5
   13d64:	8082                	ret

0000000000013d66 <strncpy>:
   13d66:	00a5e7b3          	or	a5,a1,a0
   13d6a:	8b9d                	andi	a5,a5,7
   13d6c:	e781                	bnez	a5,13d74 <strncpy+0xe>
   13d6e:	431d                	li	t1,7
   13d70:	02c36b63          	bltu	t1,a2,13da6 <strncpy+0x40>
   13d74:	872a                	mv	a4,a0
   13d76:	a811                	j	13d8a <strncpy+0x24>
   13d78:	fff5c683          	lbu	a3,-1(a1)
   13d7c:	fff60813          	addi	a6,a2,-1
   13d80:	fed78fa3          	sb	a3,-1(a5)
   13d84:	ca81                	beqz	a3,13d94 <strncpy+0x2e>
   13d86:	873e                	mv	a4,a5
   13d88:	8642                	mv	a2,a6
   13d8a:	0585                	addi	a1,a1,1
   13d8c:	00170793          	addi	a5,a4,1
   13d90:	f665                	bnez	a2,13d78 <strncpy+0x12>
   13d92:	8082                	ret
   13d94:	9732                	add	a4,a4,a2
   13d96:	04080b63          	beqz	a6,13dec <strncpy+0x86>
   13d9a:	0785                	addi	a5,a5,1
   13d9c:	fe078fa3          	sb	zero,-1(a5)
   13da0:	fee79de3          	bne	a5,a4,13d9a <strncpy+0x34>
   13da4:	8082                	ret
   13da6:	feff07b7          	lui	a5,0xfeff0
   13daa:	808088b7          	lui	a7,0x80808
   13dae:	eff78793          	addi	a5,a5,-257 # fffffffffefefeff <__BSS_END__+0xfffffffffefd3fdf>
   13db2:	08188893          	addi	a7,a7,129 # ffffffff80808081 <__BSS_END__+0xffffffff807ec161>
   13db6:	80808737          	lui	a4,0x80808
   13dba:	08070713          	addi	a4,a4,128 # ffffffff80808080 <__BSS_END__+0xffffffff807ec160>
   13dbe:	02079e13          	slli	t3,a5,0x20
   13dc2:	1882                	slli	a7,a7,0x20
   13dc4:	98ba                	add	a7,a7,a4
   13dc6:	9e3e                	add	t3,t3,a5
   13dc8:	872a                	mv	a4,a0
   13dca:	6194                	ld	a3,0(a1)
   13dcc:	01c687b3          	add	a5,a3,t3
   13dd0:	fff6c813          	not	a6,a3
   13dd4:	0107f7b3          	and	a5,a5,a6
   13dd8:	0117f7b3          	and	a5,a5,a7
   13ddc:	f7dd                	bnez	a5,13d8a <strncpy+0x24>
   13dde:	1661                	addi	a2,a2,-8
   13de0:	e314                	sd	a3,0(a4)
   13de2:	0721                	addi	a4,a4,8
   13de4:	05a1                	addi	a1,a1,8
   13de6:	fec362e3          	bltu	t1,a2,13dca <strncpy+0x64>
   13dea:	b745                	j	13d8a <strncpy+0x24>
   13dec:	8082                	ret

0000000000013dee <__localeconv_l>:
   13dee:	10050513          	addi	a0,a0,256
   13df2:	8082                	ret

0000000000013df4 <_localeconv_r>:
   13df4:	0e818513          	addi	a0,gp,232 # 1b808 <__global_pointer$+0xe8>
   13df8:	8082                	ret

0000000000013dfa <localeconv>:
   13dfa:	0e818513          	addi	a0,gp,232 # 1b808 <__global_pointer$+0xe8>
   13dfe:	8082                	ret

0000000000013e00 <_sbrk_r>:
   13e00:	1101                	addi	sp,sp,-32
   13e02:	e822                	sd	s0,16(sp)
   13e04:	e426                	sd	s1,8(sp)
   13e06:	842a                	mv	s0,a0
   13e08:	852e                	mv	a0,a1
   13e0a:	ec06                	sd	ra,24(sp)
   13e0c:	2401a023          	sw	zero,576(gp) # 1b960 <errno>
   13e10:	39a040ef          	jal	181aa <_sbrk>
   13e14:	57fd                	li	a5,-1
   13e16:	00f50763          	beq	a0,a5,13e24 <_sbrk_r+0x24>
   13e1a:	60e2                	ld	ra,24(sp)
   13e1c:	6442                	ld	s0,16(sp)
   13e1e:	64a2                	ld	s1,8(sp)
   13e20:	6105                	addi	sp,sp,32
   13e22:	8082                	ret
   13e24:	2401a783          	lw	a5,576(gp) # 1b960 <errno>
   13e28:	dbed                	beqz	a5,13e1a <_sbrk_r+0x1a>
   13e2a:	60e2                	ld	ra,24(sp)
   13e2c:	c01c                	sw	a5,0(s0)
   13e2e:	6442                	ld	s0,16(sp)
   13e30:	64a2                	ld	s1,8(sp)
   13e32:	6105                	addi	sp,sp,32
   13e34:	8082                	ret

0000000000013e36 <__libc_fini_array>:
   13e36:	1101                	addi	sp,sp,-32
   13e38:	e822                	sd	s0,16(sp)
   13e3a:	67ed                	lui	a5,0x1b
   13e3c:	646d                	lui	s0,0x1b
   13e3e:	d8840413          	addi	s0,s0,-632 # 1ad88 <__sglue>
   13e42:	d8078793          	addi	a5,a5,-640 # 1ad80 <__do_global_dtors_aux_fini_array_entry>
   13e46:	8c1d                	sub	s0,s0,a5
   13e48:	e426                	sd	s1,8(sp)
   13e4a:	ec06                	sd	ra,24(sp)
   13e4c:	40345493          	srai	s1,s0,0x3
   13e50:	c881                	beqz	s1,13e60 <__libc_fini_array+0x2a>
   13e52:	1461                	addi	s0,s0,-8
   13e54:	943e                	add	s0,s0,a5
   13e56:	601c                	ld	a5,0(s0)
   13e58:	14fd                	addi	s1,s1,-1
   13e5a:	1461                	addi	s0,s0,-8
   13e5c:	9782                	jalr	a5
   13e5e:	fce5                	bnez	s1,13e56 <__libc_fini_array+0x20>
   13e60:	60e2                	ld	ra,24(sp)
   13e62:	6442                	ld	s0,16(sp)
   13e64:	64a2                	ld	s1,8(sp)
   13e66:	6105                	addi	sp,sp,32
   13e68:	8082                	ret

0000000000013e6a <memmove>:
   13e6a:	02a5f263          	bgeu	a1,a0,13e8e <memmove+0x24>
   13e6e:	00c58733          	add	a4,a1,a2
   13e72:	00e57e63          	bgeu	a0,a4,13e8e <memmove+0x24>
   13e76:	00c507b3          	add	a5,a0,a2
   13e7a:	ca1d                	beqz	a2,13eb0 <memmove+0x46>
   13e7c:	fff74683          	lbu	a3,-1(a4)
   13e80:	17fd                	addi	a5,a5,-1
   13e82:	177d                	addi	a4,a4,-1
   13e84:	00d78023          	sb	a3,0(a5)
   13e88:	fef51ae3          	bne	a0,a5,13e7c <memmove+0x12>
   13e8c:	8082                	ret
   13e8e:	47fd                	li	a5,31
   13e90:	02c7e163          	bltu	a5,a2,13eb2 <memmove+0x48>
   13e94:	87aa                	mv	a5,a0
   13e96:	fff60693          	addi	a3,a2,-1
   13e9a:	ca45                	beqz	a2,13f4a <memmove+0xe0>
   13e9c:	0685                	addi	a3,a3,1
   13e9e:	96be                	add	a3,a3,a5
   13ea0:	0005c703          	lbu	a4,0(a1)
   13ea4:	0785                	addi	a5,a5,1
   13ea6:	0585                	addi	a1,a1,1
   13ea8:	fee78fa3          	sb	a4,-1(a5)
   13eac:	fed79ae3          	bne	a5,a3,13ea0 <memmove+0x36>
   13eb0:	8082                	ret
   13eb2:	00b567b3          	or	a5,a0,a1
   13eb6:	8b9d                	andi	a5,a5,7
   13eb8:	88ae                	mv	a7,a1
   13eba:	e7c1                	bnez	a5,13f42 <memmove+0xd8>
   13ebc:	fe060793          	addi	a5,a2,-32
   13ec0:	fe07f813          	andi	a6,a5,-32
   13ec4:	02080813          	addi	a6,a6,32
   13ec8:	982a                	add	a6,a6,a0
   13eca:	872a                	mv	a4,a0
   13ecc:	6194                	ld	a3,0(a1)
   13ece:	02058593          	addi	a1,a1,32
   13ed2:	02070713          	addi	a4,a4,32
   13ed6:	fed73023          	sd	a3,-32(a4)
   13eda:	fe85b683          	ld	a3,-24(a1)
   13ede:	fed73423          	sd	a3,-24(a4)
   13ee2:	ff05b683          	ld	a3,-16(a1)
   13ee6:	fed73823          	sd	a3,-16(a4)
   13eea:	ff85b683          	ld	a3,-8(a1)
   13eee:	fed73c23          	sd	a3,-8(a4)
   13ef2:	fd071de3          	bne	a4,a6,13ecc <memmove+0x62>
   13ef6:	9b81                	andi	a5,a5,-32
   13ef8:	01178733          	add	a4,a5,a7
   13efc:	02070593          	addi	a1,a4,32
   13f00:	97aa                	add	a5,a5,a0
   13f02:	01867813          	andi	a6,a2,24
   13f06:	02078793          	addi	a5,a5,32
   13f0a:	8e2e                	mv	t3,a1
   13f0c:	01f67693          	andi	a3,a2,31
   13f10:	02080e63          	beqz	a6,13f4c <memmove+0xe2>
   13f14:	16e1                	addi	a3,a3,-8
   13f16:	9ae1                	andi	a3,a3,-8
   13f18:	9736                	add	a4,a4,a3
   13f1a:	02870713          	addi	a4,a4,40
   13f1e:	41150833          	sub	a6,a0,a7
   13f22:	0005b303          	ld	t1,0(a1)
   13f26:	010588b3          	add	a7,a1,a6
   13f2a:	05a1                	addi	a1,a1,8
   13f2c:	0068b023          	sd	t1,0(a7)
   13f30:	fee599e3          	bne	a1,a4,13f22 <memmove+0xb8>
   13f34:	00868713          	addi	a4,a3,8
   13f38:	01c705b3          	add	a1,a4,t3
   13f3c:	97ba                	add	a5,a5,a4
   13f3e:	8a1d                	andi	a2,a2,7
   13f40:	bf99                	j	13e96 <memmove+0x2c>
   13f42:	fff60693          	addi	a3,a2,-1
   13f46:	87aa                	mv	a5,a0
   13f48:	bf91                	j	13e9c <memmove+0x32>
   13f4a:	8082                	ret
   13f4c:	8636                	mv	a2,a3
   13f4e:	b7a1                	j	13e96 <memmove+0x2c>

0000000000013f50 <memcpy>:
   13f50:	00a5c7b3          	xor	a5,a1,a0
   13f54:	8b9d                	andi	a5,a5,7
   13f56:	00c508b3          	add	a7,a0,a2
   13f5a:	e7b1                	bnez	a5,13fa6 <memcpy+0x56>
   13f5c:	479d                	li	a5,7
   13f5e:	04c7f463          	bgeu	a5,a2,13fa6 <memcpy+0x56>
   13f62:	00757793          	andi	a5,a0,7
   13f66:	872a                	mv	a4,a0
   13f68:	e7dd                	bnez	a5,14016 <memcpy+0xc6>
   13f6a:	ff88f613          	andi	a2,a7,-8
   13f6e:	40e606b3          	sub	a3,a2,a4
   13f72:	04000793          	li	a5,64
   13f76:	04d7c463          	blt	a5,a3,13fbe <memcpy+0x6e>
   13f7a:	86ae                	mv	a3,a1
   13f7c:	87ba                	mv	a5,a4
   13f7e:	02c77163          	bgeu	a4,a2,13fa0 <memcpy+0x50>
   13f82:	0006b803          	ld	a6,0(a3)
   13f86:	07a1                	addi	a5,a5,8
   13f88:	06a1                	addi	a3,a3,8
   13f8a:	ff07bc23          	sd	a6,-8(a5)
   13f8e:	fec7eae3          	bltu	a5,a2,13f82 <memcpy+0x32>
   13f92:	167d                	addi	a2,a2,-1
   13f94:	8e19                	sub	a2,a2,a4
   13f96:	9a61                	andi	a2,a2,-8
   13f98:	05a1                	addi	a1,a1,8
   13f9a:	0721                	addi	a4,a4,8
   13f9c:	95b2                	add	a1,a1,a2
   13f9e:	9732                	add	a4,a4,a2
   13fa0:	01176663          	bltu	a4,a7,13fac <memcpy+0x5c>
   13fa4:	8082                	ret
   13fa6:	872a                	mv	a4,a0
   13fa8:	ff157ee3          	bgeu	a0,a7,13fa4 <memcpy+0x54>
   13fac:	0005c783          	lbu	a5,0(a1)
   13fb0:	0705                	addi	a4,a4,1
   13fb2:	0585                	addi	a1,a1,1
   13fb4:	fef70fa3          	sb	a5,-1(a4)
   13fb8:	fee89ae3          	bne	a7,a4,13fac <memcpy+0x5c>
   13fbc:	8082                	ret
   13fbe:	61b4                	ld	a3,64(a1)
   13fc0:	0005b383          	ld	t2,0(a1)
   13fc4:	0085b283          	ld	t0,8(a1)
   13fc8:	0105bf83          	ld	t6,16(a1)
   13fcc:	0185bf03          	ld	t5,24(a1)
   13fd0:	0205be83          	ld	t4,32(a1)
   13fd4:	0285be03          	ld	t3,40(a1)
   13fd8:	0305b303          	ld	t1,48(a1)
   13fdc:	0385b803          	ld	a6,56(a1)
   13fe0:	04870713          	addi	a4,a4,72
   13fe4:	fed73c23          	sd	a3,-8(a4)
   13fe8:	fa773c23          	sd	t2,-72(a4)
   13fec:	40e606b3          	sub	a3,a2,a4
   13ff0:	fc573023          	sd	t0,-64(a4)
   13ff4:	fdf73423          	sd	t6,-56(a4)
   13ff8:	fde73823          	sd	t5,-48(a4)
   13ffc:	fdd73c23          	sd	t4,-40(a4)
   14000:	ffc73023          	sd	t3,-32(a4)
   14004:	fe673423          	sd	t1,-24(a4)
   14008:	ff073823          	sd	a6,-16(a4)
   1400c:	04858593          	addi	a1,a1,72
   14010:	fad7c7e3          	blt	a5,a3,13fbe <memcpy+0x6e>
   14014:	b79d                	j	13f7a <memcpy+0x2a>
   14016:	0005c683          	lbu	a3,0(a1)
   1401a:	0705                	addi	a4,a4,1
   1401c:	00777793          	andi	a5,a4,7
   14020:	fed70fa3          	sb	a3,-1(a4)
   14024:	0585                	addi	a1,a1,1
   14026:	d3b1                	beqz	a5,13f6a <memcpy+0x1a>
   14028:	0005c683          	lbu	a3,0(a1)
   1402c:	0705                	addi	a4,a4,1
   1402e:	00777793          	andi	a5,a4,7
   14032:	fed70fa3          	sb	a3,-1(a4)
   14036:	0585                	addi	a1,a1,1
   14038:	fff9                	bnez	a5,14016 <memcpy+0xc6>
   1403a:	bf05                	j	13f6a <memcpy+0x1a>

000000000001403c <strlen>:
   1403c:	00757793          	andi	a5,a0,7
   14040:	872a                	mv	a4,a0
   14042:	efb1                	bnez	a5,1409e <strlen+0x62>
   14044:	7f7f87b7          	lui	a5,0x7f7f8
   14048:	f7f78793          	addi	a5,a5,-129 # 7f7f7f7f <__BSS_END__+0x7f7dc05f>
   1404c:	02079693          	slli	a3,a5,0x20
   14050:	96be                	add	a3,a3,a5
   14052:	55fd                	li	a1,-1
   14054:	6310                	ld	a2,0(a4)
   14056:	0721                	addi	a4,a4,8
   14058:	00d677b3          	and	a5,a2,a3
   1405c:	97b6                	add	a5,a5,a3
   1405e:	8fd1                	or	a5,a5,a2
   14060:	8fd5                	or	a5,a5,a3
   14062:	feb789e3          	beq	a5,a1,14054 <strlen+0x18>
   14066:	ff874683          	lbu	a3,-8(a4)
   1406a:	40a707b3          	sub	a5,a4,a0
   1406e:	c6a9                	beqz	a3,140b8 <strlen+0x7c>
   14070:	ff974683          	lbu	a3,-7(a4)
   14074:	ce9d                	beqz	a3,140b2 <strlen+0x76>
   14076:	ffa74683          	lbu	a3,-6(a4)
   1407a:	c6a9                	beqz	a3,140c4 <strlen+0x88>
   1407c:	ffb74683          	lbu	a3,-5(a4)
   14080:	ce9d                	beqz	a3,140be <strlen+0x82>
   14082:	ffc74683          	lbu	a3,-4(a4)
   14086:	c2b1                	beqz	a3,140ca <strlen+0x8e>
   14088:	ffd74683          	lbu	a3,-3(a4)
   1408c:	c2b1                	beqz	a3,140d0 <strlen+0x94>
   1408e:	ffe74503          	lbu	a0,-2(a4)
   14092:	00a03533          	snez	a0,a0
   14096:	953e                	add	a0,a0,a5
   14098:	1579                	addi	a0,a0,-2
   1409a:	8082                	ret
   1409c:	d6c5                	beqz	a3,14044 <strlen+0x8>
   1409e:	00074783          	lbu	a5,0(a4)
   140a2:	0705                	addi	a4,a4,1
   140a4:	00777693          	andi	a3,a4,7
   140a8:	fbf5                	bnez	a5,1409c <strlen+0x60>
   140aa:	8f09                	sub	a4,a4,a0
   140ac:	fff70513          	addi	a0,a4,-1
   140b0:	8082                	ret
   140b2:	ff978513          	addi	a0,a5,-7
   140b6:	8082                	ret
   140b8:	ff878513          	addi	a0,a5,-8
   140bc:	8082                	ret
   140be:	ffb78513          	addi	a0,a5,-5
   140c2:	8082                	ret
   140c4:	ffa78513          	addi	a0,a5,-6
   140c8:	8082                	ret
   140ca:	ffc78513          	addi	a0,a5,-4
   140ce:	8082                	ret
   140d0:	ffd78513          	addi	a0,a5,-3
   140d4:	8082                	ret

00000000000140d6 <frexpl>:
   140d6:	7139                	addi	sp,sp,-64
   140d8:	f04a                	sd	s2,32(sp)
   140da:	6921                	lui	s2,0x8
   140dc:	f822                	sd	s0,48(sp)
   140de:	f426                	sd	s1,40(sp)
   140e0:	e456                	sd	s5,8(sp)
   140e2:	fc06                	sd	ra,56(sp)
   140e4:	0305d493          	srli	s1,a1,0x30
   140e8:	197d                	addi	s2,s2,-1 # 7fff <exit-0x8121>
   140ea:	00062023          	sw	zero,0(a2)
   140ee:	0124f4b3          	and	s1,s1,s2
   140f2:	842e                	mv	s0,a1
   140f4:	8aaa                	mv	s5,a0
   140f6:	05248463          	beq	s1,s2,1413e <frexpl+0x68>
   140fa:	e05a                	sd	s6,0(sp)
   140fc:	4681                	li	a3,0
   140fe:	8b32                	mv	s6,a2
   14100:	4601                	li	a2,0
   14102:	ec4e                	sd	s3,24(sp)
   14104:	e852                	sd	s4,16(sp)
   14106:	89ae                	mv	s3,a1
   14108:	8a2a                	mv	s4,a0
   1410a:	17a040ef          	jal	18284 <__eqtf2>
   1410e:	c125                	beqz	a0,1416e <frexpl+0x98>
   14110:	4681                	li	a3,0
   14112:	cc8d                	beqz	s1,1414c <frexpl+0x76>
   14114:	7771                	lui	a4,0xffffc
   14116:	f80017b7          	lui	a5,0xf8001
   1411a:	2709                	addiw	a4,a4,2 # ffffffffffffc002 <__BSS_END__+0xfffffffffffe00e2>
   1411c:	1792                	slli	a5,a5,0x24
   1411e:	9cb9                	addw	s1,s1,a4
   14120:	17fd                	addi	a5,a5,-1 # fffffffff8000fff <__BSS_END__+0xfffffffff7fe50df>
   14122:	01fff437          	lui	s0,0x1fff
   14126:	00f9f9b3          	and	s3,s3,a5
   1412a:	9cb5                	addw	s1,s1,a3
   1412c:	1416                	slli	s0,s0,0x25
   1412e:	8552                	mv	a0,s4
   14130:	009b2023          	sw	s1,0(s6)
   14134:	0089e5b3          	or	a1,s3,s0
   14138:	6a42                	ld	s4,16(sp)
   1413a:	69e2                	ld	s3,24(sp)
   1413c:	6b02                	ld	s6,0(sp)
   1413e:	70e2                	ld	ra,56(sp)
   14140:	7442                	ld	s0,48(sp)
   14142:	74a2                	ld	s1,40(sp)
   14144:	7902                	ld	s2,32(sp)
   14146:	6aa2                	ld	s5,8(sp)
   14148:	6121                	addi	sp,sp,64
   1414a:	8082                	ret
   1414c:	040716b7          	lui	a3,0x4071
   14150:	1692                	slli	a3,a3,0x24
   14152:	8556                	mv	a0,s5
   14154:	85a2                	mv	a1,s0
   14156:	4601                	li	a2,0
   14158:	310040ef          	jal	18468 <__multf3>
   1415c:	0305d493          	srli	s1,a1,0x30
   14160:	89ae                	mv	s3,a1
   14162:	8a2a                	mv	s4,a0
   14164:	0124f4b3          	and	s1,s1,s2
   14168:	f8e00693          	li	a3,-114
   1416c:	b765                	j	14114 <frexpl+0x3e>
   1416e:	70e2                	ld	ra,56(sp)
   14170:	85a2                	mv	a1,s0
   14172:	7442                	ld	s0,48(sp)
   14174:	69e2                	ld	s3,24(sp)
   14176:	6a42                	ld	s4,16(sp)
   14178:	6b02                	ld	s6,0(sp)
   1417a:	74a2                	ld	s1,40(sp)
   1417c:	7902                	ld	s2,32(sp)
   1417e:	8556                	mv	a0,s5
   14180:	6aa2                	ld	s5,8(sp)
   14182:	6121                	addi	sp,sp,64
   14184:	8082                	ret

0000000000014186 <__register_exitproc>:
   14186:	2481b783          	ld	a5,584(gp) # 1b968 <__atexit>
   1418a:	c3a9                	beqz	a5,141cc <__register_exitproc+0x46>
   1418c:	4798                	lw	a4,8(a5)
   1418e:	487d                	li	a6,31
   14190:	06e84363          	blt	a6,a4,141f6 <__register_exitproc+0x70>
   14194:	c505                	beqz	a0,141bc <__register_exitproc+0x36>
   14196:	00371813          	slli	a6,a4,0x3
   1419a:	983e                	add	a6,a6,a5
   1419c:	10c83823          	sd	a2,272(a6)
   141a0:	3107a883          	lw	a7,784(a5)
   141a4:	4605                	li	a2,1
   141a6:	00e6163b          	sllw	a2,a2,a4
   141aa:	00c8e8b3          	or	a7,a7,a2
   141ae:	3117a823          	sw	a7,784(a5)
   141b2:	20d83823          	sd	a3,528(a6)
   141b6:	4689                	li	a3,2
   141b8:	02d50263          	beq	a0,a3,141dc <__register_exitproc+0x56>
   141bc:	00371693          	slli	a3,a4,0x3
   141c0:	2705                	addiw	a4,a4,1
   141c2:	96be                	add	a3,a3,a5
   141c4:	c798                	sw	a4,8(a5)
   141c6:	ea8c                	sd	a1,16(a3)
   141c8:	4501                	li	a0,0
   141ca:	8082                	ret
   141cc:	67f1                	lui	a5,0x1c
   141ce:	c0878813          	addi	a6,a5,-1016 # 1bc08 <__atexit0>
   141d2:	2501b423          	sd	a6,584(gp) # 1b968 <__atexit>
   141d6:	c0878793          	addi	a5,a5,-1016
   141da:	bf4d                	j	1418c <__register_exitproc+0x6>
   141dc:	3147a683          	lw	a3,788(a5)
   141e0:	4501                	li	a0,0
   141e2:	8e55                	or	a2,a2,a3
   141e4:	00371693          	slli	a3,a4,0x3
   141e8:	2705                	addiw	a4,a4,1
   141ea:	30c7aa23          	sw	a2,788(a5)
   141ee:	96be                	add	a3,a3,a5
   141f0:	c798                	sw	a4,8(a5)
   141f2:	ea8c                	sd	a1,16(a3)
   141f4:	8082                	ret
   141f6:	557d                	li	a0,-1
   141f8:	8082                	ret

00000000000141fa <_ldtoa_r>:
   141fa:	6369                	lui	t1,0x1a
   141fc:	81030313          	addi	t1,t1,-2032 # 19810 <blanks.1+0x10>
   14200:	00033f03          	ld	t5,0(t1)
   14204:	00833e83          	ld	t4,8(t1)
   14208:	01032e03          	lw	t3,16(t1)
   1420c:	05053303          	ld	t1,80(a0)
   14210:	7131                	addi	sp,sp,-192
   14212:	f922                	sd	s0,176(sp)
   14214:	f526                	sd	s1,168(sp)
   14216:	e15a                	sd	s6,128(sp)
   14218:	fcde                	sd	s7,120(sp)
   1421a:	f8e2                	sd	s8,112(sp)
   1421c:	f4e6                	sd	s9,104(sp)
   1421e:	f0ea                	sd	s10,96(sp)
   14220:	fd06                	sd	ra,184(sp)
   14222:	f14a                	sd	s2,160(sp)
   14224:	ed4e                	sd	s3,152(sp)
   14226:	e952                	sd	s4,144(sp)
   14228:	e556                	sd	s5,136(sp)
   1422a:	ecee                	sd	s11,88(sp)
   1422c:	fc7a                	sd	t5,56(sp)
   1422e:	e0f6                	sd	t4,64(sp)
   14230:	c4f2                	sw	t3,72(sp)
   14232:	8b2a                	mv	s6,a0
   14234:	84ae                	mv	s1,a1
   14236:	8432                	mv	s0,a2
   14238:	8c36                	mv	s8,a3
   1423a:	8cba                	mv	s9,a4
   1423c:	8bbe                	mv	s7,a5
   1423e:	8d46                	mv	s10,a7
   14240:	00030963          	beqz	t1,14252 <_ldtoa_r+0x58>
   14244:	859a                	mv	a1,t1
   14246:	ec42                	sd	a6,24(sp)
   14248:	348010ef          	jal	15590 <__freedtoa>
   1424c:	6862                	ld	a6,24(sp)
   1424e:	040b3823          	sd	zero,80(s6)
   14252:	4716                	lw	a4,68(sp)
   14254:	5dfd                	li	s11,-1
   14256:	02045a13          	srli	s4,s0,0x20
   1425a:	4017569b          	sraiw	a3,a4,0x1
   1425e:	00042793          	slti	a5,s0,0
   14262:	001dd913          	srli	s2,s11,0x1
   14266:	8ff5                	and	a5,a5,a3
   14268:	01247933          	and	s2,s0,s2
   1426c:	00042613          	slti	a2,s0,0
   14270:	010a1a1b          	slliw	s4,s4,0x10
   14274:	00141a93          	slli	s5,s0,0x1
   14278:	79f1                	lui	s3,0xffffc
   1427a:	010a5a1b          	srliw	s4,s4,0x10
   1427e:	8f3d                	xor	a4,a4,a5
   14280:	031ada93          	srli	s5,s5,0x31
   14284:	f919899b          	addiw	s3,s3,-111 # ffffffffffffbf91 <__BSS_END__+0xfffffffffffe0071>
   14288:	00c82023          	sw	a2,0(a6)
   1428c:	86ca                	mv	a3,s2
   1428e:	85ca                	mv	a1,s2
   14290:	8626                	mv	a2,s1
   14292:	8526                	mv	a0,s1
   14294:	f426                	sd	s1,40(sp)
   14296:	d822                	sw	s0,48(sp)
   14298:	c2ba                	sw	a4,68(sp)
   1429a:	da52                	sw	s4,52(sp)
   1429c:	013a89bb          	addw	s3,s5,s3
   142a0:	7eb040ef          	jal	1928a <__unordtf2>
   142a4:	ed4d                	bnez	a0,1435e <_ldtoa_r+0x164>
   142a6:	07fff6b7          	lui	a3,0x7fff
   142aa:	1692                	slli	a3,a3,0x24
   142ac:	16fd                	addi	a3,a3,-1 # 7ffefff <__BSS_END__+0x7fe30df>
   142ae:	866e                	mv	a2,s11
   142b0:	8526                	mv	a0,s1
   142b2:	85ca                	mv	a1,s2
   142b4:	7d7040ef          	jal	1928a <__unordtf2>
   142b8:	e135                	bnez	a0,1431c <_ldtoa_r+0x122>
   142ba:	07fff6b7          	lui	a3,0x7fff
   142be:	1692                	slli	a3,a3,0x24
   142c0:	866e                	mv	a2,s11
   142c2:	16fd                	addi	a3,a3,-1 # 7ffefff <__BSS_END__+0x7fe30df>
   142c4:	8526                	mv	a0,s1
   142c6:	85ca                	mv	a1,s2
   142c8:	102040ef          	jal	183ca <__letf2>
   142cc:	04a05863          	blez	a0,1431c <_ldtoa_r+0x122>
   142d0:	478d                	li	a5,3
   142d2:	d23e                	sw	a5,36(sp)
   142d4:	87e2                	mv	a5,s8
   142d6:	1058                	addi	a4,sp,36
   142d8:	e06a                	sd	s10,0(sp)
   142da:	8866                	mv	a6,s9
   142dc:	864e                	mv	a2,s3
   142de:	855a                	mv	a0,s6
   142e0:	88de                	mv	a7,s7
   142e2:	1034                	addi	a3,sp,40
   142e4:	182c                	addi	a1,sp,56
   142e6:	0fe000ef          	jal	143e4 <__gdtoa>
   142ea:	000ba703          	lw	a4,0(s7) # ffffffff80000000 <__BSS_END__+0xffffffff7ffe40e0>
   142ee:	77e1                	lui	a5,0xffff8
   142f0:	00f71763          	bne	a4,a5,142fe <_ldtoa_r+0x104>
   142f4:	800007b7          	lui	a5,0x80000
   142f8:	17fd                	addi	a5,a5,-1 # ffffffff7fffffff <__BSS_END__+0xffffffff7ffe40df>
   142fa:	00fba023          	sw	a5,0(s7)
   142fe:	70ea                	ld	ra,184(sp)
   14300:	744a                	ld	s0,176(sp)
   14302:	74aa                	ld	s1,168(sp)
   14304:	790a                	ld	s2,160(sp)
   14306:	69ea                	ld	s3,152(sp)
   14308:	6a4a                	ld	s4,144(sp)
   1430a:	6aaa                	ld	s5,136(sp)
   1430c:	6b0a                	ld	s6,128(sp)
   1430e:	7be6                	ld	s7,120(sp)
   14310:	7c46                	ld	s8,112(sp)
   14312:	7ca6                	ld	s9,104(sp)
   14314:	7d06                	ld	s10,96(sp)
   14316:	6de6                	ld	s11,88(sp)
   14318:	6129                	addi	sp,sp,192
   1431a:	8082                	ret
   1431c:	4685                	li	a3,1
   1431e:	85ca                	mv	a1,s2
   14320:	16c2                	slli	a3,a3,0x30
   14322:	4601                	li	a2,0
   14324:	8526                	mv	a0,s1
   14326:	006040ef          	jal	1832c <__getf2>
   1432a:	00054963          	bltz	a0,1433c <_ldtoa_r+0x142>
   1432e:	67c1                	lui	a5,0x10
   14330:	0147e7b3          	or	a5,a5,s4
   14334:	4705                	li	a4,1
   14336:	da3e                	sw	a5,52(sp)
   14338:	d23a                	sw	a4,36(sp)
   1433a:	bf69                	j	142d4 <_ldtoa_r+0xda>
   1433c:	8526                	mv	a0,s1
   1433e:	85a2                	mv	a1,s0
   14340:	4601                	li	a2,0
   14342:	4681                	li	a3,0
   14344:	741030ef          	jal	18284 <__eqtf2>
   14348:	e119                	bnez	a0,1434e <_ldtoa_r+0x154>
   1434a:	d202                	sw	zero,36(sp)
   1434c:	b761                	j	142d4 <_ldtoa_r+0xda>
   1434e:	79f1                	lui	s3,0xffffc
   14350:	f929899b          	addiw	s3,s3,-110 # ffffffffffffbf92 <__BSS_END__+0xfffffffffffe0072>
   14354:	4789                	li	a5,2
   14356:	013a89bb          	addw	s3,s5,s3
   1435a:	d23e                	sw	a5,36(sp)
   1435c:	bfa5                	j	142d4 <_ldtoa_r+0xda>
   1435e:	4791                	li	a5,4
   14360:	d23e                	sw	a5,36(sp)
   14362:	bf8d                	j	142d4 <_ldtoa_r+0xda>

0000000000014364 <_ldcheck>:
   14364:	7179                	addi	sp,sp,-48
   14366:	ec26                	sd	s1,24(sp)
   14368:	6504                	ld	s1,8(a0)
   1436a:	e84a                	sd	s2,16(sp)
   1436c:	e44e                	sd	s3,8(sp)
   1436e:	00053903          	ld	s2,0(a0)
   14372:	59fd                	li	s3,-1
   14374:	0019d793          	srli	a5,s3,0x1
   14378:	8cfd                	and	s1,s1,a5
   1437a:	86a6                	mv	a3,s1
   1437c:	85a6                	mv	a1,s1
   1437e:	864a                	mv	a2,s2
   14380:	854a                	mv	a0,s2
   14382:	f406                	sd	ra,40(sp)
   14384:	707040ef          	jal	1928a <__unordtf2>
   14388:	e539                	bnez	a0,143d6 <_ldcheck+0x72>
   1438a:	07fff6b7          	lui	a3,0x7fff
   1438e:	1692                	slli	a3,a3,0x24
   14390:	96ce                	add	a3,a3,s3
   14392:	864e                	mv	a2,s3
   14394:	854a                	mv	a0,s2
   14396:	85a6                	mv	a1,s1
   14398:	f022                	sd	s0,32(sp)
   1439a:	4405                	li	s0,1
   1439c:	6ef040ef          	jal	1928a <__unordtf2>
   143a0:	cd11                	beqz	a0,143bc <_ldcheck+0x58>
   143a2:	70a2                	ld	ra,40(sp)
   143a4:	00144513          	xori	a0,s0,1
   143a8:	7402                	ld	s0,32(sp)
   143aa:	0ff57513          	zext.b	a0,a0
   143ae:	64e2                	ld	s1,24(sp)
   143b0:	6942                	ld	s2,16(sp)
   143b2:	69a2                	ld	s3,8(sp)
   143b4:	0015151b          	slliw	a0,a0,0x1
   143b8:	6145                	addi	sp,sp,48
   143ba:	8082                	ret
   143bc:	07fff6b7          	lui	a3,0x7fff
   143c0:	1692                	slli	a3,a3,0x24
   143c2:	864e                	mv	a2,s3
   143c4:	854a                	mv	a0,s2
   143c6:	85a6                	mv	a1,s1
   143c8:	96ce                	add	a3,a3,s3
   143ca:	000040ef          	jal	183ca <__letf2>
   143ce:	fca05ae3          	blez	a0,143a2 <_ldcheck+0x3e>
   143d2:	4401                	li	s0,0
   143d4:	b7f9                	j	143a2 <_ldcheck+0x3e>
   143d6:	70a2                	ld	ra,40(sp)
   143d8:	64e2                	ld	s1,24(sp)
   143da:	6942                	ld	s2,16(sp)
   143dc:	69a2                	ld	s3,8(sp)
   143de:	4505                	li	a0,1
   143e0:	6145                	addi	sp,sp,48
   143e2:	8082                	ret

00000000000143e4 <__gdtoa>:
   143e4:	7111                	addi	sp,sp,-256
   143e6:	f16a                	sd	s10,160(sp)
   143e8:	00072d03          	lw	s10,0(a4)
   143ec:	f1ca                	sd	s2,224(sp)
   143ee:	893e                	mv	s2,a5
   143f0:	6792                	ld	a5,256(sp)
   143f2:	f5a6                	sd	s1,232(sp)
   143f4:	fcfd7313          	andi	t1,s10,-49
   143f8:	fd86                	sd	ra,248(sp)
   143fa:	00672023          	sw	t1,0(a4)
   143fe:	4e0d                	li	t3,3
   14400:	00fd7313          	andi	t1,s10,15
   14404:	e432                	sd	a2,8(sp)
   14406:	e03e                	sd	a5,0(sp)
   14408:	84c6                	mv	s1,a7
   1440a:	23c30e63          	beq	t1,t3,14646 <__gdtoa+0x262>
   1440e:	e1da                	sd	s6,192(sp)
   14410:	00cd7b13          	andi	s6,s10,12
   14414:	180b1e63          	bnez	s6,145b0 <__gdtoa+0x1cc>
   14418:	f9a2                	sd	s0,240(sp)
   1441a:	842a                	mv	s0,a0
   1441c:	20030263          	beqz	t1,14620 <__gdtoa+0x23c>
   14420:	ed6e                	sd	s11,152(sp)
   14422:	0005ad83          	lw	s11,0(a1)
   14426:	edce                	sd	s3,216(sp)
   14428:	e9d2                	sd	s4,208(sp)
   1442a:	e5d6                	sd	s5,200(sp)
   1442c:	fd5e                	sd	s7,184(sp)
   1442e:	f566                	sd	s9,168(sp)
   14430:	02000793          	li	a5,32
   14434:	8a2e                	mv	s4,a1
   14436:	8bba                	mv	s7,a4
   14438:	89b6                	mv	s3,a3
   1443a:	8ac2                	mv	s5,a6
   1443c:	4581                	li	a1,0
   1443e:	01b7d763          	bge	a5,s11,1444c <__gdtoa+0x68>
   14442:	0017979b          	slliw	a5,a5,0x1
   14446:	2585                	addiw	a1,a1,1
   14448:	ffb7cde3          	blt	a5,s11,14442 <__gdtoa+0x5e>
   1444c:	8522                	mv	a0,s0
   1444e:	3a0010ef          	jal	157ee <_Balloc>
   14452:	8caa                	mv	s9,a0
   14454:	42050263          	beqz	a0,14878 <__gdtoa+0x494>
   14458:	fffd851b          	addiw	a0,s11,-1
   1445c:	4055551b          	sraiw	a0,a0,0x5
   14460:	00251593          	slli	a1,a0,0x2
   14464:	f962                	sd	s8,176(sp)
   14466:	95ce                	add	a1,a1,s3
   14468:	018c8693          	addi	a3,s9,24
   1446c:	87ce                	mv	a5,s3
   1446e:	4398                	lw	a4,0(a5)
   14470:	0791                	addi	a5,a5,4 # 10004 <exit-0x11c>
   14472:	0691                	addi	a3,a3,4 # 7fff004 <__BSS_END__+0x7fe30e4>
   14474:	fee6ae23          	sw	a4,-4(a3)
   14478:	fef5fbe3          	bgeu	a1,a5,1446e <__gdtoa+0x8a>
   1447c:	0585                	addi	a1,a1,1
   1447e:	00198693          	addi	a3,s3,1
   14482:	4781                	li	a5,0
   14484:	00d5e463          	bltu	a1,a3,1448c <__gdtoa+0xa8>
   14488:	00251793          	slli	a5,a0,0x2
   1448c:	0791                	addi	a5,a5,4
   1448e:	8789                	srai	a5,a5,0x2
   14490:	2781                	sext.w	a5,a5
   14492:	00279693          	slli	a3,a5,0x2
   14496:	96e6                	add	a3,a3,s9
   14498:	a021                	j	144a0 <__gdtoa+0xbc>
   1449a:	16f1                	addi	a3,a3,-4
   1449c:	1c078463          	beqz	a5,14664 <__gdtoa+0x280>
   144a0:	4ad8                	lw	a4,20(a3)
   144a2:	8c3e                	mv	s8,a5
   144a4:	37fd                	addiw	a5,a5,-1
   144a6:	db75                	beqz	a4,1449a <__gdtoa+0xb6>
   144a8:	078a                	slli	a5,a5,0x2
   144aa:	97e6                	add	a5,a5,s9
   144ac:	4f88                	lw	a0,24(a5)
   144ae:	018caa23          	sw	s8,20(s9)
   144b2:	005c1c1b          	slliw	s8,s8,0x5
   144b6:	588010ef          	jal	15a3e <__hi0bits>
   144ba:	40ac07bb          	subw	a5,s8,a0
   144be:	8566                	mv	a0,s9
   144c0:	e83e                	sd	a5,16(sp)
   144c2:	2f0010ef          	jal	157b2 <__trailz_D2A>
   144c6:	c72a                	sw	a0,140(sp)
   144c8:	6c22                	ld	s8,8(sp)
   144ca:	67c2                	ld	a5,16(sp)
   144cc:	38051563          	bnez	a0,14856 <__gdtoa+0x472>
   144d0:	014ca683          	lw	a3,20(s9)
   144d4:	12068b63          	beqz	a3,1460a <__gdtoa+0x226>
   144d8:	016c                	addi	a1,sp,140
   144da:	8566                	mv	a0,s9
   144dc:	e83e                	sd	a5,16(sp)
   144de:	4f3010ef          	jal	161d0 <__b2d>
   144e2:	e20506d3          	fmv.x.d	a3,fa0
   144e6:	3ff008b7          	lui	a7,0x3ff00
   144ea:	00c69593          	slli	a1,a3,0xc
   144ee:	91b1                	srli	a1,a1,0x2c
   144f0:	1901b707          	fld	fa4,400(gp) # 1b8b0 <__SDATA_BEGIN__>
   144f4:	1682                	slli	a3,a3,0x20
   144f6:	0115e633          	or	a2,a1,a7
   144fa:	1602                	slli	a2,a2,0x20
   144fc:	9281                	srli	a3,a3,0x20
   144fe:	8ed1                	or	a3,a3,a2
   14500:	f20687d3          	fmv.d.x	fa5,a3
   14504:	0ae7f753          	fsub.d	fa4,fa5,fa4
   14508:	1a01b687          	fld	fa3,416(gp) # 1b8c0 <__SDATA_BEGIN__+0x10>
   1450c:	1981b607          	fld	fa2,408(gp) # 1b8b8 <__SDATA_BEGIN__+0x8>
   14510:	67c2                	ld	a5,16(sp)
   14512:	0115e8b3          	or	a7,a1,a7
   14516:	00fc053b          	addw	a0,s8,a5
   1451a:	6ac77743          	fmadd.d	fa4,fa4,fa2,fa3
   1451e:	fff5061b          	addiw	a2,a0,-1
   14522:	d20607d3          	fcvt.d.w	fa5,a2
   14526:	1a81b687          	fld	fa3,424(gp) # 1b8c8 <__SDATA_BEGIN__+0x18>
   1452a:	85b2                	mv	a1,a2
   1452c:	72d7f7c3          	fmadd.d	fa5,fa5,fa3,fa4
   14530:	00065463          	bgez	a2,14538 <__gdtoa+0x154>
   14534:	4585                	li	a1,1
   14536:	9d89                	subw	a1,a1,a0
   14538:	bcb5859b          	addiw	a1,a1,-1077
   1453c:	00b05863          	blez	a1,1454c <__gdtoa+0x168>
   14540:	1b01b707          	fld	fa4,432(gp) # 1b8d0 <__SDATA_BEGIN__+0x20>
   14544:	d20586d3          	fcvt.d.w	fa3,a1
   14548:	7ae6f7c3          	fmadd.d	fa5,fa3,fa4,fa5
   1454c:	f2000753          	fmv.d.x	fa4,zero
   14550:	c20795d3          	fcvt.w.d	a1,fa5,rtz
   14554:	a2e79e53          	flt.d	t3,fa5,fa4
   14558:	0005871b          	sext.w	a4,a1
   1455c:	e83a                	sd	a4,16(sp)
   1455e:	660e1b63          	bnez	t3,14bd4 <__gdtoa+0x7f0>
   14562:	0146159b          	slliw	a1,a2,0x14
   14566:	6742                	ld	a4,16(sp)
   14568:	011585bb          	addw	a1,a1,a7
   1456c:	1682                	slli	a3,a3,0x20
   1456e:	40c7863b          	subw	a2,a5,a2
   14572:	9281                	srli	a3,a3,0x20
   14574:	1582                	slli	a1,a1,0x20
   14576:	fff60e9b          	addiw	t4,a2,-1
   1457a:	48d9                	li	a7,22
   1457c:	8ecd                	or	a3,a3,a1
   1457e:	8e76                	mv	t3,t4
   14580:	0ee8e563          	bltu	a7,a4,1466a <__gdtoa+0x286>
   14584:	65e9                	lui	a1,0x1a
   14586:	88858593          	addi	a1,a1,-1912 # 19888 <__mprec_tens>
   1458a:	00371893          	slli	a7,a4,0x3
   1458e:	95c6                	add	a1,a1,a7
   14590:	219c                	fld	fa5,0(a1)
   14592:	f2068753          	fmv.d.x	fa4,a3
   14596:	a2f715d3          	flt.d	a1,fa4,fa5
   1459a:	2e059d63          	bnez	a1,14894 <__gdtoa+0x4b0>
   1459e:	14c059e3          	blez	a2,14ef0 <__gdtoa+0xb0c>
   145a2:	01d70ebb          	addw	t4,a4,t4
   145a6:	f082                	sd	zero,96(sp)
   145a8:	fc3a                	sd	a4,56(sp)
   145aa:	ec02                	sd	zero,24(sp)
   145ac:	f802                	sd	zero,48(sp)
   145ae:	a8f1                	j	1468a <__gdtoa+0x2a6>
   145b0:	4791                	li	a5,4
   145b2:	04f31363          	bne	t1,a5,145f8 <__gdtoa+0x214>
   145b6:	6602                	ld	a2,0(sp)
   145b8:	6b0e                	ld	s6,192(sp)
   145ba:	70ee                	ld	ra,248(sp)
   145bc:	74ae                	ld	s1,232(sp)
   145be:	790e                	ld	s2,224(sp)
   145c0:	7d0a                	ld	s10,160(sp)
   145c2:	77e1                	lui	a5,0xffff8
   145c4:	65e5                	lui	a1,0x19
   145c6:	00f8a023          	sw	a5,0(a7) # 3ff00000 <__BSS_END__+0x3fee40e0>
   145ca:	86f2                	mv	a3,t3
   145cc:	57058593          	addi	a1,a1,1392 # 19570 <__clzdi2+0xce>
   145d0:	6111                	addi	sp,sp,256
   145d2:	7470006f          	j	15518 <__nrv_alloc_D2A>
   145d6:	85ee                	mv	a1,s11
   145d8:	8522                	mv	a0,s0
   145da:	e442                	sd	a6,8(sp)
   145dc:	08f010ef          	jal	15e6a <__lshift>
   145e0:	6822                	ld	a6,8(sp)
   145e2:	8daa                	mv	s11,a0
   145e4:	44051263          	bnez	a0,14a28 <__gdtoa+0x644>
   145e8:	744e                	ld	s0,240(sp)
   145ea:	69ee                	ld	s3,216(sp)
   145ec:	6a4e                	ld	s4,208(sp)
   145ee:	6aae                	ld	s5,200(sp)
   145f0:	7bea                	ld	s7,184(sp)
   145f2:	7c4a                	ld	s8,176(sp)
   145f4:	7caa                	ld	s9,168(sp)
   145f6:	6dea                	ld	s11,152(sp)
   145f8:	4801                	li	a6,0
   145fa:	70ee                	ld	ra,248(sp)
   145fc:	6b0e                	ld	s6,192(sp)
   145fe:	74ae                	ld	s1,232(sp)
   14600:	790e                	ld	s2,224(sp)
   14602:	7d0a                	ld	s10,160(sp)
   14604:	8542                	mv	a0,a6
   14606:	6111                	addi	sp,sp,256
   14608:	8082                	ret
   1460a:	85e6                	mv	a1,s9
   1460c:	8522                	mv	a0,s0
   1460e:	248010ef          	jal	15856 <_Bfree>
   14612:	69ee                	ld	s3,216(sp)
   14614:	6a4e                	ld	s4,208(sp)
   14616:	6aae                	ld	s5,200(sp)
   14618:	7bea                	ld	s7,184(sp)
   1461a:	7c4a                	ld	s8,176(sp)
   1461c:	7caa                	ld	s9,168(sp)
   1461e:	6dea                	ld	s11,152(sp)
   14620:	6602                	ld	a2,0(sp)
   14622:	4685                	li	a3,1
   14624:	65e5                	lui	a1,0x19
   14626:	8522                	mv	a0,s0
   14628:	c094                	sw	a3,0(s1)
   1462a:	55858593          	addi	a1,a1,1368 # 19558 <__clzdi2+0xb6>
   1462e:	6eb000ef          	jal	15518 <__nrv_alloc_D2A>
   14632:	70ee                	ld	ra,248(sp)
   14634:	744e                	ld	s0,240(sp)
   14636:	882a                	mv	a6,a0
   14638:	6b0e                	ld	s6,192(sp)
   1463a:	74ae                	ld	s1,232(sp)
   1463c:	790e                	ld	s2,224(sp)
   1463e:	7d0a                	ld	s10,160(sp)
   14640:	8542                	mv	a0,a6
   14642:	6111                	addi	sp,sp,256
   14644:	8082                	ret
   14646:	6602                	ld	a2,0(sp)
   14648:	70ee                	ld	ra,248(sp)
   1464a:	74ae                	ld	s1,232(sp)
   1464c:	790e                	ld	s2,224(sp)
   1464e:	7d0a                	ld	s10,160(sp)
   14650:	77e1                	lui	a5,0xffff8
   14652:	65e5                	lui	a1,0x19
   14654:	00f8a023          	sw	a5,0(a7)
   14658:	56058593          	addi	a1,a1,1376 # 19560 <__clzdi2+0xbe>
   1465c:	46a1                	li	a3,8
   1465e:	6111                	addi	sp,sp,256
   14660:	6b90006f          	j	15518 <__nrv_alloc_D2A>
   14664:	000caa23          	sw	zero,20(s9)
   14668:	bd99                	j	144be <__gdtoa+0xda>
   1466a:	4705                	li	a4,1
   1466c:	f0ba                	sd	a4,96(sp)
   1466e:	ec02                	sd	zero,24(sp)
   14670:	200e4c63          	bltz	t3,14888 <__gdtoa+0x4a4>
   14674:	6742                	ld	a4,16(sp)
   14676:	1e075c63          	bgez	a4,1486e <__gdtoa+0x48a>
   1467a:	6662                	ld	a2,24(sp)
   1467c:	6742                	ld	a4,16(sp)
   1467e:	fc02                	sd	zero,56(sp)
   14680:	9e19                	subw	a2,a2,a4
   14682:	40e0073b          	negw	a4,a4
   14686:	ec32                	sd	a2,24(sp)
   14688:	f83a                	sd	a4,48(sp)
   1468a:	4625                	li	a2,9
   1468c:	51266d63          	bltu	a2,s2,14ba6 <__gdtoa+0x7c2>
   14690:	4615                	li	a2,5
   14692:	61265c63          	bge	a2,s2,14caa <__gdtoa+0x8c6>
   14696:	3971                	addiw	s2,s2,-4
   14698:	4591                	li	a1,4
   1469a:	54b90763          	beq	s2,a1,14be8 <__gdtoa+0x804>
   1469e:	04c903e3          	beq	s2,a2,14ee4 <__gdtoa+0xb00>
   146a2:	4609                	li	a2,2
   146a4:	f482                	sd	zero,104(sp)
   146a6:	ec82                	sd	zero,88(sp)
   146a8:	54c90363          	beq	s2,a2,14bee <__gdtoa+0x80a>
   146ac:	490d                	li	s2,3
   146ae:	6742                	ld	a4,16(sp)
   146b0:	00ea873b          	addw	a4,s5,a4
   146b4:	f8ba                	sd	a4,112(sp)
   146b6:	2705                	addiw	a4,a4,1
   146b8:	f43a                	sd	a4,40(sp)
   146ba:	78e05e63          	blez	a4,14e56 <__gdtoa+0xa72>
   146be:	863a                	mv	a2,a4
   146c0:	85ba                	mv	a1,a4
   146c2:	8522                	mv	a0,s0
   146c4:	e8b6                	sd	a3,80(sp)
   146c6:	e4be                	sd	a5,72(sp)
   146c8:	e0f6                	sd	t4,64(sp)
   146ca:	c732                	sw	a2,140(sp)
   146cc:	609000ef          	jal	154d4 <__rv_alloc_D2A>
   146d0:	882a                	mv	a6,a0
   146d2:	d919                	beqz	a0,145e8 <__gdtoa+0x204>
   146d4:	00ca2703          	lw	a4,12(s4)
   146d8:	6e86                	ld	t4,64(sp)
   146da:	67a6                	ld	a5,72(sp)
   146dc:	377d                	addiw	a4,a4,-1
   146de:	f03a                	sd	a4,32(sp)
   146e0:	66c6                	ld	a3,80(sp)
   146e2:	cf11                	beqz	a4,146fe <__gdtoa+0x31a>
   146e4:	00075463          	bgez	a4,146ec <__gdtoa+0x308>
   146e8:	4709                	li	a4,2
   146ea:	f03a                	sd	a4,32(sp)
   146ec:	100d7d13          	andi	s10,s10,256
   146f0:	1a0d0763          	beqz	s10,1489e <__gdtoa+0x4ba>
   146f4:	7702                	ld	a4,32(sp)
   146f6:	460d                	li	a2,3
   146f8:	40e6073b          	subw	a4,a2,a4
   146fc:	f03a                	sd	a4,32(sp)
   146fe:	7722                	ld	a4,40(sp)
   14700:	4639                	li	a2,14
   14702:	18e66e63          	bltu	a2,a4,1489e <__gdtoa+0x4ba>
   14706:	7726                	ld	a4,104(sp)
   14708:	18070b63          	beqz	a4,1489e <__gdtoa+0x4ba>
   1470c:	7702                	ld	a4,32(sp)
   1470e:	6642                	ld	a2,16(sp)
   14710:	8e59                	or	a2,a2,a4
   14712:	18061663          	bnez	a2,1489e <__gdtoa+0x4ba>
   14716:	7706                	ld	a4,96(sp)
   14718:	c702                	sw	zero,140(sp)
   1471a:	f20687d3          	fmv.d.x	fa5,a3
   1471e:	c719                	beqz	a4,1472c <__gdtoa+0x348>
   14720:	1c01b707          	fld	fa4,448(gp) # 1b8e0 <__SDATA_BEGIN__+0x30>
   14724:	a2e79653          	flt.d	a2,fa5,fa4
   14728:	140610e3          	bnez	a2,15068 <__gdtoa+0xc84>
   1472c:	1c81b707          	fld	fa4,456(gp) # 1b8e8 <__SDATA_BEGIN__+0x38>
   14730:	fcc005b7          	lui	a1,0xfcc00
   14734:	b03a                	fsd	fa4,32(sp)
   14736:	3682                	fld	fa3,32(sp)
   14738:	1d01b707          	fld	fa4,464(gp) # 1b8f0 <__SDATA_BEGIN__+0x40>
   1473c:	7722                	ld	a4,40(sp)
   1473e:	72d7f743          	fmadd.d	fa4,fa5,fa3,fa4
   14742:	e2070653          	fmv.x.d	a2,fa4
   14746:	8fb2                	mv	t6,a2
   14748:	9201                	srli	a2,a2,0x20
   1474a:	1f82                	slli	t6,t6,0x20
   1474c:	9e2d                	addw	a2,a2,a1
   1474e:	020fdf93          	srli	t6,t6,0x20
   14752:	1602                	slli	a2,a2,0x20
   14754:	00cfefb3          	or	t6,t6,a2
   14758:	140700e3          	beqz	a4,15098 <__gdtoa+0xcb4>
   1475c:	7522                	ld	a0,40(sp)
   1475e:	4581                	li	a1,0
   14760:	6e69                	lui	t3,0x1a
   14762:	fff5061b          	addiw	a2,a0,-1
   14766:	6766                	ld	a4,88(sp)
   14768:	888e0e13          	addi	t3,t3,-1912 # 19888 <__mprec_tens>
   1476c:	060e                	slli	a2,a2,0x3
   1476e:	9672                	add	a2,a2,t3
   14770:	2214                	fld	fa3,0(a2)
   14772:	280705e3          	beqz	a4,151fc <__gdtoa+0xe18>
   14776:	1f01b707          	fld	fa4,496(gp) # 1b910 <__SDATA_BEGIN__+0x60>
   1477a:	c2079653          	fcvt.w.d	a2,fa5,rtz
   1477e:	00180f13          	addi	t5,a6,1
   14782:	1ad77753          	fdiv.d	fa4,fa4,fa3
   14786:	d20606d3          	fcvt.d.w	fa3,a2
   1478a:	0306061b          	addiw	a2,a2,48
   1478e:	00c80023          	sb	a2,0(a6)
   14792:	0ad7f7d3          	fsub.d	fa5,fa5,fa3
   14796:	f20f86d3          	fmv.d.x	fa3,t6
   1479a:	8d7a                	mv	s10,t5
   1479c:	0ad77753          	fsub.d	fa4,fa4,fa3
   147a0:	a2e79653          	flt.d	a2,fa5,fa4
   147a4:	380619e3          	bnez	a2,15336 <__gdtoa+0xf52>
   147a8:	1c01b587          	fld	fa1,448(gp) # 1b8e0 <__SDATA_BEGIN__+0x30>
   147ac:	1d81b607          	fld	fa2,472(gp) # 1b8f8 <__SDATA_BEGIN__+0x48>
   147b0:	a80d                	j	147e2 <__gdtoa+0x3fe>
   147b2:	473a                	lw	a4,140(sp)
   147b4:	0d05                	addi	s10,s10,1
   147b6:	2705                	addiw	a4,a4,1
   147b8:	c73a                	sw	a4,140(sp)
   147ba:	38a75de3          	bge	a4,a0,15354 <__gdtoa+0xf70>
   147be:	12c7f7d3          	fmul.d	fa5,fa5,fa2
   147c2:	12c77753          	fmul.d	fa4,fa4,fa2
   147c6:	c2079753          	fcvt.w.d	a4,fa5,rtz
   147ca:	d20706d3          	fcvt.d.w	fa3,a4
   147ce:	0307071b          	addiw	a4,a4,48
   147d2:	feed0fa3          	sb	a4,-1(s10)
   147d6:	0ad7f7d3          	fsub.d	fa5,fa5,fa3
   147da:	a2e79753          	flt.d	a4,fa5,fa4
   147de:	34071ce3          	bnez	a4,15336 <__gdtoa+0xf52>
   147e2:	0af5f6d3          	fsub.d	fa3,fa1,fa5
   147e6:	a2e69753          	flt.d	a4,fa3,fa4
   147ea:	d761                	beqz	a4,147b2 <__gdtoa+0x3ce>
   147ec:	fffd4603          	lbu	a2,-1(s10)
   147f0:	2585                	addiw	a1,a1,1 # fffffffffcc00001 <__BSS_END__+0xfffffffffcbe40e1>
   147f2:	03900693          	li	a3,57
   147f6:	a031                	j	14802 <__gdtoa+0x41e>
   147f8:	1af800e3          	beq	a6,a5,15198 <__gdtoa+0xdb4>
   147fc:	fff7c603          	lbu	a2,-1(a5) # ffffffffffff7fff <__BSS_END__+0xfffffffffffdc0df>
   14800:	8d3e                	mv	s10,a5
   14802:	fffd0793          	addi	a5,s10,-1
   14806:	fed609e3          	beq	a2,a3,147f8 <__gdtoa+0x414>
   1480a:	0016069b          	addiw	a3,a2,1
   1480e:	0ff6f693          	zext.b	a3,a3
   14812:	00d78023          	sb	a3,0(a5)
   14816:	8aae                	mv	s5,a1
   14818:	02000b13          	li	s6,32
   1481c:	85e6                	mv	a1,s9
   1481e:	8522                	mv	a0,s0
   14820:	e442                	sd	a6,8(sp)
   14822:	034010ef          	jal	15856 <_Bfree>
   14826:	6782                	ld	a5,0(sp)
   14828:	000d0023          	sb	zero,0(s10)
   1482c:	0154a023          	sw	s5,0(s1)
   14830:	6822                	ld	a6,8(sp)
   14832:	c399                	beqz	a5,14838 <__gdtoa+0x454>
   14834:	01a7b023          	sd	s10,0(a5)
   14838:	000ba783          	lw	a5,0(s7)
   1483c:	744e                	ld	s0,240(sp)
   1483e:	69ee                	ld	s3,216(sp)
   14840:	00fb67b3          	or	a5,s6,a5
   14844:	00fba023          	sw	a5,0(s7)
   14848:	6a4e                	ld	s4,208(sp)
   1484a:	6aae                	ld	s5,200(sp)
   1484c:	7bea                	ld	s7,184(sp)
   1484e:	7c4a                	ld	s8,176(sp)
   14850:	7caa                	ld	s9,168(sp)
   14852:	6dea                	ld	s11,152(sp)
   14854:	b35d                	j	145fa <__gdtoa+0x216>
   14856:	85aa                	mv	a1,a0
   14858:	8566                	mv	a0,s9
   1485a:	6b7000ef          	jal	15710 <__rshift_D2A>
   1485e:	433a                	lw	t1,140(sp)
   14860:	67c2                	ld	a5,16(sp)
   14862:	6722                	ld	a4,8(sp)
   14864:	406787bb          	subw	a5,a5,t1
   14868:	00e30c3b          	addw	s8,t1,a4
   1486c:	b195                	j	144d0 <__gdtoa+0xec>
   1486e:	01d70ebb          	addw	t4,a4,t4
   14872:	fc3a                	sd	a4,56(sp)
   14874:	f802                	sd	zero,48(sp)
   14876:	bd11                	j	1468a <__gdtoa+0x2a6>
   14878:	744e                	ld	s0,240(sp)
   1487a:	69ee                	ld	s3,216(sp)
   1487c:	6a4e                	ld	s4,208(sp)
   1487e:	6aae                	ld	s5,200(sp)
   14880:	7bea                	ld	s7,184(sp)
   14882:	7caa                	ld	s9,168(sp)
   14884:	6dea                	ld	s11,152(sp)
   14886:	bb8d                	j	145f8 <__gdtoa+0x214>
   14888:	4585                	li	a1,1
   1488a:	40c5873b          	subw	a4,a1,a2
   1488e:	ec3a                	sd	a4,24(sp)
   14890:	4e81                	li	t4,0
   14892:	b3cd                	j	14674 <__gdtoa+0x290>
   14894:	6742                	ld	a4,16(sp)
   14896:	f082                	sd	zero,96(sp)
   14898:	377d                	addiw	a4,a4,-1
   1489a:	e83a                	sd	a4,16(sp)
   1489c:	bbc9                	j	1466e <__gdtoa+0x28a>
   1489e:	0a0c4763          	bltz	s8,1494c <__gdtoa+0x568>
   148a2:	6742                	ld	a4,16(sp)
   148a4:	4639                	li	a2,14
   148a6:	0ae64363          	blt	a2,a4,1494c <__gdtoa+0x568>
   148aa:	67e9                	lui	a5,0x1a
   148ac:	88878793          	addi	a5,a5,-1912 # 19888 <__mprec_tens>
   148b0:	00371613          	slli	a2,a4,0x3
   148b4:	97b2                	add	a5,a5,a2
   148b6:	2398                	fld	fa4,0(a5)
   148b8:	00180f13          	addi	t5,a6,1
   148bc:	640ac563          	bltz	s5,14f06 <__gdtoa+0xb22>
   148c0:	f20687d3          	fmv.d.x	fa5,a3
   148c4:	4785                	li	a5,1
   148c6:	c73e                	sw	a5,140(sp)
   148c8:	1ae7f7d3          	fdiv.d	fa5,fa5,fa4
   148cc:	67c2                	ld	a5,16(sp)
   148ce:	f20686d3          	fmv.d.x	fa3,a3
   148d2:	f2000653          	fmv.d.x	fa2,zero
   148d6:	0017859b          	addiw	a1,a5,1
   148da:	8d7a                	mv	s10,t5
   148dc:	8aae                	mv	s5,a1
   148de:	c20797d3          	fcvt.w.d	a5,fa5,rtz
   148e2:	d20787d3          	fcvt.d.w	fa5,a5
   148e6:	0307861b          	addiw	a2,a5,48
   148ea:	00c80023          	sb	a2,0(a6)
   148ee:	6ae7f7cb          	fnmsub.d	fa5,fa5,fa4,fa3
   148f2:	2781                	sext.w	a5,a5
   148f4:	a2c7a6d3          	feq.d	a3,fa5,fa2
   148f8:	f295                	bnez	a3,1481c <__gdtoa+0x438>
   148fa:	1d81b587          	fld	fa1,472(gp) # 1b8f8 <__SDATA_BEGIN__+0x48>
   148fe:	7622                	ld	a2,40(sp)
   14900:	a035                	j	1492c <__gdtoa+0x548>
   14902:	12b7f7d3          	fmul.d	fa5,fa5,fa1
   14906:	c736                	sw	a3,140(sp)
   14908:	0d05                	addi	s10,s10,1
   1490a:	1ae7f6d3          	fdiv.d	fa3,fa5,fa4
   1490e:	c20697d3          	fcvt.w.d	a5,fa3,rtz
   14912:	d20786d3          	fcvt.d.w	fa3,a5
   14916:	0307871b          	addiw	a4,a5,48
   1491a:	feed0fa3          	sb	a4,-1(s10)
   1491e:	7ae6f7cb          	fnmsub.d	fa5,fa3,fa4,fa5
   14922:	2781                	sext.w	a5,a5
   14924:	a2c7a753          	feq.d	a4,fa5,fa2
   14928:	ee071ae3          	bnez	a4,1481c <__gdtoa+0x438>
   1492c:	473a                	lw	a4,140(sp)
   1492e:	0017069b          	addiw	a3,a4,1
   14932:	fcc718e3          	bne	a4,a2,14902 <__gdtoa+0x51e>
   14936:	7702                	ld	a4,32(sp)
   14938:	020705e3          	beqz	a4,15162 <__gdtoa+0xd7e>
   1493c:	4785                	li	a5,1
   1493e:	4b41                	li	s6,16
   14940:	ecf71ee3          	bne	a4,a5,1481c <__gdtoa+0x438>
   14944:	fffd4603          	lbu	a2,-1(s10)
   14948:	b56d                	j	147f2 <__gdtoa+0x40e>
   1494a:	f002                	sd	zero,32(sp)
   1494c:	6766                	ld	a4,88(sp)
   1494e:	32070563          	beqz	a4,14c78 <__gdtoa+0x894>
   14952:	40fd8dbb          	subw	s11,s11,a5
   14956:	004a2603          	lw	a2,4(s4)
   1495a:	001d869b          	addiw	a3,s11,1
   1495e:	c736                	sw	a3,140(sp)
   14960:	41bc0dbb          	subw	s11,s8,s11
   14964:	52cdda63          	bge	s11,a2,14e98 <__gdtoa+0xab4>
   14968:	ffd9069b          	addiw	a3,s2,-3
   1496c:	9af5                	andi	a3,a3,-3
   1496e:	42068763          	beqz	a3,14d9c <__gdtoa+0x9b8>
   14972:	40cc063b          	subw	a2,s8,a2
   14976:	0016069b          	addiw	a3,a2,1
   1497a:	c736                	sw	a3,140(sp)
   1497c:	4605                	li	a2,1
   1497e:	7dc2                	ld	s11,48(sp)
   14980:	01265763          	bge	a2,s2,1498e <__gdtoa+0x5aa>
   14984:	7722                	ld	a4,40(sp)
   14986:	00e05463          	blez	a4,1498e <__gdtoa+0x5aa>
   1498a:	1cd74ce3          	blt	a4,a3,15362 <__gdtoa+0xf7e>
   1498e:	00de8ebb          	addw	t4,t4,a3
   14992:	4585                	li	a1,1
   14994:	8522                	mv	a0,s0
   14996:	f4c2                	sd	a6,104(sp)
   14998:	e8be                	sd	a5,80(sp)
   1499a:	e4b6                	sd	a3,72(sp)
   1499c:	e0f6                	sd	t4,64(sp)
   1499e:	fcf6                	sd	t4,120(sp)
   149a0:	1b8010ef          	jal	15b58 <__i2b>
   149a4:	8c2a                	mv	s8,a0
   149a6:	c40501e3          	beqz	a0,145e8 <__gdtoa+0x204>
   149aa:	6762                	ld	a4,24(sp)
   149ac:	6e86                	ld	t4,64(sp)
   149ae:	66a6                	ld	a3,72(sp)
   149b0:	67c6                	ld	a5,80(sp)
   149b2:	7826                	ld	a6,104(sp)
   149b4:	62071f63          	bnez	a4,14ff2 <__gdtoa+0xc0e>
   149b8:	7742                	ld	a4,48(sp)
   149ba:	ec36                	sd	a3,24(sp)
   149bc:	4d01                	li	s10,0
   149be:	c30d                	beqz	a4,149e0 <__gdtoa+0x5fc>
   149c0:	5a0d9063          	bnez	s11,14f60 <__gdtoa+0xb7c>
   149c4:	7642                	ld	a2,48(sp)
   149c6:	85e6                	mv	a1,s9
   149c8:	8522                	mv	a0,s0
   149ca:	e8c2                	sd	a6,80(sp)
   149cc:	e4be                	sd	a5,72(sp)
   149ce:	e0f6                	sd	t4,64(sp)
   149d0:	3b2010ef          	jal	15d82 <__pow5mult>
   149d4:	6e86                	ld	t4,64(sp)
   149d6:	67a6                	ld	a5,72(sp)
   149d8:	6846                	ld	a6,80(sp)
   149da:	8caa                	mv	s9,a0
   149dc:	c00506e3          	beqz	a0,145e8 <__gdtoa+0x204>
   149e0:	4585                	li	a1,1
   149e2:	8522                	mv	a0,s0
   149e4:	e4c2                	sd	a6,72(sp)
   149e6:	e0be                	sd	a5,64(sp)
   149e8:	f876                	sd	t4,48(sp)
   149ea:	16e010ef          	jal	15b58 <__i2b>
   149ee:	8daa                	mv	s11,a0
   149f0:	be050ce3          	beqz	a0,145e8 <__gdtoa+0x204>
   149f4:	7762                	ld	a4,56(sp)
   149f6:	7ec2                	ld	t4,48(sp)
   149f8:	6786                	ld	a5,64(sp)
   149fa:	6826                	ld	a6,72(sp)
   149fc:	46071163          	bnez	a4,14e5e <__gdtoa+0xa7a>
   14a00:	4685                	li	a3,1
   14a02:	457d                	li	a0,31
   14a04:	4d26d263          	bge	a3,s2,14ec8 <__gdtoa+0xae4>
   14a08:	67e2                	ld	a5,24(sp)
   14a0a:	41d50a3b          	subw	s4,a0,t4
   14a0e:	3a71                	addiw	s4,s4,-4
   14a10:	01fa7a13          	andi	s4,s4,31
   14a14:	00fa063b          	addw	a2,s4,a5
   14a18:	c752                	sw	s4,140(sp)
   14a1a:	87d2                	mv	a5,s4
   14a1c:	2ac04963          	bgtz	a2,14cce <__gdtoa+0x8ea>
   14a20:	00fe863b          	addw	a2,t4,a5
   14a24:	bac049e3          	bgtz	a2,145d6 <__gdtoa+0x1f2>
   14a28:	7786                	ld	a5,96(sp)
   14a2a:	2a079f63          	bnez	a5,14ce8 <__gdtoa+0x904>
   14a2e:	77a2                	ld	a5,40(sp)
   14a30:	3cf05563          	blez	a5,14dfa <__gdtoa+0xa16>
   14a34:	67e6                	ld	a5,88(sp)
   14a36:	2e078863          	beqz	a5,14d26 <__gdtoa+0x942>
   14a3a:	01aa063b          	addw	a2,s4,s10
   14a3e:	58c04f63          	bgtz	a2,14fdc <__gdtoa+0xbf8>
   14a42:	77e2                	ld	a5,56(sp)
   14a44:	8ee2                	mv	t4,s8
   14a46:	5e079463          	bnez	a5,1502e <__gdtoa+0xc4a>
   14a4a:	e44e                	sd	s3,8(sp)
   14a4c:	fc26                	sd	s1,56(sp)
   14a4e:	79a2                	ld	s3,40(sp)
   14a50:	8ac2                	mv	s5,a6
   14a52:	4685                	li	a3,1
   14a54:	f842                	sd	a6,48(sp)
   14a56:	f45e                	sd	s7,40(sp)
   14a58:	84f6                	mv	s1,t4
   14a5a:	a88d                	j	14acc <__gdtoa+0x6e8>
   14a5c:	8522                	mv	a0,s0
   14a5e:	5f9000ef          	jal	15856 <_Bfree>
   14a62:	740a4063          	bltz	s4,151a2 <__gdtoa+0xdbe>
   14a66:	012a6a33          	or	s4,s4,s2
   14a6a:	2a01                	sext.w	s4,s4
   14a6c:	000a1763          	bnez	s4,14a7a <__gdtoa+0x696>
   14a70:	67a2                	ld	a5,8(sp)
   14a72:	439c                	lw	a5,0(a5)
   14a74:	8b85                	andi	a5,a5,1
   14a76:	72078663          	beqz	a5,151a2 <__gdtoa+0xdbe>
   14a7a:	7782                	ld	a5,32(sp)
   14a7c:	4709                	li	a4,2
   14a7e:	02e794e3          	bne	a5,a4,152a6 <__gdtoa+0xec2>
   14a82:	01aa8023          	sb	s10,0(s5)
   14a86:	47ba                	lw	a5,140(sp)
   14a88:	0a85                	addi	s5,s5,1
   14a8a:	7f378563          	beq	a5,s3,15274 <__gdtoa+0xe90>
   14a8e:	85e6                	mv	a1,s9
   14a90:	4681                	li	a3,0
   14a92:	4629                	li	a2,10
   14a94:	8522                	mv	a0,s0
   14a96:	5d3000ef          	jal	15868 <__multadd>
   14a9a:	8caa                	mv	s9,a0
   14a9c:	b40506e3          	beqz	a0,145e8 <__gdtoa+0x204>
   14aa0:	85e2                	mv	a1,s8
   14aa2:	4681                	li	a3,0
   14aa4:	4629                	li	a2,10
   14aa6:	8522                	mv	a0,s0
   14aa8:	149c0d63          	beq	s8,s1,14c02 <__gdtoa+0x81e>
   14aac:	5bd000ef          	jal	15868 <__multadd>
   14ab0:	8c2a                	mv	s8,a0
   14ab2:	b2050be3          	beqz	a0,145e8 <__gdtoa+0x204>
   14ab6:	85a6                	mv	a1,s1
   14ab8:	4681                	li	a3,0
   14aba:	4629                	li	a2,10
   14abc:	8522                	mv	a0,s0
   14abe:	5ab000ef          	jal	15868 <__multadd>
   14ac2:	84aa                	mv	s1,a0
   14ac4:	b20502e3          	beqz	a0,145e8 <__gdtoa+0x204>
   14ac8:	46ba                	lw	a3,140(sp)
   14aca:	2685                	addiw	a3,a3,1
   14acc:	85ee                	mv	a1,s11
   14ace:	8566                	mv	a0,s9
   14ad0:	c736                	sw	a3,140(sp)
   14ad2:	2cd000ef          	jal	1559e <__quorem_D2A>
   14ad6:	03050b1b          	addiw	s6,a0,48
   14ada:	85e2                	mv	a1,s8
   14adc:	8baa                	mv	s7,a0
   14ade:	8566                	mv	a0,s9
   14ae0:	4a0010ef          	jal	15f80 <__mcmp>
   14ae4:	85ee                	mv	a1,s11
   14ae6:	8a2a                	mv	s4,a0
   14ae8:	8626                	mv	a2,s1
   14aea:	8522                	mv	a0,s0
   14aec:	4cc010ef          	jal	15fb8 <__mdiff>
   14af0:	8d5a                	mv	s10,s6
   14af2:	85aa                	mv	a1,a0
   14af4:	ae050ae3          	beqz	a0,145e8 <__gdtoa+0x204>
   14af8:	491c                	lw	a5,16(a0)
   14afa:	f3ad                	bnez	a5,14a5c <__gdtoa+0x678>
   14afc:	ec2a                	sd	a0,24(sp)
   14afe:	8566                	mv	a0,s9
   14b00:	480010ef          	jal	15f80 <__mcmp>
   14b04:	65e2                	ld	a1,24(sp)
   14b06:	86aa                	mv	a3,a0
   14b08:	8522                	mv	a0,s0
   14b0a:	ec36                	sd	a3,24(sp)
   14b0c:	54b000ef          	jal	15856 <_Bfree>
   14b10:	66e2                	ld	a3,24(sp)
   14b12:	0126e733          	or	a4,a3,s2
   14b16:	2701                	sext.w	a4,a4
   14b18:	140718e3          	bnez	a4,15468 <__gdtoa+0x1084>
   14b1c:	67a2                	ld	a5,8(sp)
   14b1e:	439c                	lw	a5,0(a5)
   14b20:	8b85                	andi	a5,a5,1
   14b22:	0e079763          	bnez	a5,14c10 <__gdtoa+0x82c>
   14b26:	7782                	ld	a5,32(sp)
   14b28:	060783e3          	beqz	a5,1538e <__gdtoa+0xfaa>
   14b2c:	f5404be3          	bgtz	s4,14a82 <__gdtoa+0x69e>
   14b30:	014ca603          	lw	a2,20(s9)
   14b34:	4685                	li	a3,1
   14b36:	835a                	mv	t1,s6
   14b38:	8ea6                	mv	t4,s1
   14b3a:	7842                	ld	a6,48(sp)
   14b3c:	7ba2                	ld	s7,40(sp)
   14b3e:	74e2                	ld	s1,56(sp)
   14b40:	8b3a                	mv	s6,a4
   14b42:	0ec6d3e3          	bge	a3,a2,15428 <__gdtoa+0x1044>
   14b46:	7782                	ld	a5,32(sp)
   14b48:	4689                	li	a3,2
   14b4a:	0ad78be3          	beq	a5,a3,15400 <__gdtoa+0x101c>
   14b4e:	891a                	mv	s2,t1
   14b50:	89f6                	mv	s3,t4
   14b52:	8a42                	mv	s4,a6
   14b54:	a829                	j	14b6e <__gdtoa+0x78a>
   14b56:	513000ef          	jal	15868 <__multadd>
   14b5a:	85ee                	mv	a1,s11
   14b5c:	8caa                	mv	s9,a0
   14b5e:	a80505e3          	beqz	a0,145e8 <__gdtoa+0x204>
   14b62:	23d000ef          	jal	1559e <__quorem_D2A>
   14b66:	89ca                	mv	s3,s2
   14b68:	8aea                	mv	s5,s10
   14b6a:	0305091b          	addiw	s2,a0,48
   14b6e:	85ce                	mv	a1,s3
   14b70:	856e                	mv	a0,s11
   14b72:	40e010ef          	jal	15f80 <__mcmp>
   14b76:	87aa                	mv	a5,a0
   14b78:	4681                	li	a3,0
   14b7a:	4629                	li	a2,10
   14b7c:	85ce                	mv	a1,s3
   14b7e:	8522                	mv	a0,s0
   14b80:	001a8d13          	addi	s10,s5,1
   14b84:	06f052e3          	blez	a5,153e8 <__gdtoa+0x1004>
   14b88:	ff2d0fa3          	sb	s2,-1(s10)
   14b8c:	4dd000ef          	jal	15868 <__multadd>
   14b90:	892a                	mv	s2,a0
   14b92:	4681                	li	a3,0
   14b94:	4629                	li	a2,10
   14b96:	85e6                	mv	a1,s9
   14b98:	8522                	mv	a0,s0
   14b9a:	a40907e3          	beqz	s2,145e8 <__gdtoa+0x204>
   14b9e:	fb3c1ce3          	bne	s8,s3,14b56 <__gdtoa+0x772>
   14ba2:	8c4a                	mv	s8,s2
   14ba4:	bf4d                	j	14b56 <__gdtoa+0x772>
   14ba6:	3fd5051b          	addiw	a0,a0,1021
   14baa:	7f853713          	sltiu	a4,a0,2040
   14bae:	f4ba                	sd	a4,104(sp)
   14bb0:	4901                	li	s2,0
   14bb2:	1b81b707          	fld	fa4,440(gp) # 1b8d8 <__SDATA_BEGIN__+0x28>
   14bb6:	d20d87d3          	fcvt.d.w	fa5,s11
   14bba:	577d                	li	a4,-1
   14bbc:	f8ba                	sd	a4,112(sp)
   14bbe:	12e7f7d3          	fmul.d	fa5,fa5,fa4
   14bc2:	f43a                	sd	a4,40(sp)
   14bc4:	4705                	li	a4,1
   14bc6:	4a81                	li	s5,0
   14bc8:	ecba                	sd	a4,88(sp)
   14bca:	c20795d3          	fcvt.w.d	a1,fa5,rtz
   14bce:	258d                	addiw	a1,a1,3
   14bd0:	862e                	mv	a2,a1
   14bd2:	bcc5                	j	146c2 <__gdtoa+0x2de>
   14bd4:	d2058753          	fcvt.d.w	fa4,a1
   14bd8:	a2f72e53          	feq.d	t3,fa4,fa5
   14bdc:	980e13e3          	bnez	t3,14562 <__gdtoa+0x17e>
   14be0:	fff5871b          	addiw	a4,a1,-1
   14be4:	e83a                	sd	a4,16(sp)
   14be6:	bab5                	j	14562 <__gdtoa+0x17e>
   14be8:	4705                	li	a4,1
   14bea:	f482                	sd	zero,104(sp)
   14bec:	ecba                	sd	a4,88(sp)
   14bee:	000a859b          	sext.w	a1,s5
   14bf2:	01504363          	bgtz	s5,14bf8 <__gdtoa+0x814>
   14bf6:	4585                	li	a1,1
   14bf8:	862e                	mv	a2,a1
   14bfa:	f8ae                	sd	a1,112(sp)
   14bfc:	f42e                	sd	a1,40(sp)
   14bfe:	8aae                	mv	s5,a1
   14c00:	b4c9                	j	146c2 <__gdtoa+0x2de>
   14c02:	467000ef          	jal	15868 <__multadd>
   14c06:	8c2a                	mv	s8,a0
   14c08:	9e0500e3          	beqz	a0,145e8 <__gdtoa+0x204>
   14c0c:	84aa                	mv	s1,a0
   14c0e:	bd6d                	j	14ac8 <__gdtoa+0x6e4>
   14c10:	e60a59e3          	bgez	s4,14a82 <__gdtoa+0x69e>
   14c14:	7782                	ld	a5,32(sp)
   14c16:	835a                	mv	t1,s6
   14c18:	8ea6                	mv	t4,s1
   14c1a:	7842                	ld	a6,48(sp)
   14c1c:	7ba2                	ld	s7,40(sp)
   14c1e:	74e2                	ld	s1,56(sp)
   14c20:	8b3a                	mv	s6,a4
   14c22:	7e079e63          	bnez	a5,1541e <__gdtoa+0x103a>
   14c26:	014ca603          	lw	a2,20(s9)
   14c2a:	4685                	li	a3,1
   14c2c:	4b41                	li	s6,16
   14c2e:	00da8d33          	add	s10,s5,a3
   14c32:	78c6d663          	bge	a3,a2,153be <__gdtoa+0xfda>
   14c36:	8962                	mv	s2,s8
   14c38:	006a8023          	sb	t1,0(s5)
   14c3c:	8c76                	mv	s8,t4
   14c3e:	85ee                	mv	a1,s11
   14c40:	8522                	mv	a0,s0
   14c42:	e442                	sd	a6,8(sp)
   14c44:	413000ef          	jal	15856 <_Bfree>
   14c48:	6822                	ld	a6,8(sp)
   14c4a:	480c0263          	beqz	s8,150ce <__gdtoa+0xcea>
   14c4e:	00090a63          	beqz	s2,14c62 <__gdtoa+0x87e>
   14c52:	01890863          	beq	s2,s8,14c62 <__gdtoa+0x87e>
   14c56:	85ca                	mv	a1,s2
   14c58:	8522                	mv	a0,s0
   14c5a:	e442                	sd	a6,8(sp)
   14c5c:	3fb000ef          	jal	15856 <_Bfree>
   14c60:	6822                	ld	a6,8(sp)
   14c62:	85e2                	mv	a1,s8
   14c64:	8522                	mv	a0,s0
   14c66:	e442                	sd	a6,8(sp)
   14c68:	3ef000ef          	jal	15856 <_Bfree>
   14c6c:	67c2                	ld	a5,16(sp)
   14c6e:	6822                	ld	a6,8(sp)
   14c70:	00178a9b          	addiw	s5,a5,1
   14c74:	b665                	j	1481c <__gdtoa+0x438>
   14c76:	f002                	sd	zero,32(sp)
   14c78:	6762                	ld	a4,24(sp)
   14c7a:	22071463          	bnez	a4,14ea2 <__gdtoa+0xabe>
   14c7e:	7742                	ld	a4,48(sp)
   14c80:	4d01                	li	s10,0
   14c82:	4c01                	li	s8,0
   14c84:	d4070ee3          	beqz	a4,149e0 <__gdtoa+0x5fc>
   14c88:	7642                	ld	a2,48(sp)
   14c8a:	85e6                	mv	a1,s9
   14c8c:	8522                	mv	a0,s0
   14c8e:	e8c2                	sd	a6,80(sp)
   14c90:	e4be                	sd	a5,72(sp)
   14c92:	e0f6                	sd	t4,64(sp)
   14c94:	0ee010ef          	jal	15d82 <__pow5mult>
   14c98:	8caa                	mv	s9,a0
   14c9a:	940507e3          	beqz	a0,145e8 <__gdtoa+0x204>
   14c9e:	6d62                	ld	s10,24(sp)
   14ca0:	6846                	ld	a6,80(sp)
   14ca2:	67a6                	ld	a5,72(sp)
   14ca4:	6e86                	ld	t4,64(sp)
   14ca6:	4c01                	li	s8,0
   14ca8:	bb25                	j	149e0 <__gdtoa+0x5fc>
   14caa:	3fd5051b          	addiw	a0,a0,1021
   14cae:	7f853713          	sltiu	a4,a0,2040
   14cb2:	4591                	li	a1,4
   14cb4:	f4ba                	sd	a4,104(sp)
   14cb6:	34b90263          	beq	s2,a1,14ffa <__gdtoa+0xc16>
   14cba:	22c90663          	beq	s2,a2,14ee6 <__gdtoa+0xb02>
   14cbe:	4609                	li	a2,2
   14cc0:	34c90063          	beq	s2,a2,15000 <__gdtoa+0xc1c>
   14cc4:	460d                	li	a2,3
   14cc6:	ec82                	sd	zero,88(sp)
   14cc8:	9ec903e3          	beq	s2,a2,146ae <__gdtoa+0x2ca>
   14ccc:	b5dd                	j	14bb2 <__gdtoa+0x7ce>
   14cce:	85e6                	mv	a1,s9
   14cd0:	8522                	mv	a0,s0
   14cd2:	ec42                	sd	a6,24(sp)
   14cd4:	e476                	sd	t4,8(sp)
   14cd6:	194010ef          	jal	15e6a <__lshift>
   14cda:	8caa                	mv	s9,a0
   14cdc:	900506e3          	beqz	a0,145e8 <__gdtoa+0x204>
   14ce0:	47ba                	lw	a5,140(sp)
   14ce2:	6862                	ld	a6,24(sp)
   14ce4:	6ea2                	ld	t4,8(sp)
   14ce6:	bb2d                	j	14a20 <__gdtoa+0x63c>
   14ce8:	85ee                	mv	a1,s11
   14cea:	8566                	mv	a0,s9
   14cec:	e442                	sd	a6,8(sp)
   14cee:	292010ef          	jal	15f80 <__mcmp>
   14cf2:	6822                	ld	a6,8(sp)
   14cf4:	d2055de3          	bgez	a0,14a2e <__gdtoa+0x64a>
   14cf8:	67c2                	ld	a5,16(sp)
   14cfa:	85e6                	mv	a1,s9
   14cfc:	4681                	li	a3,0
   14cfe:	37fd                	addiw	a5,a5,-1
   14d00:	4629                	li	a2,10
   14d02:	8522                	mv	a0,s0
   14d04:	e83e                	sd	a5,16(sp)
   14d06:	363000ef          	jal	15868 <__multadd>
   14d0a:	8caa                	mv	s9,a0
   14d0c:	8c050ee3          	beqz	a0,145e8 <__gdtoa+0x204>
   14d10:	67e6                	ld	a5,88(sp)
   14d12:	6822                	ld	a6,8(sp)
   14d14:	5a079f63          	bnez	a5,152d2 <__gdtoa+0xeee>
   14d18:	77c6                	ld	a5,112(sp)
   14d1a:	f43e                	sd	a5,40(sp)
   14d1c:	00f04563          	bgtz	a5,14d26 <__gdtoa+0x942>
   14d20:	4789                	li	a5,2
   14d22:	0d27cf63          	blt	a5,s2,14e00 <__gdtoa+0xa1c>
   14d26:	7922                	ld	s2,40(sp)
   14d28:	8ac2                	mv	s5,a6
   14d2a:	4685                	li	a3,1
   14d2c:	89c2                	mv	s3,a6
   14d2e:	a801                	j	14d3e <__gdtoa+0x95a>
   14d30:	339000ef          	jal	15868 <__multadd>
   14d34:	8caa                	mv	s9,a0
   14d36:	8a0509e3          	beqz	a0,145e8 <__gdtoa+0x204>
   14d3a:	46ba                	lw	a3,140(sp)
   14d3c:	2685                	addiw	a3,a3,1
   14d3e:	85ee                	mv	a1,s11
   14d40:	8566                	mv	a0,s9
   14d42:	c736                	sw	a3,140(sp)
   14d44:	05b000ef          	jal	1559e <__quorem_D2A>
   14d48:	0305031b          	addiw	t1,a0,48
   14d4c:	006a8023          	sb	t1,0(s5)
   14d50:	47ba                	lw	a5,140(sp)
   14d52:	0a85                	addi	s5,s5,1
   14d54:	4681                	li	a3,0
   14d56:	4629                	li	a2,10
   14d58:	85e6                	mv	a1,s9
   14d5a:	8522                	mv	a0,s0
   14d5c:	fd27cae3          	blt	a5,s2,14d30 <__gdtoa+0x94c>
   14d60:	884e                	mv	a6,s3
   14d62:	4901                	li	s2,0
   14d64:	7782                	ld	a5,32(sp)
   14d66:	38078563          	beqz	a5,150f0 <__gdtoa+0xd0c>
   14d6a:	4689                	li	a3,2
   14d6c:	3ad78863          	beq	a5,a3,1511c <__gdtoa+0xd38>
   14d70:	014ca603          	lw	a2,20(s9)
   14d74:	4685                	li	a3,1
   14d76:	24c6c263          	blt	a3,a2,14fba <__gdtoa+0xbd6>
   14d7a:	018ca683          	lw	a3,24(s9)
   14d7e:	22069e63          	bnez	a3,14fba <__gdtoa+0xbd6>
   14d82:	00d036b3          	snez	a3,a3
   14d86:	00469b1b          	slliw	s6,a3,0x4
   14d8a:	03000613          	li	a2,48
   14d8e:	8d56                	mv	s10,s5
   14d90:	fffac783          	lbu	a5,-1(s5)
   14d94:	1afd                	addi	s5,s5,-1
   14d96:	fec78ce3          	beq	a5,a2,14d8e <__gdtoa+0x9aa>
   14d9a:	b555                	j	14c3e <__gdtoa+0x85a>
   14d9c:	7722                	ld	a4,40(sp)
   14d9e:	7642                	ld	a2,48(sp)
   14da0:	fff70d1b          	addiw	s10,a4,-1
   14da4:	86ea                	mv	a3,s10
   14da6:	1ba64163          	blt	a2,s10,14f48 <__gdtoa+0xb64>
   14daa:	41a60dbb          	subw	s11,a2,s10
   14dae:	50075e63          	bgez	a4,152ca <__gdtoa+0xee6>
   14db2:	7722                	ld	a4,40(sp)
   14db4:	e4be                	sd	a5,72(sp)
   14db6:	67e2                	ld	a5,24(sp)
   14db8:	4585                	li	a1,1
   14dba:	8522                	mv	a0,s0
   14dbc:	e8c2                	sd	a6,80(sp)
   14dbe:	e0f6                	sd	t4,64(sp)
   14dc0:	40e78d3b          	subw	s10,a5,a4
   14dc4:	c702                	sw	zero,140(sp)
   14dc6:	593000ef          	jal	15b58 <__i2b>
   14dca:	6e86                	ld	t4,64(sp)
   14dcc:	67a6                	ld	a5,72(sp)
   14dce:	6846                	ld	a6,80(sp)
   14dd0:	8c2a                	mv	s8,a0
   14dd2:	80050be3          	beqz	a0,145e8 <__gdtoa+0x204>
   14dd6:	01d05e63          	blez	t4,14df2 <__gdtoa+0xa0e>
   14dda:	86ea                	mv	a3,s10
   14ddc:	01aed363          	bge	t4,s10,14de2 <__gdtoa+0x9fe>
   14de0:	86f6                	mv	a3,t4
   14de2:	6762                	ld	a4,24(sp)
   14de4:	c736                	sw	a3,140(sp)
   14de6:	40dd0d3b          	subw	s10,s10,a3
   14dea:	9f15                	subw	a4,a4,a3
   14dec:	ec3a                	sd	a4,24(sp)
   14dee:	40de8ebb          	subw	t4,t4,a3
   14df2:	7742                	ld	a4,48(sp)
   14df4:	bc0716e3          	bnez	a4,149c0 <__gdtoa+0x5dc>
   14df8:	b6e5                	j	149e0 <__gdtoa+0x5fc>
   14dfa:	4789                	li	a5,2
   14dfc:	c327dce3          	bge	a5,s2,14a34 <__gdtoa+0x650>
   14e00:	85ee                	mv	a1,s11
   14e02:	4681                	li	a3,0
   14e04:	4615                	li	a2,5
   14e06:	8522                	mv	a0,s0
   14e08:	e442                	sd	a6,8(sp)
   14e0a:	25f000ef          	jal	15868 <__multadd>
   14e0e:	85aa                	mv	a1,a0
   14e10:	fc050c63          	beqz	a0,145e8 <__gdtoa+0x204>
   14e14:	77a2                	ld	a5,40(sp)
   14e16:	6822                	ld	a6,8(sp)
   14e18:	30079b63          	bnez	a5,1512e <__gdtoa+0xd4a>
   14e1c:	e42a                	sd	a0,8(sp)
   14e1e:	8566                	mv	a0,s9
   14e20:	ec42                	sd	a6,24(sp)
   14e22:	15e010ef          	jal	15f80 <__mcmp>
   14e26:	65a2                	ld	a1,8(sp)
   14e28:	6862                	ld	a6,24(sp)
   14e2a:	30a05263          	blez	a0,1512e <__gdtoa+0xd4a>
   14e2e:	03100793          	li	a5,49
   14e32:	00f80023          	sb	a5,0(a6)
   14e36:	67c2                	ld	a5,16(sp)
   14e38:	8522                	mv	a0,s0
   14e3a:	00180d13          	addi	s10,a6,1
   14e3e:	e442                	sd	a6,8(sp)
   14e40:	0017891b          	addiw	s2,a5,1
   14e44:	213000ef          	jal	15856 <_Bfree>
   14e48:	6822                	ld	a6,8(sp)
   14e4a:	600c0863          	beqz	s8,1545a <__gdtoa+0x1076>
   14e4e:	e84a                	sd	s2,16(sp)
   14e50:	02000b13          	li	s6,32
   14e54:	b539                	j	14c62 <__gdtoa+0x87e>
   14e56:	4605                	li	a2,1
   14e58:	85b2                	mv	a1,a2
   14e5a:	869ff06f          	j	146c2 <__gdtoa+0x2de>
   14e5e:	85aa                	mv	a1,a0
   14e60:	863a                	mv	a2,a4
   14e62:	8522                	mv	a0,s0
   14e64:	e0c2                	sd	a6,64(sp)
   14e66:	e4be                	sd	a5,72(sp)
   14e68:	71b000ef          	jal	15d82 <__pow5mult>
   14e6c:	8daa                	mv	s11,a0
   14e6e:	f6050d63          	beqz	a0,145e8 <__gdtoa+0x204>
   14e72:	4685                	li	a3,1
   14e74:	7ec2                	ld	t4,48(sp)
   14e76:	6806                	ld	a6,64(sp)
   14e78:	1926dc63          	bge	a3,s2,15010 <__gdtoa+0xc2c>
   14e7c:	014da783          	lw	a5,20(s11)
   14e80:	f842                	sd	a6,48(sp)
   14e82:	e476                	sd	t4,8(sp)
   14e84:	37fd                	addiw	a5,a5,-1
   14e86:	078a                	slli	a5,a5,0x2
   14e88:	97ee                	add	a5,a5,s11
   14e8a:	4f88                	lw	a0,24(a5)
   14e8c:	3b3000ef          	jal	15a3e <__hi0bits>
   14e90:	7842                	ld	a6,48(sp)
   14e92:	6ea2                	ld	t4,8(sp)
   14e94:	fc5a                	sd	s6,56(sp)
   14e96:	be8d                	j	14a08 <__gdtoa+0x624>
   14e98:	4605                	li	a2,1
   14e9a:	f12641e3          	blt	a2,s2,14d9c <__gdtoa+0x9b8>
   14e9e:	7dc2                	ld	s11,48(sp)
   14ea0:	b4fd                	j	1498e <__gdtoa+0x5aa>
   14ea2:	160e8163          	beqz	t4,15004 <__gdtoa+0xc20>
   14ea6:	6762                	ld	a4,24(sp)
   14ea8:	86ba                	mv	a3,a4
   14eaa:	00eed363          	bge	t4,a4,14eb0 <__gdtoa+0xacc>
   14eae:	86f6                	mv	a3,t4
   14eb0:	6762                	ld	a4,24(sp)
   14eb2:	c736                	sw	a3,140(sp)
   14eb4:	40de8ebb          	subw	t4,t4,a3
   14eb8:	40d70d3b          	subw	s10,a4,a3
   14ebc:	7742                	ld	a4,48(sp)
   14ebe:	ec6a                	sd	s10,24(sp)
   14ec0:	dc0714e3          	bnez	a4,14c88 <__gdtoa+0x8a4>
   14ec4:	4c01                	li	s8,0
   14ec6:	be29                	j	149e0 <__gdtoa+0x5fc>
   14ec8:	b4d790e3          	bne	a5,a3,14a08 <__gdtoa+0x624>
   14ecc:	004a2683          	lw	a3,4(s4)
   14ed0:	6722                	ld	a4,8(sp)
   14ed2:	2685                	addiw	a3,a3,1
   14ed4:	b2e6dae3          	bge	a3,a4,14a08 <__gdtoa+0x624>
   14ed8:	6762                	ld	a4,24(sp)
   14eda:	2e85                	addiw	t4,t4,1
   14edc:	fc3e                	sd	a5,56(sp)
   14ede:	2705                	addiw	a4,a4,1
   14ee0:	ec3a                	sd	a4,24(sp)
   14ee2:	b61d                	j	14a08 <__gdtoa+0x624>
   14ee4:	f482                	sd	zero,104(sp)
   14ee6:	4705                	li	a4,1
   14ee8:	4915                	li	s2,5
   14eea:	ecba                	sd	a4,88(sp)
   14eec:	fc2ff06f          	j	146ae <__gdtoa+0x2ca>
   14ef0:	4585                	li	a1,1
   14ef2:	40c5873b          	subw	a4,a1,a2
   14ef6:	ec3a                	sd	a4,24(sp)
   14ef8:	6742                	ld	a4,16(sp)
   14efa:	f082                	sd	zero,96(sp)
   14efc:	f802                	sd	zero,48(sp)
   14efe:	8eba                	mv	t4,a4
   14f00:	fc3a                	sd	a4,56(sp)
   14f02:	f88ff06f          	j	1468a <__gdtoa+0x2a6>
   14f06:	77a2                	ld	a5,40(sp)
   14f08:	9af04ce3          	bgtz	a5,148c0 <__gdtoa+0x4dc>
   14f0c:	1c079663          	bnez	a5,150d8 <__gdtoa+0xcf4>
   14f10:	1e81b787          	fld	fa5,488(gp) # 1b908 <__SDATA_BEGIN__+0x58>
   14f14:	12f77753          	fmul.d	fa4,fa4,fa5
   14f18:	f20687d3          	fmv.d.x	fa5,a3
   14f1c:	a2e787d3          	fle.d	a5,fa5,fa4
   14f20:	1a079c63          	bnez	a5,150d8 <__gdtoa+0xcf4>
   14f24:	03100793          	li	a5,49
   14f28:	00f80023          	sb	a5,0(a6)
   14f2c:	4581                	li	a1,0
   14f2e:	8522                	mv	a0,s0
   14f30:	00180d13          	addi	s10,a6,1
   14f34:	e442                	sd	a6,8(sp)
   14f36:	121000ef          	jal	15856 <_Bfree>
   14f3a:	67c2                	ld	a5,16(sp)
   14f3c:	6822                	ld	a6,8(sp)
   14f3e:	02000b13          	li	s6,32
   14f42:	00278a9b          	addiw	s5,a5,2
   14f46:	b8d9                	j	1481c <__gdtoa+0x438>
   14f48:	7742                	ld	a4,48(sp)
   14f4a:	4d81                	li	s11,0
   14f4c:	f836                	sd	a3,48(sp)
   14f4e:	40e6863b          	subw	a2,a3,a4
   14f52:	7762                	ld	a4,56(sp)
   14f54:	9f31                	addw	a4,a4,a2
   14f56:	fc3a                	sd	a4,56(sp)
   14f58:	7722                	ld	a4,40(sp)
   14f5a:	c73a                	sw	a4,140(sp)
   14f5c:	86ba                	mv	a3,a4
   14f5e:	bc05                	j	1498e <__gdtoa+0x5aa>
   14f60:	85e2                	mv	a1,s8
   14f62:	866e                	mv	a2,s11
   14f64:	8522                	mv	a0,s0
   14f66:	e8c2                	sd	a6,80(sp)
   14f68:	e4be                	sd	a5,72(sp)
   14f6a:	e0f6                	sd	t4,64(sp)
   14f6c:	617000ef          	jal	15d82 <__pow5mult>
   14f70:	8c2a                	mv	s8,a0
   14f72:	e6050b63          	beqz	a0,145e8 <__gdtoa+0x204>
   14f76:	85aa                	mv	a1,a0
   14f78:	8666                	mv	a2,s9
   14f7a:	8522                	mv	a0,s0
   14f7c:	445000ef          	jal	15bc0 <__multiply>
   14f80:	f4aa                	sd	a0,104(sp)
   14f82:	e6050363          	beqz	a0,145e8 <__gdtoa+0x204>
   14f86:	85e6                	mv	a1,s9
   14f88:	8522                	mv	a0,s0
   14f8a:	0cd000ef          	jal	15856 <_Bfree>
   14f8e:	77c2                	ld	a5,48(sp)
   14f90:	76a6                	ld	a3,104(sp)
   14f92:	6e86                	ld	t4,64(sp)
   14f94:	41b7873b          	subw	a4,a5,s11
   14f98:	f83a                	sd	a4,48(sp)
   14f9a:	67a6                	ld	a5,72(sp)
   14f9c:	6846                	ld	a6,80(sp)
   14f9e:	8cb6                	mv	s9,a3
   14fa0:	a40700e3          	beqz	a4,149e0 <__gdtoa+0x5fc>
   14fa4:	b405                	j	149c4 <__gdtoa+0x5e0>
   14fa6:	8962                	mv	s2,s8
   14fa8:	86d6                	mv	a3,s5
   14faa:	001a8d13          	addi	s10,s5,1
   14fae:	8c76                	mv	s8,t4
   14fb0:	03900613          	li	a2,57
   14fb4:	8aea                	mv	s5,s10
   14fb6:	00c68023          	sb	a2,0(a3)
   14fba:	03900613          	li	a2,57
   14fbe:	a019                	j	14fc4 <__gdtoa+0xbe0>
   14fc0:	19580763          	beq	a6,s5,1514e <__gdtoa+0xd6a>
   14fc4:	fffac683          	lbu	a3,-1(s5)
   14fc8:	8d56                	mv	s10,s5
   14fca:	1afd                	addi	s5,s5,-1
   14fcc:	fec68ae3          	beq	a3,a2,14fc0 <__gdtoa+0xbdc>
   14fd0:	2685                	addiw	a3,a3,1
   14fd2:	00da8023          	sb	a3,0(s5)
   14fd6:	02000b13          	li	s6,32
   14fda:	b195                	j	14c3e <__gdtoa+0x85a>
   14fdc:	85e2                	mv	a1,s8
   14fde:	8522                	mv	a0,s0
   14fe0:	e442                	sd	a6,8(sp)
   14fe2:	689000ef          	jal	15e6a <__lshift>
   14fe6:	6822                	ld	a6,8(sp)
   14fe8:	8c2a                	mv	s8,a0
   14fea:	a4051ce3          	bnez	a0,14a42 <__gdtoa+0x65e>
   14fee:	dfaff06f          	j	145e8 <__gdtoa+0x204>
   14ff2:	8d3a                	mv	s10,a4
   14ff4:	9f35                	addw	a4,a4,a3
   14ff6:	ec3a                	sd	a4,24(sp)
   14ff8:	bbf9                	j	14dd6 <__gdtoa+0x9f2>
   14ffa:	4705                	li	a4,1
   14ffc:	ecba                	sd	a4,88(sp)
   14ffe:	bec5                	j	14bee <__gdtoa+0x80a>
   15000:	ec82                	sd	zero,88(sp)
   15002:	b6f5                	j	14bee <__gdtoa+0x80a>
   15004:	7742                	ld	a4,48(sp)
   15006:	c80711e3          	bnez	a4,14c88 <__gdtoa+0x8a4>
   1500a:	6d62                	ld	s10,24(sp)
   1500c:	4c01                	li	s8,0
   1500e:	bac9                	j	149e0 <__gdtoa+0x5fc>
   15010:	67a6                	ld	a5,72(sp)
   15012:	e6d795e3          	bne	a5,a3,14e7c <__gdtoa+0xa98>
   15016:	004a2683          	lw	a3,4(s4)
   1501a:	6722                	ld	a4,8(sp)
   1501c:	2685                	addiw	a3,a3,1
   1501e:	e4e6dfe3          	bge	a3,a4,14e7c <__gdtoa+0xa98>
   15022:	6762                	ld	a4,24(sp)
   15024:	2e85                	addiw	t4,t4,1
   15026:	8b3e                	mv	s6,a5
   15028:	2705                	addiw	a4,a4,1
   1502a:	ec3a                	sd	a4,24(sp)
   1502c:	bd81                	j	14e7c <__gdtoa+0xa98>
   1502e:	008c2583          	lw	a1,8(s8)
   15032:	8522                	mv	a0,s0
   15034:	e442                	sd	a6,8(sp)
   15036:	7b8000ef          	jal	157ee <_Balloc>
   1503a:	8a2a                	mv	s4,a0
   1503c:	da050663          	beqz	a0,145e8 <__gdtoa+0x204>
   15040:	014c2603          	lw	a2,20(s8)
   15044:	010c0593          	addi	a1,s8,16
   15048:	0541                	addi	a0,a0,16
   1504a:	0609                	addi	a2,a2,2
   1504c:	060a                	slli	a2,a2,0x2
   1504e:	f03fe0ef          	jal	13f50 <memcpy>
   15052:	85d2                	mv	a1,s4
   15054:	8522                	mv	a0,s0
   15056:	4605                	li	a2,1
   15058:	613000ef          	jal	15e6a <__lshift>
   1505c:	6822                	ld	a6,8(sp)
   1505e:	8eaa                	mv	t4,a0
   15060:	9e0515e3          	bnez	a0,14a4a <__gdtoa+0x666>
   15064:	d84ff06f          	j	145e8 <__gdtoa+0x204>
   15068:	7722                	ld	a4,40(sp)
   1506a:	28071663          	bnez	a4,152f6 <__gdtoa+0xf12>
   1506e:	1c81b707          	fld	fa4,456(gp) # 1b8e8 <__SDATA_BEGIN__+0x38>
   15072:	fcc005b7          	lui	a1,0xfcc00
   15076:	b03a                	fsd	fa4,32(sp)
   15078:	3682                	fld	fa3,32(sp)
   1507a:	1d01b707          	fld	fa4,464(gp) # 1b8f0 <__SDATA_BEGIN__+0x40>
   1507e:	72f6f743          	fmadd.d	fa4,fa3,fa5,fa4
   15082:	e2070653          	fmv.x.d	a2,fa4
   15086:	8fb2                	mv	t6,a2
   15088:	9201                	srli	a2,a2,0x20
   1508a:	1f82                	slli	t6,t6,0x20
   1508c:	9e2d                	addw	a2,a2,a1
   1508e:	020fdf93          	srli	t6,t6,0x20
   15092:	1602                	slli	a2,a2,0x20
   15094:	00cfefb3          	or	t6,t6,a2
   15098:	1e81b707          	fld	fa4,488(gp) # 1b908 <__SDATA_BEGIN__+0x58>
   1509c:	0ae7f7d3          	fsub.d	fa5,fa5,fa4
   150a0:	f20f8753          	fmv.d.x	fa4,t6
   150a4:	a2f715d3          	flt.d	a1,fa4,fa5
   150a8:	1c059e63          	bnez	a1,15284 <__gdtoa+0xea0>
   150ac:	22e71753          	fneg.d	fa4,fa4
   150b0:	a2e795d3          	flt.d	a1,fa5,fa4
   150b4:	e195                	bnez	a1,150d8 <__gdtoa+0xcf4>
   150b6:	880c4ae3          	bltz	s8,1494a <__gdtoa+0x566>
   150ba:	67e9                	lui	a5,0x1a
   150bc:	8887b707          	fld	fa4,-1912(a5) # 19888 <__mprec_tens>
   150c0:	e40ac8e3          	bltz	s5,14f10 <__gdtoa+0xb2c>
   150c4:	f002                	sd	zero,32(sp)
   150c6:	00180f13          	addi	t5,a6,1
   150ca:	ff6ff06f          	j	148c0 <__gdtoa+0x4dc>
   150ce:	67c2                	ld	a5,16(sp)
   150d0:	00178a9b          	addiw	s5,a5,1
   150d4:	f48ff06f          	j	1481c <__gdtoa+0x438>
   150d8:	4581                	li	a1,0
   150da:	8522                	mv	a0,s0
   150dc:	e442                	sd	a6,8(sp)
   150de:	778000ef          	jal	15856 <_Bfree>
   150e2:	6822                	ld	a6,8(sp)
   150e4:	41500abb          	negw	s5,s5
   150e8:	4b41                	li	s6,16
   150ea:	8d42                	mv	s10,a6
   150ec:	f30ff06f          	j	1481c <__gdtoa+0x438>
   150f0:	85e6                	mv	a1,s9
   150f2:	4605                	li	a2,1
   150f4:	8522                	mv	a0,s0
   150f6:	e442                	sd	a6,8(sp)
   150f8:	ec1a                	sd	t1,24(sp)
   150fa:	571000ef          	jal	15e6a <__lshift>
   150fe:	8caa                	mv	s9,a0
   15100:	ce050463          	beqz	a0,145e8 <__gdtoa+0x204>
   15104:	85ee                	mv	a1,s11
   15106:	67b000ef          	jal	15f80 <__mcmp>
   1510a:	6822                	ld	a6,8(sp)
   1510c:	eaa047e3          	bgtz	a0,14fba <__gdtoa+0xbd6>
   15110:	e511                	bnez	a0,1511c <__gdtoa+0xd38>
   15112:	6362                	ld	t1,24(sp)
   15114:	00137313          	andi	t1,t1,1
   15118:	ea0311e3          	bnez	t1,14fba <__gdtoa+0xbd6>
   1511c:	014ca603          	lw	a2,20(s9)
   15120:	4685                	li	a3,1
   15122:	4b41                	li	s6,16
   15124:	c6c6c3e3          	blt	a3,a2,14d8a <__gdtoa+0x9a6>
   15128:	018ca683          	lw	a3,24(s9)
   1512c:	b999                	j	14d82 <__gdtoa+0x99e>
   1512e:	fffac793          	not	a5,s5
   15132:	8522                	mv	a0,s0
   15134:	e442                	sd	a6,8(sp)
   15136:	e83e                	sd	a5,16(sp)
   15138:	71e000ef          	jal	15856 <_Bfree>
   1513c:	6822                	ld	a6,8(sp)
   1513e:	4b41                	li	s6,16
   15140:	41500abb          	negw	s5,s5
   15144:	8d42                	mv	s10,a6
   15146:	b00c1ee3          	bnez	s8,14c62 <__gdtoa+0x87e>
   1514a:	ed2ff06f          	j	1481c <__gdtoa+0x438>
   1514e:	6742                	ld	a4,16(sp)
   15150:	03100793          	li	a5,49
   15154:	00f80023          	sb	a5,0(a6)
   15158:	2705                	addiw	a4,a4,1
   1515a:	e83a                	sd	a4,16(sp)
   1515c:	02000b13          	li	s6,32
   15160:	bcf9                	j	14c3e <__gdtoa+0x85a>
   15162:	02f7f7d3          	fadd.d	fa5,fa5,fa5
   15166:	fffd4603          	lbu	a2,-1(s10)
   1516a:	a2f716d3          	flt.d	a3,fa4,fa5
   1516e:	e8069263          	bnez	a3,147f2 <__gdtoa+0x40e>
   15172:	a2e7a6d3          	feq.d	a3,fa5,fa4
   15176:	c681                	beqz	a3,1517e <__gdtoa+0xd9a>
   15178:	8b85                	andi	a5,a5,1
   1517a:	e6079c63          	bnez	a5,147f2 <__gdtoa+0x40e>
   1517e:	87ea                	mv	a5,s10
   15180:	4b41                	li	s6,16
   15182:	03000613          	li	a2,48
   15186:	fff7c703          	lbu	a4,-1(a5)
   1518a:	8d3e                	mv	s10,a5
   1518c:	17fd                	addi	a5,a5,-1
   1518e:	fec70ce3          	beq	a4,a2,15186 <__gdtoa+0xda2>
   15192:	8aae                	mv	s5,a1
   15194:	e88ff06f          	j	1481c <__gdtoa+0x438>
   15198:	2585                	addiw	a1,a1,1 # fffffffffcc00001 <__BSS_END__+0xfffffffffcbe40e1>
   1519a:	03100693          	li	a3,49
   1519e:	e74ff06f          	j	14812 <__gdtoa+0x42e>
   151a2:	7782                	ld	a5,32(sp)
   151a4:	895e                	mv	s2,s7
   151a6:	8ea6                	mv	t4,s1
   151a8:	7842                	ld	a6,48(sp)
   151aa:	7ba2                	ld	s7,40(sp)
   151ac:	74e2                	ld	s1,56(sp)
   151ae:	835a                	mv	t1,s6
   151b0:	cb91                	beqz	a5,151c4 <__gdtoa+0xde0>
   151b2:	014ca603          	lw	a2,20(s9)
   151b6:	4685                	li	a3,1
   151b8:	98c6c7e3          	blt	a3,a2,14b46 <__gdtoa+0x762>
   151bc:	018ca683          	lw	a3,24(s9)
   151c0:	980693e3          	bnez	a3,14b46 <__gdtoa+0x762>
   151c4:	85e6                	mv	a1,s9
   151c6:	4605                	li	a2,1
   151c8:	8522                	mv	a0,s0
   151ca:	f042                	sd	a6,32(sp)
   151cc:	ec76                	sd	t4,24(sp)
   151ce:	e41a                	sd	t1,8(sp)
   151d0:	49b000ef          	jal	15e6a <__lshift>
   151d4:	8caa                	mv	s9,a0
   151d6:	c0050963          	beqz	a0,145e8 <__gdtoa+0x204>
   151da:	85ee                	mv	a1,s11
   151dc:	5a5000ef          	jal	15f80 <__mcmp>
   151e0:	6ee2                	ld	t4,24(sp)
   151e2:	7802                	ld	a6,32(sp)
   151e4:	1ea05463          	blez	a0,153cc <__gdtoa+0xfe8>
   151e8:	03900693          	li	a3,57
   151ec:	dadd0de3          	beq	s10,a3,14fa6 <__gdtoa+0xbc2>
   151f0:	02000793          	li	a5,32
   151f4:	0319031b          	addiw	t1,s2,49
   151f8:	f03e                	sd	a5,32(sp)
   151fa:	b435                	j	14c26 <__gdtoa+0x842>
   151fc:	f20f8753          	fmv.d.x	fa4,t6
   15200:	7726                	ld	a4,104(sp)
   15202:	12e6f5d3          	fmul.d	fa1,fa3,fa4
   15206:	8d42                	mv	s10,a6
   15208:	1d81b687          	fld	fa3,472(gp) # 1b8f8 <__SDATA_BEGIN__+0x48>
   1520c:	22f78753          	fmv.d	fa4,fa5
   15210:	4f81                	li	t6,0
   15212:	a029                	j	1521c <__gdtoa+0xe38>
   15214:	12d77753          	fmul.d	fa4,fa4,fa3
   15218:	2705                	addiw	a4,a4,1
   1521a:	4f85                	li	t6,1
   1521c:	c20718d3          	fcvt.w.d	a7,fa4,rtz
   15220:	c73a                	sw	a4,140(sp)
   15222:	0d05                	addi	s10,s10,1
   15224:	0308861b          	addiw	a2,a7,48
   15228:	0008871b          	sext.w	a4,a7
   1522c:	0ff67613          	zext.b	a2,a2
   15230:	c711                	beqz	a4,1523c <__gdtoa+0xe58>
   15232:	d2088653          	fcvt.d.w	fa2,a7
   15236:	4f85                	li	t6,1
   15238:	0ac77753          	fsub.d	fa4,fa4,fa2
   1523c:	fecd0fa3          	sb	a2,-1(s10)
   15240:	473a                	lw	a4,140(sp)
   15242:	fca719e3          	bne	a4,a0,15214 <__gdtoa+0xe30>
   15246:	000f8463          	beqz	t6,1524e <__gdtoa+0xe6a>
   1524a:	22e707d3          	fmv.d	fa5,fa4
   1524e:	1f01b707          	fld	fa4,496(gp) # 1b910 <__SDATA_BEGIN__+0x60>
   15252:	02e5f6d3          	fadd.d	fa3,fa1,fa4
   15256:	a2f69553          	flt.d	a0,fa3,fa5
   1525a:	0e051a63          	bnez	a0,1534e <__gdtoa+0xf6a>
   1525e:	0ab77753          	fsub.d	fa4,fa4,fa1
   15262:	a2e79653          	flt.d	a2,fa5,fa4
   15266:	10061963          	bnez	a2,15378 <__gdtoa+0xf94>
   1526a:	a00c46e3          	bltz	s8,14c76 <__gdtoa+0x892>
   1526e:	000e3707          	fld	fa4,0(t3)
   15272:	bd89                	j	150c4 <__gdtoa+0xce0>
   15274:	8ea6                	mv	t4,s1
   15276:	8962                	mv	s2,s8
   15278:	7842                	ld	a6,48(sp)
   1527a:	7ba2                	ld	s7,40(sp)
   1527c:	74e2                	ld	s1,56(sp)
   1527e:	835a                	mv	t1,s6
   15280:	8c76                	mv	s8,t4
   15282:	b4cd                	j	14d64 <__gdtoa+0x980>
   15284:	03100793          	li	a5,49
   15288:	00f80023          	sb	a5,0(a6)
   1528c:	4581                	li	a1,0
   1528e:	8522                	mv	a0,s0
   15290:	00180d13          	addi	s10,a6,1
   15294:	e442                	sd	a6,8(sp)
   15296:	5c0000ef          	jal	15856 <_Bfree>
   1529a:	6822                	ld	a6,8(sp)
   1529c:	4a89                	li	s5,2
   1529e:	02000b13          	li	s6,32
   152a2:	d7aff06f          	j	1481c <__gdtoa+0x438>
   152a6:	03900693          	li	a3,57
   152aa:	8ea6                	mv	t4,s1
   152ac:	7842                	ld	a6,48(sp)
   152ae:	7ba2                	ld	s7,40(sp)
   152b0:	74e2                	ld	s1,56(sp)
   152b2:	cedd0ae3          	beq	s10,a3,14fa6 <__gdtoa+0xbc2>
   152b6:	2d05                	addiw	s10,s10,1
   152b8:	01aa8023          	sb	s10,0(s5)
   152bc:	8962                	mv	s2,s8
   152be:	001a8d13          	addi	s10,s5,1
   152c2:	8c76                	mv	s8,t4
   152c4:	02000b13          	li	s6,32
   152c8:	ba9d                	j	14c3e <__gdtoa+0x85a>
   152ca:	c73a                	sw	a4,140(sp)
   152cc:	86ba                	mv	a3,a4
   152ce:	ec0ff06f          	j	1498e <__gdtoa+0x5aa>
   152d2:	85e2                	mv	a1,s8
   152d4:	4681                	li	a3,0
   152d6:	4629                	li	a2,10
   152d8:	8522                	mv	a0,s0
   152da:	58e000ef          	jal	15868 <__multadd>
   152de:	8c2a                	mv	s8,a0
   152e0:	b0050463          	beqz	a0,145e8 <__gdtoa+0x204>
   152e4:	77c6                	ld	a5,112(sp)
   152e6:	6822                	ld	a6,8(sp)
   152e8:	f43e                	sd	a5,40(sp)
   152ea:	f4f04863          	bgtz	a5,14a3a <__gdtoa+0x656>
   152ee:	4789                	li	a5,2
   152f0:	f527d563          	bge	a5,s2,14a3a <__gdtoa+0x656>
   152f4:	b631                	j	14e00 <__gdtoa+0xa1c>
   152f6:	7546                	ld	a0,112(sp)
   152f8:	10a05963          	blez	a0,1540a <__gdtoa+0x1026>
   152fc:	1d81b707          	fld	fa4,472(gp) # 1b8f8 <__SDATA_BEGIN__+0x48>
   15300:	12e7f7d3          	fmul.d	fa5,fa5,fa4
   15304:	1e01b707          	fld	fa4,480(gp) # 1b900 <__SDATA_BEGIN__+0x50>
   15308:	fcc00e37          	lui	t3,0xfcc00
   1530c:	55fd                	li	a1,-1
   1530e:	b03a                	fsd	fa4,32(sp)
   15310:	3682                	fld	fa3,32(sp)
   15312:	1d01b707          	fld	fa4,464(gp) # 1b8f0 <__SDATA_BEGIN__+0x40>
   15316:	72d7f743          	fmadd.d	fa4,fa5,fa3,fa4
   1531a:	e2070653          	fmv.x.d	a2,fa4
   1531e:	8fb2                	mv	t6,a2
   15320:	9201                	srli	a2,a2,0x20
   15322:	1f82                	slli	t6,t6,0x20
   15324:	01c6063b          	addw	a2,a2,t3
   15328:	020fdf93          	srli	t6,t6,0x20
   1532c:	1602                	slli	a2,a2,0x20
   1532e:	00cfefb3          	or	t6,t6,a2
   15332:	c2eff06f          	j	14760 <__gdtoa+0x37c>
   15336:	f2000753          	fmv.d.x	fa4,zero
   1533a:	00158a9b          	addiw	s5,a1,1
   1533e:	a2e7ab53          	feq.d	s6,fa5,fa4
   15342:	001b3b13          	seqz	s6,s6
   15346:	004b1b1b          	slliw	s6,s6,0x4
   1534a:	cd2ff06f          	j	1481c <__gdtoa+0x438>
   1534e:	2585                	addiw	a1,a1,1
   15350:	ca2ff06f          	j	147f2 <__gdtoa+0x40e>
   15354:	080c4763          	bltz	s8,153e2 <__gdtoa+0xffe>
   15358:	000e3707          	fld	fa4,0(t3) # fffffffffcc00000 <__BSS_END__+0xfffffffffcbe40e0>
   1535c:	f002                	sd	zero,32(sp)
   1535e:	d62ff06f          	j	148c0 <__gdtoa+0x4dc>
   15362:	fff70d1b          	addiw	s10,a4,-1
   15366:	86ea                	mv	a3,s10
   15368:	bfadc0e3          	blt	s11,s10,14f48 <__gdtoa+0xb64>
   1536c:	41ad8dbb          	subw	s11,s11,s10
   15370:	c73a                	sw	a4,140(sp)
   15372:	86ba                	mv	a3,a4
   15374:	e1aff06f          	j	1498e <__gdtoa+0x5aa>
   15378:	f2000753          	fmv.d.x	fa4,zero
   1537c:	87ea                	mv	a5,s10
   1537e:	2585                	addiw	a1,a1,1
   15380:	a2e7ab53          	feq.d	s6,fa5,fa4
   15384:	001b3b13          	seqz	s6,s6
   15388:	004b1b1b          	slliw	s6,s6,0x4
   1538c:	bbdd                	j	15182 <__gdtoa+0xd9e>
   1538e:	03900693          	li	a3,57
   15392:	895e                	mv	s2,s7
   15394:	8ea6                	mv	t4,s1
   15396:	7842                	ld	a6,48(sp)
   15398:	7ba2                	ld	s7,40(sp)
   1539a:	74e2                	ld	s1,56(sp)
   1539c:	835a                	mv	t1,s6
   1539e:	c0db04e3          	beq	s6,a3,14fa6 <__gdtoa+0xbc2>
   153a2:	09405b63          	blez	s4,15438 <__gdtoa+0x1054>
   153a6:	0319031b          	addiw	t1,s2,49
   153aa:	02000b13          	li	s6,32
   153ae:	8962                	mv	s2,s8
   153b0:	006a8023          	sb	t1,0(s5)
   153b4:	001a8d13          	addi	s10,s5,1
   153b8:	8c76                	mv	s8,t4
   153ba:	885ff06f          	j	14c3e <__gdtoa+0x85a>
   153be:	018ca683          	lw	a3,24(s9)
   153c2:	86069ae3          	bnez	a3,14c36 <__gdtoa+0x852>
   153c6:	7b02                	ld	s6,32(sp)
   153c8:	86fff06f          	j	14c36 <__gdtoa+0x852>
   153cc:	6322                	ld	t1,8(sp)
   153ce:	e509                	bnez	a0,153d8 <__gdtoa+0xff4>
   153d0:	001d7693          	andi	a3,s10,1
   153d4:	e0069ae3          	bnez	a3,151e8 <__gdtoa+0xe04>
   153d8:	02000793          	li	a5,32
   153dc:	f03e                	sd	a5,32(sp)
   153de:	849ff06f          	j	14c26 <__gdtoa+0x842>
   153e2:	f002                	sd	zero,32(sp)
   153e4:	d6eff06f          	j	14952 <__gdtoa+0x56e>
   153e8:	03900693          	li	a3,57
   153ec:	8ece                	mv	t4,s3
   153ee:	8852                	mv	a6,s4
   153f0:	06d90163          	beq	s2,a3,15452 <__gdtoa+0x106e>
   153f4:	0019031b          	addiw	t1,s2,1
   153f8:	02000b13          	li	s6,32
   153fc:	83bff06f          	j	14c36 <__gdtoa+0x852>
   15400:	4b41                	li	s6,16
   15402:	001a8d13          	addi	s10,s5,1
   15406:	831ff06f          	j	14c36 <__gdtoa+0x852>
   1540a:	d40c4063          	bltz	s8,1494a <__gdtoa+0x566>
   1540e:	67e9                	lui	a5,0x1a
   15410:	8887b707          	fld	fa4,-1912(a5) # 19888 <__mprec_tens>
   15414:	f002                	sd	zero,32(sp)
   15416:	00180f13          	addi	t5,a6,1
   1541a:	ca6ff06f          	j	148c0 <__gdtoa+0x4dc>
   1541e:	014ca603          	lw	a2,20(s9)
   15422:	4685                	li	a3,1
   15424:	f2c6c163          	blt	a3,a2,14b46 <__gdtoa+0x762>
   15428:	018ca683          	lw	a3,24(s9)
   1542c:	f0069d63          	bnez	a3,14b46 <__gdtoa+0x762>
   15430:	001a8d13          	addi	s10,s5,1
   15434:	803ff06f          	j	14c36 <__gdtoa+0x852>
   15438:	014ca603          	lw	a2,20(s9)
   1543c:	4685                	li	a3,1
   1543e:	4b41                	li	s6,16
   15440:	f6c6c7e3          	blt	a3,a2,153ae <__gdtoa+0xfca>
   15444:	018cab03          	lw	s6,24(s9)
   15448:	01603b33          	snez	s6,s6
   1544c:	004b1b1b          	slliw	s6,s6,0x4
   15450:	bfb9                	j	153ae <__gdtoa+0xfca>
   15452:	8962                	mv	s2,s8
   15454:	86d6                	mv	a3,s5
   15456:	8c2e                	mv	s8,a1
   15458:	bea1                	j	14fb0 <__gdtoa+0xbcc>
   1545a:	67c2                	ld	a5,16(sp)
   1545c:	02000b13          	li	s6,32
   15460:	00278a9b          	addiw	s5,a5,2
   15464:	bb8ff06f          	j	1481c <__gdtoa+0x438>
   15468:	000a4e63          	bltz	s4,15484 <__gdtoa+0x10a0>
   1546c:	012a67b3          	or	a5,s4,s2
   15470:	2781                	sext.w	a5,a5
   15472:	e789                	bnez	a5,1547c <__gdtoa+0x1098>
   15474:	67a2                	ld	a5,8(sp)
   15476:	439c                	lw	a5,0(a5)
   15478:	8b85                	andi	a5,a5,1
   1547a:	c789                	beqz	a5,15484 <__gdtoa+0x10a0>
   1547c:	e0d05363          	blez	a3,14a82 <__gdtoa+0x69e>
   15480:	dfaff06f          	j	14a7a <__gdtoa+0x696>
   15484:	7782                	ld	a5,32(sp)
   15486:	895e                	mv	s2,s7
   15488:	8ea6                	mv	t4,s1
   1548a:	7842                	ld	a6,48(sp)
   1548c:	7ba2                	ld	s7,40(sp)
   1548e:	74e2                	ld	s1,56(sp)
   15490:	835a                	mv	t1,s6
   15492:	c38d                	beqz	a5,154b4 <__gdtoa+0x10d0>
   15494:	014ca583          	lw	a1,20(s9)
   15498:	4605                	li	a2,1
   1549a:	eab64663          	blt	a2,a1,14b46 <__gdtoa+0x762>
   1549e:	018ca603          	lw	a2,24(s9)
   154a2:	ea061263          	bnez	a2,14b46 <__gdtoa+0x762>
   154a6:	d0d04fe3          	bgtz	a3,151c4 <__gdtoa+0xde0>
   154aa:	4b01                	li	s6,0
   154ac:	001a8d13          	addi	s10,s5,1
   154b0:	f86ff06f          	j	14c36 <__gdtoa+0x852>
   154b4:	f6d05963          	blez	a3,14c26 <__gdtoa+0x842>
   154b8:	b331                	j	151c4 <__gdtoa+0xde0>

00000000000154ba <__rv_alloc_D2A.part.0>:
   154ba:	66e5                	lui	a3,0x19
   154bc:	6565                	lui	a0,0x19
   154be:	1141                	addi	sp,sp,-16
   154c0:	57868693          	addi	a3,a3,1400 # 19578 <__clzdi2+0xd6>
   154c4:	59050513          	addi	a0,a0,1424 # 19590 <__clzdi2+0xee>
   154c8:	4601                	li	a2,0
   154ca:	03900593          	li	a1,57
   154ce:	e406                	sd	ra,8(sp)
   154d0:	7bc010ef          	jal	16c8c <__assert_func>

00000000000154d4 <__rv_alloc_D2A>:
   154d4:	1141                	addi	sp,sp,-16
   154d6:	e022                	sd	s0,0(sp)
   154d8:	e406                	sd	ra,8(sp)
   154da:	46fd                	li	a3,31
   154dc:	842a                	mv	s0,a0
   154de:	4705                	li	a4,1
   154e0:	4791                	li	a5,4
   154e2:	02b6f563          	bgeu	a3,a1,1550c <__rv_alloc_D2A+0x38>
   154e6:	0017979b          	slliw	a5,a5,0x1
   154ea:	01c78693          	addi	a3,a5,28
   154ee:	863a                	mv	a2,a4
   154f0:	2705                	addiw	a4,a4,1
   154f2:	fed5fae3          	bgeu	a1,a3,154e6 <__rv_alloc_D2A+0x12>
   154f6:	85b2                	mv	a1,a2
   154f8:	cc30                	sw	a2,88(s0)
   154fa:	8522                	mv	a0,s0
   154fc:	2f2000ef          	jal	157ee <_Balloc>
   15500:	c911                	beqz	a0,15514 <__rv_alloc_D2A+0x40>
   15502:	60a2                	ld	ra,8(sp)
   15504:	e828                	sd	a0,80(s0)
   15506:	6402                	ld	s0,0(sp)
   15508:	0141                	addi	sp,sp,16
   1550a:	8082                	ret
   1550c:	04052c23          	sw	zero,88(a0)
   15510:	4581                	li	a1,0
   15512:	b7e5                	j	154fa <__rv_alloc_D2A+0x26>
   15514:	fa7ff0ef          	jal	154ba <__rv_alloc_D2A.part.0>

0000000000015518 <__nrv_alloc_D2A>:
   15518:	1101                	addi	sp,sp,-32
   1551a:	e822                	sd	s0,16(sp)
   1551c:	e426                	sd	s1,8(sp)
   1551e:	e04a                	sd	s2,0(sp)
   15520:	ec06                	sd	ra,24(sp)
   15522:	487d                	li	a6,31
   15524:	84aa                	mv	s1,a0
   15526:	842e                	mv	s0,a1
   15528:	8932                	mv	s2,a2
   1552a:	4705                	li	a4,1
   1552c:	4791                	li	a5,4
   1552e:	04d87963          	bgeu	a6,a3,15580 <__nrv_alloc_D2A+0x68>
   15532:	0017979b          	slliw	a5,a5,0x1
   15536:	01c78813          	addi	a6,a5,28
   1553a:	85ba                	mv	a1,a4
   1553c:	2705                	addiw	a4,a4,1
   1553e:	ff06fae3          	bgeu	a3,a6,15532 <__nrv_alloc_D2A+0x1a>
   15542:	ccac                	sw	a1,88(s1)
   15544:	8526                	mv	a0,s1
   15546:	2a8000ef          	jal	157ee <_Balloc>
   1554a:	c129                	beqz	a0,1558c <__nrv_alloc_D2A+0x74>
   1554c:	e8a8                	sd	a0,80(s1)
   1554e:	00044783          	lbu	a5,0(s0) # 1fff000 <__BSS_END__+0x1fe30e0>
   15552:	00140593          	addi	a1,s0,1
   15556:	00f50023          	sb	a5,0(a0)
   1555a:	c79d                	beqz	a5,15588 <__nrv_alloc_D2A+0x70>
   1555c:	87aa                	mv	a5,a0
   1555e:	0005c703          	lbu	a4,0(a1)
   15562:	0585                	addi	a1,a1,1
   15564:	0785                	addi	a5,a5,1
   15566:	00e78023          	sb	a4,0(a5)
   1556a:	fb75                	bnez	a4,1555e <__nrv_alloc_D2A+0x46>
   1556c:	00090463          	beqz	s2,15574 <__nrv_alloc_D2A+0x5c>
   15570:	00f93023          	sd	a5,0(s2)
   15574:	60e2                	ld	ra,24(sp)
   15576:	6442                	ld	s0,16(sp)
   15578:	64a2                	ld	s1,8(sp)
   1557a:	6902                	ld	s2,0(sp)
   1557c:	6105                	addi	sp,sp,32
   1557e:	8082                	ret
   15580:	04052c23          	sw	zero,88(a0)
   15584:	4581                	li	a1,0
   15586:	bf7d                	j	15544 <__nrv_alloc_D2A+0x2c>
   15588:	87aa                	mv	a5,a0
   1558a:	b7cd                	j	1556c <__nrv_alloc_D2A+0x54>
   1558c:	f2fff0ef          	jal	154ba <__rv_alloc_D2A.part.0>

0000000000015590 <__freedtoa>:
   15590:	4d34                	lw	a3,88(a0)
   15592:	4705                	li	a4,1
   15594:	00d7173b          	sllw	a4,a4,a3
   15598:	c5d8                	sw	a4,12(a1)
   1559a:	c594                	sw	a3,8(a1)
   1559c:	ac6d                	j	15856 <_Bfree>

000000000001559e <__quorem_D2A>:
   1559e:	7139                	addi	sp,sp,-64
   155a0:	f426                	sd	s1,40(sp)
   155a2:	495c                	lw	a5,20(a0)
   155a4:	49c4                	lw	s1,20(a1)
   155a6:	fc06                	sd	ra,56(sp)
   155a8:	1497cf63          	blt	a5,s1,15706 <__quorem_D2A+0x168>
   155ac:	34fd                	addiw	s1,s1,-1
   155ae:	f822                	sd	s0,48(sp)
   155b0:	e456                	sd	s5,8(sp)
   155b2:	01858413          	addi	s0,a1,24
   155b6:	8aaa                	mv	s5,a0
   155b8:	00249513          	slli	a0,s1,0x2
   155bc:	f04a                	sd	s2,32(sp)
   155be:	e852                	sd	s4,16(sp)
   155c0:	00a40933          	add	s2,s0,a0
   155c4:	018a8a13          	addi	s4,s5,24
   155c8:	00092783          	lw	a5,0(s2)
   155cc:	9552                	add	a0,a0,s4
   155ce:	4118                	lw	a4,0(a0)
   155d0:	2785                	addiw	a5,a5,1
   155d2:	ec4e                	sd	s3,24(sp)
   155d4:	02f759bb          	divuw	s3,a4,a5
   155d8:	e05a                	sd	s6,0(sp)
   155da:	8b4e                	mv	s6,s3
   155dc:	08f76e63          	bltu	a4,a5,15678 <__quorem_D2A+0xda>
   155e0:	88a2                	mv	a7,s0
   155e2:	8852                	mv	a6,s4
   155e4:	4e01                	li	t3,0
   155e6:	4301                	li	t1,0
   155e8:	0008a703          	lw	a4,0(a7)
   155ec:	00082683          	lw	a3,0(a6)
   155f0:	0811                	addi	a6,a6,4
   155f2:	03071793          	slli	a5,a4,0x30
   155f6:	93c1                	srli	a5,a5,0x30
   155f8:	033787bb          	mulw	a5,a5,s3
   155fc:	0107571b          	srliw	a4,a4,0x10
   15600:	0891                	addi	a7,a7,4
   15602:	0337063b          	mulw	a2,a4,s3
   15606:	01c787bb          	addw	a5,a5,t3
   1560a:	03069713          	slli	a4,a3,0x30
   1560e:	03079e13          	slli	t3,a5,0x30
   15612:	030e5e13          	srli	t3,t3,0x30
   15616:	9341                	srli	a4,a4,0x30
   15618:	41c7073b          	subw	a4,a4,t3
   1561c:	0107d79b          	srliw	a5,a5,0x10
   15620:	4067073b          	subw	a4,a4,t1
   15624:	0106d69b          	srliw	a3,a3,0x10
   15628:	9fb1                	addw	a5,a5,a2
   1562a:	03079313          	slli	t1,a5,0x30
   1562e:	0107561b          	srliw	a2,a4,0x10
   15632:	03035313          	srli	t1,t1,0x30
   15636:	8a05                	andi	a2,a2,1
   15638:	0066063b          	addw	a2,a2,t1
   1563c:	9e91                	subw	a3,a3,a2
   1563e:	1742                	slli	a4,a4,0x30
   15640:	0106961b          	slliw	a2,a3,0x10
   15644:	9341                	srli	a4,a4,0x30
   15646:	8f51                	or	a4,a4,a2
   15648:	0106d69b          	srliw	a3,a3,0x10
   1564c:	fee82e23          	sw	a4,-4(a6)
   15650:	0107de1b          	srliw	t3,a5,0x10
   15654:	0016f313          	andi	t1,a3,1
   15658:	f91978e3          	bgeu	s2,a7,155e8 <__quorem_D2A+0x4a>
   1565c:	411c                	lw	a5,0(a0)
   1565e:	ef89                	bnez	a5,15678 <__quorem_D2A+0xda>
   15660:	1571                	addi	a0,a0,-4
   15662:	00aa6663          	bltu	s4,a0,1566e <__quorem_D2A+0xd0>
   15666:	a039                	j	15674 <__quorem_D2A+0xd6>
   15668:	34fd                	addiw	s1,s1,-1
   1566a:	00aa7563          	bgeu	s4,a0,15674 <__quorem_D2A+0xd6>
   1566e:	411c                	lw	a5,0(a0)
   15670:	1571                	addi	a0,a0,-4
   15672:	dbfd                	beqz	a5,15668 <__quorem_D2A+0xca>
   15674:	009aaa23          	sw	s1,20(s5)
   15678:	8556                	mv	a0,s5
   1567a:	107000ef          	jal	15f80 <__mcmp>
   1567e:	06054963          	bltz	a0,156f0 <__quorem_D2A+0x152>
   15682:	8652                	mv	a2,s4
   15684:	4581                	li	a1,0
   15686:	421c                	lw	a5,0(a2)
   15688:	4014                	lw	a3,0(s0)
   1568a:	0611                	addi	a2,a2,4
   1568c:	03079713          	slli	a4,a5,0x30
   15690:	03069513          	slli	a0,a3,0x30
   15694:	9141                	srli	a0,a0,0x30
   15696:	9341                	srli	a4,a4,0x30
   15698:	9f09                	subw	a4,a4,a0
   1569a:	9f0d                	subw	a4,a4,a1
   1569c:	0107559b          	srliw	a1,a4,0x10
   156a0:	8985                	andi	a1,a1,1
   156a2:	0106d69b          	srliw	a3,a3,0x10
   156a6:	9ead                	addw	a3,a3,a1
   156a8:	0107d79b          	srliw	a5,a5,0x10
   156ac:	9f95                	subw	a5,a5,a3
   156ae:	1742                	slli	a4,a4,0x30
   156b0:	0107969b          	slliw	a3,a5,0x10
   156b4:	9341                	srli	a4,a4,0x30
   156b6:	8f55                	or	a4,a4,a3
   156b8:	0411                	addi	s0,s0,4
   156ba:	0107d79b          	srliw	a5,a5,0x10
   156be:	fee62e23          	sw	a4,-4(a2)
   156c2:	0017f593          	andi	a1,a5,1
   156c6:	fc8970e3          	bgeu	s2,s0,15686 <__quorem_D2A+0xe8>
   156ca:	00249793          	slli	a5,s1,0x2
   156ce:	97d2                	add	a5,a5,s4
   156d0:	4398                	lw	a4,0(a5)
   156d2:	ef09                	bnez	a4,156ec <__quorem_D2A+0x14e>
   156d4:	17f1                	addi	a5,a5,-4
   156d6:	00fa6663          	bltu	s4,a5,156e2 <__quorem_D2A+0x144>
   156da:	a039                	j	156e8 <__quorem_D2A+0x14a>
   156dc:	34fd                	addiw	s1,s1,-1
   156de:	00fa7563          	bgeu	s4,a5,156e8 <__quorem_D2A+0x14a>
   156e2:	4398                	lw	a4,0(a5)
   156e4:	17f1                	addi	a5,a5,-4
   156e6:	db7d                	beqz	a4,156dc <__quorem_D2A+0x13e>
   156e8:	009aaa23          	sw	s1,20(s5)
   156ec:	00198b1b          	addiw	s6,s3,1
   156f0:	7442                	ld	s0,48(sp)
   156f2:	70e2                	ld	ra,56(sp)
   156f4:	7902                	ld	s2,32(sp)
   156f6:	69e2                	ld	s3,24(sp)
   156f8:	6a42                	ld	s4,16(sp)
   156fa:	6aa2                	ld	s5,8(sp)
   156fc:	74a2                	ld	s1,40(sp)
   156fe:	855a                	mv	a0,s6
   15700:	6b02                	ld	s6,0(sp)
   15702:	6121                	addi	sp,sp,64
   15704:	8082                	ret
   15706:	70e2                	ld	ra,56(sp)
   15708:	74a2                	ld	s1,40(sp)
   1570a:	4501                	li	a0,0
   1570c:	6121                	addi	sp,sp,64
   1570e:	8082                	ret

0000000000015710 <__rshift_D2A>:
   15710:	4954                	lw	a3,20(a0)
   15712:	4055d31b          	sraiw	t1,a1,0x5
   15716:	00d34763          	blt	t1,a3,15724 <__rshift_D2A+0x14>
   1571a:	00052a23          	sw	zero,20(a0)
   1571e:	00052c23          	sw	zero,24(a0)
   15722:	8082                	ret
   15724:	01850e13          	addi	t3,a0,24
   15728:	00269813          	slli	a6,a3,0x2
   1572c:	00231793          	slli	a5,t1,0x2
   15730:	89fd                	andi	a1,a1,31
   15732:	9872                	add	a6,a6,t3
   15734:	97f2                	add	a5,a5,t3
   15736:	c5a1                	beqz	a1,1577e <__rshift_D2A+0x6e>
   15738:	4390                	lw	a2,0(a5)
   1573a:	02000e93          	li	t4,32
   1573e:	0791                	addi	a5,a5,4
   15740:	00b6563b          	srlw	a2,a2,a1
   15744:	40be8ebb          	subw	t4,t4,a1
   15748:	0707f063          	bgeu	a5,a6,157a8 <__rshift_D2A+0x98>
   1574c:	88f2                	mv	a7,t3
   1574e:	4398                	lw	a4,0(a5)
   15750:	0891                	addi	a7,a7,4
   15752:	0791                	addi	a5,a5,4
   15754:	01d7173b          	sllw	a4,a4,t4
   15758:	8f51                	or	a4,a4,a2
   1575a:	fee8ae23          	sw	a4,-4(a7)
   1575e:	ffc7a603          	lw	a2,-4(a5)
   15762:	00b6563b          	srlw	a2,a2,a1
   15766:	ff07e4e3          	bltu	a5,a6,1574e <__rshift_D2A+0x3e>
   1576a:	406687b3          	sub	a5,a3,t1
   1576e:	078a                	slli	a5,a5,0x2
   15770:	97f2                	add	a5,a5,t3
   15772:	fec7ae23          	sw	a2,-4(a5)
   15776:	17f1                	addi	a5,a5,-4
   15778:	c20d                	beqz	a2,1579a <__rshift_D2A+0x8a>
   1577a:	0791                	addi	a5,a5,4
   1577c:	a839                	j	1579a <__rshift_D2A+0x8a>
   1577e:	8772                	mv	a4,t3
   15780:	f907fde3          	bgeu	a5,a6,1571a <__rshift_D2A+0xa>
   15784:	4390                	lw	a2,0(a5)
   15786:	0791                	addi	a5,a5,4
   15788:	0711                	addi	a4,a4,4
   1578a:	fec72e23          	sw	a2,-4(a4)
   1578e:	ff07ebe3          	bltu	a5,a6,15784 <__rshift_D2A+0x74>
   15792:	406687b3          	sub	a5,a3,t1
   15796:	078a                	slli	a5,a5,0x2
   15798:	97f2                	add	a5,a5,t3
   1579a:	41c787b3          	sub	a5,a5,t3
   1579e:	8789                	srai	a5,a5,0x2
   157a0:	2781                	sext.w	a5,a5
   157a2:	c95c                	sw	a5,20(a0)
   157a4:	dfad                	beqz	a5,1571e <__rshift_D2A+0xe>
   157a6:	8082                	ret
   157a8:	cd10                	sw	a2,24(a0)
   157aa:	87f2                	mv	a5,t3
   157ac:	d63d                	beqz	a2,1571a <__rshift_D2A+0xa>
   157ae:	0791                	addi	a5,a5,4
   157b0:	b7ed                	j	1579a <__rshift_D2A+0x8a>

00000000000157b2 <__trailz_D2A>:
   157b2:	4958                	lw	a4,20(a0)
   157b4:	1101                	addi	sp,sp,-32
   157b6:	0561                	addi	a0,a0,24
   157b8:	070a                	slli	a4,a4,0x2
   157ba:	e822                	sd	s0,16(sp)
   157bc:	ec06                	sd	ra,24(sp)
   157be:	972a                	add	a4,a4,a0
   157c0:	4401                	li	s0,0
   157c2:	00e56863          	bltu	a0,a4,157d2 <__trailz_D2A+0x20>
   157c6:	a839                	j	157e4 <__trailz_D2A+0x32>
   157c8:	0511                	addi	a0,a0,4
   157ca:	0204041b          	addiw	s0,s0,32
   157ce:	00e57b63          	bgeu	a0,a4,157e4 <__trailz_D2A+0x32>
   157d2:	411c                	lw	a5,0(a0)
   157d4:	dbf5                	beqz	a5,157c8 <__trailz_D2A+0x16>
   157d6:	00e57763          	bgeu	a0,a4,157e4 <__trailz_D2A+0x32>
   157da:	0068                	addi	a0,sp,12
   157dc:	c63e                	sw	a5,12(sp)
   157de:	2c8000ef          	jal	15aa6 <__lo0bits>
   157e2:	9c29                	addw	s0,s0,a0
   157e4:	60e2                	ld	ra,24(sp)
   157e6:	8522                	mv	a0,s0
   157e8:	6442                	ld	s0,16(sp)
   157ea:	6105                	addi	sp,sp,32
   157ec:	8082                	ret

00000000000157ee <_Balloc>:
   157ee:	753c                	ld	a5,104(a0)
   157f0:	1101                	addi	sp,sp,-32
   157f2:	e822                	sd	s0,16(sp)
   157f4:	e426                	sd	s1,8(sp)
   157f6:	ec06                	sd	ra,24(sp)
   157f8:	842a                	mv	s0,a0
   157fa:	84ae                	mv	s1,a1
   157fc:	cf99                	beqz	a5,1581a <_Balloc+0x2c>
   157fe:	00349713          	slli	a4,s1,0x3
   15802:	97ba                	add	a5,a5,a4
   15804:	6388                	ld	a0,0(a5)
   15806:	c505                	beqz	a0,1582e <_Balloc+0x40>
   15808:	6118                	ld	a4,0(a0)
   1580a:	e398                	sd	a4,0(a5)
   1580c:	00053823          	sd	zero,16(a0)
   15810:	60e2                	ld	ra,24(sp)
   15812:	6442                	ld	s0,16(sp)
   15814:	64a2                	ld	s1,8(sp)
   15816:	6105                	addi	sp,sp,32
   15818:	8082                	ret
   1581a:	04100613          	li	a2,65
   1581e:	45a1                	li	a1,8
   15820:	4ae010ef          	jal	16cce <_calloc_r>
   15824:	f428                	sd	a0,104(s0)
   15826:	87aa                	mv	a5,a0
   15828:	f979                	bnez	a0,157fe <_Balloc+0x10>
   1582a:	4501                	li	a0,0
   1582c:	b7d5                	j	15810 <_Balloc+0x22>
   1582e:	e04a                	sd	s2,0(sp)
   15830:	4905                	li	s2,1
   15832:	0099193b          	sllw	s2,s2,s1
   15836:	00790613          	addi	a2,s2,7
   1583a:	8522                	mv	a0,s0
   1583c:	060a                	slli	a2,a2,0x2
   1583e:	4585                	li	a1,1
   15840:	48e010ef          	jal	16cce <_calloc_r>
   15844:	c511                	beqz	a0,15850 <_Balloc+0x62>
   15846:	01252623          	sw	s2,12(a0)
   1584a:	c504                	sw	s1,8(a0)
   1584c:	6902                	ld	s2,0(sp)
   1584e:	bf7d                	j	1580c <_Balloc+0x1e>
   15850:	6902                	ld	s2,0(sp)
   15852:	4501                	li	a0,0
   15854:	bf75                	j	15810 <_Balloc+0x22>

0000000000015856 <_Bfree>:
   15856:	c981                	beqz	a1,15866 <_Bfree+0x10>
   15858:	4598                	lw	a4,8(a1)
   1585a:	753c                	ld	a5,104(a0)
   1585c:	070e                	slli	a4,a4,0x3
   1585e:	97ba                	add	a5,a5,a4
   15860:	6398                	ld	a4,0(a5)
   15862:	e198                	sd	a4,0(a1)
   15864:	e38c                	sd	a1,0(a5)
   15866:	8082                	ret

0000000000015868 <__multadd>:
   15868:	7179                	addi	sp,sp,-48
   1586a:	ec26                	sd	s1,24(sp)
   1586c:	49c4                	lw	s1,20(a1)
   1586e:	f022                	sd	s0,32(sp)
   15870:	e84a                	sd	s2,16(sp)
   15872:	e44e                	sd	s3,8(sp)
   15874:	f406                	sd	ra,40(sp)
   15876:	892e                	mv	s2,a1
   15878:	89aa                	mv	s3,a0
   1587a:	8436                	mv	s0,a3
   1587c:	01858813          	addi	a6,a1,24
   15880:	4881                	li	a7,0
   15882:	00082783          	lw	a5,0(a6)
   15886:	0811                	addi	a6,a6,4
   15888:	2885                	addiw	a7,a7,1
   1588a:	03079693          	slli	a3,a5,0x30
   1588e:	92c1                	srli	a3,a3,0x30
   15890:	02c686bb          	mulw	a3,a3,a2
   15894:	0107d79b          	srliw	a5,a5,0x10
   15898:	02c787bb          	mulw	a5,a5,a2
   1589c:	9ea1                	addw	a3,a3,s0
   1589e:	0106d71b          	srliw	a4,a3,0x10
   158a2:	16c2                	slli	a3,a3,0x30
   158a4:	92c1                	srli	a3,a3,0x30
   158a6:	9fb9                	addw	a5,a5,a4
   158a8:	0107971b          	slliw	a4,a5,0x10
   158ac:	9f35                	addw	a4,a4,a3
   158ae:	fee82e23          	sw	a4,-4(a6)
   158b2:	0107d41b          	srliw	s0,a5,0x10
   158b6:	fc98c6e3          	blt	a7,s1,15882 <__multadd+0x1a>
   158ba:	cc09                	beqz	s0,158d4 <__multadd+0x6c>
   158bc:	00c92783          	lw	a5,12(s2)
   158c0:	02f4d263          	bge	s1,a5,158e4 <__multadd+0x7c>
   158c4:	00249713          	slli	a4,s1,0x2
   158c8:	974a                	add	a4,a4,s2
   158ca:	cf00                	sw	s0,24(a4)
   158cc:	0014879b          	addiw	a5,s1,1
   158d0:	00f92a23          	sw	a5,20(s2)
   158d4:	70a2                	ld	ra,40(sp)
   158d6:	7402                	ld	s0,32(sp)
   158d8:	64e2                	ld	s1,24(sp)
   158da:	69a2                	ld	s3,8(sp)
   158dc:	854a                	mv	a0,s2
   158de:	6942                	ld	s2,16(sp)
   158e0:	6145                	addi	sp,sp,48
   158e2:	8082                	ret
   158e4:	00892583          	lw	a1,8(s2)
   158e8:	854e                	mv	a0,s3
   158ea:	e052                	sd	s4,0(sp)
   158ec:	2585                	addiw	a1,a1,1
   158ee:	f01ff0ef          	jal	157ee <_Balloc>
   158f2:	8a2a                	mv	s4,a0
   158f4:	c121                	beqz	a0,15934 <__multadd+0xcc>
   158f6:	01492603          	lw	a2,20(s2)
   158fa:	01090593          	addi	a1,s2,16
   158fe:	0541                	addi	a0,a0,16
   15900:	0609                	addi	a2,a2,2
   15902:	060a                	slli	a2,a2,0x2
   15904:	e4cfe0ef          	jal	13f50 <memcpy>
   15908:	00892703          	lw	a4,8(s2)
   1590c:	0689b783          	ld	a5,104(s3)
   15910:	070e                	slli	a4,a4,0x3
   15912:	97ba                	add	a5,a5,a4
   15914:	6398                	ld	a4,0(a5)
   15916:	00e93023          	sd	a4,0(s2)
   1591a:	0127b023          	sd	s2,0(a5)
   1591e:	00249713          	slli	a4,s1,0x2
   15922:	8952                	mv	s2,s4
   15924:	974a                	add	a4,a4,s2
   15926:	6a02                	ld	s4,0(sp)
   15928:	0014879b          	addiw	a5,s1,1
   1592c:	cf00                	sw	s0,24(a4)
   1592e:	00f92a23          	sw	a5,20(s2)
   15932:	b74d                	j	158d4 <__multadd+0x6c>
   15934:	66e5                	lui	a3,0x19
   15936:	6565                	lui	a0,0x19
   15938:	57868693          	addi	a3,a3,1400 # 19578 <__clzdi2+0xd6>
   1593c:	5e050513          	addi	a0,a0,1504 # 195e0 <__clzdi2+0x13e>
   15940:	4601                	li	a2,0
   15942:	0ba00593          	li	a1,186
   15946:	346010ef          	jal	16c8c <__assert_func>

000000000001594a <__s2b>:
   1594a:	7139                	addi	sp,sp,-64
   1594c:	ec4e                	sd	s3,24(sp)
   1594e:	89b6                	mv	s3,a3
   15950:	38e396b7          	lui	a3,0x38e39
   15954:	0089879b          	addiw	a5,s3,8
   15958:	e3968693          	addi	a3,a3,-455 # 38e38e39 <__BSS_END__+0x38e1cf19>
   1595c:	02d786b3          	mul	a3,a5,a3
   15960:	f822                	sd	s0,48(sp)
   15962:	f426                	sd	s1,40(sp)
   15964:	f04a                	sd	s2,32(sp)
   15966:	e852                	sd	s4,16(sp)
   15968:	842e                	mv	s0,a1
   1596a:	41f7d79b          	sraiw	a5,a5,0x1f
   1596e:	fc06                	sd	ra,56(sp)
   15970:	45a5                	li	a1,9
   15972:	892a                	mv	s2,a0
   15974:	9685                	srai	a3,a3,0x21
   15976:	8a32                	mv	s4,a2
   15978:	84ba                	mv	s1,a4
   1597a:	9e9d                	subw	a3,a3,a5
   1597c:	0b35d263          	bge	a1,s3,15a20 <__s2b+0xd6>
   15980:	4785                	li	a5,1
   15982:	4581                	li	a1,0
   15984:	0017979b          	slliw	a5,a5,0x1
   15988:	2585                	addiw	a1,a1,1
   1598a:	fed7cde3          	blt	a5,a3,15984 <__s2b+0x3a>
   1598e:	854a                	mv	a0,s2
   15990:	e5fff0ef          	jal	157ee <_Balloc>
   15994:	85aa                	mv	a1,a0
   15996:	c559                	beqz	a0,15a24 <__s2b+0xda>
   15998:	4785                	li	a5,1
   1599a:	c95c                	sw	a5,20(a0)
   1599c:	cd04                	sw	s1,24(a0)
   1599e:	47a5                	li	a5,9
   159a0:	0747dd63          	bge	a5,s4,15a1a <__s2b+0xd0>
   159a4:	e456                	sd	s5,8(sp)
   159a6:	020a1793          	slli	a5,s4,0x20
   159aa:	ff6a0a9b          	addiw	s5,s4,-10
   159ae:	e05a                	sd	s6,0(sp)
   159b0:	9381                	srli	a5,a5,0x20
   159b2:	00940b13          	addi	s6,s0,9
   159b6:	1a82                	slli	s5,s5,0x20
   159b8:	020ada93          	srli	s5,s5,0x20
   159bc:	943e                	add	s0,s0,a5
   159be:	84da                	mv	s1,s6
   159c0:	0004c683          	lbu	a3,0(s1)
   159c4:	4629                	li	a2,10
   159c6:	854a                	mv	a0,s2
   159c8:	fd06869b          	addiw	a3,a3,-48
   159cc:	0485                	addi	s1,s1,1
   159ce:	e9bff0ef          	jal	15868 <__multadd>
   159d2:	85aa                	mv	a1,a0
   159d4:	fe8496e3          	bne	s1,s0,159c0 <__s2b+0x76>
   159d8:	9b56                	add	s6,s6,s5
   159da:	002b0413          	addi	s0,s6,2
   159de:	6aa2                	ld	s5,8(sp)
   159e0:	6b02                	ld	s6,0(sp)
   159e2:	033a5363          	bge	s4,s3,15a08 <__s2b+0xbe>
   159e6:	414984bb          	subw	s1,s3,s4
   159ea:	1482                	slli	s1,s1,0x20
   159ec:	9081                	srli	s1,s1,0x20
   159ee:	94a2                	add	s1,s1,s0
   159f0:	00044683          	lbu	a3,0(s0)
   159f4:	4629                	li	a2,10
   159f6:	854a                	mv	a0,s2
   159f8:	fd06869b          	addiw	a3,a3,-48
   159fc:	0405                	addi	s0,s0,1
   159fe:	e6bff0ef          	jal	15868 <__multadd>
   15a02:	85aa                	mv	a1,a0
   15a04:	fe9416e3          	bne	s0,s1,159f0 <__s2b+0xa6>
   15a08:	70e2                	ld	ra,56(sp)
   15a0a:	7442                	ld	s0,48(sp)
   15a0c:	74a2                	ld	s1,40(sp)
   15a0e:	7902                	ld	s2,32(sp)
   15a10:	69e2                	ld	s3,24(sp)
   15a12:	6a42                	ld	s4,16(sp)
   15a14:	852e                	mv	a0,a1
   15a16:	6121                	addi	sp,sp,64
   15a18:	8082                	ret
   15a1a:	0429                	addi	s0,s0,10
   15a1c:	8a3e                	mv	s4,a5
   15a1e:	b7d1                	j	159e2 <__s2b+0x98>
   15a20:	4581                	li	a1,0
   15a22:	b7b5                	j	1598e <__s2b+0x44>
   15a24:	66e5                	lui	a3,0x19
   15a26:	6565                	lui	a0,0x19
   15a28:	57868693          	addi	a3,a3,1400 # 19578 <__clzdi2+0xd6>
   15a2c:	5e050513          	addi	a0,a0,1504 # 195e0 <__clzdi2+0x13e>
   15a30:	4601                	li	a2,0
   15a32:	0d300593          	li	a1,211
   15a36:	e456                	sd	s5,8(sp)
   15a38:	e05a                	sd	s6,0(sp)
   15a3a:	252010ef          	jal	16c8c <__assert_func>

0000000000015a3e <__hi0bits>:
   15a3e:	87aa                	mv	a5,a0
   15a40:	6741                	lui	a4,0x10
   15a42:	4501                	li	a0,0
   15a44:	00e7f563          	bgeu	a5,a4,15a4e <__hi0bits+0x10>
   15a48:	0107979b          	slliw	a5,a5,0x10
   15a4c:	4541                	li	a0,16
   15a4e:	01000737          	lui	a4,0x1000
   15a52:	00e7f563          	bgeu	a5,a4,15a5c <__hi0bits+0x1e>
   15a56:	2521                	addiw	a0,a0,8
   15a58:	0087979b          	slliw	a5,a5,0x8
   15a5c:	10000737          	lui	a4,0x10000
   15a60:	00e7ec63          	bltu	a5,a4,15a78 <__hi0bits+0x3a>
   15a64:	40000737          	lui	a4,0x40000
   15a68:	02e7f863          	bgeu	a5,a4,15a98 <__hi0bits+0x5a>
   15a6c:	02279713          	slli	a4,a5,0x22
   15a70:	02074963          	bltz	a4,15aa2 <__hi0bits+0x64>
   15a74:	250d                	addiw	a0,a0,3
   15a76:	8082                	ret
   15a78:	0047971b          	slliw	a4,a5,0x4
   15a7c:	400006b7          	lui	a3,0x40000
   15a80:	2511                	addiw	a0,a0,4
   15a82:	00d77c63          	bgeu	a4,a3,15a9a <__hi0bits+0x5c>
   15a86:	0067979b          	slliw	a5,a5,0x6
   15a8a:	0007cc63          	bltz	a5,15aa2 <__hi0bits+0x64>
   15a8e:	8ff5                	and	a5,a5,a3
   15a90:	f3f5                	bnez	a5,15a74 <__hi0bits+0x36>
   15a92:	02000513          	li	a0,32
   15a96:	8082                	ret
   15a98:	873e                	mv	a4,a5
   15a9a:	fe074ee3          	bltz	a4,15a96 <__hi0bits+0x58>
   15a9e:	2505                	addiw	a0,a0,1
   15aa0:	8082                	ret
   15aa2:	2509                	addiw	a0,a0,2
   15aa4:	8082                	ret

0000000000015aa6 <__lo0bits>:
   15aa6:	411c                	lw	a5,0(a0)
   15aa8:	872a                	mv	a4,a0
   15aaa:	0077f693          	andi	a3,a5,7
   15aae:	863e                	mv	a2,a5
   15ab0:	c29d                	beqz	a3,15ad6 <__lo0bits+0x30>
   15ab2:	0017f693          	andi	a3,a5,1
   15ab6:	4501                	li	a0,0
   15ab8:	ee91                	bnez	a3,15ad4 <__lo0bits+0x2e>
   15aba:	0027f693          	andi	a3,a5,2
   15abe:	c2d1                	beqz	a3,15b42 <__lo0bits+0x9c>
   15ac0:	0017d79b          	srliw	a5,a5,0x1
   15ac4:	c31c                	sw	a5,0(a4)
   15ac6:	4505                	li	a0,1
   15ac8:	8082                	ret
   15aca:	0037d79b          	srliw	a5,a5,0x3
   15ace:	e3d9                	bnez	a5,15b54 <__lo0bits+0xae>
   15ad0:	02000513          	li	a0,32
   15ad4:	8082                	ret
   15ad6:	03079693          	slli	a3,a5,0x30
   15ada:	92c1                	srli	a3,a3,0x30
   15adc:	ea85                	bnez	a3,15b0c <__lo0bits+0x66>
   15ade:	0107d79b          	srliw	a5,a5,0x10
   15ae2:	0ff7f693          	zext.b	a3,a5
   15ae6:	4541                	li	a0,16
   15ae8:	e681                	bnez	a3,15af0 <__lo0bits+0x4a>
   15aea:	4561                	li	a0,24
   15aec:	0087d79b          	srliw	a5,a5,0x8
   15af0:	00f7f693          	andi	a3,a5,15
   15af4:	ce9d                	beqz	a3,15b32 <__lo0bits+0x8c>
   15af6:	0037f693          	andi	a3,a5,3
   15afa:	c685                	beqz	a3,15b22 <__lo0bits+0x7c>
   15afc:	0017f693          	andi	a3,a5,1
   15b00:	e681                	bnez	a3,15b08 <__lo0bits+0x62>
   15b02:	2505                	addiw	a0,a0,1
   15b04:	0017d79b          	srliw	a5,a5,0x1
   15b08:	c31c                	sw	a5,0(a4)
   15b0a:	8082                	ret
   15b0c:	0ff7f693          	zext.b	a3,a5
   15b10:	c68d                	beqz	a3,15b3a <__lo0bits+0x94>
   15b12:	8a3d                	andi	a2,a2,15
   15b14:	ee05                	bnez	a2,15b4c <__lo0bits+0xa6>
   15b16:	4511                	li	a0,4
   15b18:	0047d79b          	srliw	a5,a5,0x4
   15b1c:	0037f693          	andi	a3,a5,3
   15b20:	fef1                	bnez	a3,15afc <__lo0bits+0x56>
   15b22:	0027d69b          	srliw	a3,a5,0x2
   15b26:	0016f613          	andi	a2,a3,1
   15b2a:	d245                	beqz	a2,15aca <__lo0bits+0x24>
   15b2c:	2509                	addiw	a0,a0,2
   15b2e:	87b6                	mv	a5,a3
   15b30:	bfe1                	j	15b08 <__lo0bits+0x62>
   15b32:	2511                	addiw	a0,a0,4
   15b34:	0047d79b          	srliw	a5,a5,0x4
   15b38:	b7d5                	j	15b1c <__lo0bits+0x76>
   15b3a:	4521                	li	a0,8
   15b3c:	0087d79b          	srliw	a5,a5,0x8
   15b40:	bf45                	j	15af0 <__lo0bits+0x4a>
   15b42:	0027d79b          	srliw	a5,a5,0x2
   15b46:	c31c                	sw	a5,0(a4)
   15b48:	4509                	li	a0,2
   15b4a:	8082                	ret
   15b4c:	0037d79b          	srliw	a5,a5,0x3
   15b50:	450d                	li	a0,3
   15b52:	bf5d                	j	15b08 <__lo0bits+0x62>
   15b54:	250d                	addiw	a0,a0,3
   15b56:	bf4d                	j	15b08 <__lo0bits+0x62>

0000000000015b58 <__i2b>:
   15b58:	753c                	ld	a5,104(a0)
   15b5a:	1101                	addi	sp,sp,-32
   15b5c:	e822                	sd	s0,16(sp)
   15b5e:	e426                	sd	s1,8(sp)
   15b60:	ec06                	sd	ra,24(sp)
   15b62:	842a                	mv	s0,a0
   15b64:	84ae                	mv	s1,a1
   15b66:	cf91                	beqz	a5,15b82 <__i2b+0x2a>
   15b68:	6788                	ld	a0,8(a5)
   15b6a:	cd1d                	beqz	a0,15ba8 <__i2b+0x50>
   15b6c:	6118                	ld	a4,0(a0)
   15b6e:	e798                	sd	a4,8(a5)
   15b70:	60e2                	ld	ra,24(sp)
   15b72:	6442                	ld	s0,16(sp)
   15b74:	4785                	li	a5,1
   15b76:	1782                	slli	a5,a5,0x20
   15b78:	cd04                	sw	s1,24(a0)
   15b7a:	e91c                	sd	a5,16(a0)
   15b7c:	64a2                	ld	s1,8(sp)
   15b7e:	6105                	addi	sp,sp,32
   15b80:	8082                	ret
   15b82:	04100613          	li	a2,65
   15b86:	45a1                	li	a1,8
   15b88:	146010ef          	jal	16cce <_calloc_r>
   15b8c:	f428                	sd	a0,104(s0)
   15b8e:	87aa                	mv	a5,a0
   15b90:	fd61                	bnez	a0,15b68 <__i2b+0x10>
   15b92:	66e5                	lui	a3,0x19
   15b94:	6565                	lui	a0,0x19
   15b96:	57868693          	addi	a3,a3,1400 # 19578 <__clzdi2+0xd6>
   15b9a:	5e050513          	addi	a0,a0,1504 # 195e0 <__clzdi2+0x13e>
   15b9e:	4601                	li	a2,0
   15ba0:	14500593          	li	a1,325
   15ba4:	0e8010ef          	jal	16c8c <__assert_func>
   15ba8:	8522                	mv	a0,s0
   15baa:	02400613          	li	a2,36
   15bae:	4585                	li	a1,1
   15bb0:	11e010ef          	jal	16cce <_calloc_r>
   15bb4:	dd79                	beqz	a0,15b92 <__i2b+0x3a>
   15bb6:	4785                	li	a5,1
   15bb8:	1786                	slli	a5,a5,0x21
   15bba:	0785                	addi	a5,a5,1
   15bbc:	e51c                	sd	a5,8(a0)
   15bbe:	bf4d                	j	15b70 <__i2b+0x18>

0000000000015bc0 <__multiply>:
   15bc0:	7139                	addi	sp,sp,-64
   15bc2:	ec4e                	sd	s3,24(sp)
   15bc4:	e852                	sd	s4,16(sp)
   15bc6:	0145a983          	lw	s3,20(a1)
   15bca:	01462a03          	lw	s4,20(a2)
   15bce:	f04a                	sd	s2,32(sp)
   15bd0:	e456                	sd	s5,8(sp)
   15bd2:	fc06                	sd	ra,56(sp)
   15bd4:	f822                	sd	s0,48(sp)
   15bd6:	f426                	sd	s1,40(sp)
   15bd8:	8aae                	mv	s5,a1
   15bda:	8932                	mv	s2,a2
   15bdc:	0149c763          	blt	s3,s4,15bea <__multiply+0x2a>
   15be0:	8752                	mv	a4,s4
   15be2:	892e                	mv	s2,a1
   15be4:	8a4e                	mv	s4,s3
   15be6:	8ab2                	mv	s5,a2
   15be8:	89ba                	mv	s3,a4
   15bea:	00c92783          	lw	a5,12(s2)
   15bee:	013a04bb          	addw	s1,s4,s3
   15bf2:	00892583          	lw	a1,8(s2)
   15bf6:	8426                	mv	s0,s1
   15bf8:	0097d363          	bge	a5,s1,15bfe <__multiply+0x3e>
   15bfc:	2585                	addiw	a1,a1,1
   15bfe:	bf1ff0ef          	jal	157ee <_Balloc>
   15c02:	16050563          	beqz	a0,15d6c <__multiply+0x1ac>
   15c06:	01850313          	addi	t1,a0,24
   15c0a:	00249893          	slli	a7,s1,0x2
   15c0e:	989a                	add	a7,a7,t1
   15c10:	879a                	mv	a5,t1
   15c12:	01137763          	bgeu	t1,a7,15c20 <__multiply+0x60>
   15c16:	0007a023          	sw	zero,0(a5)
   15c1a:	0791                	addi	a5,a5,4
   15c1c:	ff17ede3          	bltu	a5,a7,15c16 <__multiply+0x56>
   15c20:	018a8813          	addi	a6,s5,24
   15c24:	00299e13          	slli	t3,s3,0x2
   15c28:	002a1593          	slli	a1,s4,0x2
   15c2c:	01890e93          	addi	t4,s2,24
   15c30:	9e42                	add	t3,t3,a6
   15c32:	95f6                	add	a1,a1,t4
   15c34:	11c87963          	bgeu	a6,t3,15d46 <__multiply+0x186>
   15c38:	01990793          	addi	a5,s2,25
   15c3c:	4f01                	li	t5,0
   15c3e:	02f5e763          	bltu	a1,a5,15c6c <__multiply+0xac>
   15c42:	00082f83          	lw	t6,0(a6)
   15c46:	41258933          	sub	s2,a1,s2
   15c4a:	191d                	addi	s2,s2,-25
   15c4c:	030f9393          	slli	t2,t6,0x30
   15c50:	0303d393          	srli	t2,t2,0x30
   15c54:	ffc97f13          	andi	t5,s2,-4
   15c58:	02039263          	bnez	t2,15c7c <__multiply+0xbc>
   15c5c:	010fdf9b          	srliw	t6,t6,0x10
   15c60:	080f9163          	bnez	t6,15ce2 <__multiply+0x122>
   15c64:	0811                	addi	a6,a6,4
   15c66:	0311                	addi	t1,t1,4
   15c68:	0dc87f63          	bgeu	a6,t3,15d46 <__multiply+0x186>
   15c6c:	00082f83          	lw	t6,0(a6)
   15c70:	030f9393          	slli	t2,t6,0x30
   15c74:	0303d393          	srli	t2,t2,0x30
   15c78:	fe0382e3          	beqz	t2,15c5c <__multiply+0x9c>
   15c7c:	829a                	mv	t0,t1
   15c7e:	8ff6                	mv	t6,t4
   15c80:	4701                	li	a4,0
   15c82:	000fa603          	lw	a2,0(t6)
   15c86:	0002a683          	lw	a3,0(t0) # 10996 <memset+0x90>
   15c8a:	0291                	addi	t0,t0,4
   15c8c:	03061793          	slli	a5,a2,0x30
   15c90:	93c1                	srli	a5,a5,0x30
   15c92:	027787bb          	mulw	a5,a5,t2
   15c96:	0106561b          	srliw	a2,a2,0x10
   15c9a:	03069913          	slli	s2,a3,0x30
   15c9e:	03095913          	srli	s2,s2,0x30
   15ca2:	0106d69b          	srliw	a3,a3,0x10
   15ca6:	0f91                	addi	t6,t6,4
   15ca8:	0276063b          	mulw	a2,a2,t2
   15cac:	012787bb          	addw	a5,a5,s2
   15cb0:	9fb9                	addw	a5,a5,a4
   15cb2:	0107d71b          	srliw	a4,a5,0x10
   15cb6:	17c2                	slli	a5,a5,0x30
   15cb8:	93c1                	srli	a5,a5,0x30
   15cba:	9eb1                	addw	a3,a3,a2
   15cbc:	9f35                	addw	a4,a4,a3
   15cbe:	0107169b          	slliw	a3,a4,0x10
   15cc2:	8fd5                	or	a5,a5,a3
   15cc4:	fef2ae23          	sw	a5,-4(t0)
   15cc8:	0107571b          	srliw	a4,a4,0x10
   15ccc:	fabfebe3          	bltu	t6,a1,15c82 <__multiply+0xc2>
   15cd0:	01e307b3          	add	a5,t1,t5
   15cd4:	c3d8                	sw	a4,4(a5)
   15cd6:	00082f83          	lw	t6,0(a6)
   15cda:	010fdf9b          	srliw	t6,t6,0x10
   15cde:	f80f83e3          	beqz	t6,15c64 <__multiply+0xa4>
   15ce2:	00032783          	lw	a5,0(t1)
   15ce6:	829a                	mv	t0,t1
   15ce8:	8676                	mv	a2,t4
   15cea:	83be                	mv	t2,a5
   15cec:	4901                	li	s2,0
   15cee:	00065683          	lhu	a3,0(a2)
   15cf2:	0103d71b          	srliw	a4,t2,0x10
   15cf6:	17c2                	slli	a5,a5,0x30
   15cf8:	03f686bb          	mulw	a3,a3,t6
   15cfc:	93c1                	srli	a5,a5,0x30
   15cfe:	0611                	addi	a2,a2,4
   15d00:	0042a383          	lw	t2,4(t0)
   15d04:	0291                	addi	t0,t0,4
   15d06:	03039993          	slli	s3,t2,0x30
   15d0a:	0309d993          	srli	s3,s3,0x30
   15d0e:	012686bb          	addw	a3,a3,s2
   15d12:	9f35                	addw	a4,a4,a3
   15d14:	0107169b          	slliw	a3,a4,0x10
   15d18:	8fd5                	or	a5,a5,a3
   15d1a:	fef2ae23          	sw	a5,-4(t0)
   15d1e:	ffe65783          	lhu	a5,-2(a2)
   15d22:	0107571b          	srliw	a4,a4,0x10
   15d26:	03f787bb          	mulw	a5,a5,t6
   15d2a:	013787bb          	addw	a5,a5,s3
   15d2e:	9fb9                	addw	a5,a5,a4
   15d30:	0107d91b          	srliw	s2,a5,0x10
   15d34:	fab66de3          	bltu	a2,a1,15cee <__multiply+0x12e>
   15d38:	01e30733          	add	a4,t1,t5
   15d3c:	c35c                	sw	a5,4(a4)
   15d3e:	0811                	addi	a6,a6,4
   15d40:	0311                	addi	t1,t1,4
   15d42:	f3c865e3          	bltu	a6,t3,15c6c <__multiply+0xac>
   15d46:	00904563          	bgtz	s1,15d50 <__multiply+0x190>
   15d4a:	a039                	j	15d58 <__multiply+0x198>
   15d4c:	347d                	addiw	s0,s0,-1
   15d4e:	c409                	beqz	s0,15d58 <__multiply+0x198>
   15d50:	ffc8a783          	lw	a5,-4(a7)
   15d54:	18f1                	addi	a7,a7,-4
   15d56:	dbfd                	beqz	a5,15d4c <__multiply+0x18c>
   15d58:	70e2                	ld	ra,56(sp)
   15d5a:	c940                	sw	s0,20(a0)
   15d5c:	7442                	ld	s0,48(sp)
   15d5e:	74a2                	ld	s1,40(sp)
   15d60:	7902                	ld	s2,32(sp)
   15d62:	69e2                	ld	s3,24(sp)
   15d64:	6a42                	ld	s4,16(sp)
   15d66:	6aa2                	ld	s5,8(sp)
   15d68:	6121                	addi	sp,sp,64
   15d6a:	8082                	ret
   15d6c:	66e5                	lui	a3,0x19
   15d6e:	6565                	lui	a0,0x19
   15d70:	57868693          	addi	a3,a3,1400 # 19578 <__clzdi2+0xd6>
   15d74:	5e050513          	addi	a0,a0,1504 # 195e0 <__clzdi2+0x13e>
   15d78:	4601                	li	a2,0
   15d7a:	16200593          	li	a1,354
   15d7e:	70f000ef          	jal	16c8c <__assert_func>

0000000000015d82 <__pow5mult>:
   15d82:	7179                	addi	sp,sp,-48
   15d84:	f022                	sd	s0,32(sp)
   15d86:	e84a                	sd	s2,16(sp)
   15d88:	e44e                	sd	s3,8(sp)
   15d8a:	f406                	sd	ra,40(sp)
   15d8c:	00367793          	andi	a5,a2,3
   15d90:	8432                	mv	s0,a2
   15d92:	89aa                	mv	s3,a0
   15d94:	892e                	mv	s2,a1
   15d96:	e3d9                	bnez	a5,15e1c <__pow5mult+0x9a>
   15d98:	4024541b          	sraiw	s0,s0,0x2
   15d9c:	c82d                	beqz	s0,15e0e <__pow5mult+0x8c>
   15d9e:	ec26                	sd	s1,24(sp)
   15da0:	0609b483          	ld	s1,96(s3)
   15da4:	c8c1                	beqz	s1,15e34 <__pow5mult+0xb2>
   15da6:	00147793          	andi	a5,s0,1
   15daa:	4014541b          	sraiw	s0,s0,0x1
   15dae:	eb89                	bnez	a5,15dc0 <__pow5mult+0x3e>
   15db0:	6088                	ld	a0,0(s1)
   15db2:	cd0d                	beqz	a0,15dec <__pow5mult+0x6a>
   15db4:	84aa                	mv	s1,a0
   15db6:	00147793          	andi	a5,s0,1
   15dba:	4014541b          	sraiw	s0,s0,0x1
   15dbe:	dbed                	beqz	a5,15db0 <__pow5mult+0x2e>
   15dc0:	8626                	mv	a2,s1
   15dc2:	85ca                	mv	a1,s2
   15dc4:	854e                	mv	a0,s3
   15dc6:	dfbff0ef          	jal	15bc0 <__multiply>
   15dca:	00090d63          	beqz	s2,15de4 <__pow5mult+0x62>
   15dce:	00892703          	lw	a4,8(s2)
   15dd2:	0689b783          	ld	a5,104(s3)
   15dd6:	070e                	slli	a4,a4,0x3
   15dd8:	97ba                	add	a5,a5,a4
   15dda:	6398                	ld	a4,0(a5)
   15ddc:	00e93023          	sd	a4,0(s2)
   15de0:	0127b023          	sd	s2,0(a5)
   15de4:	cc11                	beqz	s0,15e00 <__pow5mult+0x7e>
   15de6:	892a                	mv	s2,a0
   15de8:	6088                	ld	a0,0(s1)
   15dea:	f569                	bnez	a0,15db4 <__pow5mult+0x32>
   15dec:	8626                	mv	a2,s1
   15dee:	85a6                	mv	a1,s1
   15df0:	854e                	mv	a0,s3
   15df2:	dcfff0ef          	jal	15bc0 <__multiply>
   15df6:	e088                	sd	a0,0(s1)
   15df8:	00053023          	sd	zero,0(a0)
   15dfc:	84aa                	mv	s1,a0
   15dfe:	bf65                	j	15db6 <__pow5mult+0x34>
   15e00:	70a2                	ld	ra,40(sp)
   15e02:	7402                	ld	s0,32(sp)
   15e04:	64e2                	ld	s1,24(sp)
   15e06:	6942                	ld	s2,16(sp)
   15e08:	69a2                	ld	s3,8(sp)
   15e0a:	6145                	addi	sp,sp,48
   15e0c:	8082                	ret
   15e0e:	70a2                	ld	ra,40(sp)
   15e10:	7402                	ld	s0,32(sp)
   15e12:	69a2                	ld	s3,8(sp)
   15e14:	854a                	mv	a0,s2
   15e16:	6942                	ld	s2,16(sp)
   15e18:	6145                	addi	sp,sp,48
   15e1a:	8082                	ret
   15e1c:	37fd                	addiw	a5,a5,-1
   15e1e:	6769                	lui	a4,0x1a
   15e20:	82870713          	addi	a4,a4,-2008 # 19828 <p05.0>
   15e24:	078a                	slli	a5,a5,0x2
   15e26:	97ba                	add	a5,a5,a4
   15e28:	4390                	lw	a2,0(a5)
   15e2a:	4681                	li	a3,0
   15e2c:	a3dff0ef          	jal	15868 <__multadd>
   15e30:	892a                	mv	s2,a0
   15e32:	b79d                	j	15d98 <__pow5mult+0x16>
   15e34:	4585                	li	a1,1
   15e36:	854e                	mv	a0,s3
   15e38:	9b7ff0ef          	jal	157ee <_Balloc>
   15e3c:	84aa                	mv	s1,a0
   15e3e:	c919                	beqz	a0,15e54 <__pow5mult+0xd2>
   15e40:	27100713          	li	a4,625
   15e44:	4785                	li	a5,1
   15e46:	cd18                	sw	a4,24(a0)
   15e48:	c95c                	sw	a5,20(a0)
   15e4a:	06a9b023          	sd	a0,96(s3)
   15e4e:	00053023          	sd	zero,0(a0)
   15e52:	bf91                	j	15da6 <__pow5mult+0x24>
   15e54:	66e5                	lui	a3,0x19
   15e56:	6565                	lui	a0,0x19
   15e58:	57868693          	addi	a3,a3,1400 # 19578 <__clzdi2+0xd6>
   15e5c:	5e050513          	addi	a0,a0,1504 # 195e0 <__clzdi2+0x13e>
   15e60:	4601                	li	a2,0
   15e62:	14500593          	li	a1,325
   15e66:	627000ef          	jal	16c8c <__assert_func>

0000000000015e6a <__lshift>:
   15e6a:	7139                	addi	sp,sp,-64
   15e6c:	f04a                	sd	s2,32(sp)
   15e6e:	0145a903          	lw	s2,20(a1)
   15e72:	45dc                	lw	a5,12(a1)
   15e74:	e456                	sd	s5,8(sp)
   15e76:	40565a9b          	sraiw	s5,a2,0x5
   15e7a:	0159093b          	addw	s2,s2,s5
   15e7e:	f822                	sd	s0,48(sp)
   15e80:	f426                	sd	s1,40(sp)
   15e82:	ec4e                	sd	s3,24(sp)
   15e84:	e852                	sd	s4,16(sp)
   15e86:	0019071b          	addiw	a4,s2,1
   15e8a:	fc06                	sd	ra,56(sp)
   15e8c:	842e                	mv	s0,a1
   15e8e:	8a32                	mv	s4,a2
   15e90:	458c                	lw	a1,8(a1)
   15e92:	84aa                	mv	s1,a0
   15e94:	89ba                	mv	s3,a4
   15e96:	00e7d763          	bge	a5,a4,15ea4 <__lshift+0x3a>
   15e9a:	0017979b          	slliw	a5,a5,0x1
   15e9e:	2585                	addiw	a1,a1,1
   15ea0:	fee7cde3          	blt	a5,a4,15e9a <__lshift+0x30>
   15ea4:	8526                	mv	a0,s1
   15ea6:	949ff0ef          	jal	157ee <_Balloc>
   15eaa:	c161                	beqz	a0,15f6a <__lshift+0x100>
   15eac:	01850813          	addi	a6,a0,24
   15eb0:	03505163          	blez	s5,15ed2 <__lshift+0x68>
   15eb4:	006a871b          	addiw	a4,s5,6
   15eb8:	070a                	slli	a4,a4,0x2
   15eba:	972a                	add	a4,a4,a0
   15ebc:	87c2                	mv	a5,a6
   15ebe:	0791                	addi	a5,a5,4
   15ec0:	fe07ae23          	sw	zero,-4(a5)
   15ec4:	fef71de3          	bne	a4,a5,15ebe <__lshift+0x54>
   15ec8:	020a9793          	slli	a5,s5,0x20
   15ecc:	01e7da93          	srli	s5,a5,0x1e
   15ed0:	9856                	add	a6,a6,s5
   15ed2:	01442883          	lw	a7,20(s0)
   15ed6:	01840793          	addi	a5,s0,24
   15eda:	01fa7613          	andi	a2,s4,31
   15ede:	088a                	slli	a7,a7,0x2
   15ee0:	98be                	add	a7,a7,a5
   15ee2:	c62d                	beqz	a2,15f4c <__lshift+0xe2>
   15ee4:	02000593          	li	a1,32
   15ee8:	9d91                	subw	a1,a1,a2
   15eea:	8342                	mv	t1,a6
   15eec:	4681                	li	a3,0
   15eee:	4398                	lw	a4,0(a5)
   15ef0:	0311                	addi	t1,t1,4
   15ef2:	0791                	addi	a5,a5,4
   15ef4:	00c7173b          	sllw	a4,a4,a2
   15ef8:	8f55                	or	a4,a4,a3
   15efa:	fee32e23          	sw	a4,-4(t1)
   15efe:	ffc7a683          	lw	a3,-4(a5)
   15f02:	00b6d6bb          	srlw	a3,a3,a1
   15f06:	ff17e4e3          	bltu	a5,a7,15eee <__lshift+0x84>
   15f0a:	01940793          	addi	a5,s0,25
   15f0e:	4701                	li	a4,0
   15f10:	00f8e763          	bltu	a7,a5,15f1e <__lshift+0xb4>
   15f14:	408888b3          	sub	a7,a7,s0
   15f18:	189d                	addi	a7,a7,-25
   15f1a:	ffc8f713          	andi	a4,a7,-4
   15f1e:	983a                	add	a6,a6,a4
   15f20:	00d82223          	sw	a3,4(a6)
   15f24:	e291                	bnez	a3,15f28 <__lshift+0xbe>
   15f26:	89ca                	mv	s3,s2
   15f28:	4418                	lw	a4,8(s0)
   15f2a:	74bc                	ld	a5,104(s1)
   15f2c:	01352a23          	sw	s3,20(a0)
   15f30:	070e                	slli	a4,a4,0x3
   15f32:	97ba                	add	a5,a5,a4
   15f34:	6398                	ld	a4,0(a5)
   15f36:	70e2                	ld	ra,56(sp)
   15f38:	74a2                	ld	s1,40(sp)
   15f3a:	e018                	sd	a4,0(s0)
   15f3c:	e380                	sd	s0,0(a5)
   15f3e:	7442                	ld	s0,48(sp)
   15f40:	7902                	ld	s2,32(sp)
   15f42:	69e2                	ld	s3,24(sp)
   15f44:	6a42                	ld	s4,16(sp)
   15f46:	6aa2                	ld	s5,8(sp)
   15f48:	6121                	addi	sp,sp,64
   15f4a:	8082                	ret
   15f4c:	4398                	lw	a4,0(a5)
   15f4e:	0791                	addi	a5,a5,4
   15f50:	0811                	addi	a6,a6,4
   15f52:	fee82e23          	sw	a4,-4(a6)
   15f56:	fd17f8e3          	bgeu	a5,a7,15f26 <__lshift+0xbc>
   15f5a:	4398                	lw	a4,0(a5)
   15f5c:	0791                	addi	a5,a5,4
   15f5e:	0811                	addi	a6,a6,4
   15f60:	fee82e23          	sw	a4,-4(a6)
   15f64:	ff17e4e3          	bltu	a5,a7,15f4c <__lshift+0xe2>
   15f68:	bf7d                	j	15f26 <__lshift+0xbc>
   15f6a:	66e5                	lui	a3,0x19
   15f6c:	6565                	lui	a0,0x19
   15f6e:	57868693          	addi	a3,a3,1400 # 19578 <__clzdi2+0xd6>
   15f72:	5e050513          	addi	a0,a0,1504 # 195e0 <__clzdi2+0x13e>
   15f76:	4601                	li	a2,0
   15f78:	1de00593          	li	a1,478
   15f7c:	511000ef          	jal	16c8c <__assert_func>

0000000000015f80 <__mcmp>:
   15f80:	49dc                	lw	a5,20(a1)
   15f82:	882a                	mv	a6,a0
   15f84:	4948                	lw	a0,20(a0)
   15f86:	9d1d                	subw	a0,a0,a5
   15f88:	e51d                	bnez	a0,15fb6 <__mcmp+0x36>
   15f8a:	078a                	slli	a5,a5,0x2
   15f8c:	0861                	addi	a6,a6,24
   15f8e:	05e1                	addi	a1,a1,24
   15f90:	00f58733          	add	a4,a1,a5
   15f94:	97c2                	add	a5,a5,a6
   15f96:	a019                	j	15f9c <__mcmp+0x1c>
   15f98:	00f87f63          	bgeu	a6,a5,15fb6 <__mcmp+0x36>
   15f9c:	ffc7a603          	lw	a2,-4(a5)
   15fa0:	ffc72683          	lw	a3,-4(a4)
   15fa4:	17f1                	addi	a5,a5,-4
   15fa6:	1771                	addi	a4,a4,-4
   15fa8:	fed608e3          	beq	a2,a3,15f98 <__mcmp+0x18>
   15fac:	4505                	li	a0,1
   15fae:	00d67463          	bgeu	a2,a3,15fb6 <__mcmp+0x36>
   15fb2:	557d                	li	a0,-1
   15fb4:	8082                	ret
   15fb6:	8082                	ret

0000000000015fb8 <__mdiff>:
   15fb8:	1101                	addi	sp,sp,-32
   15fba:	4a5c                	lw	a5,20(a2)
   15fbc:	e04a                	sd	s2,0(sp)
   15fbe:	0145a903          	lw	s2,20(a1)
   15fc2:	e822                	sd	s0,16(sp)
   15fc4:	e426                	sd	s1,8(sp)
   15fc6:	ec06                	sd	ra,24(sp)
   15fc8:	40f9093b          	subw	s2,s2,a5
   15fcc:	842e                	mv	s0,a1
   15fce:	84b2                	mv	s1,a2
   15fd0:	12091163          	bnez	s2,160f2 <__mdiff+0x13a>
   15fd4:	00279693          	slli	a3,a5,0x2
   15fd8:	01858613          	addi	a2,a1,24
   15fdc:	01848713          	addi	a4,s1,24
   15fe0:	00d607b3          	add	a5,a2,a3
   15fe4:	9736                	add	a4,a4,a3
   15fe6:	a019                	j	15fec <__mdiff+0x34>
   15fe8:	12f67363          	bgeu	a2,a5,1610e <__mdiff+0x156>
   15fec:	ffc7a583          	lw	a1,-4(a5)
   15ff0:	ffc72683          	lw	a3,-4(a4)
   15ff4:	17f1                	addi	a5,a5,-4
   15ff6:	1771                	addi	a4,a4,-4
   15ff8:	fed588e3          	beq	a1,a3,15fe8 <__mdiff+0x30>
   15ffc:	12d5f763          	bgeu	a1,a3,1612a <__mdiff+0x172>
   16000:	4905                	li	s2,1
   16002:	448c                	lw	a1,8(s1)
   16004:	feaff0ef          	jal	157ee <_Balloc>
   16008:	12050763          	beqz	a0,16136 <__mdiff+0x17e>
   1600c:	0144a883          	lw	a7,20(s1)
   16010:	01442f03          	lw	t5,20(s0)
   16014:	04e1                	addi	s1,s1,24
   16016:	00289813          	slli	a6,a7,0x2
   1601a:	0f0a                	slli	t5,t5,0x2
   1601c:	01840313          	addi	t1,s0,24
   16020:	01850f93          	addi	t6,a0,24
   16024:	01252823          	sw	s2,16(a0)
   16028:	9826                	add	a6,a6,s1
   1602a:	9f1a                	add	t5,t5,t1
   1602c:	8ea6                	mv	t4,s1
   1602e:	8e7e                	mv	t3,t6
   16030:	4781                	li	a5,0
   16032:	000ea683          	lw	a3,0(t4)
   16036:	00032603          	lw	a2,0(t1)
   1603a:	0e11                	addi	t3,t3,4
   1603c:	03069713          	slli	a4,a3,0x30
   16040:	03061593          	slli	a1,a2,0x30
   16044:	9341                	srli	a4,a4,0x30
   16046:	91c1                	srli	a1,a1,0x30
   16048:	9f0d                	subw	a4,a4,a1
   1604a:	9f3d                	addw	a4,a4,a5
   1604c:	0106d69b          	srliw	a3,a3,0x10
   16050:	0106561b          	srliw	a2,a2,0x10
   16054:	9e91                	subw	a3,a3,a2
   16056:	4107579b          	sraiw	a5,a4,0x10
   1605a:	9fb5                	addw	a5,a5,a3
   1605c:	1742                	slli	a4,a4,0x30
   1605e:	0107969b          	slliw	a3,a5,0x10
   16062:	9341                	srli	a4,a4,0x30
   16064:	8ed9                	or	a3,a3,a4
   16066:	0311                	addi	t1,t1,4
   16068:	fede2e23          	sw	a3,-4(t3)
   1606c:	0e91                	addi	t4,t4,4
   1606e:	4107d79b          	sraiw	a5,a5,0x10
   16072:	fde360e3          	bltu	t1,t5,16032 <__mdiff+0x7a>
   16076:	01940613          	addi	a2,s0,25
   1607a:	4701                	li	a4,0
   1607c:	08cf7363          	bgeu	t5,a2,16102 <__mdiff+0x14a>
   16080:	00e48eb3          	add	t4,s1,a4
   16084:	0e91                	addi	t4,t4,4
   16086:	977e                	add	a4,a4,t6
   16088:	409f8e33          	sub	t3,t6,s1
   1608c:	8676                	mv	a2,t4
   1608e:	00470f13          	addi	t5,a4,4
   16092:	0b0ef063          	bgeu	t4,a6,16132 <__mdiff+0x17a>
   16096:	4218                	lw	a4,0(a2)
   16098:	01c60333          	add	t1,a2,t3
   1609c:	0611                	addi	a2,a2,4
   1609e:	03071693          	slli	a3,a4,0x30
   160a2:	92c1                	srli	a3,a3,0x30
   160a4:	00f705bb          	addw	a1,a4,a5
   160a8:	9fb5                	addw	a5,a5,a3
   160aa:	4107d79b          	sraiw	a5,a5,0x10
   160ae:	0107571b          	srliw	a4,a4,0x10
   160b2:	9f3d                	addw	a4,a4,a5
   160b4:	15c2                	slli	a1,a1,0x30
   160b6:	91c1                	srli	a1,a1,0x30
   160b8:	0107169b          	slliw	a3,a4,0x10
   160bc:	8ecd                	or	a3,a3,a1
   160be:	00d32023          	sw	a3,0(t1)
   160c2:	4107579b          	sraiw	a5,a4,0x10
   160c6:	fd0668e3          	bltu	a2,a6,16096 <__mdiff+0xde>
   160ca:	fff80793          	addi	a5,a6,-1
   160ce:	41d787b3          	sub	a5,a5,t4
   160d2:	9bf1                	andi	a5,a5,-4
   160d4:	97fa                	add	a5,a5,t5
   160d6:	e691                	bnez	a3,160e2 <__mdiff+0x12a>
   160d8:	ffc7a703          	lw	a4,-4(a5)
   160dc:	17f1                	addi	a5,a5,-4
   160de:	38fd                	addiw	a7,a7,-1
   160e0:	df65                	beqz	a4,160d8 <__mdiff+0x120>
   160e2:	60e2                	ld	ra,24(sp)
   160e4:	6442                	ld	s0,16(sp)
   160e6:	01152a23          	sw	a7,20(a0)
   160ea:	64a2                	ld	s1,8(sp)
   160ec:	6902                	ld	s2,0(sp)
   160ee:	6105                	addi	sp,sp,32
   160f0:	8082                	ret
   160f2:	874a                	mv	a4,s2
   160f4:	4905                	li	s2,1
   160f6:	f00746e3          	bltz	a4,16002 <__mdiff+0x4a>
   160fa:	4901                	li	s2,0
   160fc:	84ae                	mv	s1,a1
   160fe:	8432                	mv	s0,a2
   16100:	b709                	j	16002 <__mdiff+0x4a>
   16102:	408f0f33          	sub	t5,t5,s0
   16106:	1f1d                	addi	t5,t5,-25
   16108:	ffcf7713          	andi	a4,t5,-4
   1610c:	bf95                	j	16080 <__mdiff+0xc8>
   1610e:	4581                	li	a1,0
   16110:	edeff0ef          	jal	157ee <_Balloc>
   16114:	cd05                	beqz	a0,1614c <__mdiff+0x194>
   16116:	60e2                	ld	ra,24(sp)
   16118:	6442                	ld	s0,16(sp)
   1611a:	4785                	li	a5,1
   1611c:	00052c23          	sw	zero,24(a0)
   16120:	c95c                	sw	a5,20(a0)
   16122:	64a2                	ld	s1,8(sp)
   16124:	6902                	ld	s2,0(sp)
   16126:	6105                	addi	sp,sp,32
   16128:	8082                	ret
   1612a:	87a6                	mv	a5,s1
   1612c:	84a2                	mv	s1,s0
   1612e:	843e                	mv	s0,a5
   16130:	bdc9                	j	16002 <__mdiff+0x4a>
   16132:	87ba                	mv	a5,a4
   16134:	b74d                	j	160d6 <__mdiff+0x11e>
   16136:	66e5                	lui	a3,0x19
   16138:	6565                	lui	a0,0x19
   1613a:	57868693          	addi	a3,a3,1400 # 19578 <__clzdi2+0xd6>
   1613e:	5e050513          	addi	a0,a0,1504 # 195e0 <__clzdi2+0x13e>
   16142:	4601                	li	a2,0
   16144:	24500593          	li	a1,581
   16148:	345000ef          	jal	16c8c <__assert_func>
   1614c:	66e5                	lui	a3,0x19
   1614e:	6565                	lui	a0,0x19
   16150:	57868693          	addi	a3,a3,1400 # 19578 <__clzdi2+0xd6>
   16154:	5e050513          	addi	a0,a0,1504 # 195e0 <__clzdi2+0x13e>
   16158:	4601                	li	a2,0
   1615a:	23700593          	li	a1,567
   1615e:	32f000ef          	jal	16c8c <__assert_func>

0000000000016162 <__ulp>:
   16162:	e20507d3          	fmv.x.d	a5,fa0
   16166:	7ff006b7          	lui	a3,0x7ff00
   1616a:	fcc00737          	lui	a4,0xfcc00
   1616e:	9381                	srli	a5,a5,0x20
   16170:	8ff5                	and	a5,a5,a3
   16172:	9fb9                	addw	a5,a5,a4
   16174:	4701                	li	a4,0
   16176:	00f05963          	blez	a5,16188 <__ulp+0x26>
   1617a:	1702                	slli	a4,a4,0x20
   1617c:	9301                	srli	a4,a4,0x20
   1617e:	1782                	slli	a5,a5,0x20
   16180:	8fd9                	or	a5,a5,a4
   16182:	f2078553          	fmv.d.x	fa0,a5
   16186:	8082                	ret
   16188:	40f007bb          	negw	a5,a5
   1618c:	4147d79b          	sraiw	a5,a5,0x14
   16190:	474d                	li	a4,19
   16192:	00f74e63          	blt	a4,a5,161ae <__ulp+0x4c>
   16196:	00080737          	lui	a4,0x80
   1619a:	40f757bb          	sraw	a5,a4,a5
   1619e:	4701                	li	a4,0
   161a0:	1702                	slli	a4,a4,0x20
   161a2:	9301                	srli	a4,a4,0x20
   161a4:	1782                	slli	a5,a5,0x20
   161a6:	8fd9                	or	a5,a5,a4
   161a8:	f2078553          	fmv.d.x	fa0,a5
   161ac:	8082                	ret
   161ae:	37b1                	addiw	a5,a5,-20
   161b0:	46f9                	li	a3,30
   161b2:	4705                	li	a4,1
   161b4:	00f6c663          	blt	a3,a5,161c0 <__ulp+0x5e>
   161b8:	80000737          	lui	a4,0x80000
   161bc:	00f7573b          	srlw	a4,a4,a5
   161c0:	4781                	li	a5,0
   161c2:	1702                	slli	a4,a4,0x20
   161c4:	9301                	srli	a4,a4,0x20
   161c6:	1782                	slli	a5,a5,0x20
   161c8:	8fd9                	or	a5,a5,a4
   161ca:	f2078553          	fmv.d.x	fa0,a5
   161ce:	8082                	ret

00000000000161d0 <__b2d>:
   161d0:	7179                	addi	sp,sp,-48
   161d2:	ec26                	sd	s1,24(sp)
   161d4:	4944                	lw	s1,20(a0)
   161d6:	f022                	sd	s0,32(sp)
   161d8:	01850413          	addi	s0,a0,24
   161dc:	048a                	slli	s1,s1,0x2
   161de:	94a2                	add	s1,s1,s0
   161e0:	e84a                	sd	s2,16(sp)
   161e2:	ffc4a903          	lw	s2,-4(s1)
   161e6:	e44e                	sd	s3,8(sp)
   161e8:	e052                	sd	s4,0(sp)
   161ea:	854a                	mv	a0,s2
   161ec:	89ae                	mv	s3,a1
   161ee:	f406                	sd	ra,40(sp)
   161f0:	84fff0ef          	jal	15a3e <__hi0bits>
   161f4:	02000793          	li	a5,32
   161f8:	40a7873b          	subw	a4,a5,a0
   161fc:	00e9a023          	sw	a4,0(s3)
   16200:	4729                	li	a4,10
   16202:	ffc48a13          	addi	s4,s1,-4
   16206:	06a75c63          	bge	a4,a0,1627e <__b2d+0xae>
   1620a:	ff55061b          	addiw	a2,a0,-11
   1620e:	03447f63          	bgeu	s0,s4,1624c <__b2d+0x7c>
   16212:	ff84a703          	lw	a4,-8(s1)
   16216:	ce1d                	beqz	a2,16254 <__b2d+0x84>
   16218:	40c786bb          	subw	a3,a5,a2
   1621c:	00d757bb          	srlw	a5,a4,a3
   16220:	00c9193b          	sllw	s2,s2,a2
   16224:	00f96933          	or	s2,s2,a5
   16228:	3ff007b7          	lui	a5,0x3ff00
   1622c:	00f96933          	or	s2,s2,a5
   16230:	ff848593          	addi	a1,s1,-8
   16234:	00c7173b          	sllw	a4,a4,a2
   16238:	02091793          	slli	a5,s2,0x20
   1623c:	02b47263          	bgeu	s0,a1,16260 <__b2d+0x90>
   16240:	ff44a603          	lw	a2,-12(s1)
   16244:	00d656bb          	srlw	a3,a2,a3
   16248:	8f55                	or	a4,a4,a3
   1624a:	a819                	j	16260 <__b2d+0x90>
   1624c:	47ad                	li	a5,11
   1624e:	4701                	li	a4,0
   16250:	04f51c63          	bne	a0,a5,162a8 <__b2d+0xd8>
   16254:	3ff007b7          	lui	a5,0x3ff00
   16258:	00f96933          	or	s2,s2,a5
   1625c:	02091793          	slli	a5,s2,0x20
   16260:	70a2                	ld	ra,40(sp)
   16262:	7402                	ld	s0,32(sp)
   16264:	1702                	slli	a4,a4,0x20
   16266:	9381                	srli	a5,a5,0x20
   16268:	9301                	srli	a4,a4,0x20
   1626a:	1782                	slli	a5,a5,0x20
   1626c:	8fd9                	or	a5,a5,a4
   1626e:	64e2                	ld	s1,24(sp)
   16270:	6942                	ld	s2,16(sp)
   16272:	69a2                	ld	s3,8(sp)
   16274:	6a02                	ld	s4,0(sp)
   16276:	f2078553          	fmv.d.x	fa0,a5
   1627a:	6145                	addi	sp,sp,48
   1627c:	8082                	ret
   1627e:	46ad                	li	a3,11
   16280:	9e89                	subw	a3,a3,a0
   16282:	3ff00737          	lui	a4,0x3ff00
   16286:	00d957bb          	srlw	a5,s2,a3
   1628a:	8fd9                	or	a5,a5,a4
   1628c:	1782                	slli	a5,a5,0x20
   1628e:	4701                	li	a4,0
   16290:	01447663          	bgeu	s0,s4,1629c <__b2d+0xcc>
   16294:	ff84a703          	lw	a4,-8(s1)
   16298:	00d7573b          	srlw	a4,a4,a3
   1629c:	2555                	addiw	a0,a0,21
   1629e:	00a9193b          	sllw	s2,s2,a0
   162a2:	00e96733          	or	a4,s2,a4
   162a6:	bf6d                	j	16260 <__b2d+0x90>
   162a8:	3ff007b7          	lui	a5,0x3ff00
   162ac:	00c9193b          	sllw	s2,s2,a2
   162b0:	00f96933          	or	s2,s2,a5
   162b4:	02091793          	slli	a5,s2,0x20
   162b8:	4701                	li	a4,0
   162ba:	b75d                	j	16260 <__b2d+0x90>

00000000000162bc <__d2b>:
   162bc:	7139                	addi	sp,sp,-64
   162be:	e852                	sd	s4,16(sp)
   162c0:	8a2e                	mv	s4,a1
   162c2:	4585                	li	a1,1
   162c4:	f822                	sd	s0,48(sp)
   162c6:	ec4e                	sd	s3,24(sp)
   162c8:	fc06                	sd	ra,56(sp)
   162ca:	f426                	sd	s1,40(sp)
   162cc:	f04a                	sd	s2,32(sp)
   162ce:	e2050453          	fmv.x.d	s0,fa0
   162d2:	89b2                	mv	s3,a2
   162d4:	d1aff0ef          	jal	157ee <_Balloc>
   162d8:	c955                	beqz	a0,1638c <__d2b+0xd0>
   162da:	42045793          	srai	a5,s0,0x20
   162de:	0147d91b          	srliw	s2,a5,0x14
   162e2:	00100737          	lui	a4,0x100
   162e6:	fff70693          	addi	a3,a4,-1 # fffff <__BSS_END__+0xe40df>
   162ea:	7ff97913          	andi	s2,s2,2047
   162ee:	84aa                	mv	s1,a0
   162f0:	8ff5                	and	a5,a5,a3
   162f2:	00090363          	beqz	s2,162f8 <__d2b+0x3c>
   162f6:	8fd9                	or	a5,a5,a4
   162f8:	2401                	sext.w	s0,s0
   162fa:	c63e                	sw	a5,12(sp)
   162fc:	e029                	bnez	s0,1633e <__d2b+0x82>
   162fe:	0068                	addi	a0,sp,12
   16300:	fa6ff0ef          	jal	15aa6 <__lo0bits>
   16304:	47b2                	lw	a5,12(sp)
   16306:	4405                	li	s0,1
   16308:	c8c0                	sw	s0,20(s1)
   1630a:	cc9c                	sw	a5,24(s1)
   1630c:	0205051b          	addiw	a0,a0,32
   16310:	04090f63          	beqz	s2,1636e <__d2b+0xb2>
   16314:	bcd9091b          	addiw	s2,s2,-1075
   16318:	00a9093b          	addw	s2,s2,a0
   1631c:	03500413          	li	s0,53
   16320:	012a2023          	sw	s2,0(s4)
   16324:	40a4053b          	subw	a0,s0,a0
   16328:	70e2                	ld	ra,56(sp)
   1632a:	7442                	ld	s0,48(sp)
   1632c:	00a9a023          	sw	a0,0(s3)
   16330:	7902                	ld	s2,32(sp)
   16332:	69e2                	ld	s3,24(sp)
   16334:	6a42                	ld	s4,16(sp)
   16336:	8526                	mv	a0,s1
   16338:	74a2                	ld	s1,40(sp)
   1633a:	6121                	addi	sp,sp,64
   1633c:	8082                	ret
   1633e:	0028                	addi	a0,sp,8
   16340:	c422                	sw	s0,8(sp)
   16342:	f64ff0ef          	jal	15aa6 <__lo0bits>
   16346:	47b2                	lw	a5,12(sp)
   16348:	4722                	lw	a4,8(sp)
   1634a:	c911                	beqz	a0,1635e <__d2b+0xa2>
   1634c:	02000693          	li	a3,32
   16350:	9e89                	subw	a3,a3,a0
   16352:	00d796bb          	sllw	a3,a5,a3
   16356:	00a7d7bb          	srlw	a5,a5,a0
   1635a:	8f55                	or	a4,a4,a3
   1635c:	c63e                	sw	a5,12(sp)
   1635e:	00f03433          	snez	s0,a5
   16362:	0405                	addi	s0,s0,1
   16364:	cc98                	sw	a4,24(s1)
   16366:	ccdc                	sw	a5,28(s1)
   16368:	c8c0                	sw	s0,20(s1)
   1636a:	fa0915e3          	bnez	s2,16314 <__d2b+0x58>
   1636e:	bce5051b          	addiw	a0,a0,-1074
   16372:	00241793          	slli	a5,s0,0x2
   16376:	00aa2023          	sw	a0,0(s4)
   1637a:	97a6                	add	a5,a5,s1
   1637c:	4bc8                	lw	a0,20(a5)
   1637e:	0054141b          	slliw	s0,s0,0x5
   16382:	ebcff0ef          	jal	15a3e <__hi0bits>
   16386:	40a4053b          	subw	a0,s0,a0
   1638a:	bf79                	j	16328 <__d2b+0x6c>
   1638c:	66e5                	lui	a3,0x19
   1638e:	6565                	lui	a0,0x19
   16390:	57868693          	addi	a3,a3,1400 # 19578 <__clzdi2+0xd6>
   16394:	5e050513          	addi	a0,a0,1504 # 195e0 <__clzdi2+0x13e>
   16398:	4601                	li	a2,0
   1639a:	30f00593          	li	a1,783
   1639e:	0ef000ef          	jal	16c8c <__assert_func>

00000000000163a2 <__ratio>:
   163a2:	7139                	addi	sp,sp,-64
   163a4:	f426                	sd	s1,40(sp)
   163a6:	84ae                	mv	s1,a1
   163a8:	002c                	addi	a1,sp,8
   163aa:	fc06                	sd	ra,56(sp)
   163ac:	f822                	sd	s0,48(sp)
   163ae:	ec4e                	sd	s3,24(sp)
   163b0:	89aa                	mv	s3,a0
   163b2:	e1fff0ef          	jal	161d0 <__b2d>
   163b6:	006c                	addi	a1,sp,12
   163b8:	8526                	mv	a0,s1
   163ba:	e2050453          	fmv.x.d	s0,fa0
   163be:	e13ff0ef          	jal	161d0 <__b2d>
   163c2:	48d8                	lw	a4,20(s1)
   163c4:	0149a683          	lw	a3,20(s3)
   163c8:	47a2                	lw	a5,8(sp)
   163ca:	4632                	lw	a2,12(sp)
   163cc:	9e99                	subw	a3,a3,a4
   163ce:	0056969b          	slliw	a3,a3,0x5
   163d2:	9f91                	subw	a5,a5,a2
   163d4:	9fb5                	addw	a5,a5,a3
   163d6:	e2050753          	fmv.x.d	a4,fa0
   163da:	02f05b63          	blez	a5,16410 <__ratio+0x6e>
   163de:	f04a                	sd	s2,32(sp)
   163e0:	0147979b          	slliw	a5,a5,0x14
   163e4:	8922                	mv	s2,s0
   163e6:	9001                	srli	s0,s0,0x20
   163e8:	9fa1                	addw	a5,a5,s0
   163ea:	1902                	slli	s2,s2,0x20
   163ec:	02095913          	srli	s2,s2,0x20
   163f0:	1782                	slli	a5,a5,0x20
   163f2:	00f96433          	or	s0,s2,a5
   163f6:	7902                	ld	s2,32(sp)
   163f8:	f20407d3          	fmv.d.x	fa5,s0
   163fc:	70e2                	ld	ra,56(sp)
   163fe:	7442                	ld	s0,48(sp)
   16400:	f2070753          	fmv.d.x	fa4,a4
   16404:	74a2                	ld	s1,40(sp)
   16406:	69e2                	ld	s3,24(sp)
   16408:	1ae7f553          	fdiv.d	fa0,fa5,fa4
   1640c:	6121                	addi	sp,sp,64
   1640e:	8082                	ret
   16410:	40f007bb          	negw	a5,a5
   16414:	86ba                	mv	a3,a4
   16416:	0147979b          	slliw	a5,a5,0x14
   1641a:	9301                	srli	a4,a4,0x20
   1641c:	9fb9                	addw	a5,a5,a4
   1641e:	1682                	slli	a3,a3,0x20
   16420:	9281                	srli	a3,a3,0x20
   16422:	1782                	slli	a5,a5,0x20
   16424:	00f6e733          	or	a4,a3,a5
   16428:	bfc1                	j	163f8 <__ratio+0x56>

000000000001642a <_mprec_log10>:
   1642a:	47dd                	li	a5,23
   1642c:	00a7db63          	bge	a5,a0,16442 <_mprec_log10+0x18>
   16430:	1c01b507          	fld	fa0,448(gp) # 1b8e0 <__SDATA_BEGIN__+0x30>
   16434:	1d81b787          	fld	fa5,472(gp) # 1b8f8 <__SDATA_BEGIN__+0x48>
   16438:	357d                	addiw	a0,a0,-1
   1643a:	12f57553          	fmul.d	fa0,fa0,fa5
   1643e:	fd6d                	bnez	a0,16438 <_mprec_log10+0xe>
   16440:	8082                	ret
   16442:	67e9                	lui	a5,0x1a
   16444:	050e                	slli	a0,a0,0x3
   16446:	88878793          	addi	a5,a5,-1912 # 19888 <__mprec_tens>
   1644a:	97aa                	add	a5,a5,a0
   1644c:	2388                	fld	fa0,0(a5)
   1644e:	8082                	ret

0000000000016450 <__copybits>:
   16450:	4a54                	lw	a3,20(a2)
   16452:	35fd                	addiw	a1,a1,-1
   16454:	4055d59b          	sraiw	a1,a1,0x5
   16458:	2585                	addiw	a1,a1,1
   1645a:	068a                	slli	a3,a3,0x2
   1645c:	01860793          	addi	a5,a2,24
   16460:	058a                	slli	a1,a1,0x2
   16462:	96be                	add	a3,a3,a5
   16464:	95aa                	add	a1,a1,a0
   16466:	02d7f063          	bgeu	a5,a3,16486 <__copybits+0x36>
   1646a:	872a                	mv	a4,a0
   1646c:	0007a803          	lw	a6,0(a5)
   16470:	0791                	addi	a5,a5,4
   16472:	0711                	addi	a4,a4,4
   16474:	ff072e23          	sw	a6,-4(a4)
   16478:	fed7eae3          	bltu	a5,a3,1646c <__copybits+0x1c>
   1647c:	8e91                	sub	a3,a3,a2
   1647e:	169d                	addi	a3,a3,-25
   16480:	9af1                	andi	a3,a3,-4
   16482:	0511                	addi	a0,a0,4
   16484:	9536                	add	a0,a0,a3
   16486:	00b57763          	bgeu	a0,a1,16494 <__copybits+0x44>
   1648a:	0511                	addi	a0,a0,4
   1648c:	fe052e23          	sw	zero,-4(a0)
   16490:	feb56de3          	bltu	a0,a1,1648a <__copybits+0x3a>
   16494:	8082                	ret

0000000000016496 <__any_on>:
   16496:	4958                	lw	a4,20(a0)
   16498:	4055d61b          	sraiw	a2,a1,0x5
   1649c:	01850693          	addi	a3,a0,24
   164a0:	00c75d63          	bge	a4,a2,164ba <__any_on+0x24>
   164a4:	070a                	slli	a4,a4,0x2
   164a6:	00e687b3          	add	a5,a3,a4
   164aa:	02f6f863          	bgeu	a3,a5,164da <__any_on+0x44>
   164ae:	ffc7a703          	lw	a4,-4(a5)
   164b2:	17f1                	addi	a5,a5,-4
   164b4:	db7d                	beqz	a4,164aa <__any_on+0x14>
   164b6:	4505                	li	a0,1
   164b8:	8082                	ret
   164ba:	00261793          	slli	a5,a2,0x2
   164be:	97b6                	add	a5,a5,a3
   164c0:	fee655e3          	bge	a2,a4,164aa <__any_on+0x14>
   164c4:	89fd                	andi	a1,a1,31
   164c6:	d1f5                	beqz	a1,164aa <__any_on+0x14>
   164c8:	4390                	lw	a2,0(a5)
   164ca:	4505                	li	a0,1
   164cc:	00b6573b          	srlw	a4,a2,a1
   164d0:	00b7173b          	sllw	a4,a4,a1
   164d4:	fcc70be3          	beq	a4,a2,164aa <__any_on+0x14>
   164d8:	8082                	ret
   164da:	4501                	li	a0,0
   164dc:	8082                	ret

00000000000164de <_realloc_r>:
   164de:	715d                	addi	sp,sp,-80
   164e0:	f84a                	sd	s2,48(sp)
   164e2:	e486                	sd	ra,72(sp)
   164e4:	8932                	mv	s2,a2
   164e6:	16058363          	beqz	a1,1664c <_realloc_r+0x16e>
   164ea:	e0a2                	sd	s0,64(sp)
   164ec:	fc26                	sd	s1,56(sp)
   164ee:	842e                	mv	s0,a1
   164f0:	f44e                	sd	s3,40(sp)
   164f2:	f052                	sd	s4,32(sp)
   164f4:	ec56                	sd	s5,24(sp)
   164f6:	89aa                	mv	s3,a0
   164f8:	ecdfa0ef          	jal	113c4 <__malloc_lock>
   164fc:	ff843783          	ld	a5,-8(s0)
   16500:	01790493          	addi	s1,s2,23
   16504:	02e00713          	li	a4,46
   16508:	ffc7fa13          	andi	s4,a5,-4
   1650c:	ff040a93          	addi	s5,s0,-16
   16510:	0c977363          	bgeu	a4,s1,165d6 <_realloc_r+0xf8>
   16514:	80000737          	lui	a4,0x80000
   16518:	98c1                	andi	s1,s1,-16
   1651a:	fff74713          	not	a4,a4
   1651e:	0c976063          	bltu	a4,s1,165de <_realloc_r+0x100>
   16522:	0b24ee63          	bltu	s1,s2,165de <_realloc_r+0x100>
   16526:	0e9a5063          	bge	s4,s1,16606 <_realloc_r+0x128>
   1652a:	676d                	lui	a4,0x1b
   1652c:	e062                	sd	s8,0(sp)
   1652e:	ef870c13          	addi	s8,a4,-264 # 1aef8 <__malloc_av_>
   16532:	010c3603          	ld	a2,16(s8)
   16536:	014a86b3          	add	a3,s5,s4
   1653a:	6698                	ld	a4,8(a3)
   1653c:	12d60f63          	beq	a2,a3,1667a <_realloc_r+0x19c>
   16540:	ffe77613          	andi	a2,a4,-2
   16544:	9636                	add	a2,a2,a3
   16546:	6610                	ld	a2,8(a2)
   16548:	8a05                	andi	a2,a2,1
   1654a:	e66d                	bnez	a2,16634 <_realloc_r+0x156>
   1654c:	9b71                	andi	a4,a4,-4
   1654e:	00ea0633          	add	a2,s4,a4
   16552:	0a965463          	bge	a2,s1,165fa <_realloc_r+0x11c>
   16556:	8b85                	andi	a5,a5,1
   16558:	e78d                	bnez	a5,16582 <_realloc_r+0xa4>
   1655a:	e45e                	sd	s7,8(sp)
   1655c:	ff043b83          	ld	s7,-16(s0)
   16560:	e85a                	sd	s6,16(sp)
   16562:	417a8bb3          	sub	s7,s5,s7
   16566:	008bb783          	ld	a5,8(s7)
   1656a:	9bf1                	andi	a5,a5,-4
   1656c:	973e                	add	a4,a4,a5
   1656e:	01470b33          	add	s6,a4,s4
   16572:	229b5c63          	bge	s6,s1,167aa <_realloc_r+0x2cc>
   16576:	00fa0b33          	add	s6,s4,a5
   1657a:	1c9b5763          	bge	s6,s1,16748 <_realloc_r+0x26a>
   1657e:	6b42                	ld	s6,16(sp)
   16580:	6ba2                	ld	s7,8(sp)
   16582:	85ca                	mv	a1,s2
   16584:	854e                	mv	a0,s3
   16586:	813fa0ef          	jal	10d98 <_malloc_r>
   1658a:	892a                	mv	s2,a0
   1658c:	2c050c63          	beqz	a0,16864 <_realloc_r+0x386>
   16590:	ff843783          	ld	a5,-8(s0)
   16594:	ff050713          	addi	a4,a0,-16
   16598:	9bf9                	andi	a5,a5,-2
   1659a:	97d6                	add	a5,a5,s5
   1659c:	1ae78063          	beq	a5,a4,1673c <_realloc_r+0x25e>
   165a0:	ff8a0613          	addi	a2,s4,-8
   165a4:	04800793          	li	a5,72
   165a8:	1ec7ed63          	bltu	a5,a2,167a2 <_realloc_r+0x2c4>
   165ac:	02700713          	li	a4,39
   165b0:	16c76963          	bltu	a4,a2,16722 <_realloc_r+0x244>
   165b4:	87aa                	mv	a5,a0
   165b6:	8722                	mv	a4,s0
   165b8:	6314                	ld	a3,0(a4)
   165ba:	e394                	sd	a3,0(a5)
   165bc:	6714                	ld	a3,8(a4)
   165be:	e794                	sd	a3,8(a5)
   165c0:	6b18                	ld	a4,16(a4)
   165c2:	eb98                	sd	a4,16(a5)
   165c4:	85a2                	mv	a1,s0
   165c6:	854e                	mv	a0,s3
   165c8:	d8efa0ef          	jal	10b56 <_free_r>
   165cc:	854e                	mv	a0,s3
   165ce:	df9fa0ef          	jal	113c6 <__malloc_unlock>
   165d2:	6c02                	ld	s8,0(sp)
   165d4:	a809                	j	165e6 <_realloc_r+0x108>
   165d6:	02000493          	li	s1,32
   165da:	f524f6e3          	bgeu	s1,s2,16526 <_realloc_r+0x48>
   165de:	47b1                	li	a5,12
   165e0:	00f9a023          	sw	a5,0(s3)
   165e4:	4901                	li	s2,0
   165e6:	6406                	ld	s0,64(sp)
   165e8:	60a6                	ld	ra,72(sp)
   165ea:	74e2                	ld	s1,56(sp)
   165ec:	79a2                	ld	s3,40(sp)
   165ee:	7a02                	ld	s4,32(sp)
   165f0:	6ae2                	ld	s5,24(sp)
   165f2:	854a                	mv	a0,s2
   165f4:	7942                	ld	s2,48(sp)
   165f6:	6161                	addi	sp,sp,80
   165f8:	8082                	ret
   165fa:	6e9c                	ld	a5,24(a3)
   165fc:	6a98                	ld	a4,16(a3)
   165fe:	6c02                	ld	s8,0(sp)
   16600:	8a32                	mv	s4,a2
   16602:	ef1c                	sd	a5,24(a4)
   16604:	eb98                	sd	a4,16(a5)
   16606:	008ab783          	ld	a5,8(s5)
   1660a:	409a06b3          	sub	a3,s4,s1
   1660e:	467d                	li	a2,31
   16610:	8b85                	andi	a5,a5,1
   16612:	014a8733          	add	a4,s5,s4
   16616:	04d66163          	bltu	a2,a3,16658 <_realloc_r+0x17a>
   1661a:	0147e7b3          	or	a5,a5,s4
   1661e:	00fab423          	sd	a5,8(s5)
   16622:	671c                	ld	a5,8(a4)
   16624:	0017e793          	ori	a5,a5,1
   16628:	e71c                	sd	a5,8(a4)
   1662a:	854e                	mv	a0,s3
   1662c:	d9bfa0ef          	jal	113c6 <__malloc_unlock>
   16630:	8922                	mv	s2,s0
   16632:	bf55                	j	165e6 <_realloc_r+0x108>
   16634:	8b85                	andi	a5,a5,1
   16636:	f7b1                	bnez	a5,16582 <_realloc_r+0xa4>
   16638:	e45e                	sd	s7,8(sp)
   1663a:	ff043b83          	ld	s7,-16(s0)
   1663e:	e85a                	sd	s6,16(sp)
   16640:	417a8bb3          	sub	s7,s5,s7
   16644:	008bb783          	ld	a5,8(s7)
   16648:	9bf1                	andi	a5,a5,-4
   1664a:	b735                	j	16576 <_realloc_r+0x98>
   1664c:	60a6                	ld	ra,72(sp)
   1664e:	7942                	ld	s2,48(sp)
   16650:	85b2                	mv	a1,a2
   16652:	6161                	addi	sp,sp,80
   16654:	f44fa06f          	j	10d98 <_malloc_r>
   16658:	8fc5                	or	a5,a5,s1
   1665a:	00fab423          	sd	a5,8(s5)
   1665e:	009a85b3          	add	a1,s5,s1
   16662:	0016e693          	ori	a3,a3,1
   16666:	e594                	sd	a3,8(a1)
   16668:	671c                	ld	a5,8(a4)
   1666a:	05c1                	addi	a1,a1,16
   1666c:	854e                	mv	a0,s3
   1666e:	0017e793          	ori	a5,a5,1
   16672:	e71c                	sd	a5,8(a4)
   16674:	ce2fa0ef          	jal	10b56 <_free_r>
   16678:	bf4d                	j	1662a <_realloc_r+0x14c>
   1667a:	9b71                	andi	a4,a4,-4
   1667c:	014706b3          	add	a3,a4,s4
   16680:	02048613          	addi	a2,s1,32
   16684:	18c6de63          	bge	a3,a2,16820 <_realloc_r+0x342>
   16688:	8b85                	andi	a5,a5,1
   1668a:	ee079ce3          	bnez	a5,16582 <_realloc_r+0xa4>
   1668e:	e45e                	sd	s7,8(sp)
   16690:	ff043b83          	ld	s7,-16(s0)
   16694:	e85a                	sd	s6,16(sp)
   16696:	417a8bb3          	sub	s7,s5,s7
   1669a:	008bb783          	ld	a5,8(s7)
   1669e:	9bf1                	andi	a5,a5,-4
   166a0:	973e                	add	a4,a4,a5
   166a2:	01470b33          	add	s6,a4,s4
   166a6:	eccb48e3          	blt	s6,a2,16576 <_realloc_r+0x98>
   166aa:	018bb783          	ld	a5,24(s7)
   166ae:	010bb703          	ld	a4,16(s7)
   166b2:	ff8a0613          	addi	a2,s4,-8
   166b6:	04800693          	li	a3,72
   166ba:	ef1c                	sd	a5,24(a4)
   166bc:	eb98                	sd	a4,16(a5)
   166be:	010b8913          	addi	s2,s7,16
   166c2:	1cc6ee63          	bltu	a3,a2,1689e <_realloc_r+0x3c0>
   166c6:	02700713          	li	a4,39
   166ca:	87ca                	mv	a5,s2
   166cc:	00c77f63          	bgeu	a4,a2,166ea <_realloc_r+0x20c>
   166d0:	6018                	ld	a4,0(s0)
   166d2:	03700793          	li	a5,55
   166d6:	00ebb823          	sd	a4,16(s7)
   166da:	6418                	ld	a4,8(s0)
   166dc:	00ebbc23          	sd	a4,24(s7)
   166e0:	1ec7e063          	bltu	a5,a2,168c0 <_realloc_r+0x3e2>
   166e4:	0441                	addi	s0,s0,16
   166e6:	020b8793          	addi	a5,s7,32
   166ea:	6018                	ld	a4,0(s0)
   166ec:	e398                	sd	a4,0(a5)
   166ee:	6418                	ld	a4,8(s0)
   166f0:	e798                	sd	a4,8(a5)
   166f2:	6818                	ld	a4,16(s0)
   166f4:	eb98                	sd	a4,16(a5)
   166f6:	009b8733          	add	a4,s7,s1
   166fa:	409b07b3          	sub	a5,s6,s1
   166fe:	00ec3823          	sd	a4,16(s8)
   16702:	0017e793          	ori	a5,a5,1
   16706:	e71c                	sd	a5,8(a4)
   16708:	008bb783          	ld	a5,8(s7)
   1670c:	854e                	mv	a0,s3
   1670e:	8b85                	andi	a5,a5,1
   16710:	8fc5                	or	a5,a5,s1
   16712:	00fbb423          	sd	a5,8(s7)
   16716:	cb1fa0ef          	jal	113c6 <__malloc_unlock>
   1671a:	6b42                	ld	s6,16(sp)
   1671c:	6ba2                	ld	s7,8(sp)
   1671e:	6c02                	ld	s8,0(sp)
   16720:	b5d9                	j	165e6 <_realloc_r+0x108>
   16722:	6014                	ld	a3,0(s0)
   16724:	03700713          	li	a4,55
   16728:	e114                	sd	a3,0(a0)
   1672a:	6414                	ld	a3,8(s0)
   1672c:	e514                	sd	a3,8(a0)
   1672e:	0cc76e63          	bltu	a4,a2,1680a <_realloc_r+0x32c>
   16732:	01040713          	addi	a4,s0,16
   16736:	01050793          	addi	a5,a0,16
   1673a:	bdbd                	j	165b8 <_realloc_r+0xda>
   1673c:	ff853783          	ld	a5,-8(a0)
   16740:	6c02                	ld	s8,0(sp)
   16742:	9bf1                	andi	a5,a5,-4
   16744:	9a3e                	add	s4,s4,a5
   16746:	b5c1                	j	16606 <_realloc_r+0x128>
   16748:	018bb703          	ld	a4,24(s7)
   1674c:	010bb683          	ld	a3,16(s7)
   16750:	ff8a0613          	addi	a2,s4,-8
   16754:	04800593          	li	a1,72
   16758:	ee98                	sd	a4,24(a3)
   1675a:	eb14                	sd	a3,16(a4)
   1675c:	010b8913          	addi	s2,s7,16
   16760:	0ac5e063          	bltu	a1,a2,16800 <_realloc_r+0x322>
   16764:	02700693          	li	a3,39
   16768:	874a                	mv	a4,s2
   1676a:	00c6ff63          	bgeu	a3,a2,16788 <_realloc_r+0x2aa>
   1676e:	6018                	ld	a4,0(s0)
   16770:	03700793          	li	a5,55
   16774:	00ebb823          	sd	a4,16(s7)
   16778:	6418                	ld	a4,8(s0)
   1677a:	00ebbc23          	sd	a4,24(s7)
   1677e:	0cc7e663          	bltu	a5,a2,1684a <_realloc_r+0x36c>
   16782:	0441                	addi	s0,s0,16
   16784:	020b8713          	addi	a4,s7,32
   16788:	6014                	ld	a3,0(s0)
   1678a:	e314                	sd	a3,0(a4)
   1678c:	6414                	ld	a3,8(s0)
   1678e:	e714                	sd	a3,8(a4)
   16790:	6814                	ld	a3,16(s0)
   16792:	eb14                	sd	a3,16(a4)
   16794:	8a5a                	mv	s4,s6
   16796:	8ade                	mv	s5,s7
   16798:	6b42                	ld	s6,16(sp)
   1679a:	6ba2                	ld	s7,8(sp)
   1679c:	6c02                	ld	s8,0(sp)
   1679e:	844a                	mv	s0,s2
   167a0:	b59d                	j	16606 <_realloc_r+0x128>
   167a2:	85a2                	mv	a1,s0
   167a4:	ec6fd0ef          	jal	13e6a <memmove>
   167a8:	bd31                	j	165c4 <_realloc_r+0xe6>
   167aa:	6e9c                	ld	a5,24(a3)
   167ac:	6a98                	ld	a4,16(a3)
   167ae:	ff8a0613          	addi	a2,s4,-8
   167b2:	04800693          	li	a3,72
   167b6:	ef1c                	sd	a5,24(a4)
   167b8:	eb98                	sd	a4,16(a5)
   167ba:	010bb703          	ld	a4,16(s7)
   167be:	018bb783          	ld	a5,24(s7)
   167c2:	010b8913          	addi	s2,s7,16
   167c6:	ef1c                	sd	a5,24(a4)
   167c8:	eb98                	sd	a4,16(a5)
   167ca:	02c6eb63          	bltu	a3,a2,16800 <_realloc_r+0x322>
   167ce:	02700713          	li	a4,39
   167d2:	87ca                	mv	a5,s2
   167d4:	00c77f63          	bgeu	a4,a2,167f2 <_realloc_r+0x314>
   167d8:	6018                	ld	a4,0(s0)
   167da:	03700793          	li	a5,55
   167de:	00ebb823          	sd	a4,16(s7)
   167e2:	6418                	ld	a4,8(s0)
   167e4:	00ebbc23          	sd	a4,24(s7)
   167e8:	08c7ec63          	bltu	a5,a2,16880 <_realloc_r+0x3a2>
   167ec:	0441                	addi	s0,s0,16
   167ee:	020b8793          	addi	a5,s7,32
   167f2:	6018                	ld	a4,0(s0)
   167f4:	e398                	sd	a4,0(a5)
   167f6:	6418                	ld	a4,8(s0)
   167f8:	e798                	sd	a4,8(a5)
   167fa:	6818                	ld	a4,16(s0)
   167fc:	eb98                	sd	a4,16(a5)
   167fe:	bf59                	j	16794 <_realloc_r+0x2b6>
   16800:	85a2                	mv	a1,s0
   16802:	854a                	mv	a0,s2
   16804:	e66fd0ef          	jal	13e6a <memmove>
   16808:	b771                	j	16794 <_realloc_r+0x2b6>
   1680a:	6818                	ld	a4,16(s0)
   1680c:	e918                	sd	a4,16(a0)
   1680e:	6c18                	ld	a4,24(s0)
   16810:	ed18                	sd	a4,24(a0)
   16812:	04f60e63          	beq	a2,a5,1686e <_realloc_r+0x390>
   16816:	02040713          	addi	a4,s0,32
   1681a:	02050793          	addi	a5,a0,32
   1681e:	bb69                	j	165b8 <_realloc_r+0xda>
   16820:	9aa6                	add	s5,s5,s1
   16822:	409687b3          	sub	a5,a3,s1
   16826:	015c3823          	sd	s5,16(s8)
   1682a:	0017e793          	ori	a5,a5,1
   1682e:	00fab423          	sd	a5,8(s5)
   16832:	ff843783          	ld	a5,-8(s0)
   16836:	854e                	mv	a0,s3
   16838:	8922                	mv	s2,s0
   1683a:	8b85                	andi	a5,a5,1
   1683c:	8fc5                	or	a5,a5,s1
   1683e:	fef43c23          	sd	a5,-8(s0)
   16842:	b85fa0ef          	jal	113c6 <__malloc_unlock>
   16846:	6c02                	ld	s8,0(sp)
   16848:	bb79                	j	165e6 <_realloc_r+0x108>
   1684a:	681c                	ld	a5,16(s0)
   1684c:	02fbb023          	sd	a5,32(s7)
   16850:	6c1c                	ld	a5,24(s0)
   16852:	02fbb423          	sd	a5,40(s7)
   16856:	04b60963          	beq	a2,a1,168a8 <_realloc_r+0x3ca>
   1685a:	02040413          	addi	s0,s0,32
   1685e:	030b8713          	addi	a4,s7,48
   16862:	b71d                	j	16788 <_realloc_r+0x2aa>
   16864:	854e                	mv	a0,s3
   16866:	b61fa0ef          	jal	113c6 <__malloc_unlock>
   1686a:	6c02                	ld	s8,0(sp)
   1686c:	bba5                	j	165e4 <_realloc_r+0x106>
   1686e:	7014                	ld	a3,32(s0)
   16870:	03040713          	addi	a4,s0,48
   16874:	03050793          	addi	a5,a0,48
   16878:	f114                	sd	a3,32(a0)
   1687a:	7414                	ld	a3,40(s0)
   1687c:	f514                	sd	a3,40(a0)
   1687e:	bb2d                	j	165b8 <_realloc_r+0xda>
   16880:	6818                	ld	a4,16(s0)
   16882:	04800793          	li	a5,72
   16886:	02ebb023          	sd	a4,32(s7)
   1688a:	6c18                	ld	a4,24(s0)
   1688c:	02ebb423          	sd	a4,40(s7)
   16890:	04f60563          	beq	a2,a5,168da <_realloc_r+0x3fc>
   16894:	02040413          	addi	s0,s0,32
   16898:	030b8793          	addi	a5,s7,48
   1689c:	bf99                	j	167f2 <_realloc_r+0x314>
   1689e:	85a2                	mv	a1,s0
   168a0:	854a                	mv	a0,s2
   168a2:	dc8fd0ef          	jal	13e6a <memmove>
   168a6:	bd81                	j	166f6 <_realloc_r+0x218>
   168a8:	701c                	ld	a5,32(s0)
   168aa:	040b8713          	addi	a4,s7,64
   168ae:	03040413          	addi	s0,s0,48
   168b2:	02fbb823          	sd	a5,48(s7)
   168b6:	ff843783          	ld	a5,-8(s0)
   168ba:	02fbbc23          	sd	a5,56(s7)
   168be:	b5e9                	j	16788 <_realloc_r+0x2aa>
   168c0:	681c                	ld	a5,16(s0)
   168c2:	02fbb023          	sd	a5,32(s7)
   168c6:	6c1c                	ld	a5,24(s0)
   168c8:	02fbb423          	sd	a5,40(s7)
   168cc:	02d60363          	beq	a2,a3,168f2 <_realloc_r+0x414>
   168d0:	02040413          	addi	s0,s0,32
   168d4:	030b8793          	addi	a5,s7,48
   168d8:	bd09                	j	166ea <_realloc_r+0x20c>
   168da:	7018                	ld	a4,32(s0)
   168dc:	040b8793          	addi	a5,s7,64
   168e0:	03040413          	addi	s0,s0,48
   168e4:	02ebb823          	sd	a4,48(s7)
   168e8:	ff843703          	ld	a4,-8(s0)
   168ec:	02ebbc23          	sd	a4,56(s7)
   168f0:	b709                	j	167f2 <_realloc_r+0x314>
   168f2:	7018                	ld	a4,32(s0)
   168f4:	040b8793          	addi	a5,s7,64
   168f8:	03040413          	addi	s0,s0,48
   168fc:	02ebb823          	sd	a4,48(s7)
   16900:	ff843703          	ld	a4,-8(s0)
   16904:	02ebbc23          	sd	a4,56(s7)
   16908:	b3cd                	j	166ea <_realloc_r+0x20c>

000000000001690a <__smakebuf_r>:
   1690a:	01059783          	lh	a5,16(a1)
   1690e:	7175                	addi	sp,sp,-144
   16910:	e122                	sd	s0,128(sp)
   16912:	e506                	sd	ra,136(sp)
   16914:	0027f713          	andi	a4,a5,2
   16918:	842e                	mv	s0,a1
   1691a:	cb19                	beqz	a4,16930 <__smakebuf_r+0x26>
   1691c:	07758793          	addi	a5,a1,119
   16920:	4705                	li	a4,1
   16922:	e19c                	sd	a5,0(a1)
   16924:	ed9c                	sd	a5,24(a1)
   16926:	d198                	sw	a4,32(a1)
   16928:	60aa                	ld	ra,136(sp)
   1692a:	640a                	ld	s0,128(sp)
   1692c:	6149                	addi	sp,sp,144
   1692e:	8082                	ret
   16930:	01259583          	lh	a1,18(a1)
   16934:	fca6                	sd	s1,120(sp)
   16936:	f8ca                	sd	s2,112(sp)
   16938:	84aa                	mv	s1,a0
   1693a:	0605c063          	bltz	a1,1699a <__smakebuf_r+0x90>
   1693e:	0030                	addi	a2,sp,8
   16940:	1f2000ef          	jal	16b32 <_fstat_r>
   16944:	04054963          	bltz	a0,16996 <__smakebuf_r+0x8c>
   16948:	40000593          	li	a1,1024
   1694c:	8526                	mv	a0,s1
   1694e:	4932                	lw	s2,12(sp)
   16950:	c48fa0ef          	jal	10d98 <_malloc_r>
   16954:	01041783          	lh	a5,16(s0)
   16958:	c141                	beqz	a0,169d8 <__smakebuf_r+0xce>
   1695a:	673d                	lui	a4,0xf
   1695c:	0807e793          	ori	a5,a5,128
   16960:	40000693          	li	a3,1024
   16964:	00e97933          	and	s2,s2,a4
   16968:	00f41823          	sh	a5,16(s0)
   1696c:	e008                	sd	a0,0(s0)
   1696e:	ec08                	sd	a0,24(s0)
   16970:	d014                	sw	a3,32(s0)
   16972:	6709                	lui	a4,0x2
   16974:	08e91663          	bne	s2,a4,16a00 <__smakebuf_r+0xf6>
   16978:	01241583          	lh	a1,18(s0)
   1697c:	8526                	mv	a0,s1
   1697e:	1ee000ef          	jal	16b6c <_isatty_r>
   16982:	6705                	lui	a4,0x1
   16984:	01041783          	lh	a5,16(s0)
   16988:	80070713          	addi	a4,a4,-2048 # 800 <exit-0xf920>
   1698c:	c915                	beqz	a0,169c0 <__smakebuf_r+0xb6>
   1698e:	9bf1                	andi	a5,a5,-4
   16990:	0017e793          	ori	a5,a5,1
   16994:	a035                	j	169c0 <__smakebuf_r+0xb6>
   16996:	01041783          	lh	a5,16(s0)
   1699a:	0807f793          	andi	a5,a5,128
   1699e:	40000913          	li	s2,1024
   169a2:	eb85                	bnez	a5,169d2 <__smakebuf_r+0xc8>
   169a4:	8526                	mv	a0,s1
   169a6:	85ca                	mv	a1,s2
   169a8:	bf0fa0ef          	jal	10d98 <_malloc_r>
   169ac:	01041783          	lh	a5,16(s0)
   169b0:	c505                	beqz	a0,169d8 <__smakebuf_r+0xce>
   169b2:	0807e793          	ori	a5,a5,128
   169b6:	e008                	sd	a0,0(s0)
   169b8:	ec08                	sd	a0,24(s0)
   169ba:	03242023          	sw	s2,32(s0)
   169be:	4701                	li	a4,0
   169c0:	8fd9                	or	a5,a5,a4
   169c2:	60aa                	ld	ra,136(sp)
   169c4:	00f41823          	sh	a5,16(s0)
   169c8:	640a                	ld	s0,128(sp)
   169ca:	74e6                	ld	s1,120(sp)
   169cc:	7946                	ld	s2,112(sp)
   169ce:	6149                	addi	sp,sp,144
   169d0:	8082                	ret
   169d2:	04000913          	li	s2,64
   169d6:	b7f9                	j	169a4 <__smakebuf_r+0x9a>
   169d8:	2007f713          	andi	a4,a5,512
   169dc:	ef19                	bnez	a4,169fa <__smakebuf_r+0xf0>
   169de:	9bf1                	andi	a5,a5,-4
   169e0:	07740713          	addi	a4,s0,119
   169e4:	0027e793          	ori	a5,a5,2
   169e8:	4685                	li	a3,1
   169ea:	74e6                	ld	s1,120(sp)
   169ec:	7946                	ld	s2,112(sp)
   169ee:	00f41823          	sh	a5,16(s0)
   169f2:	e018                	sd	a4,0(s0)
   169f4:	ec18                	sd	a4,24(s0)
   169f6:	d014                	sw	a3,32(s0)
   169f8:	bf05                	j	16928 <__smakebuf_r+0x1e>
   169fa:	74e6                	ld	s1,120(sp)
   169fc:	7946                	ld	s2,112(sp)
   169fe:	b72d                	j	16928 <__smakebuf_r+0x1e>
   16a00:	6705                	lui	a4,0x1
   16a02:	80070713          	addi	a4,a4,-2048 # 800 <exit-0xf920>
   16a06:	bf6d                	j	169c0 <__smakebuf_r+0xb6>

0000000000016a08 <__swhatbuf_r>:
   16a08:	7175                	addi	sp,sp,-144
   16a0a:	e122                	sd	s0,128(sp)
   16a0c:	842e                	mv	s0,a1
   16a0e:	01259583          	lh	a1,18(a1)
   16a12:	fca6                	sd	s1,120(sp)
   16a14:	f8ca                	sd	s2,112(sp)
   16a16:	e506                	sd	ra,136(sp)
   16a18:	84b2                	mv	s1,a2
   16a1a:	8936                	mv	s2,a3
   16a1c:	0205cc63          	bltz	a1,16a54 <__swhatbuf_r+0x4c>
   16a20:	0030                	addi	a2,sp,8
   16a22:	110000ef          	jal	16b32 <_fstat_r>
   16a26:	02054763          	bltz	a0,16a54 <__swhatbuf_r+0x4c>
   16a2a:	47b2                	lw	a5,12(sp)
   16a2c:	66bd                	lui	a3,0xf
   16a2e:	6709                	lui	a4,0x2
   16a30:	8ff5                	and	a5,a5,a3
   16a32:	8f99                	sub	a5,a5,a4
   16a34:	60aa                	ld	ra,136(sp)
   16a36:	640a                	ld	s0,128(sp)
   16a38:	0017b793          	seqz	a5,a5
   16a3c:	00f92023          	sw	a5,0(s2)
   16a40:	40000713          	li	a4,1024
   16a44:	e098                	sd	a4,0(s1)
   16a46:	6505                	lui	a0,0x1
   16a48:	74e6                	ld	s1,120(sp)
   16a4a:	7946                	ld	s2,112(sp)
   16a4c:	80050513          	addi	a0,a0,-2048 # 800 <exit-0xf920>
   16a50:	6149                	addi	sp,sp,144
   16a52:	8082                	ret
   16a54:	01045783          	lhu	a5,16(s0)
   16a58:	0807f793          	andi	a5,a5,128
   16a5c:	cf91                	beqz	a5,16a78 <__swhatbuf_r+0x70>
   16a5e:	60aa                	ld	ra,136(sp)
   16a60:	640a                	ld	s0,128(sp)
   16a62:	4781                	li	a5,0
   16a64:	00f92023          	sw	a5,0(s2)
   16a68:	04000713          	li	a4,64
   16a6c:	e098                	sd	a4,0(s1)
   16a6e:	7946                	ld	s2,112(sp)
   16a70:	74e6                	ld	s1,120(sp)
   16a72:	4501                	li	a0,0
   16a74:	6149                	addi	sp,sp,144
   16a76:	8082                	ret
   16a78:	60aa                	ld	ra,136(sp)
   16a7a:	640a                	ld	s0,128(sp)
   16a7c:	00f92023          	sw	a5,0(s2)
   16a80:	40000713          	li	a4,1024
   16a84:	e098                	sd	a4,0(s1)
   16a86:	7946                	ld	s2,112(sp)
   16a88:	74e6                	ld	s1,120(sp)
   16a8a:	4501                	li	a0,0
   16a8c:	6149                	addi	sp,sp,144
   16a8e:	8082                	ret

0000000000016a90 <_setlocale_r>:
   16a90:	1101                	addi	sp,sp,-32
   16a92:	ec06                	sd	ra,24(sp)
   16a94:	e426                	sd	s1,8(sp)
   16a96:	c215                	beqz	a2,16aba <_setlocale_r+0x2a>
   16a98:	65e5                	lui	a1,0x19
   16a9a:	63058593          	addi	a1,a1,1584 # 19630 <__clzdi2+0x18e>
   16a9e:	8532                	mv	a0,a2
   16aa0:	e822                	sd	s0,16(sp)
   16aa2:	8432                	mv	s0,a2
   16aa4:	0fe000ef          	jal	16ba2 <strcmp>
   16aa8:	64e5                	lui	s1,0x19
   16aaa:	e911                	bnez	a0,16abe <_setlocale_r+0x2e>
   16aac:	6442                	ld	s0,16(sp)
   16aae:	62848513          	addi	a0,s1,1576 # 19628 <__clzdi2+0x186>
   16ab2:	60e2                	ld	ra,24(sp)
   16ab4:	64a2                	ld	s1,8(sp)
   16ab6:	6105                	addi	sp,sp,32
   16ab8:	8082                	ret
   16aba:	64e5                	lui	s1,0x19
   16abc:	bfcd                	j	16aae <_setlocale_r+0x1e>
   16abe:	62848593          	addi	a1,s1,1576 # 19628 <__clzdi2+0x186>
   16ac2:	8522                	mv	a0,s0
   16ac4:	0de000ef          	jal	16ba2 <strcmp>
   16ac8:	d175                	beqz	a0,16aac <_setlocale_r+0x1c>
   16aca:	65e5                	lui	a1,0x19
   16acc:	8522                	mv	a0,s0
   16ace:	54858593          	addi	a1,a1,1352 # 19548 <__clzdi2+0xa6>
   16ad2:	0d0000ef          	jal	16ba2 <strcmp>
   16ad6:	d979                	beqz	a0,16aac <_setlocale_r+0x1c>
   16ad8:	6442                	ld	s0,16(sp)
   16ada:	4501                	li	a0,0
   16adc:	bfd9                	j	16ab2 <_setlocale_r+0x22>

0000000000016ade <__locale_mb_cur_max>:
   16ade:	1481c503          	lbu	a0,328(gp) # 1b868 <__global_pointer$+0x148>
   16ae2:	8082                	ret

0000000000016ae4 <setlocale>:
   16ae4:	1101                	addi	sp,sp,-32
   16ae6:	ec06                	sd	ra,24(sp)
   16ae8:	e426                	sd	s1,8(sp)
   16aea:	c195                	beqz	a1,16b0e <setlocale+0x2a>
   16aec:	e822                	sd	s0,16(sp)
   16aee:	842e                	mv	s0,a1
   16af0:	65e5                	lui	a1,0x19
   16af2:	63058593          	addi	a1,a1,1584 # 19630 <__clzdi2+0x18e>
   16af6:	8522                	mv	a0,s0
   16af8:	0aa000ef          	jal	16ba2 <strcmp>
   16afc:	64e5                	lui	s1,0x19
   16afe:	e911                	bnez	a0,16b12 <setlocale+0x2e>
   16b00:	6442                	ld	s0,16(sp)
   16b02:	62848513          	addi	a0,s1,1576 # 19628 <__clzdi2+0x186>
   16b06:	60e2                	ld	ra,24(sp)
   16b08:	64a2                	ld	s1,8(sp)
   16b0a:	6105                	addi	sp,sp,32
   16b0c:	8082                	ret
   16b0e:	64e5                	lui	s1,0x19
   16b10:	bfcd                	j	16b02 <setlocale+0x1e>
   16b12:	62848593          	addi	a1,s1,1576 # 19628 <__clzdi2+0x186>
   16b16:	8522                	mv	a0,s0
   16b18:	08a000ef          	jal	16ba2 <strcmp>
   16b1c:	d175                	beqz	a0,16b00 <setlocale+0x1c>
   16b1e:	65e5                	lui	a1,0x19
   16b20:	8522                	mv	a0,s0
   16b22:	54858593          	addi	a1,a1,1352 # 19548 <__clzdi2+0xa6>
   16b26:	07c000ef          	jal	16ba2 <strcmp>
   16b2a:	d979                	beqz	a0,16b00 <setlocale+0x1c>
   16b2c:	6442                	ld	s0,16(sp)
   16b2e:	4501                	li	a0,0
   16b30:	bfd9                	j	16b06 <setlocale+0x22>

0000000000016b32 <_fstat_r>:
   16b32:	1101                	addi	sp,sp,-32
   16b34:	872e                	mv	a4,a1
   16b36:	e822                	sd	s0,16(sp)
   16b38:	e426                	sd	s1,8(sp)
   16b3a:	85b2                	mv	a1,a2
   16b3c:	842a                	mv	s0,a0
   16b3e:	853a                	mv	a0,a4
   16b40:	ec06                	sd	ra,24(sp)
   16b42:	2401a023          	sw	zero,576(gp) # 1b960 <errno>
   16b46:	58e010ef          	jal	180d4 <_fstat>
   16b4a:	57fd                	li	a5,-1
   16b4c:	00f50763          	beq	a0,a5,16b5a <_fstat_r+0x28>
   16b50:	60e2                	ld	ra,24(sp)
   16b52:	6442                	ld	s0,16(sp)
   16b54:	64a2                	ld	s1,8(sp)
   16b56:	6105                	addi	sp,sp,32
   16b58:	8082                	ret
   16b5a:	2401a783          	lw	a5,576(gp) # 1b960 <errno>
   16b5e:	dbed                	beqz	a5,16b50 <_fstat_r+0x1e>
   16b60:	60e2                	ld	ra,24(sp)
   16b62:	c01c                	sw	a5,0(s0)
   16b64:	6442                	ld	s0,16(sp)
   16b66:	64a2                	ld	s1,8(sp)
   16b68:	6105                	addi	sp,sp,32
   16b6a:	8082                	ret

0000000000016b6c <_isatty_r>:
   16b6c:	1101                	addi	sp,sp,-32
   16b6e:	e822                	sd	s0,16(sp)
   16b70:	e426                	sd	s1,8(sp)
   16b72:	842a                	mv	s0,a0
   16b74:	852e                	mv	a0,a1
   16b76:	ec06                	sd	ra,24(sp)
   16b78:	2401a023          	sw	zero,576(gp) # 1b960 <errno>
   16b7c:	59c010ef          	jal	18118 <_isatty>
   16b80:	57fd                	li	a5,-1
   16b82:	00f50763          	beq	a0,a5,16b90 <_isatty_r+0x24>
   16b86:	60e2                	ld	ra,24(sp)
   16b88:	6442                	ld	s0,16(sp)
   16b8a:	64a2                	ld	s1,8(sp)
   16b8c:	6105                	addi	sp,sp,32
   16b8e:	8082                	ret
   16b90:	2401a783          	lw	a5,576(gp) # 1b960 <errno>
   16b94:	dbed                	beqz	a5,16b86 <_isatty_r+0x1a>
   16b96:	60e2                	ld	ra,24(sp)
   16b98:	c01c                	sw	a5,0(s0)
   16b9a:	6442                	ld	s0,16(sp)
   16b9c:	64a2                	ld	s1,8(sp)
   16b9e:	6105                	addi	sp,sp,32
   16ba0:	8082                	ret

0000000000016ba2 <strcmp>:
   16ba2:	00b56733          	or	a4,a0,a1
   16ba6:	53fd                	li	t2,-1
   16ba8:	8b1d                	andi	a4,a4,7
   16baa:	eb4d                	bnez	a4,16c5c <strcmp+0xba>
   16bac:	00005797          	auipc	a5,0x5
   16bb0:	d6c7b783          	ld	a5,-660(a5) # 1b918 <mask>
   16bb4:	6110                	ld	a2,0(a0)
   16bb6:	6194                	ld	a3,0(a1)
   16bb8:	00f672b3          	and	t0,a2,a5
   16bbc:	00f66333          	or	t1,a2,a5
   16bc0:	92be                	add	t0,t0,a5
   16bc2:	0062e2b3          	or	t0,t0,t1
   16bc6:	0a729963          	bne	t0,t2,16c78 <strcmp+0xd6>
   16bca:	02d61e63          	bne	a2,a3,16c06 <strcmp+0x64>
   16bce:	6510                	ld	a2,8(a0)
   16bd0:	6594                	ld	a3,8(a1)
   16bd2:	00f672b3          	and	t0,a2,a5
   16bd6:	00f66333          	or	t1,a2,a5
   16bda:	92be                	add	t0,t0,a5
   16bdc:	0062e2b3          	or	t0,t0,t1
   16be0:	08729a63          	bne	t0,t2,16c74 <strcmp+0xd2>
   16be4:	02d61163          	bne	a2,a3,16c06 <strcmp+0x64>
   16be8:	6910                	ld	a2,16(a0)
   16bea:	6994                	ld	a3,16(a1)
   16bec:	00f672b3          	and	t0,a2,a5
   16bf0:	00f66333          	or	t1,a2,a5
   16bf4:	92be                	add	t0,t0,a5
   16bf6:	0062e2b3          	or	t0,t0,t1
   16bfa:	08729363          	bne	t0,t2,16c80 <strcmp+0xde>
   16bfe:	0561                	addi	a0,a0,24
   16c00:	05e1                	addi	a1,a1,24
   16c02:	fad609e3          	beq	a2,a3,16bb4 <strcmp+0x12>
   16c06:	03061713          	slli	a4,a2,0x30
   16c0a:	03069793          	slli	a5,a3,0x30
   16c0e:	02f71863          	bne	a4,a5,16c3e <strcmp+0x9c>
   16c12:	02061713          	slli	a4,a2,0x20
   16c16:	02069793          	slli	a5,a3,0x20
   16c1a:	02f71263          	bne	a4,a5,16c3e <strcmp+0x9c>
   16c1e:	01061713          	slli	a4,a2,0x10
   16c22:	01069793          	slli	a5,a3,0x10
   16c26:	00f71c63          	bne	a4,a5,16c3e <strcmp+0x9c>
   16c2a:	03065713          	srli	a4,a2,0x30
   16c2e:	0306d793          	srli	a5,a3,0x30
   16c32:	40f70533          	sub	a0,a4,a5
   16c36:	0ff57593          	zext.b	a1,a0
   16c3a:	e991                	bnez	a1,16c4e <strcmp+0xac>
   16c3c:	8082                	ret
   16c3e:	9341                	srli	a4,a4,0x30
   16c40:	93c1                	srli	a5,a5,0x30
   16c42:	40f70533          	sub	a0,a4,a5
   16c46:	0ff57593          	zext.b	a1,a0
   16c4a:	e191                	bnez	a1,16c4e <strcmp+0xac>
   16c4c:	8082                	ret
   16c4e:	0ff77713          	zext.b	a4,a4
   16c52:	0ff7f793          	zext.b	a5,a5
   16c56:	40f70533          	sub	a0,a4,a5
   16c5a:	8082                	ret
   16c5c:	00054603          	lbu	a2,0(a0)
   16c60:	0005c683          	lbu	a3,0(a1)
   16c64:	0505                	addi	a0,a0,1
   16c66:	0585                	addi	a1,a1,1
   16c68:	00d61363          	bne	a2,a3,16c6e <strcmp+0xcc>
   16c6c:	fa65                	bnez	a2,16c5c <strcmp+0xba>
   16c6e:	40d60533          	sub	a0,a2,a3
   16c72:	8082                	ret
   16c74:	0521                	addi	a0,a0,8
   16c76:	05a1                	addi	a1,a1,8
   16c78:	fed612e3          	bne	a2,a3,16c5c <strcmp+0xba>
   16c7c:	4501                	li	a0,0
   16c7e:	8082                	ret
   16c80:	0541                	addi	a0,a0,16
   16c82:	05c1                	addi	a1,a1,16
   16c84:	fcd61ce3          	bne	a2,a3,16c5c <strcmp+0xba>
   16c88:	4501                	li	a0,0
   16c8a:	8082                	ret

0000000000016c8c <__assert_func>:
   16c8c:	2201b783          	ld	a5,544(gp) # 1b940 <_impure_ptr>
   16c90:	1141                	addi	sp,sp,-16
   16c92:	8832                	mv	a6,a2
   16c94:	e406                	sd	ra,8(sp)
   16c96:	8636                	mv	a2,a3
   16c98:	872e                	mv	a4,a1
   16c9a:	86aa                	mv	a3,a0
   16c9c:	6f88                	ld	a0,24(a5)
   16c9e:	00080c63          	beqz	a6,16cb6 <__assert_func+0x2a>
   16ca2:	67e5                	lui	a5,0x19
   16ca4:	64078793          	addi	a5,a5,1600 # 19640 <__clzdi2+0x19e>
   16ca8:	65e5                	lui	a1,0x19
   16caa:	65058593          	addi	a1,a1,1616 # 19650 <__clzdi2+0x1ae>
   16cae:	158000ef          	jal	16e06 <fiprintf>
   16cb2:	04a010ef          	jal	17cfc <abort>
   16cb6:	6865                	lui	a6,0x19
   16cb8:	54880793          	addi	a5,a6,1352 # 19548 <__clzdi2+0xa6>
   16cbc:	54880813          	addi	a6,a6,1352
   16cc0:	b7e5                	j	16ca8 <__assert_func+0x1c>

0000000000016cc2 <__assert>:
   16cc2:	1141                	addi	sp,sp,-16
   16cc4:	86b2                	mv	a3,a2
   16cc6:	4601                	li	a2,0
   16cc8:	e406                	sd	ra,8(sp)
   16cca:	fc3ff0ef          	jal	16c8c <__assert_func>

0000000000016cce <_calloc_r>:
   16cce:	02c5b7b3          	mulhu	a5,a1,a2
   16cd2:	1141                	addi	sp,sp,-16
   16cd4:	e406                	sd	ra,8(sp)
   16cd6:	e022                	sd	s0,0(sp)
   16cd8:	02c585b3          	mul	a1,a1,a2
   16cdc:	efb5                	bnez	a5,16d58 <_calloc_r+0x8a>
   16cde:	8bafa0ef          	jal	10d98 <_malloc_r>
   16ce2:	842a                	mv	s0,a0
   16ce4:	cd35                	beqz	a0,16d60 <_calloc_r+0x92>
   16ce6:	ff853603          	ld	a2,-8(a0)
   16cea:	04800713          	li	a4,72
   16cee:	9a71                	andi	a2,a2,-4
   16cf0:	1661                	addi	a2,a2,-8
   16cf2:	04c76263          	bltu	a4,a2,16d36 <_calloc_r+0x68>
   16cf6:	02700693          	li	a3,39
   16cfa:	87aa                	mv	a5,a0
   16cfc:	02c6f263          	bgeu	a3,a2,16d20 <_calloc_r+0x52>
   16d00:	00053023          	sd	zero,0(a0)
   16d04:	00053423          	sd	zero,8(a0)
   16d08:	03700793          	li	a5,55
   16d0c:	02c7fd63          	bgeu	a5,a2,16d46 <_calloc_r+0x78>
   16d10:	00053823          	sd	zero,16(a0)
   16d14:	00053c23          	sd	zero,24(a0)
   16d18:	02050793          	addi	a5,a0,32
   16d1c:	04e60863          	beq	a2,a4,16d6c <_calloc_r+0x9e>
   16d20:	0007b023          	sd	zero,0(a5)
   16d24:	0007b423          	sd	zero,8(a5)
   16d28:	0007b823          	sd	zero,16(a5)
   16d2c:	60a2                	ld	ra,8(sp)
   16d2e:	8522                	mv	a0,s0
   16d30:	6402                	ld	s0,0(sp)
   16d32:	0141                	addi	sp,sp,16
   16d34:	8082                	ret
   16d36:	4581                	li	a1,0
   16d38:	bcff90ef          	jal	10906 <memset>
   16d3c:	60a2                	ld	ra,8(sp)
   16d3e:	8522                	mv	a0,s0
   16d40:	6402                	ld	s0,0(sp)
   16d42:	0141                	addi	sp,sp,16
   16d44:	8082                	ret
   16d46:	01050793          	addi	a5,a0,16
   16d4a:	0007b023          	sd	zero,0(a5)
   16d4e:	0007b423          	sd	zero,8(a5)
   16d52:	0007b823          	sd	zero,16(a5)
   16d56:	bfd9                	j	16d2c <_calloc_r+0x5e>
   16d58:	79f000ef          	jal	17cf6 <__errno>
   16d5c:	47b1                	li	a5,12
   16d5e:	c11c                	sw	a5,0(a0)
   16d60:	4401                	li	s0,0
   16d62:	60a2                	ld	ra,8(sp)
   16d64:	8522                	mv	a0,s0
   16d66:	6402                	ld	s0,0(sp)
   16d68:	0141                	addi	sp,sp,16
   16d6a:	8082                	ret
   16d6c:	02053023          	sd	zero,32(a0)
   16d70:	02053423          	sd	zero,40(a0)
   16d74:	03050793          	addi	a5,a0,48
   16d78:	b765                	j	16d20 <_calloc_r+0x52>

0000000000016d7a <_mbtowc_r>:
   16d7a:	0d01b783          	ld	a5,208(gp) # 1b7f0 <__global_pointer$+0xd0>
   16d7e:	8782                	jr	a5

0000000000016d80 <__ascii_mbtowc>:
   16d80:	c999                	beqz	a1,16d96 <__ascii_mbtowc+0x16>
   16d82:	c61d                	beqz	a2,16db0 <__ascii_mbtowc+0x30>
   16d84:	ca95                	beqz	a3,16db8 <__ascii_mbtowc+0x38>
   16d86:	00064783          	lbu	a5,0(a2)
   16d8a:	c19c                	sw	a5,0(a1)
   16d8c:	00064503          	lbu	a0,0(a2)
   16d90:	00a03533          	snez	a0,a0
   16d94:	8082                	ret
   16d96:	1141                	addi	sp,sp,-16
   16d98:	006c                	addi	a1,sp,12
   16d9a:	ce09                	beqz	a2,16db4 <__ascii_mbtowc+0x34>
   16d9c:	c285                	beqz	a3,16dbc <__ascii_mbtowc+0x3c>
   16d9e:	00064783          	lbu	a5,0(a2)
   16da2:	c19c                	sw	a5,0(a1)
   16da4:	00064503          	lbu	a0,0(a2)
   16da8:	00a03533          	snez	a0,a0
   16dac:	0141                	addi	sp,sp,16
   16dae:	8082                	ret
   16db0:	4501                	li	a0,0
   16db2:	8082                	ret
   16db4:	4501                	li	a0,0
   16db6:	bfdd                	j	16dac <__ascii_mbtowc+0x2c>
   16db8:	5579                	li	a0,-2
   16dba:	8082                	ret
   16dbc:	5579                	li	a0,-2
   16dbe:	b7fd                	j	16dac <__ascii_mbtowc+0x2c>

0000000000016dc0 <_wctomb_r>:
   16dc0:	0c81b783          	ld	a5,200(gp) # 1b7e8 <__global_pointer$+0xc8>
   16dc4:	8782                	jr	a5

0000000000016dc6 <__ascii_wctomb>:
   16dc6:	cd91                	beqz	a1,16de2 <__ascii_wctomb+0x1c>
   16dc8:	0ff00793          	li	a5,255
   16dcc:	00c7e663          	bltu	a5,a2,16dd8 <__ascii_wctomb+0x12>
   16dd0:	00c58023          	sb	a2,0(a1)
   16dd4:	4505                	li	a0,1
   16dd6:	8082                	ret
   16dd8:	08a00793          	li	a5,138
   16ddc:	c11c                	sw	a5,0(a0)
   16dde:	557d                	li	a0,-1
   16de0:	8082                	ret
   16de2:	4501                	li	a0,0
   16de4:	8082                	ret

0000000000016de6 <_fiprintf_r>:
   16de6:	715d                	addi	sp,sp,-80
   16de8:	02810313          	addi	t1,sp,40
   16dec:	f436                	sd	a3,40(sp)
   16dee:	869a                	mv	a3,t1
   16df0:	ec06                	sd	ra,24(sp)
   16df2:	f83a                	sd	a4,48(sp)
   16df4:	fc3e                	sd	a5,56(sp)
   16df6:	e0c2                	sd	a6,64(sp)
   16df8:	e4c6                	sd	a7,72(sp)
   16dfa:	e41a                	sd	t1,8(sp)
   16dfc:	038000ef          	jal	16e34 <_vfiprintf_r>
   16e00:	60e2                	ld	ra,24(sp)
   16e02:	6161                	addi	sp,sp,80
   16e04:	8082                	ret

0000000000016e06 <fiprintf>:
   16e06:	715d                	addi	sp,sp,-80
   16e08:	8eaa                	mv	t4,a0
   16e0a:	2201b503          	ld	a0,544(gp) # 1b940 <_impure_ptr>
   16e0e:	8e2e                	mv	t3,a1
   16e10:	02010313          	addi	t1,sp,32
   16e14:	f032                	sd	a2,32(sp)
   16e16:	f436                	sd	a3,40(sp)
   16e18:	85f6                	mv	a1,t4
   16e1a:	8672                	mv	a2,t3
   16e1c:	869a                	mv	a3,t1
   16e1e:	ec06                	sd	ra,24(sp)
   16e20:	f83a                	sd	a4,48(sp)
   16e22:	fc3e                	sd	a5,56(sp)
   16e24:	e0c2                	sd	a6,64(sp)
   16e26:	e4c6                	sd	a7,72(sp)
   16e28:	e41a                	sd	t1,8(sp)
   16e2a:	00a000ef          	jal	16e34 <_vfiprintf_r>
   16e2e:	60e2                	ld	ra,24(sp)
   16e30:	6161                	addi	sp,sp,80
   16e32:	8082                	ret

0000000000016e34 <_vfiprintf_r>:
   16e34:	7145                	addi	sp,sp,-464
   16e36:	ef56                	sd	s5,408(sp)
   16e38:	eb5a                	sd	s6,400(sp)
   16e3a:	e362                	sd	s8,384(sp)
   16e3c:	faea                	sd	s10,368(sp)
   16e3e:	e786                	sd	ra,456(sp)
   16e40:	8b2a                	mv	s6,a0
   16e42:	8aae                	mv	s5,a1
   16e44:	8d32                	mv	s10,a2
   16e46:	8c36                	mv	s8,a3
   16e48:	c501                	beqz	a0,16e50 <_vfiprintf_r+0x1c>
   16e4a:	6538                	ld	a4,72(a0)
   16e4c:	420705e3          	beqz	a4,17a76 <_vfiprintf_r+0xc42>
   16e50:	010a9703          	lh	a4,16(s5)
   16e54:	0acaa683          	lw	a3,172(s5)
   16e58:	6589                	lui	a1,0x2
   16e5a:	03271613          	slli	a2,a4,0x32
   16e5e:	100649e3          	bltz	a2,17770 <_vfiprintf_r+0x93c>
   16e62:	7679                	lui	a2,0xffffe
   16e64:	8f4d                	or	a4,a4,a1
   16e66:	167d                	addi	a2,a2,-1 # ffffffffffffdfff <__BSS_END__+0xfffffffffffe20df>
   16e68:	8ef1                	and	a3,a3,a2
   16e6a:	00ea9823          	sh	a4,16(s5)
   16e6e:	0107171b          	slliw	a4,a4,0x10
   16e72:	4107571b          	sraiw	a4,a4,0x10
   16e76:	0adaa623          	sw	a3,172(s5)
   16e7a:	00877693          	andi	a3,a4,8
   16e7e:	1e068563          	beqz	a3,17068 <_vfiprintf_r+0x234>
   16e82:	018ab683          	ld	a3,24(s5)
   16e86:	1e068163          	beqz	a3,17068 <_vfiprintf_r+0x234>
   16e8a:	8b69                	andi	a4,a4,26
   16e8c:	46a9                	li	a3,10
   16e8e:	1ed70963          	beq	a4,a3,17080 <_vfiprintf_r+0x24c>
   16e92:	e75e                	sd	s7,392(sp)
   16e94:	0e010b93          	addi	s7,sp,224
   16e98:	e3a2                	sd	s0,448(sp)
   16e9a:	f74e                	sd	s3,424(sp)
   16e9c:	f352                	sd	s4,416(sp)
   16e9e:	f6ee                	sd	s11,360(sp)
   16ea0:	ff26                	sd	s1,440(sp)
   16ea2:	fb4a                	sd	s2,432(sp)
   16ea4:	fee6                	sd	s9,376(sp)
   16ea6:	f882                	sd	zero,112(sp)
   16ea8:	d482                	sw	zero,104(sp)
   16eaa:	f0de                	sd	s7,96(sp)
   16eac:	845e                	mv	s0,s7
   16eae:	f802                	sd	zero,48(sp)
   16eb0:	f402                	sd	zero,40(sp)
   16eb2:	fc02                	sd	zero,56(sp)
   16eb4:	e402                	sd	zero,8(sp)
   16eb6:	02500d93          	li	s11,37
   16eba:	4a1d                	li	s4,7
   16ebc:	49c1                	li	s3,16
   16ebe:	000d4783          	lbu	a5,0(s10)
   16ec2:	16078463          	beqz	a5,1702a <_vfiprintf_r+0x1f6>
   16ec6:	84ea                	mv	s1,s10
   16ec8:	1db78c63          	beq	a5,s11,170a0 <_vfiprintf_r+0x26c>
   16ecc:	0014c783          	lbu	a5,1(s1)
   16ed0:	0485                	addi	s1,s1,1
   16ed2:	fbfd                	bnez	a5,16ec8 <_vfiprintf_r+0x94>
   16ed4:	41a48cbb          	subw	s9,s1,s10
   16ed8:	140c8963          	beqz	s9,1702a <_vfiprintf_r+0x1f6>
   16edc:	7746                	ld	a4,112(sp)
   16ede:	57a6                	lw	a5,104(sp)
   16ee0:	01a43023          	sd	s10,0(s0)
   16ee4:	9766                	add	a4,a4,s9
   16ee6:	2785                	addiw	a5,a5,1
   16ee8:	01943423          	sd	s9,8(s0)
   16eec:	f8ba                	sd	a4,112(sp)
   16eee:	d4be                	sw	a5,104(sp)
   16ef0:	0441                	addi	s0,s0,16
   16ef2:	1afa4e63          	blt	s4,a5,170ae <_vfiprintf_r+0x27a>
   16ef6:	6722                	ld	a4,8(sp)
   16ef8:	0004c783          	lbu	a5,0(s1)
   16efc:	0197073b          	addw	a4,a4,s9
   16f00:	e43a                	sd	a4,8(sp)
   16f02:	12078463          	beqz	a5,1702a <_vfiprintf_r+0x1f6>
   16f06:	0014c783          	lbu	a5,1(s1)
   16f0a:	00148d13          	addi	s10,s1,1
   16f0e:	04010ba3          	sb	zero,87(sp)
   16f12:	54fd                	li	s1,-1
   16f14:	4801                	li	a6,0
   16f16:	4c81                	li	s9,0
   16f18:	05a00913          	li	s2,90
   16f1c:	0d05                	addi	s10,s10,1
   16f1e:	2781                	sext.w	a5,a5
   16f20:	fe07871b          	addiw	a4,a5,-32
   16f24:	04e96563          	bltu	s2,a4,16f6e <_vfiprintf_r+0x13a>
   16f28:	02071693          	slli	a3,a4,0x20
   16f2c:	01e6d713          	srli	a4,a3,0x1e
   16f30:	66e9                	lui	a3,0x1a
   16f32:	a5468693          	addi	a3,a3,-1452 # 19a54 <_ctype_+0x104>
   16f36:	9736                	add	a4,a4,a3
   16f38:	4318                	lw	a4,0(a4)
   16f3a:	8702                	jr	a4
   16f3c:	4801                	li	a6,0
   16f3e:	4625                	li	a2,9
   16f40:	000d4683          	lbu	a3,0(s10)
   16f44:	0028171b          	slliw	a4,a6,0x2
   16f48:	0107083b          	addw	a6,a4,a6
   16f4c:	fd07879b          	addiw	a5,a5,-48
   16f50:	0018181b          	slliw	a6,a6,0x1
   16f54:	fd06871b          	addiw	a4,a3,-48
   16f58:	0d05                	addi	s10,s10,1
   16f5a:	0107883b          	addw	a6,a5,a6
   16f5e:	0006879b          	sext.w	a5,a3
   16f62:	fce67fe3          	bgeu	a2,a4,16f40 <_vfiprintf_r+0x10c>
   16f66:	fe07871b          	addiw	a4,a5,-32
   16f6a:	fae97fe3          	bgeu	s2,a4,16f28 <_vfiprintf_r+0xf4>
   16f6e:	cfd5                	beqz	a5,1702a <_vfiprintf_r+0x1f6>
   16f70:	4305                	li	t1,1
   16f72:	06f10c23          	sb	a5,120(sp)
   16f76:	04010ba3          	sb	zero,87(sp)
   16f7a:	891a                	mv	s2,t1
   16f7c:	4481                	li	s1,0
   16f7e:	07810e13          	addi	t3,sp,120
   16f82:	7646                	ld	a2,112(sp)
   16f84:	56a6                	lw	a3,104(sp)
   16f86:	084cff93          	andi	t6,s9,132
   16f8a:	8732                	mv	a4,a2
   16f8c:	87b6                	mv	a5,a3
   16f8e:	040f9463          	bnez	t6,16fd6 <_vfiprintf_r+0x1a2>
   16f92:	41280ebb          	subw	t4,a6,s2
   16f96:	03d042e3          	bgtz	t4,177ba <_vfiprintf_r+0x986>
   16f9a:	05714683          	lbu	a3,87(sp)
   16f9e:	c2a1                	beqz	a3,16fde <_vfiprintf_r+0x1aa>
   16fa0:	4f81                	li	t6,0
   16fa2:	4f01                	li	t5,0
   16fa4:	0705                	addi	a4,a4,1 # 2001 <exit-0xe11f>
   16fa6:	2785                	addiw	a5,a5,1
   16fa8:	05710613          	addi	a2,sp,87
   16fac:	4685                	li	a3,1
   16fae:	e010                	sd	a2,0(s0)
   16fb0:	e414                	sd	a3,8(s0)
   16fb2:	f8ba                	sd	a4,112(sp)
   16fb4:	d4be                	sw	a5,104(sp)
   16fb6:	0441                	addi	s0,s0,16
   16fb8:	10fa4363          	blt	s4,a5,170be <_vfiprintf_r+0x28a>
   16fbc:	000f0d63          	beqz	t5,16fd6 <_vfiprintf_r+0x1a2>
   16fc0:	0709                	addi	a4,a4,2
   16fc2:	2785                	addiw	a5,a5,1
   16fc4:	08b0                	addi	a2,sp,88
   16fc6:	4689                	li	a3,2
   16fc8:	e010                	sd	a2,0(s0)
   16fca:	e414                	sd	a3,8(s0)
   16fcc:	f8ba                	sd	a4,112(sp)
   16fce:	d4be                	sw	a5,104(sp)
   16fd0:	0441                	addi	s0,s0,16
   16fd2:	6efa4c63          	blt	s4,a5,176ca <_vfiprintf_r+0x896>
   16fd6:	08000693          	li	a3,128
   16fda:	56df8d63          	beq	t6,a3,17554 <_vfiprintf_r+0x720>
   16fde:	406484bb          	subw	s1,s1,t1
   16fe2:	62904063          	bgtz	s1,17602 <_vfiprintf_r+0x7ce>
   16fe6:	971a                	add	a4,a4,t1
   16fe8:	2785                	addiw	a5,a5,1
   16fea:	01c43023          	sd	t3,0(s0)
   16fee:	00643423          	sd	t1,8(s0)
   16ff2:	f8ba                	sd	a4,112(sp)
   16ff4:	d4be                	sw	a5,104(sp)
   16ff6:	0441                	addi	s0,s0,16
   16ff8:	6afa4563          	blt	s4,a5,176a2 <_vfiprintf_r+0x86e>
   16ffc:	004cfc93          	andi	s9,s9,4
   17000:	000c8663          	beqz	s9,1700c <_vfiprintf_r+0x1d8>
   17004:	412804bb          	subw	s1,a6,s2
   17008:	6e904463          	bgtz	s1,176f0 <_vfiprintf_r+0x8bc>
   1700c:	87c2                	mv	a5,a6
   1700e:	01285363          	bge	a6,s2,17014 <_vfiprintf_r+0x1e0>
   17012:	87ca                	mv	a5,s2
   17014:	66a2                	ld	a3,8(sp)
   17016:	9fb5                	addw	a5,a5,a3
   17018:	e43e                	sd	a5,8(sp)
   1701a:	6a071063          	bnez	a4,176ba <_vfiprintf_r+0x886>
   1701e:	000d4783          	lbu	a5,0(s10)
   17022:	d482                	sw	zero,104(sp)
   17024:	845e                	mv	s0,s7
   17026:	ea0790e3          	bnez	a5,16ec6 <_vfiprintf_r+0x92>
   1702a:	77c6                	ld	a5,112(sp)
   1702c:	3c079be3          	bnez	a5,17c02 <_vfiprintf_r+0xdce>
   17030:	010ad783          	lhu	a5,16(s5)
   17034:	641e                	ld	s0,448(sp)
   17036:	74fa                	ld	s1,440(sp)
   17038:	0407f793          	andi	a5,a5,64
   1703c:	795a                	ld	s2,432(sp)
   1703e:	79ba                	ld	s3,424(sp)
   17040:	7a1a                	ld	s4,416(sp)
   17042:	6bba                	ld	s7,392(sp)
   17044:	7cf6                	ld	s9,376(sp)
   17046:	7db6                	ld	s11,360(sp)
   17048:	72079863          	bnez	a5,17778 <_vfiprintf_r+0x944>
   1704c:	60be                	ld	ra,456(sp)
   1704e:	6522                	ld	a0,8(sp)
   17050:	6afa                	ld	s5,408(sp)
   17052:	6b5a                	ld	s6,400(sp)
   17054:	6c1a                	ld	s8,384(sp)
   17056:	7d56                	ld	s10,368(sp)
   17058:	6179                	addi	sp,sp,464
   1705a:	8082                	ret
   1705c:	010cec93          	ori	s9,s9,16
   17060:	000d4783          	lbu	a5,0(s10)
   17064:	2c81                	sext.w	s9,s9
   17066:	bd5d                	j	16f1c <_vfiprintf_r+0xe8>
   17068:	85d6                	mv	a1,s5
   1706a:	855a                	mv	a0,s6
   1706c:	b35fc0ef          	jal	13ba0 <__swsetup_r>
   17070:	70051463          	bnez	a0,17778 <_vfiprintf_r+0x944>
   17074:	010a9703          	lh	a4,16(s5)
   17078:	46a9                	li	a3,10
   1707a:	8b69                	andi	a4,a4,26
   1707c:	e0d71be3          	bne	a4,a3,16e92 <_vfiprintf_r+0x5e>
   17080:	012a9703          	lh	a4,18(s5)
   17084:	e00747e3          	bltz	a4,16e92 <_vfiprintf_r+0x5e>
   17088:	60be                	ld	ra,456(sp)
   1708a:	86e2                	mv	a3,s8
   1708c:	866a                	mv	a2,s10
   1708e:	6c1a                	ld	s8,384(sp)
   17090:	7d56                	ld	s10,368(sp)
   17092:	85d6                	mv	a1,s5
   17094:	855a                	mv	a0,s6
   17096:	6afa                	ld	s5,408(sp)
   17098:	6b5a                	ld	s6,400(sp)
   1709a:	6179                	addi	sp,sp,464
   1709c:	3c50006f          	j	17c60 <__sbprintf>
   170a0:	41a48cbb          	subw	s9,s1,s10
   170a4:	e20c9ce3          	bnez	s9,16edc <_vfiprintf_r+0xa8>
   170a8:	0004c783          	lbu	a5,0(s1)
   170ac:	bd99                	j	16f02 <_vfiprintf_r+0xce>
   170ae:	1090                	addi	a2,sp,96
   170b0:	85d6                	mv	a1,s5
   170b2:	855a                	mv	a0,s6
   170b4:	ca0fc0ef          	jal	13554 <__sprint_r>
   170b8:	fd25                	bnez	a0,17030 <_vfiprintf_r+0x1fc>
   170ba:	845e                	mv	s0,s7
   170bc:	bd2d                	j	16ef6 <_vfiprintf_r+0xc2>
   170be:	1090                	addi	a2,sp,96
   170c0:	85d6                	mv	a1,s5
   170c2:	855a                	mv	a0,s6
   170c4:	e49a                	sd	t1,72(sp)
   170c6:	e0f2                	sd	t3,64(sp)
   170c8:	f07e                	sd	t6,32(sp)
   170ca:	ec7a                	sd	t5,24(sp)
   170cc:	e842                	sd	a6,16(sp)
   170ce:	c86fc0ef          	jal	13554 <__sprint_r>
   170d2:	fd39                	bnez	a0,17030 <_vfiprintf_r+0x1fc>
   170d4:	7746                	ld	a4,112(sp)
   170d6:	57a6                	lw	a5,104(sp)
   170d8:	6326                	ld	t1,72(sp)
   170da:	6e06                	ld	t3,64(sp)
   170dc:	7f82                	ld	t6,32(sp)
   170de:	6f62                	ld	t5,24(sp)
   170e0:	6842                	ld	a6,16(sp)
   170e2:	845e                	mv	s0,s7
   170e4:	bde1                	j	16fbc <_vfiprintf_r+0x188>
   170e6:	020cf793          	andi	a5,s9,32
   170ea:	008c0713          	addi	a4,s8,8
   170ee:	ebed                	bnez	a5,171e0 <_vfiprintf_r+0x3ac>
   170f0:	010cf793          	andi	a5,s9,16
   170f4:	78079563          	bnez	a5,1787e <_vfiprintf_r+0xa4a>
   170f8:	040cf693          	andi	a3,s9,64
   170fc:	000c2783          	lw	a5,0(s8)
   17100:	1c0688e3          	beqz	a3,17ad0 <_vfiprintf_r+0xc9c>
   17104:	0107979b          	slliw	a5,a5,0x10
   17108:	4107d79b          	sraiw	a5,a5,0x10
   1710c:	8c3a                	mv	s8,a4
   1710e:	86be                	mv	a3,a5
   17110:	0c06ce63          	bltz	a3,171ec <_vfiprintf_r+0x3b8>
   17114:	0004c763          	bltz	s1,17122 <_vfiprintf_r+0x2ee>
   17118:	f7fcfc93          	andi	s9,s9,-129
   1711c:	2c81                	sext.w	s9,s9
   1711e:	7a078763          	beqz	a5,178cc <_vfiprintf_r+0xa98>
   17122:	48a5                	li	a7,9
   17124:	0ef8e263          	bltu	a7,a5,17208 <_vfiprintf_r+0x3d4>
   17128:	0307879b          	addiw	a5,a5,48
   1712c:	0ff7f793          	zext.b	a5,a5
   17130:	0cf10da3          	sb	a5,219(sp)
   17134:	87a6                	mv	a5,s1
   17136:	00904363          	bgtz	s1,1713c <_vfiprintf_r+0x308>
   1713a:	4785                	li	a5,1
   1713c:	05714703          	lbu	a4,87(sp)
   17140:	0007891b          	sext.w	s2,a5
   17144:	70070c63          	beqz	a4,1785c <_vfiprintf_r+0xa28>
   17148:	0017891b          	addiw	s2,a5,1
   1714c:	4305                	li	t1,1
   1714e:	0db10e13          	addi	t3,sp,219
   17152:	7746                	ld	a4,112(sp)
   17154:	57a6                	lw	a5,104(sp)
   17156:	084cff93          	andi	t6,s9,132
   1715a:	863a                	mv	a2,a4
   1715c:	86be                	mv	a3,a5
   1715e:	4f01                	li	t5,0
   17160:	e40f92e3          	bnez	t6,16fa4 <_vfiprintf_r+0x170>
   17164:	b53d                	j	16f92 <_vfiprintf_r+0x15e>
   17166:	000c3e03          	ld	t3,0(s8)
   1716a:	04010ba3          	sb	zero,87(sp)
   1716e:	0c21                	addi	s8,s8,8
   17170:	120e07e3          	beqz	t3,17a9e <_vfiprintf_r+0xc6a>
   17174:	ec42                	sd	a6,24(sp)
   17176:	7e04ce63          	bltz	s1,17972 <_vfiprintf_r+0xb3e>
   1717a:	8572                	mv	a0,t3
   1717c:	8626                	mv	a2,s1
   1717e:	4581                	li	a1,0
   17180:	e872                	sd	t3,16(sp)
   17182:	b3dfc0ef          	jal	13cbe <memchr>
   17186:	05714783          	lbu	a5,87(sp)
   1718a:	6e42                	ld	t3,16(sp)
   1718c:	6862                	ld	a6,24(sp)
   1718e:	280501e3          	beqz	a0,17c10 <_vfiprintf_r+0xddc>
   17192:	41c5033b          	subw	t1,a0,t3
   17196:	871a                	mv	a4,t1
   17198:	00035363          	bgez	t1,1719e <_vfiprintf_r+0x36a>
   1719c:	4701                	li	a4,0
   1719e:	0007091b          	sext.w	s2,a4
   171a2:	000780e3          	beqz	a5,179a2 <_vfiprintf_r+0xb6e>
   171a6:	0017091b          	addiw	s2,a4,1
   171aa:	4481                	li	s1,0
   171ac:	b75d                	j	17152 <_vfiprintf_r+0x31e>
   171ae:	000c2783          	lw	a5,0(s8)
   171b2:	4305                	li	t1,1
   171b4:	04010ba3          	sb	zero,87(sp)
   171b8:	06f10c23          	sb	a5,120(sp)
   171bc:	0c21                	addi	s8,s8,8
   171be:	891a                	mv	s2,t1
   171c0:	4481                	li	s1,0
   171c2:	07810e13          	addi	t3,sp,120
   171c6:	bb75                	j	16f82 <_vfiprintf_r+0x14e>
   171c8:	010ce793          	ori	a5,s9,16
   171cc:	020cfc93          	andi	s9,s9,32
   171d0:	2781                	sext.w	a5,a5
   171d2:	008c0713          	addi	a4,s8,8
   171d6:	6a0c8563          	beqz	s9,17880 <_vfiprintf_r+0xa4c>
   171da:	8cbe                	mv	s9,a5
   171dc:	008c0713          	addi	a4,s8,8
   171e0:	000c3683          	ld	a3,0(s8)
   171e4:	8c3a                	mv	s8,a4
   171e6:	87b6                	mv	a5,a3
   171e8:	f206d6e3          	bgez	a3,17114 <_vfiprintf_r+0x2e0>
   171ec:	02d00713          	li	a4,45
   171f0:	04e10ba3          	sb	a4,87(sp)
   171f4:	40f007b3          	neg	a5,a5
   171f8:	f204c5e3          	bltz	s1,17122 <_vfiprintf_r+0x2ee>
   171fc:	f7fcfc93          	andi	s9,s9,-129
   17200:	48a5                	li	a7,9
   17202:	2c81                	sext.w	s9,s9
   17204:	f2f8f2e3          	bgeu	a7,a5,17128 <_vfiprintf_r+0x2f4>
   17208:	ccccd737          	lui	a4,0xccccd
   1720c:	ccd70713          	addi	a4,a4,-819 # ffffffffcccccccd <__BSS_END__+0xffffffffcccb0dad>
   17210:	02071693          	slli	a3,a4,0x20
   17214:	0dc10313          	addi	t1,sp,220
   17218:	7ec2                	ld	t4,48(sp)
   1721a:	96ba                	add	a3,a3,a4
   1721c:	861a                	mv	a2,t1
   1721e:	400cff13          	andi	t5,s9,1024
   17222:	4581                	li	a1,0
   17224:	0ff00913          	li	s2,255
   17228:	a801                	j	17238 <_vfiprintf_r+0x404>
   1722a:	873e                	mv	a4,a5
   1722c:	02d7b7b3          	mulhu	a5,a5,a3
   17230:	8672                	mv	a2,t3
   17232:	838d                	srli	a5,a5,0x3
   17234:	02e8fc63          	bgeu	a7,a4,1726c <_vfiprintf_r+0x438>
   17238:	02d7b533          	mulhu	a0,a5,a3
   1723c:	2585                	addiw	a1,a1,1 # 2001 <exit-0xe11f>
   1723e:	fff60e13          	addi	t3,a2,-1
   17242:	810d                	srli	a0,a0,0x3
   17244:	00251713          	slli	a4,a0,0x2
   17248:	972a                	add	a4,a4,a0
   1724a:	0706                	slli	a4,a4,0x1
   1724c:	40e78733          	sub	a4,a5,a4
   17250:	0307071b          	addiw	a4,a4,48
   17254:	fee60fa3          	sb	a4,-1(a2)
   17258:	fc0f09e3          	beqz	t5,1722a <_vfiprintf_r+0x3f6>
   1725c:	000ec703          	lbu	a4,0(t4)
   17260:	fcb715e3          	bne	a4,a1,1722a <_vfiprintf_r+0x3f6>
   17264:	fd2703e3          	beq	a4,s2,1722a <_vfiprintf_r+0x3f6>
   17268:	0cf8e5e3          	bltu	a7,a5,17b32 <_vfiprintf_r+0xcfe>
   1726c:	f876                	sd	t4,48(sp)
   1726e:	41c3033b          	subw	t1,t1,t3
   17272:	87a6                	mv	a5,s1
   17274:	0064d363          	bge	s1,t1,1727a <_vfiprintf_r+0x446>
   17278:	879a                	mv	a5,t1
   1727a:	05714703          	lbu	a4,87(sp)
   1727e:	0007891b          	sext.w	s2,a5
   17282:	d00700e3          	beqz	a4,16f82 <_vfiprintf_r+0x14e>
   17286:	0017891b          	addiw	s2,a5,1
   1728a:	b5e1                	j	17152 <_vfiprintf_r+0x31e>
   1728c:	000c2803          	lw	a6,0(s8)
   17290:	0c21                	addi	s8,s8,8
   17292:	04085a63          	bgez	a6,172e6 <_vfiprintf_r+0x4b2>
   17296:	4100083b          	negw	a6,a6
   1729a:	004cec93          	ori	s9,s9,4
   1729e:	000d4783          	lbu	a5,0(s10)
   172a2:	2c81                	sext.w	s9,s9
   172a4:	b9a5                	j	16f1c <_vfiprintf_r+0xe8>
   172a6:	020cf793          	andi	a5,s9,32
   172aa:	5c079663          	bnez	a5,17876 <_vfiprintf_r+0xa42>
   172ae:	010cf793          	andi	a5,s9,16
   172b2:	5c079263          	bnez	a5,17876 <_vfiprintf_r+0xa42>
   172b6:	040cf713          	andi	a4,s9,64
   172ba:	000c2783          	lw	a5,0(s8)
   172be:	008c0693          	addi	a3,s8,8
   172c2:	020703e3          	beqz	a4,17ae8 <_vfiprintf_r+0xcb4>
   172c6:	17c2                	slli	a5,a5,0x30
   172c8:	04010ba3          	sb	zero,87(sp)
   172cc:	93c1                	srli	a5,a5,0x30
   172ce:	0004c763          	bltz	s1,172dc <_vfiprintf_r+0x4a8>
   172d2:	f7fcfc93          	andi	s9,s9,-129
   172d6:	2c81                	sext.w	s9,s9
   172d8:	1a078763          	beqz	a5,17486 <_vfiprintf_r+0x652>
   172dc:	8c36                	mv	s8,a3
   172de:	b591                	j	17122 <_vfiprintf_r+0x2ee>
   172e0:	020cec93          	ori	s9,s9,32
   172e4:	2c81                	sext.w	s9,s9
   172e6:	000d4783          	lbu	a5,0(s10)
   172ea:	b90d                	j	16f1c <_vfiprintf_r+0xe8>
   172ec:	67a1                	lui	a5,0x8
   172ee:	83078793          	addi	a5,a5,-2000 # 7830 <exit-0x88f0>
   172f2:	04010ba3          	sb	zero,87(sp)
   172f6:	04f11c23          	sh	a5,88(sp)
   172fa:	000c3703          	ld	a4,0(s8)
   172fe:	008c0613          	addi	a2,s8,8
   17302:	5804c563          	bltz	s1,1788c <_vfiprintf_r+0xa58>
   17306:	f7fcfc93          	andi	s9,s9,-129
   1730a:	2c81                	sext.w	s9,s9
   1730c:	002cec93          	ori	s9,s9,2
   17310:	7a070463          	beqz	a4,17ab8 <_vfiprintf_r+0xc84>
   17314:	66e5                	lui	a3,0x19
   17316:	52068593          	addi	a1,a3,1312 # 19520 <__clzdi2+0x7e>
   1731a:	00f77793          	andi	a5,a4,15
   1731e:	97ae                	add	a5,a5,a1
   17320:	0007c783          	lbu	a5,0(a5)
   17324:	8c32                	mv	s8,a2
   17326:	52068693          	addi	a3,a3,1312
   1732a:	4909                	li	s2,2
   1732c:	0cf10da3          	sb	a5,219(sp)
   17330:	00475793          	srli	a5,a4,0x4
   17334:	100789e3          	beqz	a5,17c46 <_vfiprintf_r+0xe12>
   17338:	0db10e13          	addi	t3,sp,219
   1733c:	00f7f713          	andi	a4,a5,15
   17340:	9736                	add	a4,a4,a3
   17342:	00074703          	lbu	a4,0(a4)
   17346:	8391                	srli	a5,a5,0x4
   17348:	1e7d                	addi	t3,t3,-1
   1734a:	00ee0023          	sb	a4,0(t3)
   1734e:	f7fd                	bnez	a5,1733c <_vfiprintf_r+0x508>
   17350:	0dc10313          	addi	t1,sp,220
   17354:	41c3033b          	subw	t1,t1,t3
   17358:	0004879b          	sext.w	a5,s1
   1735c:	0064d463          	bge	s1,t1,17364 <_vfiprintf_r+0x530>
   17360:	0003079b          	sext.w	a5,t1
   17364:	0c090fe3          	beqz	s2,17c42 <_vfiprintf_r+0xe0e>
   17368:	7646                	ld	a2,112(sp)
   1736a:	56a6                	lw	a3,104(sp)
   1736c:	084cff93          	andi	t6,s9,132
   17370:	0027891b          	addiw	s2,a5,2
   17374:	8732                	mv	a4,a2
   17376:	87b6                	mv	a5,a3
   17378:	c40f94e3          	bnez	t6,16fc0 <_vfiprintf_r+0x18c>
   1737c:	41280ebb          	subw	t4,a6,s2
   17380:	c5d050e3          	blez	t4,16fc0 <_vfiprintf_r+0x18c>
   17384:	4f09                	li	t5,2
   17386:	a91d                	j	177bc <_vfiprintf_r+0x988>
   17388:	020cf793          	andi	a5,s9,32
   1738c:	008c0713          	addi	a4,s8,8
   17390:	4e079563          	bnez	a5,1787a <_vfiprintf_r+0xa46>
   17394:	010cf793          	andi	a5,s9,16
   17398:	4e079163          	bnez	a5,1787a <_vfiprintf_r+0xa46>
   1739c:	040cf693          	andi	a3,s9,64
   173a0:	000c2783          	lw	a5,0(s8)
   173a4:	74068d63          	beqz	a3,17afe <_vfiprintf_r+0xcca>
   173a8:	17c2                	slli	a5,a5,0x30
   173aa:	93c1                	srli	a5,a5,0x30
   173ac:	8c3a                	mv	s8,a4
   173ae:	88e6                	mv	a7,s9
   173b0:	a8a1                	j	17408 <_vfiprintf_r+0x5d4>
   173b2:	020cf793          	andi	a5,s9,32
   173b6:	000c3703          	ld	a4,0(s8)
   173ba:	e38d                	bnez	a5,173dc <_vfiprintf_r+0x5a8>
   173bc:	010cf793          	andi	a5,s9,16
   173c0:	ef91                	bnez	a5,173dc <_vfiprintf_r+0x5a8>
   173c2:	040cf793          	andi	a5,s9,64
   173c6:	020798e3          	bnez	a5,17bf6 <_vfiprintf_r+0xdc2>
   173ca:	200cfc93          	andi	s9,s9,512
   173ce:	67a2                	ld	a5,8(sp)
   173d0:	040c88e3          	beqz	s9,17c20 <_vfiprintf_r+0xdec>
   173d4:	00f70023          	sb	a5,0(a4)
   173d8:	0c21                	addi	s8,s8,8
   173da:	b4d5                	j	16ebe <_vfiprintf_r+0x8a>
   173dc:	67a2                	ld	a5,8(sp)
   173de:	0c21                	addi	s8,s8,8
   173e0:	e31c                	sd	a5,0(a4)
   173e2:	bcf1                	j	16ebe <_vfiprintf_r+0x8a>
   173e4:	000d4783          	lbu	a5,0(s10)
   173e8:	06c00713          	li	a4,108
   173ec:	6ae78163          	beq	a5,a4,17a8e <_vfiprintf_r+0xc5a>
   173f0:	010cec93          	ori	s9,s9,16
   173f4:	2c81                	sext.w	s9,s9
   173f6:	b61d                	j	16f1c <_vfiprintf_r+0xe8>
   173f8:	010ce893          	ori	a7,s9,16
   173fc:	2881                	sext.w	a7,a7
   173fe:	008c0713          	addi	a4,s8,8
   17402:	000c3783          	ld	a5,0(s8)
   17406:	8c3a                	mv	s8,a4
   17408:	04010ba3          	sb	zero,87(sp)
   1740c:	4404c363          	bltz	s1,17852 <_vfiprintf_r+0xa1e>
   17410:	b7f8fc93          	andi	s9,a7,-1153
   17414:	2c81                	sext.w	s9,s9
   17416:	5a078963          	beqz	a5,179c8 <_vfiprintf_r+0xb94>
   1741a:	0dc10313          	addi	t1,sp,220
   1741e:	8e1a                	mv	t3,t1
   17420:	0077f713          	andi	a4,a5,7
   17424:	86f2                	mv	a3,t3
   17426:	03070713          	addi	a4,a4,48
   1742a:	838d                	srli	a5,a5,0x3
   1742c:	feee0fa3          	sb	a4,-1(t3)
   17430:	1e7d                	addi	t3,t3,-1
   17432:	f7fd                	bnez	a5,17420 <_vfiprintf_r+0x5ec>
   17434:	001cf793          	andi	a5,s9,1
   17438:	34079363          	bnez	a5,1777e <_vfiprintf_r+0x94a>
   1743c:	41c3033b          	subw	t1,t1,t3
   17440:	88a6                	mv	a7,s1
   17442:	4264c263          	blt	s1,t1,17866 <_vfiprintf_r+0xa32>
   17446:	0008891b          	sext.w	s2,a7
   1744a:	be25                	j	16f82 <_vfiprintf_r+0x14e>
   1744c:	000d4783          	lbu	a5,0(s10)
   17450:	06800713          	li	a4,104
   17454:	62e78563          	beq	a5,a4,17a7e <_vfiprintf_r+0xc4a>
   17458:	040cec93          	ori	s9,s9,64
   1745c:	2c81                	sext.w	s9,s9
   1745e:	bc7d                	j	16f1c <_vfiprintf_r+0xe8>
   17460:	010ce713          	ori	a4,s9,16
   17464:	2701                	sext.w	a4,a4
   17466:	04010ba3          	sb	zero,87(sp)
   1746a:	008c0693          	addi	a3,s8,8
   1746e:	000c3783          	ld	a5,0(s8)
   17472:	8cba                	mv	s9,a4
   17474:	8c36                	mv	s8,a3
   17476:	ca04c6e3          	bltz	s1,17122 <_vfiprintf_r+0x2ee>
   1747a:	f7f77713          	andi	a4,a4,-129
   1747e:	00070c9b          	sext.w	s9,a4
   17482:	e4079de3          	bnez	a5,172dc <_vfiprintf_r+0x4a8>
   17486:	8c36                	mv	s8,a3
   17488:	5c048763          	beqz	s1,17a56 <_vfiprintf_r+0xc22>
   1748c:	4781                	li	a5,0
   1748e:	b969                	j	17128 <_vfiprintf_r+0x2f4>
   17490:	855a                	mv	a0,s6
   17492:	e842                	sd	a6,16(sp)
   17494:	961fc0ef          	jal	13df4 <_localeconv_r>
   17498:	651c                	ld	a5,8(a0)
   1749a:	853e                	mv	a0,a5
   1749c:	fc3e                	sd	a5,56(sp)
   1749e:	b9ffc0ef          	jal	1403c <strlen>
   174a2:	87aa                	mv	a5,a0
   174a4:	855a                	mv	a0,s6
   174a6:	f43e                	sd	a5,40(sp)
   174a8:	94dfc0ef          	jal	13df4 <_localeconv_r>
   174ac:	6914                	ld	a3,16(a0)
   174ae:	7722                	ld	a4,40(sp)
   174b0:	000d4783          	lbu	a5,0(s10)
   174b4:	f836                	sd	a3,48(sp)
   174b6:	6842                	ld	a6,16(sp)
   174b8:	a60702e3          	beqz	a4,16f1c <_vfiprintf_r+0xe8>
   174bc:	a60680e3          	beqz	a3,16f1c <_vfiprintf_r+0xe8>
   174c0:	0006c703          	lbu	a4,0(a3)
   174c4:	a4070ce3          	beqz	a4,16f1c <_vfiprintf_r+0xe8>
   174c8:	400cec93          	ori	s9,s9,1024
   174cc:	2c81                	sext.w	s9,s9
   174ce:	b4b9                	j	16f1c <_vfiprintf_r+0xe8>
   174d0:	001cec93          	ori	s9,s9,1
   174d4:	000d4783          	lbu	a5,0(s10)
   174d8:	2c81                	sext.w	s9,s9
   174da:	b489                	j	16f1c <_vfiprintf_r+0xe8>
   174dc:	05714703          	lbu	a4,87(sp)
   174e0:	000d4783          	lbu	a5,0(s10)
   174e4:	a2071ce3          	bnez	a4,16f1c <_vfiprintf_r+0xe8>
   174e8:	02000713          	li	a4,32
   174ec:	04e10ba3          	sb	a4,87(sp)
   174f0:	b435                	j	16f1c <_vfiprintf_r+0xe8>
   174f2:	080cec93          	ori	s9,s9,128
   174f6:	000d4783          	lbu	a5,0(s10)
   174fa:	2c81                	sext.w	s9,s9
   174fc:	b405                	j	16f1c <_vfiprintf_r+0xe8>
   174fe:	000d4783          	lbu	a5,0(s10)
   17502:	02a00713          	li	a4,42
   17506:	001d0593          	addi	a1,s10,1
   1750a:	70e78f63          	beq	a5,a4,17c28 <_vfiprintf_r+0xdf4>
   1750e:	fd07869b          	addiw	a3,a5,-48
   17512:	4525                	li	a0,9
   17514:	4601                	li	a2,0
   17516:	8d2e                	mv	s10,a1
   17518:	4481                	li	s1,0
   1751a:	a0d563e3          	bltu	a0,a3,16f20 <_vfiprintf_r+0xec>
   1751e:	0026171b          	slliw	a4,a2,0x2
   17522:	0005c783          	lbu	a5,0(a1)
   17526:	9f31                	addw	a4,a4,a2
   17528:	0017171b          	slliw	a4,a4,0x1
   1752c:	00d7063b          	addw	a2,a4,a3
   17530:	fd07869b          	addiw	a3,a5,-48
   17534:	0585                	addi	a1,a1,1
   17536:	fed574e3          	bgeu	a0,a3,1751e <_vfiprintf_r+0x6ea>
   1753a:	0006049b          	sext.w	s1,a2
   1753e:	38064363          	bltz	a2,178c4 <_vfiprintf_r+0xa90>
   17542:	8d2e                	mv	s10,a1
   17544:	baf1                	j	16f20 <_vfiprintf_r+0xec>
   17546:	02b00793          	li	a5,43
   1754a:	04f10ba3          	sb	a5,87(sp)
   1754e:	000d4783          	lbu	a5,0(s10)
   17552:	b2e9                	j	16f1c <_vfiprintf_r+0xe8>
   17554:	41280ebb          	subw	t4,a6,s2
   17558:	a9d053e3          	blez	t4,16fde <_vfiprintf_r+0x1aa>
   1755c:	66e9                	lui	a3,0x1a
   1755e:	4f41                	li	t5,16
   17560:	bc068693          	addi	a3,a3,-1088 # 19bc0 <zeroes.0>
   17564:	07df5063          	bge	t5,t4,175c4 <_vfiprintf_r+0x790>
   17568:	ec26                	sd	s1,24(sp)
   1756a:	8622                	mv	a2,s0
   1756c:	82fa                	mv	t0,t5
   1756e:	4f9d                	li	t6,7
   17570:	e842                	sd	a6,16(sp)
   17572:	8476                	mv	s0,t4
   17574:	f072                	sd	t3,32(sp)
   17576:	e09a                	sd	t1,64(sp)
   17578:	84b6                	mv	s1,a3
   1757a:	a021                	j	17582 <_vfiprintf_r+0x74e>
   1757c:	3441                	addiw	s0,s0,-16
   1757e:	0282dc63          	bge	t0,s0,175b6 <_vfiprintf_r+0x782>
   17582:	0741                	addi	a4,a4,16
   17584:	2785                	addiw	a5,a5,1
   17586:	e204                	sd	s1,0(a2)
   17588:	01e63423          	sd	t5,8(a2)
   1758c:	f8ba                	sd	a4,112(sp)
   1758e:	d4be                	sw	a5,104(sp)
   17590:	0641                	addi	a2,a2,16
   17592:	feffd5e3          	bge	t6,a5,1757c <_vfiprintf_r+0x748>
   17596:	1090                	addi	a2,sp,96
   17598:	85d6                	mv	a1,s5
   1759a:	855a                	mv	a0,s6
   1759c:	fb9fb0ef          	jal	13554 <__sprint_r>
   175a0:	a80518e3          	bnez	a0,17030 <_vfiprintf_r+0x1fc>
   175a4:	42c1                	li	t0,16
   175a6:	3441                	addiw	s0,s0,-16
   175a8:	7746                	ld	a4,112(sp)
   175aa:	57a6                	lw	a5,104(sp)
   175ac:	865e                	mv	a2,s7
   175ae:	4f9d                	li	t6,7
   175b0:	8f16                	mv	t5,t0
   175b2:	fc82c8e3          	blt	t0,s0,17582 <_vfiprintf_r+0x74e>
   175b6:	86a6                	mv	a3,s1
   175b8:	6842                	ld	a6,16(sp)
   175ba:	7e02                	ld	t3,32(sp)
   175bc:	6306                	ld	t1,64(sp)
   175be:	64e2                	ld	s1,24(sp)
   175c0:	8ea2                	mv	t4,s0
   175c2:	8432                	mv	s0,a2
   175c4:	9776                	add	a4,a4,t4
   175c6:	2785                	addiw	a5,a5,1
   175c8:	e014                	sd	a3,0(s0)
   175ca:	01d43423          	sd	t4,8(s0)
   175ce:	f8ba                	sd	a4,112(sp)
   175d0:	d4be                	sw	a5,104(sp)
   175d2:	469d                	li	a3,7
   175d4:	0441                	addi	s0,s0,16
   175d6:	a0f6d4e3          	bge	a3,a5,16fde <_vfiprintf_r+0x1aa>
   175da:	1090                	addi	a2,sp,96
   175dc:	85d6                	mv	a1,s5
   175de:	855a                	mv	a0,s6
   175e0:	f01a                	sd	t1,32(sp)
   175e2:	ec72                	sd	t3,24(sp)
   175e4:	e842                	sd	a6,16(sp)
   175e6:	f6ffb0ef          	jal	13554 <__sprint_r>
   175ea:	a40513e3          	bnez	a0,17030 <_vfiprintf_r+0x1fc>
   175ee:	7302                	ld	t1,32(sp)
   175f0:	7746                	ld	a4,112(sp)
   175f2:	57a6                	lw	a5,104(sp)
   175f4:	406484bb          	subw	s1,s1,t1
   175f8:	6e62                	ld	t3,24(sp)
   175fa:	6842                	ld	a6,16(sp)
   175fc:	845e                	mv	s0,s7
   175fe:	9e9054e3          	blez	s1,16fe6 <_vfiprintf_r+0x1b2>
   17602:	66e9                	lui	a3,0x1a
   17604:	bc068693          	addi	a3,a3,-1088 # 19bc0 <zeroes.0>
   17608:	0499d963          	bge	s3,s1,1765a <_vfiprintf_r+0x826>
   1760c:	8622                	mv	a2,s0
   1760e:	e842                	sd	a6,16(sp)
   17610:	8426                	mv	s0,s1
   17612:	ec72                	sd	t3,24(sp)
   17614:	f01a                	sd	t1,32(sp)
   17616:	84b6                	mv	s1,a3
   17618:	a021                	j	17620 <_vfiprintf_r+0x7ec>
   1761a:	3441                	addiw	s0,s0,-16
   1761c:	0289d963          	bge	s3,s0,1764e <_vfiprintf_r+0x81a>
   17620:	0741                	addi	a4,a4,16
   17622:	2785                	addiw	a5,a5,1
   17624:	e204                	sd	s1,0(a2)
   17626:	01363423          	sd	s3,8(a2)
   1762a:	f8ba                	sd	a4,112(sp)
   1762c:	d4be                	sw	a5,104(sp)
   1762e:	0641                	addi	a2,a2,16
   17630:	fefa55e3          	bge	s4,a5,1761a <_vfiprintf_r+0x7e6>
   17634:	1090                	addi	a2,sp,96
   17636:	85d6                	mv	a1,s5
   17638:	855a                	mv	a0,s6
   1763a:	f1bfb0ef          	jal	13554 <__sprint_r>
   1763e:	9e0519e3          	bnez	a0,17030 <_vfiprintf_r+0x1fc>
   17642:	3441                	addiw	s0,s0,-16
   17644:	7746                	ld	a4,112(sp)
   17646:	57a6                	lw	a5,104(sp)
   17648:	865e                	mv	a2,s7
   1764a:	fc89cbe3          	blt	s3,s0,17620 <_vfiprintf_r+0x7ec>
   1764e:	6842                	ld	a6,16(sp)
   17650:	6e62                	ld	t3,24(sp)
   17652:	7302                	ld	t1,32(sp)
   17654:	86a6                	mv	a3,s1
   17656:	84a2                	mv	s1,s0
   17658:	8432                	mv	s0,a2
   1765a:	9726                	add	a4,a4,s1
   1765c:	2785                	addiw	a5,a5,1
   1765e:	e014                	sd	a3,0(s0)
   17660:	e404                	sd	s1,8(s0)
   17662:	f8ba                	sd	a4,112(sp)
   17664:	d4be                	sw	a5,104(sp)
   17666:	0441                	addi	s0,s0,16
   17668:	96fa5fe3          	bge	s4,a5,16fe6 <_vfiprintf_r+0x1b2>
   1766c:	1090                	addi	a2,sp,96
   1766e:	85d6                	mv	a1,s5
   17670:	855a                	mv	a0,s6
   17672:	f01a                	sd	t1,32(sp)
   17674:	ec72                	sd	t3,24(sp)
   17676:	e842                	sd	a6,16(sp)
   17678:	eddfb0ef          	jal	13554 <__sprint_r>
   1767c:	9a051ae3          	bnez	a0,17030 <_vfiprintf_r+0x1fc>
   17680:	7746                	ld	a4,112(sp)
   17682:	57a6                	lw	a5,104(sp)
   17684:	7302                	ld	t1,32(sp)
   17686:	6e62                	ld	t3,24(sp)
   17688:	845e                	mv	s0,s7
   1768a:	971a                	add	a4,a4,t1
   1768c:	2785                	addiw	a5,a5,1
   1768e:	01c43023          	sd	t3,0(s0)
   17692:	00643423          	sd	t1,8(s0)
   17696:	f8ba                	sd	a4,112(sp)
   17698:	d4be                	sw	a5,104(sp)
   1769a:	6842                	ld	a6,16(sp)
   1769c:	0441                	addi	s0,s0,16
   1769e:	94fa5fe3          	bge	s4,a5,16ffc <_vfiprintf_r+0x1c8>
   176a2:	1090                	addi	a2,sp,96
   176a4:	85d6                	mv	a1,s5
   176a6:	855a                	mv	a0,s6
   176a8:	e842                	sd	a6,16(sp)
   176aa:	eabfb0ef          	jal	13554 <__sprint_r>
   176ae:	980511e3          	bnez	a0,17030 <_vfiprintf_r+0x1fc>
   176b2:	7746                	ld	a4,112(sp)
   176b4:	6842                	ld	a6,16(sp)
   176b6:	845e                	mv	s0,s7
   176b8:	b291                	j	16ffc <_vfiprintf_r+0x1c8>
   176ba:	1090                	addi	a2,sp,96
   176bc:	85d6                	mv	a1,s5
   176be:	855a                	mv	a0,s6
   176c0:	e95fb0ef          	jal	13554 <__sprint_r>
   176c4:	94050de3          	beqz	a0,1701e <_vfiprintf_r+0x1ea>
   176c8:	b2a5                	j	17030 <_vfiprintf_r+0x1fc>
   176ca:	1090                	addi	a2,sp,96
   176cc:	85d6                	mv	a1,s5
   176ce:	855a                	mv	a0,s6
   176d0:	e09a                	sd	t1,64(sp)
   176d2:	f072                	sd	t3,32(sp)
   176d4:	ec7e                	sd	t6,24(sp)
   176d6:	e842                	sd	a6,16(sp)
   176d8:	e7dfb0ef          	jal	13554 <__sprint_r>
   176dc:	94051ae3          	bnez	a0,17030 <_vfiprintf_r+0x1fc>
   176e0:	7746                	ld	a4,112(sp)
   176e2:	57a6                	lw	a5,104(sp)
   176e4:	6306                	ld	t1,64(sp)
   176e6:	7e02                	ld	t3,32(sp)
   176e8:	6fe2                	ld	t6,24(sp)
   176ea:	6842                	ld	a6,16(sp)
   176ec:	845e                	mv	s0,s7
   176ee:	b0e5                	j	16fd6 <_vfiprintf_r+0x1a2>
   176f0:	66e9                	lui	a3,0x1a
   176f2:	4cc1                	li	s9,16
   176f4:	57a6                	lw	a5,104(sp)
   176f6:	bd068693          	addi	a3,a3,-1072 # 19bd0 <blanks.1>
   176fa:	049cd763          	bge	s9,s1,17748 <_vfiprintf_r+0x914>
   176fe:	8622                	mv	a2,s0
   17700:	8e66                	mv	t3,s9
   17702:	431d                	li	t1,7
   17704:	e842                	sd	a6,16(sp)
   17706:	8436                	mv	s0,a3
   17708:	a021                	j	17710 <_vfiprintf_r+0x8dc>
   1770a:	34c1                	addiw	s1,s1,-16
   1770c:	029e5b63          	bge	t3,s1,17742 <_vfiprintf_r+0x90e>
   17710:	0741                	addi	a4,a4,16
   17712:	2785                	addiw	a5,a5,1
   17714:	e200                	sd	s0,0(a2)
   17716:	01963423          	sd	s9,8(a2)
   1771a:	f8ba                	sd	a4,112(sp)
   1771c:	d4be                	sw	a5,104(sp)
   1771e:	0641                	addi	a2,a2,16
   17720:	fef355e3          	bge	t1,a5,1770a <_vfiprintf_r+0x8d6>
   17724:	1090                	addi	a2,sp,96
   17726:	85d6                	mv	a1,s5
   17728:	855a                	mv	a0,s6
   1772a:	e2bfb0ef          	jal	13554 <__sprint_r>
   1772e:	900511e3          	bnez	a0,17030 <_vfiprintf_r+0x1fc>
   17732:	4e41                	li	t3,16
   17734:	34c1                	addiw	s1,s1,-16
   17736:	7746                	ld	a4,112(sp)
   17738:	57a6                	lw	a5,104(sp)
   1773a:	865e                	mv	a2,s7
   1773c:	431d                	li	t1,7
   1773e:	fc9e49e3          	blt	t3,s1,17710 <_vfiprintf_r+0x8dc>
   17742:	6842                	ld	a6,16(sp)
   17744:	86a2                	mv	a3,s0
   17746:	8432                	mv	s0,a2
   17748:	9726                	add	a4,a4,s1
   1774a:	2785                	addiw	a5,a5,1
   1774c:	e014                	sd	a3,0(s0)
   1774e:	f8ba                	sd	a4,112(sp)
   17750:	d4be                	sw	a5,104(sp)
   17752:	e404                	sd	s1,8(s0)
   17754:	469d                	li	a3,7
   17756:	8af6dbe3          	bge	a3,a5,1700c <_vfiprintf_r+0x1d8>
   1775a:	1090                	addi	a2,sp,96
   1775c:	85d6                	mv	a1,s5
   1775e:	855a                	mv	a0,s6
   17760:	e842                	sd	a6,16(sp)
   17762:	df3fb0ef          	jal	13554 <__sprint_r>
   17766:	8c0515e3          	bnez	a0,17030 <_vfiprintf_r+0x1fc>
   1776a:	7746                	ld	a4,112(sp)
   1776c:	6842                	ld	a6,16(sp)
   1776e:	b879                	j	1700c <_vfiprintf_r+0x1d8>
   17770:	03269613          	slli	a2,a3,0x32
   17774:	f0065363          	bgez	a2,16e7a <_vfiprintf_r+0x46>
   17778:	57fd                	li	a5,-1
   1777a:	e43e                	sd	a5,8(sp)
   1777c:	b8c1                	j	1704c <_vfiprintf_r+0x218>
   1777e:	03000793          	li	a5,48
   17782:	2ef70063          	beq	a4,a5,17a62 <_vfiprintf_r+0xc2e>
   17786:	16f9                	addi	a3,a3,-2
   17788:	40d3033b          	subw	t1,t1,a3
   1778c:	fefe0fa3          	sb	a5,-1(t3)
   17790:	88a6                	mv	a7,s1
   17792:	1264c763          	blt	s1,t1,178c0 <_vfiprintf_r+0xa8c>
   17796:	0008891b          	sext.w	s2,a7
   1779a:	8e36                	mv	t3,a3
   1779c:	7746                	ld	a4,112(sp)
   1779e:	57a6                	lw	a5,104(sp)
   177a0:	084cff93          	andi	t6,s9,132
   177a4:	863a                	mv	a2,a4
   177a6:	86be                	mv	a3,a5
   177a8:	fe0f8563          	beqz	t6,16f92 <_vfiprintf_r+0x15e>
   177ac:	05714683          	lbu	a3,87(sp)
   177b0:	4f01                	li	t5,0
   177b2:	fe069963          	bnez	a3,16fa4 <_vfiprintf_r+0x170>
   177b6:	821ff06f          	j	16fd6 <_vfiprintf_r+0x1a2>
   177ba:	4f01                	li	t5,0
   177bc:	87b6                	mv	a5,a3
   177be:	4fc1                	li	t6,16
   177c0:	66e9                	lui	a3,0x1a
   177c2:	8732                	mv	a4,a2
   177c4:	bd068693          	addi	a3,a3,-1072 # 19bd0 <blanks.1>
   177c8:	07dfd263          	bge	t6,t4,1782c <_vfiprintf_r+0x9f8>
   177cc:	ec26                	sd	s1,24(sp)
   177ce:	8622                	mv	a2,s0
   177d0:	83fe                	mv	t2,t6
   177d2:	429d                	li	t0,7
   177d4:	e842                	sd	a6,16(sp)
   177d6:	8476                	mv	s0,t4
   177d8:	f07a                	sd	t5,32(sp)
   177da:	e0f2                	sd	t3,64(sp)
   177dc:	e49a                	sd	t1,72(sp)
   177de:	84b6                	mv	s1,a3
   177e0:	a021                	j	177e8 <_vfiprintf_r+0x9b4>
   177e2:	3441                	addiw	s0,s0,-16
   177e4:	0283dc63          	bge	t2,s0,1781c <_vfiprintf_r+0x9e8>
   177e8:	0741                	addi	a4,a4,16
   177ea:	2785                	addiw	a5,a5,1
   177ec:	e204                	sd	s1,0(a2)
   177ee:	01f63423          	sd	t6,8(a2)
   177f2:	f8ba                	sd	a4,112(sp)
   177f4:	d4be                	sw	a5,104(sp)
   177f6:	0641                	addi	a2,a2,16
   177f8:	fef2d5e3          	bge	t0,a5,177e2 <_vfiprintf_r+0x9ae>
   177fc:	1090                	addi	a2,sp,96
   177fe:	85d6                	mv	a1,s5
   17800:	855a                	mv	a0,s6
   17802:	d53fb0ef          	jal	13554 <__sprint_r>
   17806:	820515e3          	bnez	a0,17030 <_vfiprintf_r+0x1fc>
   1780a:	43c1                	li	t2,16
   1780c:	3441                	addiw	s0,s0,-16
   1780e:	7746                	ld	a4,112(sp)
   17810:	57a6                	lw	a5,104(sp)
   17812:	865e                	mv	a2,s7
   17814:	429d                	li	t0,7
   17816:	8f9e                	mv	t6,t2
   17818:	fc83c8e3          	blt	t2,s0,177e8 <_vfiprintf_r+0x9b4>
   1781c:	86a6                	mv	a3,s1
   1781e:	6842                	ld	a6,16(sp)
   17820:	7f02                	ld	t5,32(sp)
   17822:	6e06                	ld	t3,64(sp)
   17824:	6326                	ld	t1,72(sp)
   17826:	64e2                	ld	s1,24(sp)
   17828:	8ea2                	mv	t4,s0
   1782a:	8432                	mv	s0,a2
   1782c:	9776                	add	a4,a4,t4
   1782e:	2785                	addiw	a5,a5,1
   17830:	e014                	sd	a3,0(s0)
   17832:	f8ba                	sd	a4,112(sp)
   17834:	d4be                	sw	a5,104(sp)
   17836:	01d43423          	sd	t4,8(s0)
   1783a:	469d                	li	a3,7
   1783c:	1af6ca63          	blt	a3,a5,179f0 <_vfiprintf_r+0xbbc>
   17840:	05714683          	lbu	a3,87(sp)
   17844:	0441                	addi	s0,s0,16
   17846:	e68d                	bnez	a3,17870 <_vfiprintf_r+0xa3c>
   17848:	f80f0b63          	beqz	t5,16fde <_vfiprintf_r+0x1aa>
   1784c:	4f81                	li	t6,0
   1784e:	f72ff06f          	j	16fc0 <_vfiprintf_r+0x18c>
   17852:	bff8f893          	andi	a7,a7,-1025
   17856:	00088c9b          	sext.w	s9,a7
   1785a:	b6c1                	j	1741a <_vfiprintf_r+0x5e6>
   1785c:	4305                	li	t1,1
   1785e:	0db10e13          	addi	t3,sp,219
   17862:	f20ff06f          	j	16f82 <_vfiprintf_r+0x14e>
   17866:	889a                	mv	a7,t1
   17868:	0008891b          	sext.w	s2,a7
   1786c:	f16ff06f          	j	16f82 <_vfiprintf_r+0x14e>
   17870:	4f81                	li	t6,0
   17872:	f32ff06f          	j	16fa4 <_vfiprintf_r+0x170>
   17876:	8766                	mv	a4,s9
   17878:	b6fd                	j	17466 <_vfiprintf_r+0x632>
   1787a:	88e6                	mv	a7,s9
   1787c:	b659                	j	17402 <_vfiprintf_r+0x5ce>
   1787e:	87e6                	mv	a5,s9
   17880:	000c3683          	ld	a3,0(s8)
   17884:	8cbe                	mv	s9,a5
   17886:	8c3a                	mv	s8,a4
   17888:	87b6                	mv	a5,a3
   1788a:	b059                	j	17110 <_vfiprintf_r+0x2dc>
   1788c:	66e5                	lui	a3,0x19
   1788e:	52068793          	addi	a5,a3,1312 # 19520 <__clzdi2+0x7e>
   17892:	00f77593          	andi	a1,a4,15
   17896:	97ae                	add	a5,a5,a1
   17898:	0007c583          	lbu	a1,0(a5)
   1789c:	002cec93          	ori	s9,s9,2
   178a0:	00475793          	srli	a5,a4,0x4
   178a4:	0cb10da3          	sb	a1,219(sp)
   178a8:	2c81                	sext.w	s9,s9
   178aa:	8c32                	mv	s8,a2
   178ac:	52068693          	addi	a3,a3,1312
   178b0:	4909                	li	s2,2
   178b2:	a80793e3          	bnez	a5,17338 <_vfiprintf_r+0x504>
   178b6:	4785                	li	a5,1
   178b8:	0db10e13          	addi	t3,sp,219
   178bc:	833e                	mv	t1,a5
   178be:	b46d                	j	17368 <_vfiprintf_r+0x534>
   178c0:	889a                	mv	a7,t1
   178c2:	bdd1                	j	17796 <_vfiprintf_r+0x962>
   178c4:	54fd                	li	s1,-1
   178c6:	8d2e                	mv	s10,a1
   178c8:	e58ff06f          	j	16f20 <_vfiprintf_r+0xec>
   178cc:	2e048063          	beqz	s1,17bac <_vfiprintf_r+0xd78>
   178d0:	03000793          	li	a5,48
   178d4:	b8b1                	j	17130 <_vfiprintf_r+0x2fc>
   178d6:	66e5                	lui	a3,0x19
   178d8:	020cf713          	andi	a4,s9,32
   178dc:	53868693          	addi	a3,a3,1336 # 19538 <__clzdi2+0x96>
   178e0:	008c0613          	addi	a2,s8,8
   178e4:	ef29                	bnez	a4,1793e <_vfiprintf_r+0xb0a>
   178e6:	010cf713          	andi	a4,s9,16
   178ea:	eb31                	bnez	a4,1793e <_vfiprintf_r+0xb0a>
   178ec:	040cf593          	andi	a1,s9,64
   178f0:	000c2703          	lw	a4,0(s8)
   178f4:	20058d63          	beqz	a1,17b0e <_vfiprintf_r+0xcda>
   178f8:	1742                	slli	a4,a4,0x30
   178fa:	9341                	srli	a4,a4,0x30
   178fc:	001cf913          	andi	s2,s9,1
   17900:	04090563          	beqz	s2,1794a <_vfiprintf_r+0xb16>
   17904:	12071163          	bnez	a4,17a26 <_vfiprintf_r+0xbf2>
   17908:	04010ba3          	sb	zero,87(sp)
   1790c:	2004c763          	bltz	s1,17b1a <_vfiprintf_r+0xce6>
   17910:	b7fcfc93          	andi	s9,s9,-1153
   17914:	2c81                	sext.w	s9,s9
   17916:	12048f63          	beqz	s1,17a54 <_vfiprintf_r+0xc20>
   1791a:	0006c783          	lbu	a5,0(a3)
   1791e:	834a                	mv	t1,s2
   17920:	8c32                	mv	s8,a2
   17922:	0cf10da3          	sb	a5,219(sp)
   17926:	8926                	mv	s2,s1
   17928:	0db10e13          	addi	t3,sp,219
   1792c:	bd85                	j	1779c <_vfiprintf_r+0x968>
   1792e:	66e5                	lui	a3,0x19
   17930:	020cf713          	andi	a4,s9,32
   17934:	52068693          	addi	a3,a3,1312 # 19520 <__clzdi2+0x7e>
   17938:	008c0613          	addi	a2,s8,8
   1793c:	d74d                	beqz	a4,178e6 <_vfiprintf_r+0xab2>
   1793e:	001cf913          	andi	s2,s9,1
   17942:	000c3703          	ld	a4,0(s8)
   17946:	fa091fe3          	bnez	s2,17904 <_vfiprintf_r+0xad0>
   1794a:	04010ba3          	sb	zero,87(sp)
   1794e:	0604c063          	bltz	s1,179ae <_vfiprintf_r+0xb7a>
   17952:	b7fcfc93          	andi	s9,s9,-1153
   17956:	2c81                	sext.w	s9,s9
   17958:	e77d                	bnez	a4,17a46 <_vfiprintf_r+0xc12>
   1795a:	24048463          	beqz	s1,17ba2 <_vfiprintf_r+0xd6e>
   1795e:	0006c783          	lbu	a5,0(a3)
   17962:	8c32                	mv	s8,a2
   17964:	8926                	mv	s2,s1
   17966:	0cf10da3          	sb	a5,219(sp)
   1796a:	4305                	li	t1,1
   1796c:	0db10e13          	addi	t3,sp,219
   17970:	b535                	j	1779c <_vfiprintf_r+0x968>
   17972:	8572                	mv	a0,t3
   17974:	e872                	sd	t3,16(sp)
   17976:	ec6fc0ef          	jal	1403c <strlen>
   1797a:	0005031b          	sext.w	t1,a0
   1797e:	6e42                	ld	t3,16(sp)
   17980:	6862                	ld	a6,24(sp)
   17982:	879a                	mv	a5,t1
   17984:	00035363          	bgez	t1,1798a <_vfiprintf_r+0xb56>
   17988:	4781                	li	a5,0
   1798a:	05714703          	lbu	a4,87(sp)
   1798e:	0007891b          	sext.w	s2,a5
   17992:	cb01                	beqz	a4,179a2 <_vfiprintf_r+0xb6e>
   17994:	0017891b          	addiw	s2,a5,1
   17998:	4481                	li	s1,0
   1799a:	fb8ff06f          	j	17152 <_vfiprintf_r+0x31e>
   1799e:	8326                	mv	t1,s1
   179a0:	8926                	mv	s2,s1
   179a2:	4481                	li	s1,0
   179a4:	ddeff06f          	j	16f82 <_vfiprintf_r+0x14e>
   179a8:	002cec93          	ori	s9,s9,2
   179ac:	2c81                	sext.w	s9,s9
   179ae:	00f77793          	andi	a5,a4,15
   179b2:	97b6                	add	a5,a5,a3
   179b4:	bffcf593          	andi	a1,s9,-1025
   179b8:	002cf913          	andi	s2,s9,2
   179bc:	0007c783          	lbu	a5,0(a5)
   179c0:	8c32                	mv	s8,a2
   179c2:	00058c9b          	sext.w	s9,a1
   179c6:	b29d                	j	1732c <_vfiprintf_r+0x4f8>
   179c8:	a40499e3          	bnez	s1,1741a <_vfiprintf_r+0x5e6>
   179cc:	0018f913          	andi	s2,a7,1
   179d0:	00090b63          	beqz	s2,179e6 <_vfiprintf_r+0xbb2>
   179d4:	03000793          	li	a5,48
   179d8:	0cf10da3          	sb	a5,219(sp)
   179dc:	834a                	mv	t1,s2
   179de:	0db10e13          	addi	t3,sp,219
   179e2:	da0ff06f          	j	16f82 <_vfiprintf_r+0x14e>
   179e6:	4301                	li	t1,0
   179e8:	0dc10e13          	addi	t3,sp,220
   179ec:	d96ff06f          	j	16f82 <_vfiprintf_r+0x14e>
   179f0:	1090                	addi	a2,sp,96
   179f2:	85d6                	mv	a1,s5
   179f4:	855a                	mv	a0,s6
   179f6:	e09a                	sd	t1,64(sp)
   179f8:	f072                	sd	t3,32(sp)
   179fa:	ec7a                	sd	t5,24(sp)
   179fc:	e842                	sd	a6,16(sp)
   179fe:	b57fb0ef          	jal	13554 <__sprint_r>
   17a02:	8faa                	mv	t6,a0
   17a04:	e2051663          	bnez	a0,17030 <_vfiprintf_r+0x1fc>
   17a08:	05714683          	lbu	a3,87(sp)
   17a0c:	7746                	ld	a4,112(sp)
   17a0e:	57a6                	lw	a5,104(sp)
   17a10:	6842                	ld	a6,16(sp)
   17a12:	6f62                	ld	t5,24(sp)
   17a14:	7e02                	ld	t3,32(sp)
   17a16:	6306                	ld	t1,64(sp)
   17a18:	845e                	mv	s0,s7
   17a1a:	d8069563          	bnez	a3,16fa4 <_vfiprintf_r+0x170>
   17a1e:	da0f1163          	bnez	t5,16fc0 <_vfiprintf_r+0x18c>
   17a22:	dbcff06f          	j	16fde <_vfiprintf_r+0x1aa>
   17a26:	03000593          	li	a1,48
   17a2a:	04f10ca3          	sb	a5,89(sp)
   17a2e:	04010ba3          	sb	zero,87(sp)
   17a32:	04b10c23          	sb	a1,88(sp)
   17a36:	f604c9e3          	bltz	s1,179a8 <_vfiprintf_r+0xb74>
   17a3a:	b7fcfc93          	andi	s9,s9,-1153
   17a3e:	2c81                	sext.w	s9,s9
   17a40:	002cec93          	ori	s9,s9,2
   17a44:	4909                	li	s2,2
   17a46:	00f77793          	andi	a5,a4,15
   17a4a:	97b6                	add	a5,a5,a3
   17a4c:	0007c783          	lbu	a5,0(a5)
   17a50:	8c32                	mv	s8,a2
   17a52:	b8e9                	j	1732c <_vfiprintf_r+0x4f8>
   17a54:	8c32                	mv	s8,a2
   17a56:	4301                	li	t1,0
   17a58:	4901                	li	s2,0
   17a5a:	0dc10e13          	addi	t3,sp,220
   17a5e:	d24ff06f          	j	16f82 <_vfiprintf_r+0x14e>
   17a62:	41c3033b          	subw	t1,t1,t3
   17a66:	889a                	mv	a7,t1
   17a68:	9c935fe3          	bge	t1,s1,17446 <_vfiprintf_r+0x612>
   17a6c:	88a6                	mv	a7,s1
   17a6e:	0008891b          	sext.w	s2,a7
   17a72:	d10ff06f          	j	16f82 <_vfiprintf_r+0x14e>
   17a76:	ad5f80ef          	jal	1054a <__sinit>
   17a7a:	bd6ff06f          	j	16e50 <_vfiprintf_r+0x1c>
   17a7e:	200cec93          	ori	s9,s9,512
   17a82:	001d4783          	lbu	a5,1(s10)
   17a86:	2c81                	sext.w	s9,s9
   17a88:	0d05                	addi	s10,s10,1
   17a8a:	c92ff06f          	j	16f1c <_vfiprintf_r+0xe8>
   17a8e:	020cec93          	ori	s9,s9,32
   17a92:	001d4783          	lbu	a5,1(s10)
   17a96:	2c81                	sext.w	s9,s9
   17a98:	0d05                	addi	s10,s10,1
   17a9a:	c82ff06f          	j	16f1c <_vfiprintf_r+0xe8>
   17a9e:	4799                	li	a5,6
   17aa0:	88a6                	mv	a7,s1
   17aa2:	1097ee63          	bltu	a5,s1,17bbe <_vfiprintf_r+0xd8a>
   17aa6:	0008891b          	sext.w	s2,a7
   17aaa:	6e65                	lui	t3,0x19
   17aac:	834a                	mv	t1,s2
   17aae:	550e0e13          	addi	t3,t3,1360 # 19550 <__clzdi2+0xae>
   17ab2:	4481                	li	s1,0
   17ab4:	cceff06f          	j	16f82 <_vfiprintf_r+0x14e>
   17ab8:	10048563          	beqz	s1,17bc2 <_vfiprintf_r+0xd8e>
   17abc:	03000793          	li	a5,48
   17ac0:	0cf10da3          	sb	a5,219(sp)
   17ac4:	8c32                	mv	s8,a2
   17ac6:	87a6                	mv	a5,s1
   17ac8:	0db10e13          	addi	t3,sp,219
   17acc:	4305                	li	t1,1
   17ace:	b869                	j	17368 <_vfiprintf_r+0x534>
   17ad0:	200cf693          	andi	a3,s9,512
   17ad4:	10068d63          	beqz	a3,17bee <_vfiprintf_r+0xdba>
   17ad8:	0187979b          	slliw	a5,a5,0x18
   17adc:	4187d79b          	sraiw	a5,a5,0x18
   17ae0:	8c3a                	mv	s8,a4
   17ae2:	86be                	mv	a3,a5
   17ae4:	e2cff06f          	j	17110 <_vfiprintf_r+0x2dc>
   17ae8:	200cf713          	andi	a4,s9,512
   17aec:	04010ba3          	sb	zero,87(sp)
   17af0:	cb6d                	beqz	a4,17be2 <_vfiprintf_r+0xdae>
   17af2:	0ff7f793          	zext.b	a5,a5
   17af6:	fc04de63          	bgez	s1,172d2 <_vfiprintf_r+0x49e>
   17afa:	fe2ff06f          	j	172dc <_vfiprintf_r+0x4a8>
   17afe:	200cf693          	andi	a3,s9,512
   17b02:	caf1                	beqz	a3,17bd6 <_vfiprintf_r+0xda2>
   17b04:	0ff7f793          	zext.b	a5,a5
   17b08:	8c3a                	mv	s8,a4
   17b0a:	88e6                	mv	a7,s9
   17b0c:	b8f5                	j	17408 <_vfiprintf_r+0x5d4>
   17b0e:	200cf593          	andi	a1,s9,512
   17b12:	cddd                	beqz	a1,17bd0 <_vfiprintf_r+0xd9c>
   17b14:	0ff77713          	zext.b	a4,a4
   17b18:	b3d5                	j	178fc <_vfiprintf_r+0xac8>
   17b1a:	0006c783          	lbu	a5,0(a3)
   17b1e:	bffcfc93          	andi	s9,s9,-1025
   17b22:	2c81                	sext.w	s9,s9
   17b24:	0cf10da3          	sb	a5,219(sp)
   17b28:	8c32                	mv	s8,a2
   17b2a:	834a                	mv	t1,s2
   17b2c:	0db10e13          	addi	t3,sp,219
   17b30:	b1b5                	j	1779c <_vfiprintf_r+0x968>
   17b32:	7622                	ld	a2,40(sp)
   17b34:	75e2                	ld	a1,56(sp)
   17b36:	e49a                	sd	t1,72(sp)
   17b38:	40ce0fb3          	sub	t6,t3,a2
   17b3c:	857e                	mv	a0,t6
   17b3e:	e0be                	sd	a5,64(sp)
   17b40:	f87a                	sd	t5,48(sp)
   17b42:	f042                	sd	a6,32(sp)
   17b44:	ec76                	sd	t4,24(sp)
   17b46:	e87e                	sd	t6,16(sp)
   17b48:	a1efc0ef          	jal	13d66 <strncpy>
   17b4c:	ccccd637          	lui	a2,0xccccd
   17b50:	ccd60613          	addi	a2,a2,-819 # ffffffffcccccccd <__BSS_END__+0xffffffffcccb0dad>
   17b54:	6786                	ld	a5,64(sp)
   17b56:	02061713          	slli	a4,a2,0x20
   17b5a:	9732                	add	a4,a4,a2
   17b5c:	02e7b7b3          	mulhu	a5,a5,a4
   17b60:	6ee2                	ld	t4,24(sp)
   17b62:	6fc2                	ld	t6,16(sp)
   17b64:	7802                	ld	a6,32(sp)
   17b66:	001ec603          	lbu	a2,1(t4)
   17b6a:	7f42                	ld	t5,48(sp)
   17b6c:	6326                	ld	t1,72(sp)
   17b6e:	00c03633          	snez	a2,a2
   17b72:	9eb2                	add	t4,t4,a2
   17b74:	ffff8e13          	addi	t3,t6,-1
   17b78:	838d                	srli	a5,a5,0x3
   17b7a:	02e7b733          	mulhu	a4,a5,a4
   17b7e:	4585                	li	a1,1
   17b80:	48a5                	li	a7,9
   17b82:	00375613          	srli	a2,a4,0x3
   17b86:	00261713          	slli	a4,a2,0x2
   17b8a:	9732                	add	a4,a4,a2
   17b8c:	0706                	slli	a4,a4,0x1
   17b8e:	40e78733          	sub	a4,a5,a4
   17b92:	0307071b          	addiw	a4,a4,48
   17b96:	feef8fa3          	sb	a4,-1(t6)
   17b9a:	2001b683          	ld	a3,512(gp) # 1b920 <mask+0x8>
   17b9e:	ebeff06f          	j	1725c <_vfiprintf_r+0x428>
   17ba2:	8c32                	mv	s8,a2
   17ba4:	4301                	li	t1,0
   17ba6:	0dc10e13          	addi	t3,sp,220
   17baa:	becd                	j	1779c <_vfiprintf_r+0x968>
   17bac:	05714783          	lbu	a5,87(sp)
   17bb0:	4301                	li	t1,0
   17bb2:	0dc10e13          	addi	t3,sp,220
   17bb6:	4905                	li	s2,1
   17bb8:	d8079d63          	bnez	a5,17152 <_vfiprintf_r+0x31e>
   17bbc:	bd71                	j	17a58 <_vfiprintf_r+0xc24>
   17bbe:	88be                	mv	a7,a5
   17bc0:	b5dd                	j	17aa6 <_vfiprintf_r+0xc72>
   17bc2:	8c32                	mv	s8,a2
   17bc4:	4301                	li	t1,0
   17bc6:	4781                	li	a5,0
   17bc8:	0dc10e13          	addi	t3,sp,220
   17bcc:	f9cff06f          	j	17368 <_vfiprintf_r+0x534>
   17bd0:	1702                	slli	a4,a4,0x20
   17bd2:	9301                	srli	a4,a4,0x20
   17bd4:	b325                	j	178fc <_vfiprintf_r+0xac8>
   17bd6:	1782                	slli	a5,a5,0x20
   17bd8:	9381                	srli	a5,a5,0x20
   17bda:	8c3a                	mv	s8,a4
   17bdc:	88e6                	mv	a7,s9
   17bde:	82bff06f          	j	17408 <_vfiprintf_r+0x5d4>
   17be2:	1782                	slli	a5,a5,0x20
   17be4:	9381                	srli	a5,a5,0x20
   17be6:	ee04d663          	bgez	s1,172d2 <_vfiprintf_r+0x49e>
   17bea:	ef2ff06f          	j	172dc <_vfiprintf_r+0x4a8>
   17bee:	8c3a                	mv	s8,a4
   17bf0:	86be                	mv	a3,a5
   17bf2:	d1eff06f          	j	17110 <_vfiprintf_r+0x2dc>
   17bf6:	67a2                	ld	a5,8(sp)
   17bf8:	0c21                	addi	s8,s8,8
   17bfa:	00f71023          	sh	a5,0(a4)
   17bfe:	ac0ff06f          	j	16ebe <_vfiprintf_r+0x8a>
   17c02:	855a                	mv	a0,s6
   17c04:	1090                	addi	a2,sp,96
   17c06:	85d6                	mv	a1,s5
   17c08:	94dfb0ef          	jal	13554 <__sprint_r>
   17c0c:	c24ff06f          	j	17030 <_vfiprintf_r+0x1fc>
   17c10:	d80787e3          	beqz	a5,1799e <_vfiprintf_r+0xb6a>
   17c14:	0014891b          	addiw	s2,s1,1
   17c18:	8326                	mv	t1,s1
   17c1a:	4481                	li	s1,0
   17c1c:	d36ff06f          	j	17152 <_vfiprintf_r+0x31e>
   17c20:	c31c                	sw	a5,0(a4)
   17c22:	0c21                	addi	s8,s8,8
   17c24:	a9aff06f          	j	16ebe <_vfiprintf_r+0x8a>
   17c28:	000c2783          	lw	a5,0(s8)
   17c2c:	0c21                	addi	s8,s8,8
   17c2e:	0007849b          	sext.w	s1,a5
   17c32:	0007d363          	bgez	a5,17c38 <_vfiprintf_r+0xe04>
   17c36:	54fd                	li	s1,-1
   17c38:	001d4783          	lbu	a5,1(s10)
   17c3c:	8d2e                	mv	s10,a1
   17c3e:	adeff06f          	j	16f1c <_vfiprintf_r+0xe8>
   17c42:	893e                	mv	s2,a5
   17c44:	bea1                	j	1779c <_vfiprintf_r+0x968>
   17c46:	0db10e13          	addi	t3,sp,219
   17c4a:	f06ff06f          	j	17350 <_vfiprintf_r+0x51c>

0000000000017c4e <vfiprintf>:
   17c4e:	872a                	mv	a4,a0
   17c50:	2201b503          	ld	a0,544(gp) # 1b940 <_impure_ptr>
   17c54:	87ae                	mv	a5,a1
   17c56:	86b2                	mv	a3,a2
   17c58:	85ba                	mv	a1,a4
   17c5a:	863e                	mv	a2,a5
   17c5c:	9d8ff06f          	j	16e34 <_vfiprintf_r>

0000000000017c60 <__sbprintf>:
   17c60:	0105d783          	lhu	a5,16(a1)
   17c64:	0ac5ae83          	lw	t4,172(a1)
   17c68:	0125de03          	lhu	t3,18(a1)
   17c6c:	0305b303          	ld	t1,48(a1)
   17c70:	0405b883          	ld	a7,64(a1)
   17c74:	b3010113          	addi	sp,sp,-1232
   17c78:	0b010813          	addi	a6,sp,176
   17c7c:	40000713          	li	a4,1024
   17c80:	4c813023          	sd	s0,1216(sp)
   17c84:	9bf5                	andi	a5,a5,-3
   17c86:	842e                	mv	s0,a1
   17c88:	858a                	mv	a1,sp
   17c8a:	4a913c23          	sd	s1,1208(sp)
   17c8e:	4b213823          	sd	s2,1200(sp)
   17c92:	4c113423          	sd	ra,1224(sp)
   17c96:	d402                	sw	zero,40(sp)
   17c98:	00f11823          	sh	a5,16(sp)
   17c9c:	d776                	sw	t4,172(sp)
   17c9e:	01c11923          	sh	t3,18(sp)
   17ca2:	f81a                	sd	t1,48(sp)
   17ca4:	e0c6                	sd	a7,64(sp)
   17ca6:	892a                	mv	s2,a0
   17ca8:	e042                	sd	a6,0(sp)
   17caa:	ec42                	sd	a6,24(sp)
   17cac:	c63a                	sw	a4,12(sp)
   17cae:	d03a                	sw	a4,32(sp)
   17cb0:	984ff0ef          	jal	16e34 <_vfiprintf_r>
   17cb4:	84aa                	mv	s1,a0
   17cb6:	02055963          	bgez	a0,17ce8 <__sbprintf+0x88>
   17cba:	01015783          	lhu	a5,16(sp)
   17cbe:	0407f793          	andi	a5,a5,64
   17cc2:	c799                	beqz	a5,17cd0 <__sbprintf+0x70>
   17cc4:	01045783          	lhu	a5,16(s0)
   17cc8:	0407e793          	ori	a5,a5,64
   17ccc:	00f41823          	sh	a5,16(s0)
   17cd0:	4c813083          	ld	ra,1224(sp)
   17cd4:	4c013403          	ld	s0,1216(sp)
   17cd8:	4b013903          	ld	s2,1200(sp)
   17cdc:	8526                	mv	a0,s1
   17cde:	4b813483          	ld	s1,1208(sp)
   17ce2:	4d010113          	addi	sp,sp,1232
   17ce6:	8082                	ret
   17ce8:	858a                	mv	a1,sp
   17cea:	854a                	mv	a0,s2
   17cec:	adffb0ef          	jal	137ca <_fflush_r>
   17cf0:	d569                	beqz	a0,17cba <__sbprintf+0x5a>
   17cf2:	54fd                	li	s1,-1
   17cf4:	b7d9                	j	17cba <__sbprintf+0x5a>

0000000000017cf6 <__errno>:
   17cf6:	2201b503          	ld	a0,544(gp) # 1b940 <_impure_ptr>
   17cfa:	8082                	ret

0000000000017cfc <abort>:
   17cfc:	1141                	addi	sp,sp,-16
   17cfe:	4519                	li	a0,6
   17d00:	e406                	sd	ra,8(sp)
   17d02:	1a0000ef          	jal	17ea2 <raise>
   17d06:	4505                	li	a0,1
   17d08:	3aa000ef          	jal	180b2 <_exit>

0000000000017d0c <_init_signal_r>:
   17d0c:	15053783          	ld	a5,336(a0)
   17d10:	c399                	beqz	a5,17d16 <_init_signal_r+0xa>
   17d12:	4501                	li	a0,0
   17d14:	8082                	ret
   17d16:	1141                	addi	sp,sp,-16
   17d18:	10000593          	li	a1,256
   17d1c:	e022                	sd	s0,0(sp)
   17d1e:	e406                	sd	ra,8(sp)
   17d20:	842a                	mv	s0,a0
   17d22:	876f90ef          	jal	10d98 <_malloc_r>
   17d26:	14a43823          	sd	a0,336(s0)
   17d2a:	cd09                	beqz	a0,17d44 <_init_signal_r+0x38>
   17d2c:	10050793          	addi	a5,a0,256
   17d30:	00053023          	sd	zero,0(a0)
   17d34:	0521                	addi	a0,a0,8
   17d36:	fef51de3          	bne	a0,a5,17d30 <_init_signal_r+0x24>
   17d3a:	4501                	li	a0,0
   17d3c:	60a2                	ld	ra,8(sp)
   17d3e:	6402                	ld	s0,0(sp)
   17d40:	0141                	addi	sp,sp,16
   17d42:	8082                	ret
   17d44:	557d                	li	a0,-1
   17d46:	bfdd                	j	17d3c <_init_signal_r+0x30>

0000000000017d48 <_signal_r>:
   17d48:	7179                	addi	sp,sp,-48
   17d4a:	ec26                	sd	s1,24(sp)
   17d4c:	f406                	sd	ra,40(sp)
   17d4e:	47fd                	li	a5,31
   17d50:	84aa                	mv	s1,a0
   17d52:	02b7e063          	bltu	a5,a1,17d72 <_signal_r+0x2a>
   17d56:	15053783          	ld	a5,336(a0)
   17d5a:	f022                	sd	s0,32(sp)
   17d5c:	842e                	mv	s0,a1
   17d5e:	c38d                	beqz	a5,17d80 <_signal_r+0x38>
   17d60:	040e                	slli	s0,s0,0x3
   17d62:	97a2                	add	a5,a5,s0
   17d64:	70a2                	ld	ra,40(sp)
   17d66:	7402                	ld	s0,32(sp)
   17d68:	6388                	ld	a0,0(a5)
   17d6a:	e390                	sd	a2,0(a5)
   17d6c:	64e2                	ld	s1,24(sp)
   17d6e:	6145                	addi	sp,sp,48
   17d70:	8082                	ret
   17d72:	47d9                	li	a5,22
   17d74:	c11c                	sw	a5,0(a0)
   17d76:	557d                	li	a0,-1
   17d78:	70a2                	ld	ra,40(sp)
   17d7a:	64e2                	ld	s1,24(sp)
   17d7c:	6145                	addi	sp,sp,48
   17d7e:	8082                	ret
   17d80:	10000593          	li	a1,256
   17d84:	e432                	sd	a2,8(sp)
   17d86:	812f90ef          	jal	10d98 <_malloc_r>
   17d8a:	14a4b823          	sd	a0,336(s1)
   17d8e:	6622                	ld	a2,8(sp)
   17d90:	87aa                	mv	a5,a0
   17d92:	872a                	mv	a4,a0
   17d94:	10050693          	addi	a3,a0,256
   17d98:	c519                	beqz	a0,17da6 <_signal_r+0x5e>
   17d9a:	00073023          	sd	zero,0(a4)
   17d9e:	0721                	addi	a4,a4,8
   17da0:	fed71de3          	bne	a4,a3,17d9a <_signal_r+0x52>
   17da4:	bf75                	j	17d60 <_signal_r+0x18>
   17da6:	7402                	ld	s0,32(sp)
   17da8:	557d                	li	a0,-1
   17daa:	b7f9                	j	17d78 <_signal_r+0x30>

0000000000017dac <_raise_r>:
   17dac:	1101                	addi	sp,sp,-32
   17dae:	e426                	sd	s1,8(sp)
   17db0:	ec06                	sd	ra,24(sp)
   17db2:	47fd                	li	a5,31
   17db4:	84aa                	mv	s1,a0
   17db6:	04b7ee63          	bltu	a5,a1,17e12 <_raise_r+0x66>
   17dba:	15053783          	ld	a5,336(a0)
   17dbe:	e822                	sd	s0,16(sp)
   17dc0:	842e                	mv	s0,a1
   17dc2:	c795                	beqz	a5,17dee <_raise_r+0x42>
   17dc4:	00359713          	slli	a4,a1,0x3
   17dc8:	97ba                	add	a5,a5,a4
   17dca:	6398                	ld	a4,0(a5)
   17dcc:	c30d                	beqz	a4,17dee <_raise_r+0x42>
   17dce:	4505                	li	a0,1
   17dd0:	00a70963          	beq	a4,a0,17de2 <_raise_r+0x36>
   17dd4:	56fd                	li	a3,-1
   17dd6:	02d70763          	beq	a4,a3,17e04 <_raise_r+0x58>
   17dda:	0007b023          	sd	zero,0(a5)
   17dde:	852e                	mv	a0,a1
   17de0:	9702                	jalr	a4
   17de2:	6442                	ld	s0,16(sp)
   17de4:	4501                	li	a0,0
   17de6:	60e2                	ld	ra,24(sp)
   17de8:	64a2                	ld	s1,8(sp)
   17dea:	6105                	addi	sp,sp,32
   17dec:	8082                	ret
   17dee:	8526                	mv	a0,s1
   17df0:	294000ef          	jal	18084 <_getpid_r>
   17df4:	8622                	mv	a2,s0
   17df6:	6442                	ld	s0,16(sp)
   17df8:	60e2                	ld	ra,24(sp)
   17dfa:	85aa                	mv	a1,a0
   17dfc:	8526                	mv	a0,s1
   17dfe:	64a2                	ld	s1,8(sp)
   17e00:	6105                	addi	sp,sp,32
   17e02:	a4a1                	j	1804a <_kill_r>
   17e04:	6442                	ld	s0,16(sp)
   17e06:	60e2                	ld	ra,24(sp)
   17e08:	47d9                	li	a5,22
   17e0a:	c09c                	sw	a5,0(s1)
   17e0c:	64a2                	ld	s1,8(sp)
   17e0e:	6105                	addi	sp,sp,32
   17e10:	8082                	ret
   17e12:	47d9                	li	a5,22
   17e14:	c11c                	sw	a5,0(a0)
   17e16:	557d                	li	a0,-1
   17e18:	b7f9                	j	17de6 <_raise_r+0x3a>

0000000000017e1a <__sigtramp_r>:
   17e1a:	47fd                	li	a5,31
   17e1c:	08b7e163          	bltu	a5,a1,17e9e <__sigtramp_r+0x84>
   17e20:	15053783          	ld	a5,336(a0)
   17e24:	1101                	addi	sp,sp,-32
   17e26:	e822                	sd	s0,16(sp)
   17e28:	e426                	sd	s1,8(sp)
   17e2a:	ec06                	sd	ra,24(sp)
   17e2c:	842e                	mv	s0,a1
   17e2e:	84aa                	mv	s1,a0
   17e30:	c7a1                	beqz	a5,17e78 <__sigtramp_r+0x5e>
   17e32:	00341713          	slli	a4,s0,0x3
   17e36:	97ba                	add	a5,a5,a4
   17e38:	6398                	ld	a4,0(a5)
   17e3a:	c30d                	beqz	a4,17e5c <__sigtramp_r+0x42>
   17e3c:	56fd                	li	a3,-1
   17e3e:	02d70b63          	beq	a4,a3,17e74 <__sigtramp_r+0x5a>
   17e42:	4685                	li	a3,1
   17e44:	02d70263          	beq	a4,a3,17e68 <__sigtramp_r+0x4e>
   17e48:	8522                	mv	a0,s0
   17e4a:	0007b023          	sd	zero,0(a5)
   17e4e:	9702                	jalr	a4
   17e50:	4501                	li	a0,0
   17e52:	60e2                	ld	ra,24(sp)
   17e54:	6442                	ld	s0,16(sp)
   17e56:	64a2                	ld	s1,8(sp)
   17e58:	6105                	addi	sp,sp,32
   17e5a:	8082                	ret
   17e5c:	60e2                	ld	ra,24(sp)
   17e5e:	6442                	ld	s0,16(sp)
   17e60:	64a2                	ld	s1,8(sp)
   17e62:	4505                	li	a0,1
   17e64:	6105                	addi	sp,sp,32
   17e66:	8082                	ret
   17e68:	60e2                	ld	ra,24(sp)
   17e6a:	6442                	ld	s0,16(sp)
   17e6c:	64a2                	ld	s1,8(sp)
   17e6e:	450d                	li	a0,3
   17e70:	6105                	addi	sp,sp,32
   17e72:	8082                	ret
   17e74:	4509                	li	a0,2
   17e76:	bff1                	j	17e52 <__sigtramp_r+0x38>
   17e78:	10000593          	li	a1,256
   17e7c:	f1df80ef          	jal	10d98 <_malloc_r>
   17e80:	14a4b823          	sd	a0,336(s1)
   17e84:	87aa                	mv	a5,a0
   17e86:	c911                	beqz	a0,17e9a <__sigtramp_r+0x80>
   17e88:	872a                	mv	a4,a0
   17e8a:	10050693          	addi	a3,a0,256
   17e8e:	00073023          	sd	zero,0(a4)
   17e92:	0721                	addi	a4,a4,8
   17e94:	fed71de3          	bne	a4,a3,17e8e <__sigtramp_r+0x74>
   17e98:	bf69                	j	17e32 <__sigtramp_r+0x18>
   17e9a:	557d                	li	a0,-1
   17e9c:	bf5d                	j	17e52 <__sigtramp_r+0x38>
   17e9e:	557d                	li	a0,-1
   17ea0:	8082                	ret

0000000000017ea2 <raise>:
   17ea2:	1101                	addi	sp,sp,-32
   17ea4:	e426                	sd	s1,8(sp)
   17ea6:	ec06                	sd	ra,24(sp)
   17ea8:	47fd                	li	a5,31
   17eaa:	2201b483          	ld	s1,544(gp) # 1b940 <_impure_ptr>
   17eae:	04a7ee63          	bltu	a5,a0,17f0a <raise+0x68>
   17eb2:	1504b783          	ld	a5,336(s1)
   17eb6:	e822                	sd	s0,16(sp)
   17eb8:	842a                	mv	s0,a0
   17eba:	c78d                	beqz	a5,17ee4 <raise+0x42>
   17ebc:	00351713          	slli	a4,a0,0x3
   17ec0:	97ba                	add	a5,a5,a4
   17ec2:	6398                	ld	a4,0(a5)
   17ec4:	c305                	beqz	a4,17ee4 <raise+0x42>
   17ec6:	4685                	li	a3,1
   17ec8:	00d70863          	beq	a4,a3,17ed8 <raise+0x36>
   17ecc:	567d                	li	a2,-1
   17ece:	02c70663          	beq	a4,a2,17efa <raise+0x58>
   17ed2:	0007b023          	sd	zero,0(a5)
   17ed6:	9702                	jalr	a4
   17ed8:	6442                	ld	s0,16(sp)
   17eda:	4501                	li	a0,0
   17edc:	60e2                	ld	ra,24(sp)
   17ede:	64a2                	ld	s1,8(sp)
   17ee0:	6105                	addi	sp,sp,32
   17ee2:	8082                	ret
   17ee4:	8526                	mv	a0,s1
   17ee6:	19e000ef          	jal	18084 <_getpid_r>
   17eea:	8622                	mv	a2,s0
   17eec:	6442                	ld	s0,16(sp)
   17eee:	60e2                	ld	ra,24(sp)
   17ef0:	85aa                	mv	a1,a0
   17ef2:	8526                	mv	a0,s1
   17ef4:	64a2                	ld	s1,8(sp)
   17ef6:	6105                	addi	sp,sp,32
   17ef8:	aa89                	j	1804a <_kill_r>
   17efa:	6442                	ld	s0,16(sp)
   17efc:	60e2                	ld	ra,24(sp)
   17efe:	47d9                	li	a5,22
   17f00:	c09c                	sw	a5,0(s1)
   17f02:	8536                	mv	a0,a3
   17f04:	64a2                	ld	s1,8(sp)
   17f06:	6105                	addi	sp,sp,32
   17f08:	8082                	ret
   17f0a:	47d9                	li	a5,22
   17f0c:	c09c                	sw	a5,0(s1)
   17f0e:	557d                	li	a0,-1
   17f10:	b7f1                	j	17edc <raise+0x3a>

0000000000017f12 <signal>:
   17f12:	1101                	addi	sp,sp,-32
   17f14:	e04a                	sd	s2,0(sp)
   17f16:	ec06                	sd	ra,24(sp)
   17f18:	47fd                	li	a5,31
   17f1a:	2201b903          	ld	s2,544(gp) # 1b940 <_impure_ptr>
   17f1e:	02a7e463          	bltu	a5,a0,17f46 <signal+0x34>
   17f22:	e822                	sd	s0,16(sp)
   17f24:	842a                	mv	s0,a0
   17f26:	15093503          	ld	a0,336(s2)
   17f2a:	e426                	sd	s1,8(sp)
   17f2c:	84ae                	mv	s1,a1
   17f2e:	c505                	beqz	a0,17f56 <signal+0x44>
   17f30:	040e                	slli	s0,s0,0x3
   17f32:	008507b3          	add	a5,a0,s0
   17f36:	60e2                	ld	ra,24(sp)
   17f38:	6442                	ld	s0,16(sp)
   17f3a:	6388                	ld	a0,0(a5)
   17f3c:	e384                	sd	s1,0(a5)
   17f3e:	6902                	ld	s2,0(sp)
   17f40:	64a2                	ld	s1,8(sp)
   17f42:	6105                	addi	sp,sp,32
   17f44:	8082                	ret
   17f46:	47d9                	li	a5,22
   17f48:	00f92023          	sw	a5,0(s2)
   17f4c:	557d                	li	a0,-1
   17f4e:	60e2                	ld	ra,24(sp)
   17f50:	6902                	ld	s2,0(sp)
   17f52:	6105                	addi	sp,sp,32
   17f54:	8082                	ret
   17f56:	10000593          	li	a1,256
   17f5a:	854a                	mv	a0,s2
   17f5c:	e3df80ef          	jal	10d98 <_malloc_r>
   17f60:	14a93823          	sd	a0,336(s2)
   17f64:	87aa                	mv	a5,a0
   17f66:	10050713          	addi	a4,a0,256
   17f6a:	c519                	beqz	a0,17f78 <signal+0x66>
   17f6c:	0007b023          	sd	zero,0(a5)
   17f70:	07a1                	addi	a5,a5,8
   17f72:	fef71de3          	bne	a4,a5,17f6c <signal+0x5a>
   17f76:	bf6d                	j	17f30 <signal+0x1e>
   17f78:	6442                	ld	s0,16(sp)
   17f7a:	64a2                	ld	s1,8(sp)
   17f7c:	557d                	li	a0,-1
   17f7e:	bfc1                	j	17f4e <signal+0x3c>

0000000000017f80 <_init_signal>:
   17f80:	1141                	addi	sp,sp,-16
   17f82:	e022                	sd	s0,0(sp)
   17f84:	2201b403          	ld	s0,544(gp) # 1b940 <_impure_ptr>
   17f88:	e406                	sd	ra,8(sp)
   17f8a:	15043783          	ld	a5,336(s0)
   17f8e:	c791                	beqz	a5,17f9a <_init_signal+0x1a>
   17f90:	4501                	li	a0,0
   17f92:	60a2                	ld	ra,8(sp)
   17f94:	6402                	ld	s0,0(sp)
   17f96:	0141                	addi	sp,sp,16
   17f98:	8082                	ret
   17f9a:	10000593          	li	a1,256
   17f9e:	8522                	mv	a0,s0
   17fa0:	df9f80ef          	jal	10d98 <_malloc_r>
   17fa4:	14a43823          	sd	a0,336(s0)
   17fa8:	c909                	beqz	a0,17fba <_init_signal+0x3a>
   17faa:	10050793          	addi	a5,a0,256
   17fae:	00053023          	sd	zero,0(a0)
   17fb2:	0521                	addi	a0,a0,8
   17fb4:	fef51de3          	bne	a0,a5,17fae <_init_signal+0x2e>
   17fb8:	bfe1                	j	17f90 <_init_signal+0x10>
   17fba:	557d                	li	a0,-1
   17fbc:	bfd9                	j	17f92 <_init_signal+0x12>

0000000000017fbe <__sigtramp>:
   17fbe:	1101                	addi	sp,sp,-32
   17fc0:	e426                	sd	s1,8(sp)
   17fc2:	ec06                	sd	ra,24(sp)
   17fc4:	47fd                	li	a5,31
   17fc6:	2201b483          	ld	s1,544(gp) # 1b940 <_impure_ptr>
   17fca:	06a7ee63          	bltu	a5,a0,18046 <__sigtramp+0x88>
   17fce:	1504b783          	ld	a5,336(s1)
   17fd2:	e822                	sd	s0,16(sp)
   17fd4:	842a                	mv	s0,a0
   17fd6:	c7a9                	beqz	a5,18020 <__sigtramp+0x62>
   17fd8:	00341713          	slli	a4,s0,0x3
   17fdc:	97ba                	add	a5,a5,a4
   17fde:	6398                	ld	a4,0(a5)
   17fe0:	c30d                	beqz	a4,18002 <__sigtramp+0x44>
   17fe2:	56fd                	li	a3,-1
   17fe4:	02d70b63          	beq	a4,a3,1801a <__sigtramp+0x5c>
   17fe8:	4685                	li	a3,1
   17fea:	02d70263          	beq	a4,a3,1800e <__sigtramp+0x50>
   17fee:	8522                	mv	a0,s0
   17ff0:	0007b023          	sd	zero,0(a5)
   17ff4:	9702                	jalr	a4
   17ff6:	6442                	ld	s0,16(sp)
   17ff8:	4501                	li	a0,0
   17ffa:	60e2                	ld	ra,24(sp)
   17ffc:	64a2                	ld	s1,8(sp)
   17ffe:	6105                	addi	sp,sp,32
   18000:	8082                	ret
   18002:	6442                	ld	s0,16(sp)
   18004:	60e2                	ld	ra,24(sp)
   18006:	64a2                	ld	s1,8(sp)
   18008:	4505                	li	a0,1
   1800a:	6105                	addi	sp,sp,32
   1800c:	8082                	ret
   1800e:	6442                	ld	s0,16(sp)
   18010:	60e2                	ld	ra,24(sp)
   18012:	64a2                	ld	s1,8(sp)
   18014:	450d                	li	a0,3
   18016:	6105                	addi	sp,sp,32
   18018:	8082                	ret
   1801a:	6442                	ld	s0,16(sp)
   1801c:	4509                	li	a0,2
   1801e:	bff1                	j	17ffa <__sigtramp+0x3c>
   18020:	10000593          	li	a1,256
   18024:	8526                	mv	a0,s1
   18026:	d73f80ef          	jal	10d98 <_malloc_r>
   1802a:	14a4b823          	sd	a0,336(s1)
   1802e:	87aa                	mv	a5,a0
   18030:	c911                	beqz	a0,18044 <__sigtramp+0x86>
   18032:	872a                	mv	a4,a0
   18034:	10050693          	addi	a3,a0,256
   18038:	00073023          	sd	zero,0(a4)
   1803c:	0721                	addi	a4,a4,8
   1803e:	fee69de3          	bne	a3,a4,18038 <__sigtramp+0x7a>
   18042:	bf59                	j	17fd8 <__sigtramp+0x1a>
   18044:	6442                	ld	s0,16(sp)
   18046:	557d                	li	a0,-1
   18048:	bf4d                	j	17ffa <__sigtramp+0x3c>

000000000001804a <_kill_r>:
   1804a:	1101                	addi	sp,sp,-32
   1804c:	872e                	mv	a4,a1
   1804e:	e822                	sd	s0,16(sp)
   18050:	e426                	sd	s1,8(sp)
   18052:	85b2                	mv	a1,a2
   18054:	842a                	mv	s0,a0
   18056:	853a                	mv	a0,a4
   18058:	ec06                	sd	ra,24(sp)
   1805a:	2401a023          	sw	zero,576(gp) # 1b960 <errno>
   1805e:	0e0000ef          	jal	1813e <_kill>
   18062:	57fd                	li	a5,-1
   18064:	00f50763          	beq	a0,a5,18072 <_kill_r+0x28>
   18068:	60e2                	ld	ra,24(sp)
   1806a:	6442                	ld	s0,16(sp)
   1806c:	64a2                	ld	s1,8(sp)
   1806e:	6105                	addi	sp,sp,32
   18070:	8082                	ret
   18072:	2401a783          	lw	a5,576(gp) # 1b960 <errno>
   18076:	dbed                	beqz	a5,18068 <_kill_r+0x1e>
   18078:	60e2                	ld	ra,24(sp)
   1807a:	c01c                	sw	a5,0(s0)
   1807c:	6442                	ld	s0,16(sp)
   1807e:	64a2                	ld	s1,8(sp)
   18080:	6105                	addi	sp,sp,32
   18082:	8082                	ret

0000000000018084 <_getpid_r>:
   18084:	a841                	j	18114 <_getpid>

0000000000018086 <_close>:
   18086:	1141                	addi	sp,sp,-16
   18088:	e406                	sd	ra,8(sp)
   1808a:	e022                	sd	s0,0(sp)
   1808c:	03900893          	li	a7,57
   18090:	00000073          	ecall
   18094:	842a                	mv	s0,a0
   18096:	00054763          	bltz	a0,180a4 <_close+0x1e>
   1809a:	2501                	sext.w	a0,a0
   1809c:	60a2                	ld	ra,8(sp)
   1809e:	6402                	ld	s0,0(sp)
   180a0:	0141                	addi	sp,sp,16
   180a2:	8082                	ret
   180a4:	c53ff0ef          	jal	17cf6 <__errno>
   180a8:	4080043b          	negw	s0,s0
   180ac:	c100                	sw	s0,0(a0)
   180ae:	557d                	li	a0,-1
   180b0:	b7f5                	j	1809c <_close+0x16>

00000000000180b2 <_exit>:
   180b2:	05d00893          	li	a7,93
   180b6:	00000073          	ecall
   180ba:	00054363          	bltz	a0,180c0 <_exit+0xe>
   180be:	a001                	j	180be <_exit+0xc>
   180c0:	1141                	addi	sp,sp,-16
   180c2:	e022                	sd	s0,0(sp)
   180c4:	842a                	mv	s0,a0
   180c6:	e406                	sd	ra,8(sp)
   180c8:	4080043b          	negw	s0,s0
   180cc:	c2bff0ef          	jal	17cf6 <__errno>
   180d0:	c100                	sw	s0,0(a0)
   180d2:	a001                	j	180d2 <_exit+0x20>

00000000000180d4 <_fstat>:
   180d4:	7135                	addi	sp,sp,-160
   180d6:	e526                	sd	s1,136(sp)
   180d8:	ed06                	sd	ra,152(sp)
   180da:	84ae                	mv	s1,a1
   180dc:	e922                	sd	s0,144(sp)
   180de:	858a                	mv	a1,sp
   180e0:	05000893          	li	a7,80
   180e4:	00000073          	ecall
   180e8:	842a                	mv	s0,a0
   180ea:	00054e63          	bltz	a0,18106 <_fstat+0x32>
   180ee:	0005041b          	sext.w	s0,a0
   180f2:	8526                	mv	a0,s1
   180f4:	858a                	mv	a1,sp
   180f6:	134000ef          	jal	1822a <_conv_stat>
   180fa:	60ea                	ld	ra,152(sp)
   180fc:	8522                	mv	a0,s0
   180fe:	644a                	ld	s0,144(sp)
   18100:	64aa                	ld	s1,136(sp)
   18102:	610d                	addi	sp,sp,160
   18104:	8082                	ret
   18106:	4080043b          	negw	s0,s0
   1810a:	bedff0ef          	jal	17cf6 <__errno>
   1810e:	c100                	sw	s0,0(a0)
   18110:	547d                	li	s0,-1
   18112:	b7c5                	j	180f2 <_fstat+0x1e>

0000000000018114 <_getpid>:
   18114:	4505                	li	a0,1
   18116:	8082                	ret

0000000000018118 <_isatty>:
   18118:	7119                	addi	sp,sp,-128
   1811a:	002c                	addi	a1,sp,8
   1811c:	fc86                	sd	ra,120(sp)
   1811e:	fb7ff0ef          	jal	180d4 <_fstat>
   18122:	57fd                	li	a5,-1
   18124:	00f50963          	beq	a0,a5,18136 <_isatty+0x1e>
   18128:	4532                	lw	a0,12(sp)
   1812a:	70e6                	ld	ra,120(sp)
   1812c:	00d5551b          	srliw	a0,a0,0xd
   18130:	8905                	andi	a0,a0,1
   18132:	6109                	addi	sp,sp,128
   18134:	8082                	ret
   18136:	70e6                	ld	ra,120(sp)
   18138:	4501                	li	a0,0
   1813a:	6109                	addi	sp,sp,128
   1813c:	8082                	ret

000000000001813e <_kill>:
   1813e:	1141                	addi	sp,sp,-16
   18140:	e406                	sd	ra,8(sp)
   18142:	bb5ff0ef          	jal	17cf6 <__errno>
   18146:	60a2                	ld	ra,8(sp)
   18148:	47d9                	li	a5,22
   1814a:	c11c                	sw	a5,0(a0)
   1814c:	557d                	li	a0,-1
   1814e:	0141                	addi	sp,sp,16
   18150:	8082                	ret

0000000000018152 <_lseek>:
   18152:	1141                	addi	sp,sp,-16
   18154:	e406                	sd	ra,8(sp)
   18156:	e022                	sd	s0,0(sp)
   18158:	03e00893          	li	a7,62
   1815c:	00000073          	ecall
   18160:	842a                	mv	s0,a0
   18162:	00054763          	bltz	a0,18170 <_lseek+0x1e>
   18166:	60a2                	ld	ra,8(sp)
   18168:	8522                	mv	a0,s0
   1816a:	6402                	ld	s0,0(sp)
   1816c:	0141                	addi	sp,sp,16
   1816e:	8082                	ret
   18170:	4080043b          	negw	s0,s0
   18174:	b83ff0ef          	jal	17cf6 <__errno>
   18178:	c100                	sw	s0,0(a0)
   1817a:	547d                	li	s0,-1
   1817c:	b7ed                	j	18166 <_lseek+0x14>

000000000001817e <_read>:
   1817e:	1141                	addi	sp,sp,-16
   18180:	e406                	sd	ra,8(sp)
   18182:	e022                	sd	s0,0(sp)
   18184:	03f00893          	li	a7,63
   18188:	00000073          	ecall
   1818c:	842a                	mv	s0,a0
   1818e:	00054763          	bltz	a0,1819c <_read+0x1e>
   18192:	60a2                	ld	ra,8(sp)
   18194:	8522                	mv	a0,s0
   18196:	6402                	ld	s0,0(sp)
   18198:	0141                	addi	sp,sp,16
   1819a:	8082                	ret
   1819c:	4080043b          	negw	s0,s0
   181a0:	b57ff0ef          	jal	17cf6 <__errno>
   181a4:	c100                	sw	s0,0(a0)
   181a6:	547d                	li	s0,-1
   181a8:	b7ed                	j	18192 <_read+0x14>

00000000000181aa <_sbrk>:
   181aa:	2701b703          	ld	a4,624(gp) # 1b990 <heap_end.0>
   181ae:	1141                	addi	sp,sp,-16
   181b0:	e406                	sd	ra,8(sp)
   181b2:	87aa                	mv	a5,a0
   181b4:	ef01                	bnez	a4,181cc <_sbrk+0x22>
   181b6:	0d600893          	li	a7,214
   181ba:	4501                	li	a0,0
   181bc:	00000073          	ecall
   181c0:	567d                	li	a2,-1
   181c2:	872a                	mv	a4,a0
   181c4:	02c50563          	beq	a0,a2,181ee <_sbrk+0x44>
   181c8:	26a1b823          	sd	a0,624(gp) # 1b990 <heap_end.0>
   181cc:	00e78533          	add	a0,a5,a4
   181d0:	0d600893          	li	a7,214
   181d4:	00000073          	ecall
   181d8:	2701b703          	ld	a4,624(gp) # 1b990 <heap_end.0>
   181dc:	97ba                	add	a5,a5,a4
   181de:	00f51863          	bne	a0,a5,181ee <_sbrk+0x44>
   181e2:	60a2                	ld	ra,8(sp)
   181e4:	26a1b823          	sd	a0,624(gp) # 1b990 <heap_end.0>
   181e8:	853a                	mv	a0,a4
   181ea:	0141                	addi	sp,sp,16
   181ec:	8082                	ret
   181ee:	b09ff0ef          	jal	17cf6 <__errno>
   181f2:	60a2                	ld	ra,8(sp)
   181f4:	47b1                	li	a5,12
   181f6:	c11c                	sw	a5,0(a0)
   181f8:	557d                	li	a0,-1
   181fa:	0141                	addi	sp,sp,16
   181fc:	8082                	ret

00000000000181fe <_write>:
   181fe:	1141                	addi	sp,sp,-16
   18200:	e406                	sd	ra,8(sp)
   18202:	e022                	sd	s0,0(sp)
   18204:	04000893          	li	a7,64
   18208:	00000073          	ecall
   1820c:	842a                	mv	s0,a0
   1820e:	00054763          	bltz	a0,1821c <_write+0x1e>
   18212:	60a2                	ld	ra,8(sp)
   18214:	8522                	mv	a0,s0
   18216:	6402                	ld	s0,0(sp)
   18218:	0141                	addi	sp,sp,16
   1821a:	8082                	ret
   1821c:	4080043b          	negw	s0,s0
   18220:	ad7ff0ef          	jal	17cf6 <__errno>
   18224:	c100                	sw	s0,0(a0)
   18226:	547d                	li	s0,-1
   18228:	b7ed                	j	18212 <_write+0x14>

000000000001822a <_conv_stat>:
   1822a:	0005b383          	ld	t2,0(a1)
   1822e:	0085b283          	ld	t0,8(a1)
   18232:	0105af83          	lw	t6,16(a1)
   18236:	0145af03          	lw	t5,20(a1)
   1823a:	0185ae83          	lw	t4,24(a1)
   1823e:	01c5ae03          	lw	t3,28(a1)
   18242:	0205b303          	ld	t1,32(a1)
   18246:	0305b883          	ld	a7,48(a1)
   1824a:	0405b803          	ld	a6,64(a1)
   1824e:	5d90                	lw	a2,56(a1)
   18250:	65b4                	ld	a3,72(a1)
   18252:	6db8                	ld	a4,88(a1)
   18254:	75bc                	ld	a5,104(a1)
   18256:	00751023          	sh	t2,0(a0)
   1825a:	00551123          	sh	t0,2(a0)
   1825e:	01f52223          	sw	t6,4(a0)
   18262:	01e51423          	sh	t5,8(a0)
   18266:	01d51523          	sh	t4,10(a0)
   1826a:	01c51623          	sh	t3,12(a0)
   1826e:	00651723          	sh	t1,14(a0)
   18272:	01153823          	sd	a7,16(a0)
   18276:	05053823          	sd	a6,80(a0)
   1827a:	e530                	sd	a2,72(a0)
   1827c:	ed14                	sd	a3,24(a0)
   1827e:	f518                	sd	a4,40(a0)
   18280:	fd1c                	sd	a5,56(a0)
   18282:	8082                	ret

0000000000018284 <__eqtf2>:
#include "soft-fp.h"
#include "quad.h"

CMPtype
__eqtf2 (TFtype a, TFtype b)
{
   18284:	88aa                	mv	a7,a0
  FP_DECL_EX;
  FP_DECL_Q (A);
  FP_DECL_Q (B);
  CMPtype r;

  FP_INIT_EXCEPTIONS;
   18286:	002027f3          	frrm	a5
  FP_UNPACK_RAW_Q (A, a);
   1828a:	5e7d                	li	t3,-1
   1828c:	6521                	lui	a0,0x8
   1828e:	0305d713          	srli	a4,a1,0x30
   18292:	9572                	add	a0,a0,t3
   18294:	010e5813          	srli	a6,t3,0x10
  FP_UNPACK_RAW_Q (B, b);
   18298:	0306d313          	srli	t1,a3,0x30
  FP_UNPACK_RAW_Q (A, a);
   1829c:	8f69                	and	a4,a4,a0
   1829e:	0105f7b3          	and	a5,a1,a6
  FP_UNPACK_RAW_Q (B, b);
   182a2:	00a37333          	and	t1,t1,a0
   182a6:	0106f833          	and	a6,a3,a6
  FP_UNPACK_RAW_Q (A, a);
   182aa:	91fd                	srli	a1,a1,0x3f
  FP_UNPACK_RAW_Q (B, b);
   182ac:	92fd                	srli	a3,a3,0x3f
  FP_CMP_EQ_Q (r, A, B, 1);
   182ae:	00a71863          	bne	a4,a0,182be <__eqtf2+0x3a>
   182b2:	00f8e533          	or	a0,a7,a5
   182b6:	e515                	bnez	a0,182e2 <__eqtf2+0x5e>
   182b8:	04e31763          	bne	t1,a4,18306 <__eqtf2+0x82>
   182bc:	a019                	j	182c2 <__eqtf2+0x3e>
   182be:	04a31663          	bne	t1,a0,1830a <__eqtf2+0x86>
   182c2:	01066533          	or	a0,a2,a6
   182c6:	c131                	beqz	a0,1830a <__eqtf2+0x86>
   182c8:	66a1                	lui	a3,0x8
   182ca:	16fd                	addi	a3,a3,-1 # 7fff <exit-0x8121>
   182cc:	02d71663          	bne	a4,a3,182f8 <__eqtf2+0x74>
   182d0:	00f8e8b3          	or	a7,a7,a5
   182d4:	00088e63          	beqz	a7,182f0 <__eqtf2+0x6c>
   182d8:	577d                	li	a4,-1
   182da:	8345                	srli	a4,a4,0x11
   182dc:	02f77363          	bgeu	a4,a5,18302 <__eqtf2+0x7e>
   182e0:	a801                	j	182f0 <__eqtf2+0x6c>
   182e2:	011e5e13          	srli	t3,t3,0x11
   182e6:	00fe7e63          	bgeu	t3,a5,18302 <__eqtf2+0x7e>
   182ea:	4505                	li	a0,1
   182ec:	02e31f63          	bne	t1,a4,1832a <__eqtf2+0xa6>
   182f0:	01066633          	or	a2,a2,a6
   182f4:	4505                	li	a0,1
   182f6:	ca15                	beqz	a2,1832a <__eqtf2+0xa6>
   182f8:	57fd                	li	a5,-1
   182fa:	83c5                	srli	a5,a5,0x11
   182fc:	4505                	li	a0,1
   182fe:	0307e663          	bltu	a5,a6,1832a <__eqtf2+0xa6>
  FP_HANDLE_EXCEPTIONS;
   18302:	00186073          	csrsi	fflags,16
  FP_CMP_EQ_Q (r, A, B, 1);
   18306:	4505                	li	a0,1
   18308:	8082                	ret
   1830a:	4505                	li	a0,1
   1830c:	00671f63          	bne	a4,t1,1832a <__eqtf2+0xa6>
   18310:	01079d63          	bne	a5,a6,1832a <__eqtf2+0xa6>
   18314:	01161b63          	bne	a2,a7,1832a <__eqtf2+0xa6>
   18318:	00d58763          	beq	a1,a3,18326 <__eqtf2+0xa2>
   1831c:	e719                	bnez	a4,1832a <__eqtf2+0xa6>
   1831e:	8fd1                	or	a5,a5,a2
   18320:	00f03533          	snez	a0,a5
   18324:	8082                	ret
   18326:	4501                	li	a0,0
  FP_HANDLE_EXCEPTIONS;
   18328:	8082                	ret

  return r;
}
   1832a:	8082                	ret

000000000001832c <__getf2>:
#include "soft-fp.h"
#include "quad.h"

CMPtype
__getf2 (TFtype a, TFtype b)
{
   1832c:	88aa                	mv	a7,a0
  FP_DECL_EX;
  FP_DECL_Q (A);
  FP_DECL_Q (B);
  CMPtype r;

  FP_INIT_EXCEPTIONS;
   1832e:	002027f3          	frrm	a5
  FP_UNPACK_RAW_Q (A, a);
   18332:	6321                	lui	t1,0x8
   18334:	0305d813          	srli	a6,a1,0x30
   18338:	137d                	addi	t1,t1,-1 # 7fff <exit-0x8121>
   1833a:	577d                	li	a4,-1
   1833c:	8341                	srli	a4,a4,0x10
  FP_UNPACK_RAW_Q (B, b);
   1833e:	0306d793          	srli	a5,a3,0x30
  FP_UNPACK_RAW_Q (A, a);
   18342:	00687833          	and	a6,a6,t1
   18346:	00e5fe33          	and	t3,a1,a4
  FP_UNPACK_RAW_Q (B, b);
   1834a:	0067f533          	and	a0,a5,t1
   1834e:	8f75                	and	a4,a4,a3
  FP_UNPACK_RAW_Q (A, a);
   18350:	91fd                	srli	a1,a1,0x3f
  FP_UNPACK_RAW_Q (B, b);
   18352:	92fd                	srli	a3,a3,0x3f
  FP_CMP_Q (r, A, B, -2, 2);
   18354:	00681563          	bne	a6,t1,1835e <__getf2+0x32>
   18358:	011e67b3          	or	a5,t3,a7
   1835c:	ebb1                	bnez	a5,183b0 <__getf2+0x84>
   1835e:	00651563          	bne	a0,t1,18368 <__getf2+0x3c>
   18362:	00c767b3          	or	a5,a4,a2
   18366:	e7a9                	bnez	a5,183b0 <__getf2+0x84>
   18368:	4781                	li	a5,0
   1836a:	00081663          	bnez	a6,18376 <__getf2+0x4a>
   1836e:	011e67b3          	or	a5,t3,a7
   18372:	0017b793          	seqz	a5,a5
   18376:	e129                	bnez	a0,183b8 <__getf2+0x8c>
   18378:	00c76333          	or	t1,a4,a2
   1837c:	c799                	beqz	a5,1838a <__getf2+0x5e>
   1837e:	00030a63          	beqz	t1,18392 <__getf2+0x66>
   18382:	4505                	li	a0,1
   18384:	e699                	bnez	a3,18392 <__getf2+0x66>
   18386:	557d                	li	a0,-1
   18388:	8082                	ret
   1838a:	02031863          	bnez	t1,183ba <__getf2+0x8e>
   1838e:	557d                	li	a0,-1
   18390:	c99d                	beqz	a1,183c6 <__getf2+0x9a>
  FP_HANDLE_EXCEPTIONS;

  return r;
}
   18392:	8082                	ret
  FP_CMP_Q (r, A, B, -2, 2);
   18394:	fea847e3          	blt	a6,a0,18382 <__getf2+0x56>
   18398:	ffc76be3          	bltu	a4,t3,1838e <__getf2+0x62>
   1839c:	00ee1763          	bne	t3,a4,183aa <__getf2+0x7e>
   183a0:	ff1667e3          	bltu	a2,a7,1838e <__getf2+0x62>
   183a4:	4501                	li	a0,0
   183a6:	fec8f6e3          	bgeu	a7,a2,18392 <__getf2+0x66>
   183aa:	4505                	li	a0,1
   183ac:	f1fd                	bnez	a1,18392 <__getf2+0x66>
   183ae:	bfe1                	j	18386 <__getf2+0x5a>
  FP_HANDLE_EXCEPTIONS;
   183b0:	00186073          	csrsi	fflags,16
   183b4:	5579                	li	a0,-2
   183b6:	8082                	ret
  FP_CMP_Q (r, A, B, -2, 2);
   183b8:	f7e9                	bnez	a5,18382 <__getf2+0x56>
   183ba:	fcb69ae3          	bne	a3,a1,1838e <__getf2+0x62>
   183be:	fd055be3          	bge	a0,a6,18394 <__getf2+0x68>
   183c2:	557d                	li	a0,-1
   183c4:	f6f9                	bnez	a3,18392 <__getf2+0x66>
   183c6:	4505                	li	a0,1
   183c8:	8082                	ret

00000000000183ca <__letf2>:
#include "soft-fp.h"
#include "quad.h"

CMPtype
__letf2 (TFtype a, TFtype b)
{
   183ca:	88aa                	mv	a7,a0
  FP_DECL_EX;
  FP_DECL_Q (A);
  FP_DECL_Q (B);
  CMPtype r;

  FP_INIT_EXCEPTIONS;
   183cc:	002027f3          	frrm	a5
  FP_UNPACK_RAW_Q (A, a);
   183d0:	6321                	lui	t1,0x8
   183d2:	0305d813          	srli	a6,a1,0x30
   183d6:	137d                	addi	t1,t1,-1 # 7fff <exit-0x8121>
   183d8:	577d                	li	a4,-1
   183da:	8341                	srli	a4,a4,0x10
  FP_UNPACK_RAW_Q (B, b);
   183dc:	0306d793          	srli	a5,a3,0x30
  FP_UNPACK_RAW_Q (A, a);
   183e0:	00687833          	and	a6,a6,t1
   183e4:	00e5fe33          	and	t3,a1,a4
  FP_UNPACK_RAW_Q (B, b);
   183e8:	0067f533          	and	a0,a5,t1
   183ec:	8f75                	and	a4,a4,a3
  FP_UNPACK_RAW_Q (A, a);
   183ee:	91fd                	srli	a1,a1,0x3f
  FP_UNPACK_RAW_Q (B, b);
   183f0:	92fd                	srli	a3,a3,0x3f
  FP_CMP_Q (r, A, B, 2, 2);
   183f2:	00681563          	bne	a6,t1,183fc <__letf2+0x32>
   183f6:	011e67b3          	or	a5,t3,a7
   183fa:	ebb1                	bnez	a5,1844e <__letf2+0x84>
   183fc:	00651563          	bne	a0,t1,18406 <__letf2+0x3c>
   18400:	00c767b3          	or	a5,a4,a2
   18404:	e7a9                	bnez	a5,1844e <__letf2+0x84>
   18406:	4781                	li	a5,0
   18408:	00081663          	bnez	a6,18414 <__letf2+0x4a>
   1840c:	011e67b3          	or	a5,t3,a7
   18410:	0017b793          	seqz	a5,a5
   18414:	e129                	bnez	a0,18456 <__letf2+0x8c>
   18416:	00c76333          	or	t1,a4,a2
   1841a:	c799                	beqz	a5,18428 <__letf2+0x5e>
   1841c:	00030a63          	beqz	t1,18430 <__letf2+0x66>
   18420:	4505                	li	a0,1
   18422:	e699                	bnez	a3,18430 <__letf2+0x66>
   18424:	557d                	li	a0,-1
   18426:	8082                	ret
   18428:	02031863          	bnez	t1,18458 <__letf2+0x8e>
   1842c:	557d                	li	a0,-1
   1842e:	c99d                	beqz	a1,18464 <__letf2+0x9a>
  FP_HANDLE_EXCEPTIONS;

  return r;
}
   18430:	8082                	ret
  FP_CMP_Q (r, A, B, 2, 2);
   18432:	fea847e3          	blt	a6,a0,18420 <__letf2+0x56>
   18436:	ffc76be3          	bltu	a4,t3,1842c <__letf2+0x62>
   1843a:	00ee1763          	bne	t3,a4,18448 <__letf2+0x7e>
   1843e:	ff1667e3          	bltu	a2,a7,1842c <__letf2+0x62>
   18442:	4501                	li	a0,0
   18444:	fec8f6e3          	bgeu	a7,a2,18430 <__letf2+0x66>
   18448:	4505                	li	a0,1
   1844a:	f1fd                	bnez	a1,18430 <__letf2+0x66>
   1844c:	bfe1                	j	18424 <__letf2+0x5a>
  FP_HANDLE_EXCEPTIONS;
   1844e:	00186073          	csrsi	fflags,16
   18452:	4509                	li	a0,2
   18454:	8082                	ret
  FP_CMP_Q (r, A, B, 2, 2);
   18456:	f7e9                	bnez	a5,18420 <__letf2+0x56>
   18458:	fcb69ae3          	bne	a3,a1,1842c <__letf2+0x62>
   1845c:	fd055be3          	bge	a0,a6,18432 <__letf2+0x68>
   18460:	557d                	li	a0,-1
   18462:	f6f9                	bnez	a3,18430 <__letf2+0x66>
   18464:	4505                	li	a0,1
   18466:	8082                	ret

0000000000018468 <__multf3>:
#include "soft-fp.h"
#include "quad.h"

TFtype
__multf3 (TFtype a, TFtype b)
{
   18468:	711d                	addi	sp,sp,-96
   1846a:	e8a2                	sd	s0,80(sp)
   1846c:	f852                	sd	s4,48(sp)
   1846e:	f05a                	sd	s6,32(sp)
   18470:	ec86                	sd	ra,88(sp)
   18472:	e4a6                	sd	s1,72(sp)
   18474:	e0ca                	sd	s2,64(sp)
   18476:	fc4e                	sd	s3,56(sp)
   18478:	f456                	sd	s5,40(sp)
   1847a:	ec5e                	sd	s7,24(sp)
   1847c:	e862                	sd	s8,16(sp)
   1847e:	e466                	sd	s9,8(sp)
   18480:	842a                	mv	s0,a0
   18482:	8b32                	mv	s6,a2
   18484:	8a36                	mv	s4,a3
  FP_DECL_Q (A);
  FP_DECL_Q (B);
  FP_DECL_Q (R);
  TFtype r;

  FP_INIT_ROUNDMODE;
   18486:	002029f3          	frrm	s3
  FP_UNPACK_Q (A, a);
   1848a:	6721                	lui	a4,0x8
   1848c:	0305d793          	srli	a5,a1,0x30
   18490:	177d                	addi	a4,a4,-1 # 7fff <exit-0x8121>
   18492:	01059493          	slli	s1,a1,0x10
   18496:	8ff9                	and	a5,a5,a4
  FP_INIT_ROUNDMODE;
   18498:	2981                	sext.w	s3,s3
  FP_UNPACK_Q (A, a);
   1849a:	80c1                	srli	s1,s1,0x10
   1849c:	03f5da93          	srli	s5,a1,0x3f
   184a0:	c785                	beqz	a5,184c8 <__multf3+0x60>
   184a2:	00078c9b          	sext.w	s9,a5
   184a6:	08e78063          	beq	a5,a4,18526 <__multf3+0xbe>
   184aa:	048e                	slli	s1,s1,0x3
   184ac:	03d55713          	srli	a4,a0,0x3d
   184b0:	8f45                	or	a4,a4,s1
   184b2:	7cf1                	lui	s9,0xffffc
   184b4:	4485                	li	s1,1
   184b6:	14ce                	slli	s1,s1,0x33
   184b8:	0c85                	addi	s9,s9,1 # ffffffffffffc001 <__BSS_END__+0xfffffffffffe00e1>
   184ba:	8cd9                	or	s1,s1,a4
   184bc:	00351b93          	slli	s7,a0,0x3
   184c0:	9cbe                	add	s9,s9,a5
   184c2:	4c01                	li	s8,0
  FP_DECL_EX;
   184c4:	4901                	li	s2,0
   184c6:	a8a5                	j	1853e <__multf3+0xd6>
  FP_UNPACK_Q (A, a);
   184c8:	00956bb3          	or	s7,a0,s1
   184cc:	0e0b8763          	beqz	s7,185ba <__multf3+0x152>
   184d0:	cc85                	beqz	s1,18508 <__multf3+0xa0>
   184d2:	8526                	mv	a0,s1
   184d4:	7cf000ef          	jal	194a2 <__clzdi2>
   184d8:	0005071b          	sext.w	a4,a0
   184dc:	ff170793          	addi	a5,a4,-15
   184e0:	03d00693          	li	a3,61
   184e4:	0037861b          	addiw	a2,a5,3
   184e8:	40f687bb          	subw	a5,a3,a5
   184ec:	00c494b3          	sll	s1,s1,a2
   184f0:	00f457b3          	srl	a5,s0,a5
   184f4:	8fc5                	or	a5,a5,s1
   184f6:	00c414b3          	sll	s1,s0,a2
   184fa:	7cf1                	lui	s9,0xffffc
   184fc:	0cc5                	addi	s9,s9,17 # ffffffffffffc011 <__BSS_END__+0xfffffffffffe00f1>
   184fe:	8ba6                	mv	s7,s1
   18500:	40ec8cb3          	sub	s9,s9,a4
   18504:	84be                	mv	s1,a5
   18506:	bf75                	j	184c2 <__multf3+0x5a>
   18508:	79b000ef          	jal	194a2 <__clzdi2>
   1850c:	0405071b          	addiw	a4,a0,64 # 8040 <exit-0x80e0>
   18510:	ff170793          	addi	a5,a4,-15
   18514:	03c00693          	li	a3,60
   18518:	fcf6d4e3          	bge	a3,a5,184e0 <__multf3+0x78>
   1851c:	fc37879b          	addiw	a5,a5,-61
   18520:	00f417b3          	sll	a5,s0,a5
   18524:	bfd9                	j	184fa <__multf3+0x92>
   18526:	00956bb3          	or	s7,a0,s1
   1852a:	080b8c63          	beqz	s7,185c2 <__multf3+0x15a>
   1852e:	4905                	li	s2,1
   18530:	193e                	slli	s2,s2,0x2f
   18532:	0124b933          	sltu	s2,s1,s2
   18536:	0049191b          	slliw	s2,s2,0x4
   1853a:	8baa                	mv	s7,a0
   1853c:	4c0d                	li	s8,3
  FP_UNPACK_Q (B, b);
   1853e:	56fd                	li	a3,-1
   18540:	65a1                	lui	a1,0x8
   18542:	030a5613          	srli	a2,s4,0x30
   18546:	95b6                	add	a1,a1,a3
   18548:	0106d413          	srli	s0,a3,0x10
   1854c:	8e6d                	and	a2,a2,a1
   1854e:	008a7433          	and	s0,s4,s0
   18552:	87da                	mv	a5,s6
   18554:	03fa5a13          	srli	s4,s4,0x3f
   18558:	ca25                	beqz	a2,185c8 <__multf3+0x160>
   1855a:	0006071b          	sext.w	a4,a2
   1855e:	0cb60363          	beq	a2,a1,18624 <__multf3+0x1bc>
   18562:	040e                	slli	s0,s0,0x3
   18564:	03db5713          	srli	a4,s6,0x3d
   18568:	8f41                	or	a4,a4,s0
   1856a:	4405                	li	s0,1
   1856c:	144e                	slli	s0,s0,0x33
   1856e:	8c59                	or	s0,s0,a4
   18570:	7771                	lui	a4,0xffffc
   18572:	0705                	addi	a4,a4,1 # ffffffffffffc001 <__BSS_END__+0xfffffffffffe00e1>
   18574:	003b1793          	slli	a5,s6,0x3
   18578:	9732                	add	a4,a4,a2
   1857a:	4581                	li	a1,0
  FP_MUL_Q (R, A, B);
   1857c:	002c1693          	slli	a3,s8,0x2
   18580:	9766                	add	a4,a4,s9
   18582:	8ecd                	or	a3,a3,a1
   18584:	4629                	li	a2,10
   18586:	00170813          	addi	a6,a4,1
   1858a:	0cd64d63          	blt	a2,a3,18664 <__multf3+0x1fc>
   1858e:	4889                	li	a7,2
   18590:	014ac633          	xor	a2,s5,s4
   18594:	4505                	li	a0,1
   18596:	0ad8c963          	blt	a7,a3,18648 <__multf3+0x1e0>
   1859a:	16fd                	addi	a3,a3,-1
   1859c:	0cd56e63          	bltu	a0,a3,18678 <__multf3+0x210>
   185a0:	8c2e                	mv	s8,a1
  FP_PACK_Q (r, R);
   185a2:	4709                	li	a4,2
   185a4:	4aec0463          	beq	s8,a4,18a4c <__multf3+0x5e4>
   185a8:	470d                	li	a4,3
   185aa:	4aec0663          	beq	s8,a4,18a56 <__multf3+0x5ee>
   185ae:	4705                	li	a4,1
   185b0:	26ec1463          	bne	s8,a4,18818 <__multf3+0x3b0>
   185b4:	4701                	li	a4,0
   185b6:	4501                	li	a0,0
   185b8:	a995                	j	18a2c <__multf3+0x5c4>
  FP_UNPACK_Q (A, a);
   185ba:	4481                	li	s1,0
   185bc:	4c81                	li	s9,0
   185be:	4c05                	li	s8,1
   185c0:	b711                	j	184c4 <__multf3+0x5c>
   185c2:	4481                	li	s1,0
   185c4:	4c09                	li	s8,2
   185c6:	bdfd                	j	184c4 <__multf3+0x5c>
  FP_UNPACK_Q (B, b);
   185c8:	008b67b3          	or	a5,s6,s0
   185cc:	c7ad                	beqz	a5,18636 <__multf3+0x1ce>
   185ce:	c81d                	beqz	s0,18604 <__multf3+0x19c>
   185d0:	8522                	mv	a0,s0
   185d2:	6d1000ef          	jal	194a2 <__clzdi2>
   185d6:	2501                	sext.w	a0,a0
   185d8:	ff150793          	addi	a5,a0,-15
   185dc:	03d00713          	li	a4,61
   185e0:	0037861b          	addiw	a2,a5,3
   185e4:	40f707bb          	subw	a5,a4,a5
   185e8:	00c41433          	sll	s0,s0,a2
   185ec:	00fb57b3          	srl	a5,s6,a5
   185f0:	0087e6b3          	or	a3,a5,s0
   185f4:	00cb1433          	sll	s0,s6,a2
   185f8:	7771                	lui	a4,0xffffc
   185fa:	0745                	addi	a4,a4,17 # ffffffffffffc011 <__BSS_END__+0xfffffffffffe00f1>
   185fc:	87a2                	mv	a5,s0
   185fe:	8f09                	sub	a4,a4,a0
   18600:	8436                	mv	s0,a3
   18602:	bfa5                	j	1857a <__multf3+0x112>
   18604:	855a                	mv	a0,s6
   18606:	69d000ef          	jal	194a2 <__clzdi2>
   1860a:	0405051b          	addiw	a0,a0,64
   1860e:	ff150793          	addi	a5,a0,-15
   18612:	03c00713          	li	a4,60
   18616:	fcf753e3          	bge	a4,a5,185dc <__multf3+0x174>
   1861a:	fc37879b          	addiw	a5,a5,-61
   1861e:	00fb16b3          	sll	a3,s6,a5
   18622:	bfd9                	j	185f8 <__multf3+0x190>
   18624:	008b6633          	or	a2,s6,s0
   18628:	ce01                	beqz	a2,18640 <__multf3+0x1d8>
   1862a:	82c5                	srli	a3,a3,0x11
   1862c:	458d                	li	a1,3
   1862e:	f486e7e3          	bltu	a3,s0,1857c <__multf3+0x114>
   18632:	4941                	li	s2,16
   18634:	b7a1                	j	1857c <__multf3+0x114>
   18636:	4401                	li	s0,0
   18638:	4781                	li	a5,0
   1863a:	4701                	li	a4,0
   1863c:	4585                	li	a1,1
   1863e:	bf3d                	j	1857c <__multf3+0x114>
   18640:	4401                	li	s0,0
   18642:	4781                	li	a5,0
   18644:	4589                	li	a1,2
   18646:	bf1d                	j	1857c <__multf3+0x114>
   18648:	00d516b3          	sll	a3,a0,a3
  FP_MUL_Q (R, A, B);
   1864c:	5306f513          	andi	a0,a3,1328
   18650:	e10d                	bnez	a0,18672 <__multf3+0x20a>
   18652:	2406f893          	andi	a7,a3,576
   18656:	3e089463          	bnez	a7,18a3e <__multf3+0x5d6>
   1865a:	0886f693          	andi	a3,a3,136
   1865e:	ce89                	beqz	a3,18678 <__multf3+0x210>
  FP_UNPACK_Q (B, b);
   18660:	8652                	mv	a2,s4
   18662:	bf3d                	j	185a0 <__multf3+0x138>
  FP_MUL_Q (R, A, B);
   18664:	473d                	li	a4,15
   18666:	3ee68863          	beq	a3,a4,18a56 <__multf3+0x5ee>
   1866a:	472d                	li	a4,11
  FP_UNPACK_Q (A, a);
   1866c:	8656                	mv	a2,s5
  FP_MUL_Q (R, A, B);
   1866e:	fee689e3          	beq	a3,a4,18660 <__multf3+0x1f8>
   18672:	8426                	mv	s0,s1
   18674:	87de                	mv	a5,s7
   18676:	b735                	j	185a2 <__multf3+0x13a>
   18678:	008785b3          	add	a1,a5,s0
   1867c:	020bd693          	srli	a3,s7,0x20
   18680:	0207d513          	srli	a0,a5,0x20
   18684:	017482b3          	add	t0,s1,s7
   18688:	00f5bfb3          	sltu	t6,a1,a5
   1868c:	1b82                	slli	s7,s7,0x20
   1868e:	1782                	slli	a5,a5,0x20
   18690:	020bdb93          	srli	s7,s7,0x20
   18694:	9381                	srli	a5,a5,0x20
   18696:	037788b3          	mul	a7,a5,s7
   1869a:	0092bf33          	sltu	t5,t0,s1
   1869e:	02f687b3          	mul	a5,a3,a5
   186a2:	0208d313          	srli	t1,a7,0x20
   186a6:	02a686b3          	mul	a3,a3,a0
   186aa:	03750533          	mul	a0,a0,s7
   186ae:	953e                	add	a0,a0,a5
   186b0:	932a                	add	t1,t1,a0
   186b2:	00f37563          	bgeu	t1,a5,186bc <__multf3+0x254>
   186b6:	4785                	li	a5,1
   186b8:	1782                	slli	a5,a5,0x20
   186ba:	96be                	add	a3,a3,a5
   186bc:	1882                	slli	a7,a7,0x20
   186be:	02035e93          	srli	t4,t1,0x20
   186c2:	0208d893          	srli	a7,a7,0x20
   186c6:	1302                	slli	t1,t1,0x20
   186c8:	9346                	add	t1,t1,a7
   186ca:	02059793          	slli	a5,a1,0x20
   186ce:	02029893          	slli	a7,t0,0x20
   186d2:	0202d393          	srli	t2,t0,0x20
   186d6:	0208d893          	srli	a7,a7,0x20
   186da:	9381                	srli	a5,a5,0x20
   186dc:	9eb6                	add	t4,t4,a3
   186de:	0205d693          	srli	a3,a1,0x20
   186e2:	03178533          	mul	a0,a5,a7
   186e6:	02f387b3          	mul	a5,t2,a5
   186ea:	02055e13          	srli	t3,a0,0x20
   186ee:	02d383b3          	mul	t2,t2,a3
   186f2:	031686b3          	mul	a3,a3,a7
   186f6:	96be                	add	a3,a3,a5
   186f8:	9e36                	add	t3,t3,a3
   186fa:	00fe7563          	bgeu	t3,a5,18704 <__multf3+0x29c>
   186fe:	4785                	li	a5,1
   18700:	1782                	slli	a5,a5,0x20
   18702:	93be                	add	t2,t2,a5
   18704:	0204d793          	srli	a5,s1,0x20
   18708:	02045693          	srli	a3,s0,0x20
   1870c:	1482                	slli	s1,s1,0x20
   1870e:	1402                	slli	s0,s0,0x20
   18710:	9081                	srli	s1,s1,0x20
   18712:	9001                	srli	s0,s0,0x20
   18714:	02940a33          	mul	s4,s0,s1
   18718:	1502                	slli	a0,a0,0x20
   1871a:	9101                	srli	a0,a0,0x20
   1871c:	020e5893          	srli	a7,t3,0x20
   18720:	1e02                	slli	t3,t3,0x20
   18722:	9e2a                	add	t3,t3,a0
   18724:	02878433          	mul	s0,a5,s0
   18728:	02d787b3          	mul	a5,a5,a3
   1872c:	029686b3          	mul	a3,a3,s1
   18730:	00868533          	add	a0,a3,s0
   18734:	020a5693          	srli	a3,s4,0x20
   18738:	96aa                	add	a3,a3,a0
   1873a:	0086f563          	bgeu	a3,s0,18744 <__multf3+0x2dc>
   1873e:	4505                	li	a0,1
   18740:	1502                	slli	a0,a0,0x20
   18742:	97aa                	add	a5,a5,a0
   18744:	0206d513          	srli	a0,a3,0x20
   18748:	953e                	add	a0,a0,a5
   1874a:	020a1793          	slli	a5,s4,0x20
   1874e:	9381                	srli	a5,a5,0x20
   18750:	1682                	slli	a3,a3,0x20
   18752:	96be                	add	a3,a3,a5
   18754:	41f007b3          	neg	a5,t6
   18758:	00f2f7b3          	and	a5,t0,a5
   1875c:	41e002b3          	neg	t0,t5
   18760:	0055f5b3          	and	a1,a1,t0
   18764:	01de02b3          	add	t0,t3,t4
   18768:	01c2be33          	sltu	t3,t0,t3
   1876c:	98f2                	add	a7,a7,t3
   1876e:	989e                	add	a7,a7,t2
   18770:	01ff7f33          	and	t5,t5,t6
   18774:	01c8be33          	sltu	t3,a7,t3
   18778:	97c6                	add	a5,a5,a7
   1877a:	9e7a                	add	t3,t3,t5
   1877c:	0117b8b3          	sltu	a7,a5,a7
   18780:	97ae                	add	a5,a5,a1
   18782:	98f2                	add	a7,a7,t3
   18784:	00b7b5b3          	sltu	a1,a5,a1
   18788:	40628e33          	sub	t3,t0,t1
   1878c:	01c2bf33          	sltu	t5,t0,t3
   18790:	95c6                	add	a1,a1,a7
   18792:	41d788b3          	sub	a7,a5,t4
   18796:	0117bfb3          	sltu	t6,a5,a7
   1879a:	41e888b3          	sub	a7,a7,t5
   1879e:	4f01                	li	t5,0
   187a0:	01c2f663          	bgeu	t0,t3,187ac <__multf3+0x344>
   187a4:	40fe8eb3          	sub	t4,t4,a5
   187a8:	001ebf13          	seqz	t5,t4
   187ac:	40de0eb3          	sub	t4,t3,a3
   187b0:	01ff6f33          	or	t5,t5,t6
   187b4:	95aa                	add	a1,a1,a0
   187b6:	01de3fb3          	sltu	t6,t3,t4
   187ba:	40a88533          	sub	a0,a7,a0
   187be:	00a8b8b3          	sltu	a7,a7,a0
   187c2:	41f68fb3          	sub	t6,a3,t6
   187c6:	4781                	li	a5,0
   187c8:	01de7463          	bgeu	t3,t4,187d0 <__multf3+0x368>
   187cc:	00153793          	seqz	a5,a0
   187d0:	957e                	add	a0,a0,t6
   187d2:	00d536b3          	sltu	a3,a0,a3
   187d6:	96ae                	add	a3,a3,a1
   187d8:	0117e7b3          	or	a5,a5,a7
   187dc:	41e686b3          	sub	a3,a3,t5
   187e0:	8e9d                	sub	a3,a3,a5
   187e2:	00de9793          	slli	a5,t4,0xd
   187e6:	0067e7b3          	or	a5,a5,t1
   187ea:	06b6                	slli	a3,a3,0xd
   187ec:	033ed593          	srli	a1,t4,0x33
   187f0:	00f037b3          	snez	a5,a5
   187f4:	03355413          	srli	s0,a0,0x33
   187f8:	8fcd                	or	a5,a5,a1
   187fa:	0536                	slli	a0,a0,0xd
   187fc:	00b69593          	slli	a1,a3,0xb
   18800:	8c55                	or	s0,s0,a3
   18802:	8fc9                	or	a5,a5,a0
   18804:	0405d863          	bgez	a1,18854 <__multf3+0x3ec>
   18808:	0017d713          	srli	a4,a5,0x1
   1880c:	8b85                	andi	a5,a5,1
   1880e:	8f5d                	or	a4,a4,a5
   18810:	03f41793          	slli	a5,s0,0x3f
   18814:	8fd9                	or	a5,a5,a4
   18816:	8005                	srli	s0,s0,0x1
  FP_PACK_Q (r, R);
   18818:	6691                	lui	a3,0x4
   1881a:	16fd                	addi	a3,a3,-1 # 3fff <exit-0xc121>
   1881c:	96c2                	add	a3,a3,a6
   1881e:	0cd05563          	blez	a3,188e8 <__multf3+0x480>
   18822:	0077f713          	andi	a4,a5,7
   18826:	cf15                	beqz	a4,18862 <__multf3+0x3fa>
   18828:	4709                	li	a4,2
   1882a:	00196913          	ori	s2,s2,1
   1882e:	02e98963          	beq	s3,a4,18860 <__multf3+0x3f8>
   18832:	470d                	li	a4,3
   18834:	02e98263          	beq	s3,a4,18858 <__multf3+0x3f0>
   18838:	02099563          	bnez	s3,18862 <__multf3+0x3fa>
   1883c:	00f7f713          	andi	a4,a5,15
   18840:	4591                	li	a1,4
   18842:	02b70063          	beq	a4,a1,18862 <__multf3+0x3fa>
   18846:	00b78733          	add	a4,a5,a1
   1884a:	00f735b3          	sltu	a1,a4,a5
   1884e:	942e                	add	s0,s0,a1
   18850:	87ba                	mv	a5,a4
   18852:	a801                	j	18862 <__multf3+0x3fa>
  FP_MUL_Q (R, A, B);
   18854:	883a                	mv	a6,a4
   18856:	b7c9                	j	18818 <__multf3+0x3b0>
  FP_PACK_Q (r, R);
   18858:	e609                	bnez	a2,18862 <__multf3+0x3fa>
   1885a:	00878713          	addi	a4,a5,8
   1885e:	b7f5                	j	1884a <__multf3+0x3e2>
   18860:	fe6d                	bnez	a2,1885a <__multf3+0x3f2>
   18862:	00b41713          	slli	a4,s0,0xb
   18866:	00075863          	bgez	a4,18876 <__multf3+0x40e>
   1886a:	577d                	li	a4,-1
   1886c:	1752                	slli	a4,a4,0x34
   1886e:	177d                	addi	a4,a4,-1
   18870:	6691                	lui	a3,0x4
   18872:	8c79                	and	s0,s0,a4
   18874:	96c2                	add	a3,a3,a6
   18876:	65a1                	lui	a1,0x8
   18878:	ffe58713          	addi	a4,a1,-2 # 7ffe <exit-0x8122>
   1887c:	04d74163          	blt	a4,a3,188be <__multf3+0x456>
   18880:	838d                	srli	a5,a5,0x3
   18882:	03d41513          	slli	a0,s0,0x3d
   18886:	8d5d                	or	a0,a0,a5
   18888:	00345713          	srli	a4,s0,0x3
   1888c:	00f6161b          	slliw	a2,a2,0xf
   18890:	01071593          	slli	a1,a4,0x10
   18894:	8e55                	or	a2,a2,a3
   18896:	1642                	slli	a2,a2,0x30
   18898:	81c1                	srli	a1,a1,0x10
   1889a:	8dd1                	or	a1,a1,a2
  FP_HANDLE_EXCEPTIONS;
   1889c:	00090463          	beqz	s2,188a4 <__multf3+0x43c>
   188a0:	00192073          	csrs	fflags,s2

  return r;
}
   188a4:	60e6                	ld	ra,88(sp)
   188a6:	6446                	ld	s0,80(sp)
   188a8:	64a6                	ld	s1,72(sp)
   188aa:	6906                	ld	s2,64(sp)
   188ac:	79e2                	ld	s3,56(sp)
   188ae:	7a42                	ld	s4,48(sp)
   188b0:	7aa2                	ld	s5,40(sp)
   188b2:	7b02                	ld	s6,32(sp)
   188b4:	6be2                	ld	s7,24(sp)
   188b6:	6c42                	ld	s8,16(sp)
   188b8:	6ca2                	ld	s9,8(sp)
   188ba:	6125                	addi	sp,sp,96
   188bc:	8082                	ret
  FP_PACK_Q (r, R);
   188be:	4789                	li	a5,2
   188c0:	02f98263          	beq	s3,a5,188e4 <__multf3+0x47c>
   188c4:	478d                	li	a5,3
   188c6:	00f98863          	beq	s3,a5,188d6 <__multf3+0x46e>
   188ca:	00099763          	bnez	s3,188d8 <__multf3+0x470>
   188ce:	4501                	li	a0,0
   188d0:	fff58693          	addi	a3,a1,-1
   188d4:	a021                	j	188dc <__multf3+0x474>
   188d6:	de65                	beqz	a2,188ce <__multf3+0x466>
   188d8:	557d                	li	a0,-1
   188da:	86ba                	mv	a3,a4
   188dc:	00596913          	ori	s2,s2,5
   188e0:	872a                	mv	a4,a0
   188e2:	b76d                	j	1888c <__multf3+0x424>
   188e4:	f66d                	bnez	a2,188ce <__multf3+0x466>
   188e6:	bfcd                	j	188d8 <__multf3+0x470>
   188e8:	eed1                	bnez	a3,18984 <__multf3+0x51c>
   188ea:	0077f693          	andi	a3,a5,7
   188ee:	8722                	mv	a4,s0
   188f0:	ca9d                	beqz	a3,18926 <__multf3+0x4be>
   188f2:	4689                	li	a3,2
   188f4:	00196913          	ori	s2,s2,1
   188f8:	02d98663          	beq	s3,a3,18924 <__multf3+0x4bc>
   188fc:	468d                	li	a3,3
   188fe:	00d98f63          	beq	s3,a3,1891c <__multf3+0x4b4>
   18902:	02099263          	bnez	s3,18926 <__multf3+0x4be>
   18906:	00f7f693          	andi	a3,a5,15
   1890a:	4591                	li	a1,4
   1890c:	00b68d63          	beq	a3,a1,18926 <__multf3+0x4be>
   18910:	ffc7b713          	sltiu	a4,a5,-4
   18914:	00174713          	xori	a4,a4,1
   18918:	9722                	add	a4,a4,s0
   1891a:	a031                	j	18926 <__multf3+0x4be>
   1891c:	e609                	bnez	a2,18926 <__multf3+0x4be>
   1891e:	ff87b713          	sltiu	a4,a5,-8
   18922:	bfcd                	j	18914 <__multf3+0x4ac>
   18924:	fe6d                	bnez	a2,1891e <__multf3+0x4b6>
   18926:	9351                	srli	a4,a4,0x34
   18928:	8b05                	andi	a4,a4,1
   1892a:	00174593          	xori	a1,a4,1
   1892e:	4705                	li	a4,1
   18930:	04000513          	li	a0,64
   18934:	9d19                	subw	a0,a0,a4
   18936:	00e7d833          	srl	a6,a5,a4
   1893a:	00a416b3          	sll	a3,s0,a0
   1893e:	00a79533          	sll	a0,a5,a0
   18942:	0106e6b3          	or	a3,a3,a6
   18946:	00a03533          	snez	a0,a0
   1894a:	00a6e7b3          	or	a5,a3,a0
   1894e:	00e45733          	srl	a4,s0,a4
   18952:	0077f693          	andi	a3,a5,7
   18956:	cebd                	beqz	a3,189d4 <__multf3+0x56c>
   18958:	4689                	li	a3,2
   1895a:	00196913          	ori	s2,s2,1
   1895e:	06d98a63          	beq	s3,a3,189d2 <__multf3+0x56a>
   18962:	468d                	li	a3,3
   18964:	06d98363          	beq	s3,a3,189ca <__multf3+0x562>
   18968:	06099663          	bnez	s3,189d4 <__multf3+0x56c>
   1896c:	00f7f693          	andi	a3,a5,15
   18970:	4511                	li	a0,4
   18972:	06a68163          	beq	a3,a0,189d4 <__multf3+0x56c>
   18976:	00a786b3          	add	a3,a5,a0
   1897a:	00f6b533          	sltu	a0,a3,a5
   1897e:	972a                	add	a4,a4,a0
   18980:	87b6                	mv	a5,a3
   18982:	a889                	j	189d4 <__multf3+0x56c>
   18984:	4585                	li	a1,1
   18986:	40d58733          	sub	a4,a1,a3
   1898a:	07400693          	li	a3,116
   1898e:	06e6cc63          	blt	a3,a4,18a06 <__multf3+0x59e>
   18992:	03f00693          	li	a3,63
   18996:	0007051b          	sext.w	a0,a4
   1899a:	f8e6dbe3          	bge	a3,a4,18930 <__multf3+0x4c8>
   1899e:	fc05069b          	addiw	a3,a0,-64
   189a2:	04000813          	li	a6,64
   189a6:	00d456b3          	srl	a3,s0,a3
   189aa:	4581                	li	a1,0
   189ac:	01070763          	beq	a4,a6,189ba <__multf3+0x552>
   189b0:	08000593          	li	a1,128
   189b4:	9d89                	subw	a1,a1,a0
   189b6:	00b415b3          	sll	a1,s0,a1
   189ba:	8ddd                	or	a1,a1,a5
   189bc:	00b035b3          	snez	a1,a1
   189c0:	00b6e7b3          	or	a5,a3,a1
   189c4:	4701                	li	a4,0
   189c6:	4585                	li	a1,1
   189c8:	b769                	j	18952 <__multf3+0x4ea>
   189ca:	e609                	bnez	a2,189d4 <__multf3+0x56c>
   189cc:	00878693          	addi	a3,a5,8
   189d0:	b76d                	j	1897a <__multf3+0x512>
   189d2:	fe6d                	bnez	a2,189cc <__multf3+0x564>
   189d4:	00c71693          	slli	a3,a4,0xc
   189d8:	0206d063          	bgez	a3,189f8 <__multf3+0x590>
   189dc:	00196913          	ori	s2,s2,1
   189e0:	4701                	li	a4,0
   189e2:	4501                	li	a0,0
   189e4:	4685                	li	a3,1
   189e6:	ea0583e3          	beqz	a1,1888c <__multf3+0x424>
   189ea:	00197793          	andi	a5,s2,1
   189ee:	0017979b          	slliw	a5,a5,0x1
   189f2:	00f96933          	or	s2,s2,a5
   189f6:	bd59                	j	1888c <__multf3+0x424>
   189f8:	03d71513          	slli	a0,a4,0x3d
   189fc:	838d                	srli	a5,a5,0x3
   189fe:	8d5d                	or	a0,a0,a5
   18a00:	830d                	srli	a4,a4,0x3
   18a02:	4681                	li	a3,0
   18a04:	b7cd                	j	189e6 <__multf3+0x57e>
   18a06:	0087e533          	or	a0,a5,s0
   18a0a:	cd11                	beqz	a0,18a26 <__multf3+0x5be>
   18a0c:	4789                	li	a5,2
   18a0e:	00196913          	ori	s2,s2,1
   18a12:	02f98363          	beq	s3,a5,18a38 <__multf3+0x5d0>
   18a16:	478d                	li	a5,3
   18a18:	00f98c63          	beq	s3,a5,18a30 <__multf3+0x5c8>
   18a1c:	852e                	mv	a0,a1
   18a1e:	00099363          	bnez	s3,18a24 <__multf3+0x5bc>
   18a22:	4515                	li	a0,5
   18a24:	810d                	srli	a0,a0,0x3
   18a26:	00296913          	ori	s2,s2,2
   18a2a:	4701                	li	a4,0
   18a2c:	4681                	li	a3,0
   18a2e:	bdb9                	j	1888c <__multf3+0x424>
   18a30:	4525                	li	a0,9
   18a32:	da6d                	beqz	a2,18a24 <__multf3+0x5bc>
   18a34:	852e                	mv	a0,a1
   18a36:	b7fd                	j	18a24 <__multf3+0x5bc>
   18a38:	4525                	li	a0,9
   18a3a:	f66d                	bnez	a2,18a24 <__multf3+0x5bc>
   18a3c:	bfe5                	j	18a34 <__multf3+0x5cc>
  FP_MUL_Q (R, A, B);
   18a3e:	4705                	li	a4,1
   18a40:	66a1                	lui	a3,0x8
   18a42:	173e                	slli	a4,a4,0x2f
   18a44:	16fd                	addi	a3,a3,-1 # 7fff <exit-0x8121>
   18a46:	4601                	li	a2,0
   18a48:	4941                	li	s2,16
   18a4a:	b589                	j	1888c <__multf3+0x424>
  FP_PACK_Q (r, R);
   18a4c:	66a1                	lui	a3,0x8
   18a4e:	4701                	li	a4,0
   18a50:	4501                	li	a0,0
   18a52:	16fd                	addi	a3,a3,-1 # 7fff <exit-0x8121>
   18a54:	bd25                	j	1888c <__multf3+0x424>
   18a56:	4705                	li	a4,1
   18a58:	66a1                	lui	a3,0x8
   18a5a:	173e                	slli	a4,a4,0x2f
   18a5c:	4501                	li	a0,0
   18a5e:	16fd                	addi	a3,a3,-1 # 7fff <exit-0x8121>
   18a60:	4601                	li	a2,0
   18a62:	b52d                	j	1888c <__multf3+0x424>

0000000000018a64 <__subtf3>:
#include "soft-fp.h"
#include "quad.h"

TFtype
__subtf3 (TFtype a, TFtype b)
{
   18a64:	7179                	addi	sp,sp,-48
   18a66:	f406                	sd	ra,40(sp)
   18a68:	f022                	sd	s0,32(sp)
   18a6a:	ec26                	sd	s1,24(sp)
   18a6c:	e84a                	sd	s2,16(sp)
   18a6e:	e44e                	sd	s3,8(sp)
   18a70:	e052                	sd	s4,0(sp)
   18a72:	87b6                	mv	a5,a3
  FP_DECL_Q (A);
  FP_DECL_Q (B);
  FP_DECL_Q (R);
  TFtype r;

  FP_INIT_ROUNDMODE;
   18a74:	00202973          	frrm	s2
  FP_UNPACK_SEMIRAW_Q (A, a);
   18a78:	577d                	li	a4,-1
   18a7a:	8341                	srli	a4,a4,0x10
   18a7c:	6ea1                	lui	t4,0x8
   18a7e:	0305d813          	srli	a6,a1,0x30
   18a82:	1efd                	addi	t4,t4,-1 # 7fff <exit-0x8121>
  FP_UNPACK_SEMIRAW_Q (B, b);
   18a84:	0306de13          	srli	t3,a3,0x30
   18a88:	8ff9                	and	a5,a5,a4
  FP_UNPACK_SEMIRAW_Q (A, a);
   18a8a:	03f5d993          	srli	s3,a1,0x3f
   18a8e:	8df9                	and	a1,a1,a4
   18a90:	03d55313          	srli	t1,a0,0x3d
  FP_UNPACK_SEMIRAW_Q (B, b);
   18a94:	00379713          	slli	a4,a5,0x3
  FP_UNPACK_SEMIRAW_Q (A, a);
   18a98:	01d87833          	and	a6,a6,t4
  FP_UNPACK_SEMIRAW_Q (B, b);
   18a9c:	03d65793          	srli	a5,a2,0x3d
  FP_UNPACK_SEMIRAW_Q (A, a);
   18aa0:	058e                	slli	a1,a1,0x3
  FP_UNPACK_SEMIRAW_Q (B, b);
   18aa2:	01de7e33          	and	t3,t3,t4
  FP_INIT_ROUNDMODE;
   18aa6:	2901                	sext.w	s2,s2
  FP_UNPACK_SEMIRAW_Q (A, a);
   18aa8:	84c2                	mv	s1,a6
   18aaa:	00b36333          	or	t1,t1,a1
   18aae:	050e                	slli	a0,a0,0x3
  FP_UNPACK_SEMIRAW_Q (B, b);
   18ab0:	92fd                	srli	a3,a3,0x3f
   18ab2:	00e7e8b3          	or	a7,a5,a4
   18ab6:	060e                	slli	a2,a2,0x3
  FP_SUB_Q (R, A, B);
   18ab8:	01de1563          	bne	t3,t4,18ac2 <__subtf3+0x5e>
   18abc:	00c8e7b3          	or	a5,a7,a2
   18ac0:	e399                	bnez	a5,18ac6 <__subtf3+0x62>
   18ac2:	0016c693          	xori	a3,a3,1
   18ac6:	65a1                	lui	a1,0x8
   18ac8:	41c807bb          	subw	a5,a6,t3
   18acc:	15fd                	addi	a1,a1,-1 # 7fff <exit-0x8121>
   18ace:	35369363          	bne	a3,s3,18e14 <__subtf3+0x3b0>
   18ad2:	0ef05b63          	blez	a5,18bc8 <__subtf3+0x164>
   18ad6:	060e1b63          	bnez	t3,18b4c <__subtf3+0xe8>
   18ada:	00c8e733          	or	a4,a7,a2
   18ade:	e711                	bnez	a4,18aea <__subtf3+0x86>
   18ae0:	04b80863          	beq	a6,a1,18b30 <__subtf3+0xcc>
   18ae4:	889a                	mv	a7,t1
   18ae6:	862a                	mv	a2,a0
   18ae8:	af9d                	j	1925e <__subtf3+0x7fa>
   18aea:	37fd                	addiw	a5,a5,-1
   18aec:	e3a1                	bnez	a5,18b2c <__subtf3+0xc8>
   18aee:	962a                	add	a2,a2,a0
   18af0:	9346                	add	t1,t1,a7
   18af2:	00a63533          	sltu	a0,a2,a0
   18af6:	00a308b3          	add	a7,t1,a0
   18afa:	00c89793          	slli	a5,a7,0xc
   18afe:	0207d563          	bgez	a5,18b28 <__subtf3+0xc4>
   18b02:	67a1                	lui	a5,0x8
   18b04:	0485                	addi	s1,s1,1
   18b06:	17fd                	addi	a5,a5,-1 # 7fff <exit-0x8121>
   18b08:	2cf48d63          	beq	s1,a5,18de2 <__subtf3+0x37e>
   18b0c:	57fd                	li	a5,-1
   18b0e:	17ce                	slli	a5,a5,0x33
   18b10:	17fd                	addi	a5,a5,-1
   18b12:	00f8f7b3          	and	a5,a7,a5
   18b16:	00165713          	srli	a4,a2,0x1
   18b1a:	8a05                	andi	a2,a2,1
   18b1c:	8f51                	or	a4,a4,a2
   18b1e:	03f79613          	slli	a2,a5,0x3f
   18b22:	8e59                	or	a2,a2,a4
   18b24:	0017d893          	srli	a7,a5,0x1
  FP_PACK_SEMIRAW_Q (r, R);
   18b28:	4781                	li	a5,0
   18b2a:	a49d                	j	18d90 <__subtf3+0x32c>
  FP_SUB_Q (R, A, B);
   18b2c:	02b81663          	bne	a6,a1,18b58 <__subtf3+0xf4>
   18b30:	00a36633          	or	a2,t1,a0
   18b34:	70060f63          	beqz	a2,19252 <__subtf3+0x7ee>
   18b38:	03235793          	srli	a5,t1,0x32
   18b3c:	8b85                	andi	a5,a5,1
   18b3e:	0017c793          	xori	a5,a5,1
   18b42:	0047979b          	slliw	a5,a5,0x4
   18b46:	889a                	mv	a7,t1
   18b48:	862a                	mv	a2,a0
   18b4a:	a271                	j	18cd6 <__subtf3+0x272>
   18b4c:	feb802e3          	beq	a6,a1,18b30 <__subtf3+0xcc>
   18b50:	4705                	li	a4,1
   18b52:	174e                	slli	a4,a4,0x33
   18b54:	00e8e8b3          	or	a7,a7,a4
   18b58:	07400713          	li	a4,116
   18b5c:	06f74163          	blt	a4,a5,18bbe <__subtf3+0x15a>
   18b60:	03f00713          	li	a4,63
   18b64:	02f74963          	blt	a4,a5,18b96 <__subtf3+0x132>
   18b68:	04000693          	li	a3,64
   18b6c:	9e9d                	subw	a3,a3,a5
   18b6e:	00d89733          	sll	a4,a7,a3
   18b72:	00f655b3          	srl	a1,a2,a5
   18b76:	00d616b3          	sll	a3,a2,a3
   18b7a:	8f4d                	or	a4,a4,a1
   18b7c:	00d036b3          	snez	a3,a3
   18b80:	8f55                	or	a4,a4,a3
   18b82:	00f8d7b3          	srl	a5,a7,a5
   18b86:	953a                	add	a0,a0,a4
   18b88:	979a                	add	a5,a5,t1
   18b8a:	00e53733          	sltu	a4,a0,a4
   18b8e:	862a                	mv	a2,a0
   18b90:	00e788b3          	add	a7,a5,a4
   18b94:	b79d                	j	18afa <__subtf3+0x96>
   18b96:	fc07871b          	addiw	a4,a5,-64
   18b9a:	04000593          	li	a1,64
   18b9e:	00e8d733          	srl	a4,a7,a4
   18ba2:	4681                	li	a3,0
   18ba4:	00b78763          	beq	a5,a1,18bb2 <__subtf3+0x14e>
   18ba8:	08000693          	li	a3,128
   18bac:	9e9d                	subw	a3,a3,a5
   18bae:	00d896b3          	sll	a3,a7,a3
   18bb2:	8ed1                	or	a3,a3,a2
   18bb4:	00d036b3          	snez	a3,a3
   18bb8:	8f55                	or	a4,a4,a3
   18bba:	4781                	li	a5,0
   18bbc:	b7e9                	j	18b86 <__subtf3+0x122>
   18bbe:	00c8e733          	or	a4,a7,a2
   18bc2:	00e03733          	snez	a4,a4
   18bc6:	bfd5                	j	18bba <__subtf3+0x156>
   18bc8:	c3f9                	beqz	a5,18c8e <__subtf3+0x22a>
   18bca:	08081063          	bnez	a6,18c4a <__subtf3+0x1e6>
   18bce:	00a36733          	or	a4,t1,a0
   18bd2:	e305                	bnez	a4,18bf2 <__subtf3+0x18e>
   18bd4:	68be1463          	bne	t3,a1,1925c <__subtf3+0x7f8>
   18bd8:	00c8e7b3          	or	a5,a7,a2
   18bdc:	66078e63          	beqz	a5,19258 <__subtf3+0x7f4>
   18be0:	0328d793          	srli	a5,a7,0x32
   18be4:	8b85                	andi	a5,a5,1
   18be6:	0017c793          	xori	a5,a5,1
   18bea:	0047979b          	slliw	a5,a5,0x4
   18bee:	84f2                	mv	s1,t3
   18bf0:	a0dd                	j	18cd6 <__subtf3+0x272>
   18bf2:	fff7c713          	not	a4,a5
   18bf6:	2701                	sext.w	a4,a4
   18bf8:	eb09                	bnez	a4,18c0a <__subtf3+0x1a6>
   18bfa:	962a                	add	a2,a2,a0
   18bfc:	9346                	add	t1,t1,a7
   18bfe:	00a63533          	sltu	a0,a2,a0
   18c02:	00a308b3          	add	a7,t1,a0
   18c06:	84f2                	mv	s1,t3
   18c08:	bdcd                	j	18afa <__subtf3+0x96>
   18c0a:	fcbe07e3          	beq	t3,a1,18bd8 <__subtf3+0x174>
   18c0e:	07400793          	li	a5,116
   18c12:	06e7c963          	blt	a5,a4,18c84 <__subtf3+0x220>
   18c16:	03f00793          	li	a5,63
   18c1a:	04e7c163          	blt	a5,a4,18c5c <__subtf3+0x1f8>
   18c1e:	04000693          	li	a3,64
   18c22:	9e99                	subw	a3,a3,a4
   18c24:	00d317b3          	sll	a5,t1,a3
   18c28:	00e555b3          	srl	a1,a0,a4
   18c2c:	00d516b3          	sll	a3,a0,a3
   18c30:	8fcd                	or	a5,a5,a1
   18c32:	00d036b3          	snez	a3,a3
   18c36:	8fd5                	or	a5,a5,a3
   18c38:	00e35733          	srl	a4,t1,a4
   18c3c:	963e                	add	a2,a2,a5
   18c3e:	9746                	add	a4,a4,a7
   18c40:	00f637b3          	sltu	a5,a2,a5
   18c44:	00f708b3          	add	a7,a4,a5
   18c48:	bf7d                	j	18c06 <__subtf3+0x1a2>
   18c4a:	f8be07e3          	beq	t3,a1,18bd8 <__subtf3+0x174>
   18c4e:	40f0073b          	negw	a4,a5
   18c52:	4785                	li	a5,1
   18c54:	17ce                	slli	a5,a5,0x33
   18c56:	00f36333          	or	t1,t1,a5
   18c5a:	bf55                	j	18c0e <__subtf3+0x1aa>
   18c5c:	fc07079b          	addiw	a5,a4,-64
   18c60:	04000593          	li	a1,64
   18c64:	00f357b3          	srl	a5,t1,a5
   18c68:	4681                	li	a3,0
   18c6a:	00b70763          	beq	a4,a1,18c78 <__subtf3+0x214>
   18c6e:	08000693          	li	a3,128
   18c72:	9e99                	subw	a3,a3,a4
   18c74:	00d316b3          	sll	a3,t1,a3
   18c78:	8ec9                	or	a3,a3,a0
   18c7a:	00d036b3          	snez	a3,a3
   18c7e:	8fd5                	or	a5,a5,a3
   18c80:	4701                	li	a4,0
   18c82:	bf6d                	j	18c3c <__subtf3+0x1d8>
   18c84:	00a367b3          	or	a5,t1,a0
   18c88:	00f037b3          	snez	a5,a5
   18c8c:	bfd5                	j	18c80 <__subtf3+0x21c>
   18c8e:	00180713          	addi	a4,a6,1
   18c92:	03171e93          	slli	t4,a4,0x31
   18c96:	66a1                	lui	a3,0x8
   18c98:	032ede93          	srli	t4,t4,0x32
   18c9c:	16f9                	addi	a3,a3,-2 # 7ffe <exit-0x8122>
   18c9e:	0c0e9b63          	bnez	t4,18d74 <__subtf3+0x310>
   18ca2:	00a36733          	or	a4,t1,a0
   18ca6:	08081263          	bnez	a6,18d2a <__subtf3+0x2c6>
   18caa:	42070c63          	beqz	a4,190e2 <__subtf3+0x67e>
   18cae:	00c8e733          	or	a4,a7,a2
   18cb2:	4e070863          	beqz	a4,191a2 <__subtf3+0x73e>
   18cb6:	962a                	add	a2,a2,a0
   18cb8:	9346                	add	t1,t1,a7
   18cba:	00a63533          	sltu	a0,a2,a0
   18cbe:	00a308b3          	add	a7,t1,a0
   18cc2:	00c89713          	slli	a4,a7,0xc
   18cc6:	40075e63          	bgez	a4,190e2 <__subtf3+0x67e>
   18cca:	577d                	li	a4,-1
   18ccc:	174e                	slli	a4,a4,0x33
   18cce:	177d                	addi	a4,a4,-1
   18cd0:	00e8f8b3          	and	a7,a7,a4
   18cd4:	4485                	li	s1,1
  FP_PACK_SEMIRAW_Q (r, R);
   18cd6:	6721                	lui	a4,0x8
   18cd8:	03d89513          	slli	a0,a7,0x3d
   18cdc:	820d                	srli	a2,a2,0x3
   18cde:	177d                	addi	a4,a4,-1 # 7fff <exit-0x8121>
   18ce0:	8d51                	or	a0,a0,a2
   18ce2:	0038d893          	srli	a7,a7,0x3
   18ce6:	00e49a63          	bne	s1,a4,18cfa <__subtf3+0x296>
   18cea:	01156533          	or	a0,a0,a7
   18cee:	4881                	li	a7,0
   18cf0:	c509                	beqz	a0,18cfa <__subtf3+0x296>
   18cf2:	4885                	li	a7,1
   18cf4:	18be                	slli	a7,a7,0x2f
   18cf6:	4501                	li	a0,0
   18cf8:	4981                	li	s3,0
   18cfa:	03149713          	slli	a4,s1,0x31
   18cfe:	00f9999b          	slliw	s3,s3,0xf
   18d02:	9345                	srli	a4,a4,0x31
   18d04:	01089593          	slli	a1,a7,0x10
   18d08:	00e9e9b3          	or	s3,s3,a4
   18d0c:	19c2                	slli	s3,s3,0x30
   18d0e:	81c1                	srli	a1,a1,0x10
   18d10:	0135e5b3          	or	a1,a1,s3
  FP_HANDLE_EXCEPTIONS;
   18d14:	c399                	beqz	a5,18d1a <__subtf3+0x2b6>
   18d16:	0017a073          	csrs	fflags,a5

  return r;
}
   18d1a:	70a2                	ld	ra,40(sp)
   18d1c:	7402                	ld	s0,32(sp)
   18d1e:	64e2                	ld	s1,24(sp)
   18d20:	6942                	ld	s2,16(sp)
   18d22:	69a2                	ld	s3,8(sp)
   18d24:	6a02                	ld	s4,0(sp)
   18d26:	6145                	addi	sp,sp,48
   18d28:	8082                	ret
  FP_SUB_Q (R, A, B);
   18d2a:	02b81563          	bne	a6,a1,18d54 <__subtf3+0x2f0>
   18d2e:	c31d                	beqz	a4,18d54 <__subtf3+0x2f0>
   18d30:	03235793          	srli	a5,t1,0x32
   18d34:	8b85                	andi	a5,a5,1
   18d36:	0017c793          	xori	a5,a5,1
   18d3a:	0047979b          	slliw	a5,a5,0x4
   18d3e:	030e1163          	bne	t3,a6,18d60 <__subtf3+0x2fc>
   18d42:	00c8e6b3          	or	a3,a7,a2
   18d46:	ca99                	beqz	a3,18d5c <__subtf3+0x2f8>
   18d48:	00d89693          	slli	a3,a7,0xd
   18d4c:	0006c863          	bltz	a3,18d5c <__subtf3+0x2f8>
   18d50:	47c1                	li	a5,16
   18d52:	a029                	j	18d5c <__subtf3+0x2f8>
   18d54:	66a1                	lui	a3,0x8
   18d56:	16fd                	addi	a3,a3,-1 # 7fff <exit-0x8121>
   18d58:	fede05e3          	beq	t3,a3,18d42 <__subtf3+0x2de>
   18d5c:	2e070e63          	beqz	a4,19058 <__subtf3+0x5f4>
   18d60:	00c8e8b3          	or	a7,a7,a2
   18d64:	6721                	lui	a4,0x8
   18d66:	4c089c63          	bnez	a7,1923e <__subtf3+0x7da>
   18d6a:	889a                	mv	a7,t1
   18d6c:	862a                	mv	a2,a0
   18d6e:	fff70493          	addi	s1,a4,-1 # 7fff <exit-0x8121>
   18d72:	b795                	j	18cd6 <__subtf3+0x272>
   18d74:	02b70063          	beq	a4,a1,18d94 <__subtf3+0x330>
   18d78:	962a                	add	a2,a2,a0
   18d7a:	9346                	add	t1,t1,a7
   18d7c:	00a63533          	sltu	a0,a2,a0
   18d80:	932a                	add	t1,t1,a0
   18d82:	03f31693          	slli	a3,t1,0x3f
   18d86:	8205                	srli	a2,a2,0x1
   18d88:	8e55                	or	a2,a2,a3
   18d8a:	00135893          	srli	a7,t1,0x1
   18d8e:	84ba                	mv	s1,a4
   18d90:	4701                	li	a4,0
   18d92:	ae61                	j	1912a <__subtf3+0x6c6>
   18d94:	4a090a63          	beqz	s2,19248 <__subtf3+0x7e4>
   18d98:	460d                	li	a2,3
   18d9a:	02c91963          	bne	s2,a2,18dcc <__subtf3+0x368>
   18d9e:	4a098563          	beqz	s3,19248 <__subtf3+0x7e4>
   18da2:	567d                	li	a2,-1
   18da4:	88b2                	mv	a7,a2
   18da6:	84b6                	mv	s1,a3
  FP_PACK_SEMIRAW_Q (r, R);
   18da8:	4715                	li	a4,5
   18daa:	468d                	li	a3,3
   18dac:	40d90d63          	beq	s2,a3,191c6 <__subtf3+0x762>
   18db0:	42091363          	bnez	s2,191d6 <__subtf3+0x772>
   18db4:	00f67693          	andi	a3,a2,15
   18db8:	4591                	li	a1,4
   18dba:	40b68e63          	beq	a3,a1,191d6 <__subtf3+0x772>
   18dbe:	00b606b3          	add	a3,a2,a1
   18dc2:	00c6b5b3          	sltu	a1,a3,a2
   18dc6:	98ae                	add	a7,a7,a1
   18dc8:	8636                	mv	a2,a3
   18dca:	a131                	j	191d6 <__subtf3+0x772>
  FP_SUB_Q (R, A, B);
   18dcc:	4789                	li	a5,2
   18dce:	84b6                	mv	s1,a3
   18dd0:	42f91c63          	bne	s2,a5,19208 <__subtf3+0x7a4>
   18dd4:	46099a63          	bnez	s3,19248 <__subtf3+0x7e4>
   18dd8:	567d                	li	a2,-1
   18dda:	88b2                	mv	a7,a2
  FP_PACK_SEMIRAW_Q (r, R);
   18ddc:	4715                	li	a4,5
   18dde:	87ba                	mv	a5,a4
   18de0:	a111                	j	191e4 <__subtf3+0x780>
  FP_SUB_Q (R, A, B);
   18de2:	46090463          	beqz	s2,1924a <__subtf3+0x7e6>
   18de6:	478d                	li	a5,3
   18de8:	00f91b63          	bne	s2,a5,18dfe <__subtf3+0x39a>
   18dec:	44098f63          	beqz	s3,1924a <__subtf3+0x7e6>
   18df0:	567d                	li	a2,-1
   18df2:	6721                	lui	a4,0x8
   18df4:	88b2                	mv	a7,a2
   18df6:	ffe70493          	addi	s1,a4,-2 # 7ffe <exit-0x8122>
  FP_PACK_SEMIRAW_Q (r, R);
   18dfa:	4781                	li	a5,0
   18dfc:	b775                	j	18da8 <__subtf3+0x344>
  FP_SUB_Q (R, A, B);
   18dfe:	4789                	li	a5,2
   18e00:	40f91163          	bne	s2,a5,19202 <__subtf3+0x79e>
   18e04:	44099363          	bnez	s3,1924a <__subtf3+0x7e6>
   18e08:	567d                	li	a2,-1
   18e0a:	6721                	lui	a4,0x8
   18e0c:	88b2                	mv	a7,a2
   18e0e:	ffe70493          	addi	s1,a4,-2 # 7ffe <exit-0x8122>
   18e12:	b7e9                	j	18ddc <__subtf3+0x378>
   18e14:	0af05e63          	blez	a5,18ed0 <__subtf3+0x46c>
   18e18:	060e1c63          	bnez	t3,18e90 <__subtf3+0x42c>
   18e1c:	00c8e733          	or	a4,a7,a2
   18e20:	cc0700e3          	beqz	a4,18ae0 <__subtf3+0x7c>
   18e24:	37fd                	addiw	a5,a5,-1
   18e26:	e395                	bnez	a5,18e4a <__subtf3+0x3e6>
   18e28:	40c50633          	sub	a2,a0,a2
   18e2c:	41130333          	sub	t1,t1,a7
   18e30:	00c53533          	sltu	a0,a0,a2
   18e34:	40a308b3          	sub	a7,t1,a0
   18e38:	00c89793          	slli	a5,a7,0xc
   18e3c:	ce07d6e3          	bgez	a5,18b28 <__subtf3+0xc4>
   18e40:	00d89413          	slli	s0,a7,0xd
   18e44:	8035                	srli	s0,s0,0xd
   18e46:	8a32                	mv	s4,a2
   18e48:	a4a9                	j	19092 <__subtf3+0x62e>
   18e4a:	ceb803e3          	beq	a6,a1,18b30 <__subtf3+0xcc>
   18e4e:	07400713          	li	a4,116
   18e52:	06f74a63          	blt	a4,a5,18ec6 <__subtf3+0x462>
   18e56:	03f00713          	li	a4,63
   18e5a:	04f74263          	blt	a4,a5,18e9e <__subtf3+0x43a>
   18e5e:	04000693          	li	a3,64
   18e62:	9e9d                	subw	a3,a3,a5
   18e64:	00d89733          	sll	a4,a7,a3
   18e68:	00f655b3          	srl	a1,a2,a5
   18e6c:	00d616b3          	sll	a3,a2,a3
   18e70:	8f4d                	or	a4,a4,a1
   18e72:	00d036b3          	snez	a3,a3
   18e76:	8f55                	or	a4,a4,a3
   18e78:	00f8d7b3          	srl	a5,a7,a5
   18e7c:	40e50733          	sub	a4,a0,a4
   18e80:	40f307b3          	sub	a5,t1,a5
   18e84:	00e53533          	sltu	a0,a0,a4
   18e88:	863a                	mv	a2,a4
   18e8a:	40a788b3          	sub	a7,a5,a0
   18e8e:	b76d                	j	18e38 <__subtf3+0x3d4>
   18e90:	cab800e3          	beq	a6,a1,18b30 <__subtf3+0xcc>
   18e94:	4705                	li	a4,1
   18e96:	174e                	slli	a4,a4,0x33
   18e98:	00e8e8b3          	or	a7,a7,a4
   18e9c:	bf4d                	j	18e4e <__subtf3+0x3ea>
   18e9e:	fc07871b          	addiw	a4,a5,-64
   18ea2:	04000593          	li	a1,64
   18ea6:	00e8d733          	srl	a4,a7,a4
   18eaa:	4681                	li	a3,0
   18eac:	00b78763          	beq	a5,a1,18eba <__subtf3+0x456>
   18eb0:	08000693          	li	a3,128
   18eb4:	9e9d                	subw	a3,a3,a5
   18eb6:	00d896b3          	sll	a3,a7,a3
   18eba:	8ed1                	or	a3,a3,a2
   18ebc:	00d036b3          	snez	a3,a3
   18ec0:	8f55                	or	a4,a4,a3
   18ec2:	4781                	li	a5,0
   18ec4:	bf65                	j	18e7c <__subtf3+0x418>
   18ec6:	00c8e733          	or	a4,a7,a2
   18eca:	00e03733          	snez	a4,a4
   18ece:	bfd5                	j	18ec2 <__subtf3+0x45e>
   18ed0:	cfe1                	beqz	a5,18fa8 <__subtf3+0x544>
   18ed2:	08081963          	bnez	a6,18f64 <__subtf3+0x500>
   18ed6:	00a36733          	or	a4,t1,a0
   18eda:	e30d                	bnez	a4,18efc <__subtf3+0x498>
   18edc:	89b6                	mv	s3,a3
   18ede:	36be1f63          	bne	t3,a1,1925c <__subtf3+0x7f8>
   18ee2:	00c8e7b3          	or	a5,a7,a2
   18ee6:	36078863          	beqz	a5,19256 <__subtf3+0x7f2>
   18eea:	0328d793          	srli	a5,a7,0x32
   18eee:	8b85                	andi	a5,a5,1
   18ef0:	0017c793          	xori	a5,a5,1
   18ef4:	0047979b          	slliw	a5,a5,0x4
   18ef8:	89b6                	mv	s3,a3
   18efa:	b9d5                	j	18bee <__subtf3+0x18a>
   18efc:	fff7c713          	not	a4,a5
   18f00:	2701                	sext.w	a4,a4
   18f02:	ef09                	bnez	a4,18f1c <__subtf3+0x4b8>
   18f04:	40a60533          	sub	a0,a2,a0
   18f08:	00a637b3          	sltu	a5,a2,a0
   18f0c:	40688333          	sub	t1,a7,t1
   18f10:	862a                	mv	a2,a0
   18f12:	40f308b3          	sub	a7,t1,a5
   18f16:	84f2                	mv	s1,t3
   18f18:	89b6                	mv	s3,a3
   18f1a:	bf39                	j	18e38 <__subtf3+0x3d4>
   18f1c:	fcbe03e3          	beq	t3,a1,18ee2 <__subtf3+0x47e>
   18f20:	07400793          	li	a5,116
   18f24:	06e7cd63          	blt	a5,a4,18f9e <__subtf3+0x53a>
   18f28:	03f00793          	li	a5,63
   18f2c:	04e7c563          	blt	a5,a4,18f76 <__subtf3+0x512>
   18f30:	04000593          	li	a1,64
   18f34:	9d99                	subw	a1,a1,a4
   18f36:	00b317b3          	sll	a5,t1,a1
   18f3a:	00e55833          	srl	a6,a0,a4
   18f3e:	00b515b3          	sll	a1,a0,a1
   18f42:	0107e7b3          	or	a5,a5,a6
   18f46:	00b035b3          	snez	a1,a1
   18f4a:	8fcd                	or	a5,a5,a1
   18f4c:	00e35733          	srl	a4,t1,a4
   18f50:	40f607b3          	sub	a5,a2,a5
   18f54:	00f635b3          	sltu	a1,a2,a5
   18f58:	40e88733          	sub	a4,a7,a4
   18f5c:	863e                	mv	a2,a5
   18f5e:	40b708b3          	sub	a7,a4,a1
   18f62:	bf55                	j	18f16 <__subtf3+0x4b2>
   18f64:	f6be0fe3          	beq	t3,a1,18ee2 <__subtf3+0x47e>
   18f68:	40f0073b          	negw	a4,a5
   18f6c:	4785                	li	a5,1
   18f6e:	17ce                	slli	a5,a5,0x33
   18f70:	00f36333          	or	t1,t1,a5
   18f74:	b775                	j	18f20 <__subtf3+0x4bc>
   18f76:	fc07079b          	addiw	a5,a4,-64
   18f7a:	04000813          	li	a6,64
   18f7e:	00f357b3          	srl	a5,t1,a5
   18f82:	4581                	li	a1,0
   18f84:	01070763          	beq	a4,a6,18f92 <__subtf3+0x52e>
   18f88:	08000593          	li	a1,128
   18f8c:	9d99                	subw	a1,a1,a4
   18f8e:	00b315b3          	sll	a1,t1,a1
   18f92:	8dc9                	or	a1,a1,a0
   18f94:	00b035b3          	snez	a1,a1
   18f98:	8fcd                	or	a5,a5,a1
   18f9a:	4701                	li	a4,0
   18f9c:	bf55                	j	18f50 <__subtf3+0x4ec>
   18f9e:	00a367b3          	or	a5,t1,a0
   18fa2:	00f037b3          	snez	a5,a5
   18fa6:	bfd5                	j	18f9a <__subtf3+0x536>
   18fa8:	00180713          	addi	a4,a6,1
   18fac:	03171e93          	slli	t4,a4,0x31
   18fb0:	032ede93          	srli	t4,t4,0x32
   18fb4:	0a0e9b63          	bnez	t4,1906a <__subtf3+0x606>
   18fb8:	00c8e733          	or	a4,a7,a2
   18fbc:	00a36eb3          	or	t4,t1,a0
   18fc0:	04081f63          	bnez	a6,1901e <__subtf3+0x5ba>
   18fc4:	000e9a63          	bnez	t4,18fd8 <__subtf3+0x574>
   18fc8:	ef1d                	bnez	a4,19006 <__subtf3+0x5a2>
   18fca:	ffe90993          	addi	s3,s2,-2
   18fce:	0019b993          	seqz	s3,s3
   18fd2:	4881                	li	a7,0
   18fd4:	4601                	li	a2,0
   18fd6:	b301                	j	18cd6 <__subtf3+0x272>
   18fd8:	1c070563          	beqz	a4,191a2 <__subtf3+0x73e>
   18fdc:	40c505b3          	sub	a1,a0,a2
   18fe0:	00b53833          	sltu	a6,a0,a1
   18fe4:	41130733          	sub	a4,t1,a7
   18fe8:	41070733          	sub	a4,a4,a6
   18fec:	00c71813          	slli	a6,a4,0xc
   18ff0:	00085d63          	bgez	a6,1900a <__subtf3+0x5a6>
   18ff4:	40a60533          	sub	a0,a2,a0
   18ff8:	00a637b3          	sltu	a5,a2,a0
   18ffc:	40688333          	sub	t1,a7,t1
   19000:	862a                	mv	a2,a0
   19002:	40f308b3          	sub	a7,t1,a5
   19006:	89b6                	mv	s3,a3
   19008:	a8e9                	j	190e2 <__subtf3+0x67e>
   1900a:	00e5e633          	or	a2,a1,a4
   1900e:	18061d63          	bnez	a2,191a8 <__subtf3+0x744>
   19012:	ffe90993          	addi	s3,s2,-2
   19016:	0019b993          	seqz	s3,s3
   1901a:	4881                	li	a7,0
   1901c:	b96d                	j	18cd6 <__subtf3+0x272>
   1901e:	02b81663          	bne	a6,a1,1904a <__subtf3+0x5e6>
   19022:	260e8163          	beqz	t4,19284 <__subtf3+0x820>
   19026:	03235793          	srli	a5,t1,0x32
   1902a:	8b85                	andi	a5,a5,1
   1902c:	0017c793          	xori	a5,a5,1
   19030:	0047979b          	slliw	a5,a5,0x4
   19034:	030e1463          	bne	t3,a6,1905c <__subtf3+0x5f8>
   19038:	cb19                	beqz	a4,1904e <__subtf3+0x5ea>
   1903a:	00d89593          	slli	a1,a7,0xd
   1903e:	0005c863          	bltz	a1,1904e <__subtf3+0x5ea>
   19042:	47c1                	li	a5,16
   19044:	000e8963          	beqz	t4,19056 <__subtf3+0x5f2>
   19048:	a821                	j	19060 <__subtf3+0x5fc>
   1904a:	febe07e3          	beq	t3,a1,19038 <__subtf3+0x5d4>
   1904e:	000e9763          	bnez	t4,1905c <__subtf3+0x5f8>
   19052:	20070863          	beqz	a4,19262 <__subtf3+0x7fe>
   19056:	89b6                	mv	s3,a3
   19058:	6721                	lui	a4,0x8
   1905a:	bb11                	j	18d6e <__subtf3+0x30a>
   1905c:	20070d63          	beqz	a4,19276 <__subtf3+0x812>
   19060:	4885                	li	a7,1
   19062:	4981                	li	s3,0
   19064:	18ca                	slli	a7,a7,0x32
   19066:	4601                	li	a2,0
   19068:	bfc5                	j	19058 <__subtf3+0x5f4>
   1906a:	40c50733          	sub	a4,a0,a2
   1906e:	00e535b3          	sltu	a1,a0,a4
   19072:	41130433          	sub	s0,t1,a7
   19076:	8c0d                	sub	s0,s0,a1
   19078:	00c41593          	slli	a1,s0,0xc
   1907c:	8a3a                	mv	s4,a4
   1907e:	0a05de63          	bgez	a1,1913a <__subtf3+0x6d6>
   19082:	40a60a33          	sub	s4,a2,a0
   19086:	40688433          	sub	s0,a7,t1
   1908a:	01463633          	sltu	a2,a2,s4
   1908e:	8c11                	sub	s0,s0,a2
   19090:	89b6                	mv	s3,a3
   19092:	cc55                	beqz	s0,1914e <__subtf3+0x6ea>
   19094:	8522                	mv	a0,s0
   19096:	40c000ef          	jal	194a2 <__clzdi2>
   1909a:	ff45061b          	addiw	a2,a0,-12
   1909e:	04000793          	li	a5,64
   190a2:	9f91                	subw	a5,a5,a2
   190a4:	00c41433          	sll	s0,s0,a2
   190a8:	00fa57b3          	srl	a5,s4,a5
   190ac:	8fc1                	or	a5,a5,s0
   190ae:	00ca1433          	sll	s0,s4,a2
   190b2:	0e964063          	blt	a2,s1,19192 <__subtf3+0x72e>
   190b6:	9e05                	subw	a2,a2,s1
   190b8:	0016069b          	addiw	a3,a2,1
   190bc:	03f00713          	li	a4,63
   190c0:	0ad74563          	blt	a4,a3,1916a <__subtf3+0x706>
   190c4:	04000713          	li	a4,64
   190c8:	9f15                	subw	a4,a4,a3
   190ca:	00e79633          	sll	a2,a5,a4
   190ce:	00d455b3          	srl	a1,s0,a3
   190d2:	00e41733          	sll	a4,s0,a4
   190d6:	8e4d                	or	a2,a2,a1
   190d8:	00e03733          	snez	a4,a4
   190dc:	8e59                	or	a2,a2,a4
   190de:	00d7d8b3          	srl	a7,a5,a3
  FP_PACK_SEMIRAW_Q (r, R);
   190e2:	011667b3          	or	a5,a2,a7
   190e6:	18078b63          	beqz	a5,1927c <__subtf3+0x818>
   190ea:	00161693          	slli	a3,a2,0x1
   190ee:	03f65713          	srli	a4,a2,0x3f
   190f2:	00189793          	slli	a5,a7,0x1
   190f6:	0076f593          	andi	a1,a3,7
   190fa:	97ba                	add	a5,a5,a4
   190fc:	4701                	li	a4,0
   190fe:	c18d                	beqz	a1,19120 <__subtf3+0x6bc>
   19100:	4709                	li	a4,2
   19102:	0ae90e63          	beq	s2,a4,191be <__subtf3+0x75a>
   19106:	470d                	li	a4,3
   19108:	0ae90363          	beq	s2,a4,191ae <__subtf3+0x74a>
   1910c:	4705                	li	a4,1
   1910e:	00091963          	bnez	s2,19120 <__subtf3+0x6bc>
   19112:	00f6f593          	andi	a1,a3,15
   19116:	4511                	li	a0,4
   19118:	ffc6b693          	sltiu	a3,a3,-4
   1911c:	08a59e63          	bne	a1,a0,191b8 <__subtf3+0x754>
   19120:	93d1                	srli	a5,a5,0x34
   19122:	8b85                	andi	a5,a5,1
   19124:	0017c793          	xori	a5,a5,1
   19128:	4481                	li	s1,0
   1912a:	00767693          	andi	a3,a2,7
   1912e:	c6c5                	beqz	a3,191d6 <__subtf3+0x772>
   19130:	4709                	li	a4,2
   19132:	08e90f63          	beq	s2,a4,191d0 <__subtf3+0x76c>
   19136:	4705                	li	a4,1
   19138:	b98d                	j	18daa <__subtf3+0x346>
  FP_SUB_Q (R, A, B);
   1913a:	00876633          	or	a2,a4,s0
   1913e:	fa31                	bnez	a2,19092 <__subtf3+0x62e>
   19140:	ffe90993          	addi	s3,s2,-2
   19144:	0019b993          	seqz	s3,s3
   19148:	4881                	li	a7,0
   1914a:	4481                	li	s1,0
   1914c:	b669                	j	18cd6 <__subtf3+0x272>
   1914e:	8552                	mv	a0,s4
   19150:	352000ef          	jal	194a2 <__clzdi2>
   19154:	0345061b          	addiw	a2,a0,52
   19158:	03f00793          	li	a5,63
   1915c:	f4c7d1e3          	bge	a5,a2,1909e <__subtf3+0x63a>
   19160:	ff45079b          	addiw	a5,a0,-12
   19164:	00fa17b3          	sll	a5,s4,a5
   19168:	b7a9                	j	190b2 <__subtf3+0x64e>
   1916a:	fc16061b          	addiw	a2,a2,-63
   1916e:	04000593          	li	a1,64
   19172:	00c7d633          	srl	a2,a5,a2
   19176:	4701                	li	a4,0
   19178:	00b68763          	beq	a3,a1,19186 <__subtf3+0x722>
   1917c:	08000713          	li	a4,128
   19180:	9f15                	subw	a4,a4,a3
   19182:	00e79733          	sll	a4,a5,a4
   19186:	8f41                	or	a4,a4,s0
   19188:	00e03733          	snez	a4,a4
   1918c:	8e59                	or	a2,a2,a4
   1918e:	4881                	li	a7,0
   19190:	bf89                	j	190e2 <__subtf3+0x67e>
   19192:	577d                	li	a4,-1
   19194:	174e                	slli	a4,a4,0x33
   19196:	177d                	addi	a4,a4,-1 # 7fff <exit-0x8121>
   19198:	8c91                	sub	s1,s1,a2
   1919a:	00e7f8b3          	and	a7,a5,a4
   1919e:	8622                	mv	a2,s0
   191a0:	b261                	j	18b28 <__subtf3+0xc4>
   191a2:	889a                	mv	a7,t1
   191a4:	862a                	mv	a2,a0
   191a6:	bf35                	j	190e2 <__subtf3+0x67e>
   191a8:	88ba                	mv	a7,a4
   191aa:	862e                	mv	a2,a1
   191ac:	bf1d                	j	190e2 <__subtf3+0x67e>
  FP_PACK_SEMIRAW_Q (r, R);
   191ae:	4705                	li	a4,1
   191b0:	f60998e3          	bnez	s3,19120 <__subtf3+0x6bc>
   191b4:	ff86b693          	sltiu	a3,a3,-8
   191b8:	8eb9                	xor	a3,a3,a4
   191ba:	97b6                	add	a5,a5,a3
   191bc:	b795                	j	19120 <__subtf3+0x6bc>
   191be:	4705                	li	a4,1
   191c0:	f60980e3          	beqz	s3,19120 <__subtf3+0x6bc>
   191c4:	bfc5                	j	191b4 <__subtf3+0x750>
   191c6:	00099863          	bnez	s3,191d6 <__subtf3+0x772>
   191ca:	00860693          	addi	a3,a2,8
   191ce:	bed5                	j	18dc2 <__subtf3+0x35e>
   191d0:	4705                	li	a4,1
   191d2:	fe099ce3          	bnez	s3,191ca <__subtf3+0x766>
   191d6:	c00784e3          	beqz	a5,18dde <__subtf3+0x37a>
   191da:	00177793          	andi	a5,a4,1
   191de:	0017979b          	slliw	a5,a5,0x1
   191e2:	8fd9                	or	a5,a5,a4
   191e4:	00c89713          	slli	a4,a7,0xc
   191e8:	ae0757e3          	bgez	a4,18cd6 <__subtf3+0x272>
   191ec:	6721                	lui	a4,0x8
   191ee:	0485                	addi	s1,s1,1
   191f0:	177d                	addi	a4,a4,-1 # 7fff <exit-0x8121>
   191f2:	00e48f63          	beq	s1,a4,19210 <__subtf3+0x7ac>
   191f6:	577d                	li	a4,-1
   191f8:	174e                	slli	a4,a4,0x33
   191fa:	177d                	addi	a4,a4,-1
   191fc:	00e8f8b3          	and	a7,a7,a4
   19200:	bcd9                	j	18cd6 <__subtf3+0x272>
   19202:	6721                	lui	a4,0x8
   19204:	ffe70493          	addi	s1,a4,-2 # 7ffe <exit-0x8122>
   19208:	58fd                	li	a7,-1
   1920a:	8646                	mv	a2,a7
   1920c:	4795                	li	a5,5
   1920e:	bfd9                	j	191e4 <__subtf3+0x780>
   19210:	4601                	li	a2,0
   19212:	02090163          	beqz	s2,19234 <__subtf3+0x7d0>
   19216:	470d                	li	a4,3
   19218:	00e91963          	bne	s2,a4,1922a <__subtf3+0x7c6>
   1921c:	00098c63          	beqz	s3,19234 <__subtf3+0x7d0>
   19220:	6721                	lui	a4,0x8
   19222:	567d                	li	a2,-1
   19224:	ffe70493          	addi	s1,a4,-2 # 7ffe <exit-0x8122>
   19228:	a031                	j	19234 <__subtf3+0x7d0>
   1922a:	4709                	li	a4,2
   1922c:	fee91ae3          	bne	s2,a4,19220 <__subtf3+0x7bc>
   19230:	fe0988e3          	beqz	s3,19220 <__subtf3+0x7bc>
   19234:	0057e793          	ori	a5,a5,5
   19238:	2781                	sext.w	a5,a5
   1923a:	88b2                	mv	a7,a2
   1923c:	bc69                	j	18cd6 <__subtf3+0x272>
  FP_SUB_Q (R, A, B);
   1923e:	4885                	li	a7,1
   19240:	4981                	li	s3,0
   19242:	18ca                	slli	a7,a7,0x32
   19244:	4601                	li	a2,0
   19246:	b625                	j	18d6e <__subtf3+0x30a>
   19248:	84ba                	mv	s1,a4
   1924a:	4881                	li	a7,0
   1924c:	4601                	li	a2,0
   1924e:	4795                	li	a5,5
   19250:	b459                	j	18cd6 <__subtf3+0x272>
   19252:	4881                	li	a7,0
   19254:	a029                	j	1925e <__subtf3+0x7fa>
   19256:	89b6                	mv	s3,a3
   19258:	4881                	li	a7,0
   1925a:	4601                	li	a2,0
   1925c:	84f2                	mv	s1,t3
   1925e:	4781                	li	a5,0
   19260:	bc9d                	j	18cd6 <__subtf3+0x272>
   19262:	4785                	li	a5,1
   19264:	6721                	lui	a4,0x8
   19266:	03279893          	slli	a7,a5,0x32
   1926a:	4981                	li	s3,0
   1926c:	4601                	li	a2,0
   1926e:	fff70493          	addi	s1,a4,-1 # 7fff <exit-0x8121>
   19272:	47c1                	li	a5,16
   19274:	b48d                	j	18cd6 <__subtf3+0x272>
   19276:	889a                	mv	a7,t1
   19278:	862a                	mv	a2,a0
   1927a:	bbf9                	j	19058 <__subtf3+0x5f4>
   1927c:	4881                	li	a7,0
   1927e:	4601                	li	a2,0
   19280:	4481                	li	s1,0
   19282:	bff1                	j	1925e <__subtf3+0x7fa>
   19284:	dd0e17e3          	bne	t3,a6,19052 <__subtf3+0x5ee>
   19288:	bb45                	j	19038 <__subtf3+0x5d4>

000000000001928a <__unordtf2>:
#include "soft-fp.h"
#include "quad.h"

CMPtype
__unordtf2 (TFtype a, TFtype b)
{
   1928a:	872a                	mv	a4,a0
  FP_DECL_EX;
  FP_DECL_Q (A);
  FP_DECL_Q (B);
  CMPtype r;

  FP_INIT_EXCEPTIONS;
   1928c:	002027f3          	frrm	a5
  FP_UNPACK_RAW_Q (A, a);
   19290:	557d                	li	a0,-1
   19292:	01055793          	srli	a5,a0,0x10
   19296:	6821                	lui	a6,0x8
   19298:	00f5f8b3          	and	a7,a1,a5
   1929c:	982a                	add	a6,a6,a0
   1929e:	91c1                	srli	a1,a1,0x30
   192a0:	8ff5                	and	a5,a5,a3
   192a2:	0105f5b3          	and	a1,a1,a6
  FP_UNPACK_RAW_Q (B, b);
   192a6:	92c1                	srli	a3,a3,0x30
   192a8:	0106f6b3          	and	a3,a3,a6
  FP_CMP_UNORD_Q (r, A, B, 1);
   192ac:	01059663          	bne	a1,a6,192b8 <__unordtf2+0x2e>
   192b0:	01176333          	or	t1,a4,a7
   192b4:	02031363          	bnez	t1,192da <__unordtf2+0x50>
   192b8:	4501                	li	a0,0
   192ba:	05069263          	bne	a3,a6,192fe <__unordtf2+0x74>
   192be:	00f66833          	or	a6,a2,a5
   192c2:	02080e63          	beqz	a6,192fe <__unordtf2+0x74>
   192c6:	02d59363          	bne	a1,a3,192ec <__unordtf2+0x62>
   192ca:	01176733          	or	a4,a4,a7
   192ce:	cf01                	beqz	a4,192e6 <__unordtf2+0x5c>
   192d0:	577d                	li	a4,-1
   192d2:	8345                	srli	a4,a4,0x11
   192d4:	03177163          	bgeu	a4,a7,192f6 <__unordtf2+0x6c>
   192d8:	a039                	j	192e6 <__unordtf2+0x5c>
   192da:	8145                	srli	a0,a0,0x11
   192dc:	01157d63          	bgeu	a0,a7,192f6 <__unordtf2+0x6c>
   192e0:	4505                	li	a0,1
   192e2:	00b69e63          	bne	a3,a1,192fe <__unordtf2+0x74>
   192e6:	8e5d                	or	a2,a2,a5
   192e8:	4505                	li	a0,1
   192ea:	ca11                	beqz	a2,192fe <__unordtf2+0x74>
   192ec:	577d                	li	a4,-1
   192ee:	8345                	srli	a4,a4,0x11
   192f0:	4505                	li	a0,1
   192f2:	00f76663          	bltu	a4,a5,192fe <__unordtf2+0x74>
  FP_HANDLE_EXCEPTIONS;
   192f6:	00186073          	csrsi	fflags,16
   192fa:	4505                	li	a0,1
   192fc:	8082                	ret

  return r;
}
   192fe:	8082                	ret

0000000000019300 <__fixtfsi>:
#include "soft-fp.h"
#include "quad.h"

SItype
__fixtfsi (TFtype a)
{
   19300:	862a                	mv	a2,a0
  FP_DECL_EX;
  FP_DECL_Q (A);
  USItype r;

  FP_INIT_EXCEPTIONS;
   19302:	002027f3          	frrm	a5
  FP_UNPACK_RAW_Q (A, a);
  FP_TO_INT_Q (r, A, SI_BITS, 1);
   19306:	6711                	lui	a4,0x4
  FP_UNPACK_RAW_Q (A, a);
   19308:	00159693          	slli	a3,a1,0x1
   1930c:	01059793          	slli	a5,a1,0x10
   19310:	92c5                	srli	a3,a3,0x31
  FP_TO_INT_Q (r, A, SI_BITS, 1);
   19312:	1779                	addi	a4,a4,-2 # 3ffe <exit-0xc122>
  FP_UNPACK_RAW_Q (A, a);
   19314:	83c1                	srli	a5,a5,0x10
   19316:	91fd                	srli	a1,a1,0x3f
  FP_TO_INT_Q (r, A, SI_BITS, 1);
   19318:	00d74863          	blt	a4,a3,19328 <__fixtfsi+0x28>
   1931c:	e2a5                	bnez	a3,1937c <__fixtfsi+0x7c>
   1931e:	00f56633          	or	a2,a0,a5
   19322:	4501                	li	a0,0
   19324:	ea31                	bnez	a2,19378 <__fixtfsi+0x78>
   19326:	8082                	ret
   19328:	6711                	lui	a4,0x4
   1932a:	0775                	addi	a4,a4,29 # 401d <exit-0xc103>
   1932c:	02d75063          	bge	a4,a3,1934c <__fixtfsi+0x4c>
   19330:	80000537          	lui	a0,0x80000
   19334:	c5b1                	beqz	a1,19380 <__fixtfsi+0x80>
   19336:	6711                	lui	a4,0x4
   19338:	0779                	addi	a4,a4,30 # 401e <exit-0xc102>
   1933a:	04e69563          	bne	a3,a4,19384 <__fixtfsi+0x84>
   1933e:	0117d713          	srli	a4,a5,0x11
   19342:	e329                	bnez	a4,19384 <__fixtfsi+0x84>
   19344:	17be                	slli	a5,a5,0x2f
   19346:	8fd1                	or	a5,a5,a2
   19348:	eb85                	bnez	a5,19378 <__fixtfsi+0x78>
   1934a:	8082                	ret
   1934c:	4705                	li	a4,1
   1934e:	1742                	slli	a4,a4,0x30
   19350:	8fd9                	or	a5,a5,a4
   19352:	6611                	lui	a2,0x4
   19354:	7771                	lui	a4,0xffffc
   19356:	2745                	addiw	a4,a4,17 # ffffffffffffc011 <__BSS_END__+0xfffffffffffe00f1>
   19358:	02f6061b          	addiw	a2,a2,47 # 402f <exit-0xc0f1>
   1935c:	9f35                	addw	a4,a4,a3
   1935e:	40d606bb          	subw	a3,a2,a3
   19362:	00e79733          	sll	a4,a5,a4
   19366:	00d7d7b3          	srl	a5,a5,a3
   1936a:	8f49                	or	a4,a4,a0
   1936c:	0007851b          	sext.w	a0,a5
   19370:	c199                	beqz	a1,19376 <__fixtfsi+0x76>
   19372:	40a0053b          	negw	a0,a0
   19376:	cb11                	beqz	a4,1938a <__fixtfsi+0x8a>
   19378:	4785                	li	a5,1
   1937a:	a031                	j	19386 <__fixtfsi+0x86>
   1937c:	4501                	li	a0,0
   1937e:	bfed                	j	19378 <__fixtfsi+0x78>
   19380:	fff54513          	not	a0,a0
   19384:	47c1                	li	a5,16
  FP_HANDLE_EXCEPTIONS;
   19386:	0017a073          	csrs	fflags,a5

  return r;
}
   1938a:	8082                	ret

000000000001938c <__floatsitf>:
#include "soft-fp.h"
#include "quad.h"

TFtype
__floatsitf (SItype i)
{
   1938c:	1101                	addi	sp,sp,-32
   1938e:	ec06                	sd	ra,24(sp)
   19390:	e822                	sd	s0,16(sp)
   19392:	e426                	sd	s1,8(sp)
  FP_DECL_Q (A);
  TFtype a;

  FP_FROM_INT_Q (A, i, SI_BITS, USItype);
   19394:	c129                	beqz	a0,193d6 <__floatsitf+0x4a>
   19396:	41f5579b          	sraiw	a5,a0,0x1f
   1939a:	00f54433          	xor	s0,a0,a5
   1939e:	9c1d                	subw	s0,s0,a5
   193a0:	1402                	slli	s0,s0,0x20
   193a2:	9001                	srli	s0,s0,0x20
   193a4:	01f5549b          	srliw	s1,a0,0x1f
   193a8:	8522                	mv	a0,s0
   193aa:	0f8000ef          	jal	194a2 <__clzdi2>
   193ae:	6791                	lui	a5,0x4
   193b0:	03e7879b          	addiw	a5,a5,62 # 403e <exit-0xc0e2>
   193b4:	9f89                	subw	a5,a5,a0
   193b6:	3545                	addiw	a0,a0,-15 # 7ffffff1 <__BSS_END__+0x7ffe40d1>
   193b8:	00a41433          	sll	s0,s0,a0
  FP_PACK_RAW_Q (a, A);
   193bc:	00f4959b          	slliw	a1,s1,0xf
   193c0:	0442                	slli	s0,s0,0x10
   193c2:	8ddd                	or	a1,a1,a5
   193c4:	8041                	srli	s0,s0,0x10
   193c6:	15c2                	slli	a1,a1,0x30

  return a;
}
   193c8:	60e2                	ld	ra,24(sp)
   193ca:	8dc1                	or	a1,a1,s0
   193cc:	6442                	ld	s0,16(sp)
   193ce:	64a2                	ld	s1,8(sp)
   193d0:	4501                	li	a0,0
   193d2:	6105                	addi	sp,sp,32
   193d4:	8082                	ret
   193d6:	4481                	li	s1,0
  FP_FROM_INT_Q (A, i, SI_BITS, USItype);
   193d8:	4401                	li	s0,0
   193da:	4781                	li	a5,0
   193dc:	b7c5                	j	193bc <__floatsitf+0x30>

00000000000193de <__extenddftf2>:
#include "double.h"
#include "quad.h"

TFtype
__extenddftf2 (DFtype a)
{
   193de:	1101                	addi	sp,sp,-32
   193e0:	e20507d3          	fmv.x.d	a5,fa0
   193e4:	ec06                	sd	ra,24(sp)
   193e6:	e822                	sd	s0,16(sp)
   193e8:	e426                	sd	s1,8(sp)
  FP_DECL_EX;
  FP_DECL_D (A);
  FP_DECL_Q (R);
  TFtype r;

  FP_INIT_EXCEPTIONS;
   193ea:	00202773          	frrm	a4
  FP_UNPACK_RAW_D (A, a);
   193ee:	0347d513          	srli	a0,a5,0x34
   193f2:	7ff57513          	andi	a0,a0,2047
   193f6:	00c79413          	slli	s0,a5,0xc
   193fa:	03f7d493          	srli	s1,a5,0x3f
#if _FP_W_TYPE_SIZE < 64
  FP_EXTEND (Q, D, 4, 2, R, A);
#else
  FP_EXTEND (Q, D, 2, 1, R, A);
   193fe:	00150793          	addi	a5,a0,1
   19402:	7fe7f793          	andi	a5,a5,2046
  FP_UNPACK_RAW_D (A, a);
   19406:	8031                	srli	s0,s0,0xc
  FP_EXTEND (Q, D, 2, 1, R, A);
   19408:	cb91                	beqz	a5,1941c <__extenddftf2+0x3e>
   1940a:	6791                	lui	a5,0x4
   1940c:	c0078793          	addi	a5,a5,-1024 # 3c00 <exit-0xc520>
   19410:	953e                	add	a0,a0,a5
   19412:	00445793          	srli	a5,s0,0x4
   19416:	1472                	slli	s0,s0,0x3c
  FP_DECL_EX;
   19418:	4701                	li	a4,0
   1941a:	a8b9                	j	19478 <__extenddftf2+0x9a>
  FP_EXTEND (Q, D, 2, 1, R, A);
   1941c:	ed1d                	bnez	a0,1945a <__extenddftf2+0x7c>
   1941e:	4781                	li	a5,0
   19420:	dc65                	beqz	s0,19418 <__extenddftf2+0x3a>
   19422:	8522                	mv	a0,s0
   19424:	07e000ef          	jal	194a2 <__clzdi2>
   19428:	0005071b          	sext.w	a4,a0
   1942c:	47b9                	li	a5,14
   1942e:	02e7c063          	blt	a5,a4,1944e <__extenddftf2+0x70>
   19432:	47bd                	li	a5,15
   19434:	9f89                	subw	a5,a5,a0
   19436:	0315071b          	addiw	a4,a0,49
   1943a:	00f457b3          	srl	a5,s0,a5
   1943e:	00e41433          	sll	s0,s0,a4
   19442:	6711                	lui	a4,0x4
   19444:	c0c7071b          	addiw	a4,a4,-1012 # 3c0c <exit-0xc514>
   19448:	40a7053b          	subw	a0,a4,a0
   1944c:	b7f1                	j	19418 <__extenddftf2+0x3a>
   1944e:	ff15079b          	addiw	a5,a0,-15
   19452:	00f417b3          	sll	a5,s0,a5
   19456:	4401                	li	s0,0
   19458:	b7ed                	j	19442 <__extenddftf2+0x64>
   1945a:	c021                	beqz	s0,1949a <__extenddftf2+0xbc>
   1945c:	4705                	li	a4,1
   1945e:	174e                	slli	a4,a4,0x33
   19460:	4685                	li	a3,1
   19462:	00e43733          	sltu	a4,s0,a4
   19466:	00445793          	srli	a5,s0,0x4
   1946a:	16be                	slli	a3,a3,0x2f
   1946c:	6521                	lui	a0,0x8
   1946e:	0047171b          	slliw	a4,a4,0x4
   19472:	1472                	slli	s0,s0,0x3c
   19474:	8fd5                	or	a5,a5,a3
   19476:	157d                	addi	a0,a0,-1 # 7fff <exit-0x8121>
#endif
  FP_PACK_RAW_Q (r, R);
   19478:	01079593          	slli	a1,a5,0x10
   1947c:	00f4979b          	slliw	a5,s1,0xf
   19480:	8fc9                	or	a5,a5,a0
   19482:	17c2                	slli	a5,a5,0x30
   19484:	81c1                	srli	a1,a1,0x10
   19486:	8ddd                	or	a1,a1,a5
  FP_HANDLE_EXCEPTIONS;
   19488:	c319                	beqz	a4,1948e <__extenddftf2+0xb0>
   1948a:	00186073          	csrsi	fflags,16

  return r;
}
   1948e:	60e2                	ld	ra,24(sp)
   19490:	8522                	mv	a0,s0
   19492:	6442                	ld	s0,16(sp)
   19494:	64a2                	ld	s1,8(sp)
   19496:	6105                	addi	sp,sp,32
   19498:	8082                	ret
  FP_EXTEND (Q, D, 2, 1, R, A);
   1949a:	6521                	lui	a0,0x8
   1949c:	4781                	li	a5,0
   1949e:	157d                	addi	a0,a0,-1 # 7fff <exit-0x8121>
   194a0:	bfa5                	j	19418 <__extenddftf2+0x3a>

00000000000194a2 <__clzdi2>:
int
__clzSI2 (UWtype x)
{
  Wtype ret;

  count_leading_zeros (ret, x);
   194a2:	03800793          	li	a5,56
   194a6:	00f55733          	srl	a4,a0,a5
   194aa:	0ff77693          	zext.b	a3,a4
   194ae:	ee99                	bnez	a3,194cc <__clzdi2+0x2a>
   194b0:	17e1                	addi	a5,a5,-8
   194b2:	fbf5                	bnez	a5,194a6 <__clzdi2+0x4>
   194b4:	04000713          	li	a4,64
   194b8:	8f1d                	sub	a4,a4,a5
   194ba:	67e9                	lui	a5,0x1a
   194bc:	be078793          	addi	a5,a5,-1056 # 19be0 <__clz_tab>
   194c0:	97aa                	add	a5,a5,a0
   194c2:	0007c503          	lbu	a0,0(a5)

  return ret;
}
   194c6:	40a7053b          	subw	a0,a4,a0
   194ca:	8082                	ret
   194cc:	853a                	mv	a0,a4
   194ce:	b7dd                	j	194b4 <__clzdi2+0x12>
