	.text
	.file	"photon-mapper.cpp"
	.p2align	2               # -- Begin function __cxx_global_var_init
	.type	__cxx_global_var_init,@function
__cxx_global_var_init:                  # @__cxx_global_var_init
	.cfi_startproc
# %bb.0:                                # %entry
	lui	a0, 1
	addi	a0, a0, -1552
	sub	sp, sp, a0
	.cfi_def_cfa_offset 2544
	lui	a0, 1
	addi	a0, a0, -1560
	add	a0, sp, a0
	sd	ra, 0(a0)
	lui	a0, 1
	addi	a0, a0, -1568
	add	a0, sp, a0
	sd	s0, 0(a0)
	lui	a0, 1
	addi	a0, a0, -1576
	add	a0, sp, a0
	sd	s1, 0(a0)
	lui	a0, 1
	addi	a0, a0, -1584
	add	a0, sp, a0
	sd	s2, 0(a0)
	.cfi_offset ra, -8
	.cfi_offset s0, -16
	.cfi_offset s1, -24
	.cfi_offset s2, -32
	lui	a0, 1
	addi	a0, a0, -1552
	add	s0, sp, a0
	.cfi_def_cfa s0, 0
	lui	a0, %tprel_hi(_ZGVN6Random6engineE)
	add	s1, a0, tp, %tprel_add(_ZGVN6Random6engineE)
	lbu	a0, %tprel_lo(_ZGVN6Random6engineE)(s1)
	bnez	a0, .LBB0_2
# %bb.1:                                # %init.check
	lui	a0, 1048575
	addi	a0, a0, 1552
	add	a0, s0, a0
	mv	s2, a0
	mv	a0, s2
	call	_ZNSt13random_deviceC2Ev
	mv	a0, s2
	call	_ZNSt13random_deviceclEv
	lui	a1, %tprel_hi(_ZN6Random6engineE)
	add	a1, a1, tp, %tprel_add(_ZN6Random6engineE)
	addi	a2, a1, %tprel_lo(_ZN6Random6engineE)
	slli	a0, a0, 32
	srli	a1, a0, 32
	mv	a0, a2
	call	_ZNSt23mersenne_twister_engineImLm64ELm312ELm156ELm31ELm13043109905998158313ELm29ELm6148914691236517205ELm17ELm8202884508482404352ELm37ELm18444473444759240704ELm43ELm6364136223846793005EEC2Em
	addi	a0, s1, %tprel_lo(_ZGVN6Random6engineE)
	addi	a1, zero, 1
	sd	a1, 0(a0)
.LBB0_2:                                # %init.end
	lui	a0, 1
	addi	a0, a0, -1584
	add	a0, sp, a0
	ld	s2, 0(a0)
	lui	a0, 1
	addi	a0, a0, -1576
	add	a0, sp, a0
	ld	s1, 0(a0)
	lui	a0, 1
	addi	a0, a0, -1568
	add	a0, sp, a0
	ld	s0, 0(a0)
	.cfi_def_cfa sp, 2544
	lui	a0, 1
	addi	a0, a0, -1560
	add	a0, sp, a0
	ld	ra, 0(a0)
	.cfi_restore ra
	.cfi_restore s0
	.cfi_restore s1
	.cfi_restore s2
	lui	a0, 1
	addi	a0, a0, -1552
	add	sp, sp, a0
	.cfi_def_cfa_offset 0
	ret
.Lfunc_end0:
	.size	__cxx_global_var_init, .Lfunc_end0-__cxx_global_var_init
	.cfi_endproc
                                        # -- End function
	.section	.text._ZNSt13random_deviceC2Ev,"axG",@progbits,_ZNSt13random_deviceC2Ev,comdat
	.weak	_ZNSt13random_deviceC2Ev # -- Begin function _ZNSt13random_deviceC2Ev
	.p2align	2
	.type	_ZNSt13random_deviceC2Ev,@function
_ZNSt13random_deviceC2Ev:               # @_ZNSt13random_deviceC2Ev
.Lfunc_begin0:
	.cfi_startproc
	.cfi_personality 155, DW.ref.__gxx_personality_v0
	.cfi_lsda 27, .Lexception0
# %bb.0:                                # %entry
	addi	sp, sp, -96
	.cfi_def_cfa_offset 96
	sd	ra, 88(sp)
	sd	s0, 80(sp)
	sd	s1, 72(sp)
	sd	s2, 64(sp)
	.cfi_offset ra, -8
	.cfi_offset s0, -16
	.cfi_offset s1, -24
	.cfi_offset s2, -32
	addi	s0, sp, 96
	.cfi_def_cfa s0, 0
	sd	a0, -40(s0)
	ld	s2, -40(s0)
	addi	s1, s0, -80
	mv	a0, s1
	call	_ZNSaIcEC1Ev
.Ltmp0:
	lui	a0, %hi(.L.str.9)
	addi	a1, a0, %lo(.L.str.9)
	addi	a0, s0, -72
	mv	a2, s1
	call	_ZNSt7__cxx1112basic_stringIcSt11char_traitsIcESaIcEEC2IS3_EEPKcRKS3_
.Ltmp1:
	j	.LBB1_1
.LBB1_1:                                # %invoke.cont
.Ltmp3:
	addi	a1, s0, -72
	mv	a0, s2
	call	_ZNSt13random_device7_M_initERKNSt7__cxx1112basic_stringIcSt11char_traitsIcESaIcEEE
.Ltmp4:
	j	.LBB1_2
.LBB1_2:                                # %invoke.cont4
	addi	a0, s0, -72
	call	_ZNSt7__cxx1112basic_stringIcSt11char_traitsIcESaIcEED1Ev
	addi	a0, s0, -80
	call	_ZNSaIcED1Ev
	ld	s2, 64(sp)
	ld	s1, 72(sp)
	ld	s0, 80(sp)
	.cfi_def_cfa sp, 96
	ld	ra, 88(sp)
	.cfi_restore ra
	.cfi_restore s0
	.cfi_restore s1
	.cfi_restore s2
	addi	sp, sp, 96
	.cfi_def_cfa_offset 0
	ret
.LBB1_3:                                # %lpad
.Ltmp2:
	sd	a0, -88(s0)
	sw	a1, -92(s0)
	j	.LBB1_5
.LBB1_4:                                # %lpad3
.Ltmp5:
	sd	a0, -88(s0)
	sw	a1, -92(s0)
	addi	a0, s0, -72
	call	_ZNSt7__cxx1112basic_stringIcSt11char_traitsIcESaIcEED1Ev
	j	.LBB1_5
.LBB1_5:                                # %ehcleanup
	addi	a0, s0, -80
	call	_ZNSaIcED1Ev
	j	.LBB1_6
.LBB1_6:                                # %eh.resume
	ld	a0, -88(s0)
	call	_Unwind_Resume
.Lfunc_end1:
	.size	_ZNSt13random_deviceC2Ev, .Lfunc_end1-_ZNSt13random_deviceC2Ev
	.cfi_endproc
	.section	.gcc_except_table,"a",@progbits
	.p2align	2
GCC_except_table1:
.Lexception0:
	.byte	255                     # @LPStart Encoding = omit
	.byte	255                     # @TType Encoding = omit
	.byte	3                       # Call site Encoding = udata4
	.uleb128 .Lcst_end0-.Lcst_begin0
.Lcst_begin0:
	.word	.Ltmp0-.Lfunc_begin0    # >> Call Site 1 <<
	.word	.Ltmp1-.Ltmp0           #   Call between .Ltmp0 and .Ltmp1
	.word	.Ltmp2-.Lfunc_begin0    #     jumps to .Ltmp2
	.byte	0                       #   On action: cleanup
	.word	.Ltmp3-.Lfunc_begin0    # >> Call Site 2 <<
	.word	.Ltmp4-.Ltmp3           #   Call between .Ltmp3 and .Ltmp4
	.word	.Ltmp5-.Lfunc_begin0    #     jumps to .Ltmp5
	.byte	0                       #   On action: cleanup
	.word	.Ltmp4-.Lfunc_begin0    # >> Call Site 3 <<
	.word	.Lfunc_end1-.Ltmp4      #   Call between .Ltmp4 and .Lfunc_end1
	.word	0                       #     has no landing pad
	.byte	0                       #   On action: cleanup
.Lcst_end0:
	.p2align	2
                                        # -- End function
	.section	.text._ZNSt13random_deviceclEv,"axG",@progbits,_ZNSt13random_deviceclEv,comdat
	.weak	_ZNSt13random_deviceclEv # -- Begin function _ZNSt13random_deviceclEv
	.p2align	2
	.type	_ZNSt13random_deviceclEv,@function
_ZNSt13random_deviceclEv:               # @_ZNSt13random_deviceclEv
	.cfi_startproc
# %bb.0:                                # %entry
	addi	sp, sp, -32
	.cfi_def_cfa_offset 32
	sd	ra, 24(sp)
	sd	s0, 16(sp)
	.cfi_offset ra, -8
	.cfi_offset s0, -16
	addi	s0, sp, 32
	.cfi_def_cfa s0, 0
	sd	a0, -24(s0)
	ld	a0, -24(s0)
	call	_ZNSt13random_device9_M_getvalEv
	ld	s0, 16(sp)
	.cfi_def_cfa sp, 32
	ld	ra, 24(sp)
	.cfi_restore ra
	.cfi_restore s0
	addi	sp, sp, 32
	.cfi_def_cfa_offset 0
	ret
.Lfunc_end2:
	.size	_ZNSt13random_deviceclEv, .Lfunc_end2-_ZNSt13random_deviceclEv
	.cfi_endproc
                                        # -- End function
	.section	.text._ZNSt23mersenne_twister_engineImLm64ELm312ELm156ELm31ELm13043109905998158313ELm29ELm6148914691236517205ELm17ELm8202884508482404352ELm37ELm18444473444759240704ELm43ELm6364136223846793005EEC2Em,"axG",@progbits,_ZNSt23mersenne_twister_engineImLm64ELm312ELm156ELm31ELm13043109905998158313ELm29ELm6148914691236517205ELm17ELm8202884508482404352ELm37ELm18444473444759240704ELm43ELm6364136223846793005EEC2Em,comdat
	.weak	_ZNSt23mersenne_twister_engineImLm64ELm312ELm156ELm31ELm13043109905998158313ELm29ELm6148914691236517205ELm17ELm8202884508482404352ELm37ELm18444473444759240704ELm43ELm6364136223846793005EEC2Em # -- Begin function _ZNSt23mersenne_twister_engineImLm64ELm312ELm156ELm31ELm13043109905998158313ELm29ELm6148914691236517205ELm17ELm8202884508482404352ELm37ELm18444473444759240704ELm43ELm6364136223846793005EEC2Em
	.p2align	2
	.type	_ZNSt23mersenne_twister_engineImLm64ELm312ELm156ELm31ELm13043109905998158313ELm29ELm6148914691236517205ELm17ELm8202884508482404352ELm37ELm18444473444759240704ELm43ELm6364136223846793005EEC2Em,@function
_ZNSt23mersenne_twister_engineImLm64ELm312ELm156ELm31ELm13043109905998158313ELm29ELm6148914691236517205ELm17ELm8202884508482404352ELm37ELm18444473444759240704ELm43ELm6364136223846793005EEC2Em: # @_ZNSt23mersenne_twister_engineImLm64ELm312ELm156ELm31ELm13043109905998158313ELm29ELm6148914691236517205ELm17ELm8202884508482404352ELm37ELm18444473444759240704ELm43ELm6364136223846793005EEC2Em
	.cfi_startproc
# %bb.0:                                # %entry
	addi	sp, sp, -32
	.cfi_def_cfa_offset 32
	sd	ra, 24(sp)
	sd	s0, 16(sp)
	.cfi_offset ra, -8
	.cfi_offset s0, -16
	addi	s0, sp, 32
	.cfi_def_cfa s0, 0
	sd	a0, -24(s0)
	sd	a1, -32(s0)
	ld	a0, -24(s0)
	ld	a1, -32(s0)
	call	_ZNSt23mersenne_twister_engineImLm64ELm312ELm156ELm31ELm13043109905998158313ELm29ELm6148914691236517205ELm17ELm8202884508482404352ELm37ELm18444473444759240704ELm43ELm6364136223846793005EE4seedEm
	ld	s0, 16(sp)
	.cfi_def_cfa sp, 32
	ld	ra, 24(sp)
	.cfi_restore ra
	.cfi_restore s0
	addi	sp, sp, 32
	.cfi_def_cfa_offset 0
	ret
.Lfunc_end3:
	.size	_ZNSt23mersenne_twister_engineImLm64ELm312ELm156ELm31ELm13043109905998158313ELm29ELm6148914691236517205ELm17ELm8202884508482404352ELm37ELm18444473444759240704ELm43ELm6364136223846793005EEC2Em, .Lfunc_end3-_ZNSt23mersenne_twister_engineImLm64ELm312ELm156ELm31ELm13043109905998158313ELm29ELm6148914691236517205ELm17ELm8202884508482404352ELm37ELm18444473444759240704ELm43ELm6364136223846793005EEC2Em
	.cfi_endproc
                                        # -- End function
	.text
	.p2align	2               # -- Begin function __cxx_global_var_init.1
	.type	__cxx_global_var_init.1,@function
__cxx_global_var_init.1:                # @__cxx_global_var_init.1
.Lfunc_begin1:
	.cfi_startproc
	.cfi_personality 155, DW.ref.__gxx_personality_v0
	.cfi_lsda 27, .Lexception1
# %bb.0:                                # %entry
	lui	a0, 1
	addi	a0, a0, -1552
	sub	sp, sp, a0
	.cfi_def_cfa_offset 2544
	lui	a0, 1
	addi	a0, a0, -1560
	add	a0, sp, a0
	sd	ra, 0(a0)
	lui	a0, 1
	addi	a0, a0, -1568
	add	a0, sp, a0
	sd	s0, 0(a0)
	.cfi_offset ra, -8
	.cfi_offset s0, -16
	lui	a0, 1
	addi	a0, a0, -1552
	add	s0, sp, a0
	.cfi_def_cfa s0, 0
	lui	a0, %hi(_ZGVN7Sampler11global_seedE)
	lb	a1, %lo(_ZGVN7Sampler11global_seedE)(a0)
	fence	r, rw
	andi	a1, a1, 255
	bnez	a1, .LBB4_5
# %bb.1:                                # %init.check
	addi	a0, a0, %lo(_ZGVN7Sampler11global_seedE)
	call	__cxa_guard_acquire
	slli	a0, a0, 32
	srli	a0, a0, 32
	beqz	a0, .LBB4_5
# %bb.2:                                # %init
.Ltmp6:
	lui	a0, 1048575
	addi	a0, a0, 1568
	add	a0, s0, a0
	mv	a0, a0
	call	_ZNSt13random_deviceC2Ev
.Ltmp7:
# %bb.3:                                # %invoke.cont
.Ltmp8:
	lui	a0, 1048575
	addi	a0, a0, 1568
	add	a0, s0, a0
	mv	a0, a0
	call	_ZNSt13random_deviceclEv
.Ltmp9:
# %bb.4:                                # %invoke.cont1
	lui	a1, %hi(_ZN7Sampler11global_seedE)
	sw	a0, %lo(_ZN7Sampler11global_seedE)(a1)
	lui	a0, %hi(_ZGVN7Sampler11global_seedE)
	addi	a0, a0, %lo(_ZGVN7Sampler11global_seedE)
	call	__cxa_guard_release
.LBB4_5:                                # %init.end
	lui	a0, 1
	addi	a0, a0, -1568
	add	a0, sp, a0
	ld	s0, 0(a0)
	.cfi_def_cfa sp, 2544
	lui	a0, 1
	addi	a0, a0, -1560
	add	a0, sp, a0
	ld	ra, 0(a0)
	.cfi_restore ra
	.cfi_restore s0
	lui	a0, 1
	addi	a0, a0, -1552
	add	sp, sp, a0
	.cfi_def_cfa_offset 0
	ret
.LBB4_6:                                # %lpad
.Ltmp10:
	lui	a2, 1048575
	addi	a2, a2, 1556
	add	a2, s0, a2
	sw	a1, 0(a2)
	lui	a1, 1048575
	addi	a1, a1, 1560
	add	a1, s0, a1
	sd	a0, 0(a1)
	lui	a0, %hi(_ZGVN7Sampler11global_seedE)
	addi	a0, a0, %lo(_ZGVN7Sampler11global_seedE)
	call	__cxa_guard_abort
	lui	a0, 1048575
	addi	a0, a0, 1560
	add	a0, s0, a0
	ld	a0, 0(a0)
	call	_Unwind_Resume
.Lfunc_end4:
	.size	__cxx_global_var_init.1, .Lfunc_end4-__cxx_global_var_init.1
	.cfi_endproc
	.section	.gcc_except_table,"a",@progbits
	.p2align	2
GCC_except_table4:
.Lexception1:
	.byte	255                     # @LPStart Encoding = omit
	.byte	255                     # @TType Encoding = omit
	.byte	3                       # Call site Encoding = udata4
	.uleb128 .Lcst_end1-.Lcst_begin1
.Lcst_begin1:
	.word	.Ltmp6-.Lfunc_begin1    # >> Call Site 1 <<
	.word	.Ltmp9-.Ltmp6           #   Call between .Ltmp6 and .Ltmp9
	.word	.Ltmp10-.Lfunc_begin1   #     jumps to .Ltmp10
	.byte	0                       #   On action: cleanup
	.word	.Ltmp9-.Lfunc_begin1    # >> Call Site 2 <<
	.word	.Lfunc_end4-.Ltmp9      #   Call between .Ltmp9 and .Lfunc_end4
	.word	0                       #     has no landing pad
	.byte	0                       #   On action: cleanup
.Lcst_end1:
	.p2align	2
                                        # -- End function
	.section	.sdata,"aw",@progbits
	.p2align	3               # -- Begin function _ZN12PhotonMapperC2ERKN8nlohmann10basic_jsonISt3mapSt6vectorNSt7__cxx1112basic_stringIcSt11char_traitsIcESaIcEEEblmdSaNS0_14adl_serializerEEE
.LCPI5_0:
	.quad	4607182418800017408     # double 1
	.text
	.globl	_ZN12PhotonMapperC2ERKN8nlohmann10basic_jsonISt3mapSt6vectorNSt7__cxx1112basic_stringIcSt11char_traitsIcESaIcEEEblmdSaNS0_14adl_serializerEEE
	.p2align	2
	.type	_ZN12PhotonMapperC2ERKN8nlohmann10basic_jsonISt3mapSt6vectorNSt7__cxx1112basic_stringIcSt11char_traitsIcESaIcEEEblmdSaNS0_14adl_serializerEEE,@function
_ZN12PhotonMapperC2ERKN8nlohmann10basic_jsonISt3mapSt6vectorNSt7__cxx1112basic_stringIcSt11char_traitsIcESaIcEEEblmdSaNS0_14adl_serializerEEE: # @_ZN12PhotonMapperC2ERKN8nlohmann10basic_jsonISt3mapSt6vectorNSt7__cxx1112basic_stringIcSt11char_traitsIcESaIcEEEblmdSaNS0_14adl_serializerEEE
.Lfunc_begin2:
	.cfi_startproc
	.cfi_personality 155, DW.ref.__gxx_personality_v0
	.cfi_lsda 27, .Lexception2
# %bb.0:                                # %entry
	addi	sp, sp, -1520
	.cfi_def_cfa_offset 1520
	sd	ra, 1512(sp)
	sd	s0, 1504(sp)
	sd	s1, 1496(sp)
	sd	s2, 1488(sp)
	sd	s3, 1480(sp)
	sd	s4, 1472(sp)
	sd	s5, 1464(sp)
	sd	s6, 1456(sp)
	sd	s7, 1448(sp)
	sd	s8, 1440(sp)
	.cfi_offset ra, -8
	.cfi_offset s0, -16
	.cfi_offset s1, -24
	.cfi_offset s2, -32
	.cfi_offset s3, -40
	.cfi_offset s4, -48
	.cfi_offset s5, -56
	.cfi_offset s6, -64
	.cfi_offset s7, -72
	.cfi_offset s8, -80
	addi	s0, sp, 1520
	.cfi_def_cfa s0, 0
	sd	a0, -96(s0)
	sd	a1, -104(s0)
	ld	s7, -96(s0)
	ld	a1, -104(s0)
	mv	a0, s7
	call	_ZN10IntegratorC2ERKN8nlohmann10basic_jsonISt3mapSt6vectorNSt7__cxx1112basic_stringIcSt11char_traitsIcESaIcEEEblmdSaNS0_14adl_serializerEEE
	lui	a0, %hi(_ZTV12PhotonMapper)
	addi	a0, a0, %lo(_ZTV12PhotonMapper)
	addi	a0, a0, 16
	sd	a0, 0(s7)
	addi	s2, s7, 168
.Ltmp11:
	mv	a0, s2
	call	_ZN12LinearOctreeI6PhotonEC2Ev
.Ltmp12:
	j	.LBB5_1
.LBB5_1:                                # %invoke.cont
	addi	s3, s7, 216
.Ltmp14:
	mv	a0, s3
	call	_ZN12LinearOctreeI6PhotonEC2Ev
.Ltmp15:
	j	.LBB5_2
.LBB5_2:                                # %invoke.cont3
	addi	s4, s7, 264
	mv	a0, s4
	call	_ZNSt6vectorIS_I6PhotonSaIS0_EESaIS2_EEC2Ev
	addi	s5, s7, 288
	mv	a0, s5
	call	_ZNSt6vectorIS_I6PhotonSaIS0_EESaIS2_EEC2Ev
	addi	a0, zero, 1
	sb	a0, -117(s0)
	ld	s6, -104(s0)
	addi	s1, s0, -168
	mv	a0, s1
	call	_ZNSaIcEC1Ev
.Ltmp17:
	lui	a0, %hi(.L.str)
	addi	a1, a0, %lo(.L.str)
	addi	a0, s0, -160
	mv	a2, s1
	call	_ZNSt7__cxx1112basic_stringIcSt11char_traitsIcESaIcEEC2IS3_EEPKcRKS3_
.Ltmp18:
	j	.LBB5_3
.LBB5_3:                                # %invoke.cont6
.Ltmp20:
	addi	a1, s0, -160
	mv	a0, s6
	call	_ZNK8nlohmann10basic_jsonISt3mapSt6vectorNSt7__cxx1112basic_stringIcSt11char_traitsIcESaIcEEEblmdSaNS_14adl_serializerEE2atERKS8_
	mv	s1, a0
.Ltmp21:
	j	.LBB5_4
.LBB5_4:                                # %invoke.cont8
	addi	a0, s0, -160
	call	_ZNSt7__cxx1112basic_stringIcSt11char_traitsIcESaIcEED1Ev
	addi	a0, s0, -168
	call	_ZNSaIcED1Ev
	sd	s1, -128(s0)
	ld	s6, -128(s0)
	addi	s1, s0, -216
	mv	a0, s1
	call	_ZNSaIcEC1Ev
.Ltmp23:
	lui	a0, %hi(.L.str.2)
	addi	a1, a0, %lo(.L.str.2)
	addi	a0, s0, -208
	mv	a2, s1
	call	_ZNSt7__cxx1112basic_stringIcSt11char_traitsIcESaIcEEC2IS3_EEPKcRKS3_
.Ltmp24:
	j	.LBB5_5
.LBB5_5:                                # %invoke.cont12
.Ltmp26:
	addi	a1, s0, -208
	mv	a0, s6
	call	_ZNK8nlohmann10basic_jsonISt3mapSt6vectorNSt7__cxx1112basic_stringIcSt11char_traitsIcESaIcEEEblmdSaNS_14adl_serializerEE2atERKS8_
.Ltmp27:
	j	.LBB5_6
.LBB5_6:                                # %invoke.cont14
.Ltmp28:
	call	_ZNK8nlohmann10basic_jsonISt3mapSt6vectorNSt7__cxx1112basic_stringIcSt11char_traitsIcESaIcEEEblmdSaNS_14adl_serializerEEcvT_IdLi0EEEv
.Ltmp29:
	fmv.d.x	ft0, a0
	j	.LBB5_7
.LBB5_7:                                # %invoke.cont16
	addi	a0, s0, -208
	fsd	ft0, -1520(s0)
	call	_ZNSt7__cxx1112basic_stringIcSt11char_traitsIcESaIcEED1Ev
	addi	a0, s0, -216
	call	_ZNSaIcED1Ev
	fld	ft0, -1520(s0)
	fsd	ft0, -176(s0)
	ld	s6, -128(s0)
	addi	s1, s0, -264
	mv	a0, s1
	call	_ZNSaIcEC1Ev
.Ltmp31:
	lui	a0, %hi(.L.str.3)
	addi	a1, a0, %lo(.L.str.3)
	addi	a0, s0, -256
	mv	a2, s1
	call	_ZNSt7__cxx1112basic_stringIcSt11char_traitsIcESaIcEEC2IS3_EEPKcRKS3_
.Ltmp32:
	j	.LBB5_8
.LBB5_8:                                # %invoke.cont23
.Ltmp34:
	addi	a1, s0, -256
	mv	a0, s6
	call	_ZNK8nlohmann10basic_jsonISt3mapSt6vectorNSt7__cxx1112basic_stringIcSt11char_traitsIcESaIcEEEblmdSaNS_14adl_serializerEE2atERKS8_
.Ltmp35:
	j	.LBB5_9
.LBB5_9:                                # %invoke.cont25
.Ltmp36:
	call	_ZNK8nlohmann10basic_jsonISt3mapSt6vectorNSt7__cxx1112basic_stringIcSt11char_traitsIcESaIcEEEblmdSaNS_14adl_serializerEEcvT_ImLi0EEEv
	mv	s1, a0
.Ltmp37:
	j	.LBB5_10
.LBB5_10:                               # %invoke.cont27
	addi	a0, s0, -256
	call	_ZNSt7__cxx1112basic_stringIcSt11char_traitsIcESaIcEED1Ev
	addi	a0, s0, -264
	call	_ZNSaIcED1Ev
	sd	s1, -224(s0)
	ld	s6, -128(s0)
	addi	s1, s0, -304
	mv	a0, s1
	call	_ZNSaIcEC1Ev
.Ltmp39:
	lui	a0, %hi(.L.str.4)
	addi	a1, a0, %lo(.L.str.4)
	addi	a0, s0, -296
	mv	a2, s1
	call	_ZNSt7__cxx1112basic_stringIcSt11char_traitsIcESaIcEEC2IS3_EEPKcRKS3_
.Ltmp40:
	j	.LBB5_11
.LBB5_11:                               # %invoke.cont33
.Ltmp42:
	addi	a1, s0, -296
	mv	a0, s6
	addi	a2, zero, 50
	call	_Z11getOptionalIiET_RKN8nlohmann10basic_jsonISt3mapSt6vectorNSt7__cxx1112basic_stringIcSt11char_traitsIcESaIcEEEblmdSaNS1_14adl_serializerEEESA_S0_
.Ltmp43:
	j	.LBB5_12
.LBB5_12:                               # %invoke.cont35
	sext.w	a0, a0
	sd	a0, 328(s7)
	addi	a0, s0, -296
	call	_ZNSt7__cxx1112basic_stringIcSt11char_traitsIcESaIcEED1Ev
	addi	a0, s0, -304
	call	_ZNSaIcED1Ev
	fld	ft0, -176(s0)
	lui	a0, %hi(.LCPI5_0)
	addi	a0, a0, %lo(.LCPI5_0)
	fld	ft1, 0(a0)
	fdiv.d	ft0, ft1, ft0
	fsd	ft0, 312(s7)
	ld	s6, -128(s0)
	addi	s1, s0, -344
	mv	a0, s1
	call	_ZNSaIcEC1Ev
.Ltmp45:
	lui	a0, %hi(.L.str.5)
	addi	a1, a0, %lo(.L.str.5)
	addi	a0, s0, -336
	mv	a2, s1
	call	_ZNSt7__cxx1112basic_stringIcSt11char_traitsIcESaIcEEC2IS3_EEPKcRKS3_
.Ltmp46:
	j	.LBB5_13
.LBB5_13:                               # %invoke.cont42
.Ltmp48:
	addi	a1, s0, -336
	mv	a0, s6
	addi	a2, zero, 200
	call	_Z11getOptionalIiET_RKN8nlohmann10basic_jsonISt3mapSt6vectorNSt7__cxx1112basic_stringIcSt11char_traitsIcESaIcEEEblmdSaNS1_14adl_serializerEEESA_S0_
.Ltmp49:
	j	.LBB5_14
.LBB5_14:                               # %invoke.cont44
	sh	a0, 322(s7)
	addi	a0, s0, -336
	call	_ZNSt7__cxx1112basic_stringIcSt11char_traitsIcESaIcEED1Ev
	addi	a0, s0, -344
	call	_ZNSaIcED1Ev
	ld	s6, -128(s0)
	addi	s1, s0, -384
	mv	a0, s1
	call	_ZNSaIcEC1Ev
.Ltmp51:
	lui	a0, %hi(.L.str.6)
	addi	a1, a0, %lo(.L.str.6)
	addi	a0, s0, -376
	mv	a2, s1
	call	_ZNSt7__cxx1112basic_stringIcSt11char_traitsIcESaIcEEC2IS3_EEPKcRKS3_
.Ltmp52:
	j	.LBB5_15
.LBB5_15:                               # %invoke.cont52
.Ltmp54:
	addi	a1, s0, -376
	mv	a0, s6
	mv	a2, zero
	call	_Z11getOptionalIbET_RKN8nlohmann10basic_jsonISt3mapSt6vectorNSt7__cxx1112basic_stringIcSt11char_traitsIcESaIcEEEblmdSaNS1_14adl_serializerEEESA_S0_
.Ltmp55:
	j	.LBB5_16
.LBB5_16:                               # %invoke.cont54
	andi	a0, a0, 1
	sb	a0, 320(s7)
	addi	a0, s0, -376
	call	_ZNSt7__cxx1112basic_stringIcSt11char_traitsIcESaIcEED1Ev
	addi	a0, s0, -384
	call	_ZNSaIcED1Ev
	ld	a0, -224(s0)
	fcvt.d.lu	ft0, a0
	fld	ft1, -176(s0)
	fmul.d	ft0, ft0, ft1
	fcvt.lu.d	a0, ft0, rtz
	sd	a0, -224(s0)
	lui	a0, 24
	addiw	a0, a0, 1696
	sd	a0, -392(s0)
	sd	zero, -400(s0)
	addi	a0, s7, 40
	sd	a0, -408(s0)
	ld	a0, -408(s0)
	call	_ZNSt6vectorISt10shared_ptrIN7Surface4BaseEESaIS3_EE5beginEv
	sd	a0, -416(s0)
	ld	a0, -408(s0)
	call	_ZNSt6vectorISt10shared_ptrIN7Surface4BaseEESaIS3_EE3endEv
	sd	a0, -424(s0)
	j	.LBB5_17
.LBB5_17:                               # %for.cond
                                        # =>This Inner Loop Header: Depth=1
	addi	a0, s0, -416
	addi	a1, s0, -424
	call	_ZN9__gnu_cxxneIPSt10shared_ptrIN7Surface4BaseEESt6vectorIS4_SaIS4_EEEEbRKNS_17__normal_iteratorIT_T0_EESE_
	beqz	a0, .LBB5_44
	j	.LBB5_18
.LBB5_18:                               # %for.body
                                        #   in Loop: Header=BB5_17 Depth=1
	addi	a0, s0, -416
	call	_ZNK9__gnu_cxx17__normal_iteratorIPSt10shared_ptrIN7Surface4BaseEESt6vectorIS4_SaIS4_EEEdeEv
	sd	a0, -432(s0)
	ld	a0, -432(s0)
	call	_ZNKSt19__shared_ptr_accessIN7Surface4BaseELN9__gnu_cxx12_Lock_policyE0ELb0ELb0EEptEv
	addi	a0, a0, 8
	call	_ZNKSt19__shared_ptr_accessI8MaterialLN9__gnu_cxx12_Lock_policyE0ELb0ELb0EEptEv
	addi	s1, a0, 72
	ld	a0, -432(s0)
	call	_ZNKSt19__shared_ptr_accessIN7Surface4BaseELN9__gnu_cxx12_Lock_policyE0ELb0ELb0EEptEv
.Ltmp140:
	call	_ZNK7Surface4Base4areaEv
.Ltmp141:
	fmv.d.x	ft0, a0
	j	.LBB5_19
.LBB5_19:                               # %invoke.cont71
                                        #   in Loop: Header=BB5_17 Depth=1
.Ltmp142:
	fmv.x.d	a2, ft0
	addi	a0, s0, -456
	mv	a1, s1
	call	_ZN3glmmlIdLNS_9qualifierE0EEENS_3vecILi3ET_XT0_EEERKS4_S3_
.Ltmp143:
	j	.LBB5_20
.LBB5_20:                               # %invoke.cont73
                                        #   in Loop: Header=BB5_17 Depth=1
.Ltmp144:
	addi	a0, s0, -456
	call	_ZN3glm7compAddILi3EdLNS_9qualifierE0EEET0_RKNS_3vecIXT_ES2_XT1_EEE
.Ltmp145:
	fmv.d.x	ft0, a0
	j	.LBB5_21
.LBB5_21:                               # %invoke.cont74
                                        #   in Loop: Header=BB5_17 Depth=1
	fld	ft1, -400(s0)
	fadd.d	ft0, ft1, ft0
	fsd	ft0, -400(s0)
	j	.LBB5_22
.LBB5_22:                               # %for.inc
                                        #   in Loop: Header=BB5_17 Depth=1
	addi	a0, s0, -416
	call	_ZN9__gnu_cxx17__normal_iteratorIPSt10shared_ptrIN7Surface4BaseEESt6vectorIS4_SaIS4_EEEppEv
	j	.LBB5_17
.LBB5_23:                               # %lpad
.Ltmp13:
	sd	a0, -112(s0)
	sw	a1, -116(s0)
	j	.LBB5_118
.LBB5_24:                               # %lpad2
.Ltmp16:
	sd	a0, -112(s0)
	sw	a1, -116(s0)
	j	.LBB5_117
.LBB5_25:                               # %lpad5
.Ltmp19:
	sd	a0, -112(s0)
	sw	a1, -116(s0)
	j	.LBB5_27
.LBB5_26:                               # %lpad7
.Ltmp22:
	sd	a0, -112(s0)
	sw	a1, -116(s0)
	addi	a0, s0, -160
	call	_ZNSt7__cxx1112basic_stringIcSt11char_traitsIcESaIcEED1Ev
	j	.LBB5_27
.LBB5_27:                               # %ehcleanup
	addi	a0, s0, -168
	call	_ZNSaIcED1Ev
	j	.LBB5_116
.LBB5_28:                               # %lpad11
.Ltmp25:
	sd	a0, -112(s0)
	sw	a1, -116(s0)
	j	.LBB5_30
.LBB5_29:                               # %lpad13
.Ltmp30:
	sd	a0, -112(s0)
	sw	a1, -116(s0)
	addi	a0, s0, -208
	call	_ZNSt7__cxx1112basic_stringIcSt11char_traitsIcESaIcEED1Ev
	j	.LBB5_30
.LBB5_30:                               # %ehcleanup19
	addi	a0, s0, -216
	call	_ZNSaIcED1Ev
	j	.LBB5_116
.LBB5_31:                               # %lpad22
.Ltmp33:
	sd	a0, -112(s0)
	sw	a1, -116(s0)
	j	.LBB5_33
.LBB5_32:                               # %lpad24
.Ltmp38:
	sd	a0, -112(s0)
	sw	a1, -116(s0)
	addi	a0, s0, -256
	call	_ZNSt7__cxx1112basic_stringIcSt11char_traitsIcESaIcEED1Ev
	j	.LBB5_33
.LBB5_33:                               # %ehcleanup30
	addi	a0, s0, -264
	call	_ZNSaIcED1Ev
	j	.LBB5_116
.LBB5_34:                               # %lpad32
.Ltmp41:
	sd	a0, -112(s0)
	sw	a1, -116(s0)
	j	.LBB5_36
.LBB5_35:                               # %lpad34
.Ltmp44:
	sd	a0, -112(s0)
	sw	a1, -116(s0)
	addi	a0, s0, -296
	call	_ZNSt7__cxx1112basic_stringIcSt11char_traitsIcESaIcEED1Ev
	j	.LBB5_36
.LBB5_36:                               # %ehcleanup38
	addi	a0, s0, -304
	call	_ZNSaIcED1Ev
	j	.LBB5_116
.LBB5_37:                               # %lpad41
.Ltmp47:
	sd	a0, -112(s0)
	sw	a1, -116(s0)
	j	.LBB5_39
.LBB5_38:                               # %lpad43
.Ltmp50:
	sd	a0, -112(s0)
	sw	a1, -116(s0)
	addi	a0, s0, -336
	call	_ZNSt7__cxx1112basic_stringIcSt11char_traitsIcESaIcEED1Ev
	j	.LBB5_39
.LBB5_39:                               # %ehcleanup48
	addi	a0, s0, -344
	call	_ZNSaIcED1Ev
	j	.LBB5_116
.LBB5_40:                               # %lpad51
.Ltmp53:
	sd	a0, -112(s0)
	sw	a1, -116(s0)
	j	.LBB5_42
.LBB5_41:                               # %lpad53
.Ltmp56:
	sd	a0, -112(s0)
	sw	a1, -116(s0)
	addi	a0, s0, -376
	call	_ZNSt7__cxx1112basic_stringIcSt11char_traitsIcESaIcEED1Ev
	j	.LBB5_42
.LBB5_42:                               # %ehcleanup57
	addi	a0, s0, -384
	call	_ZNSaIcED1Ev
	j	.LBB5_116
.LBB5_43:                               # %lpad70
.Ltmp146:
	sd	a0, -112(s0)
	sw	a1, -116(s0)
	j	.LBB5_116
.LBB5_44:                               # %for.end
	addi	a0, s0, -480
	call	_ZNSt6vectorIZN12PhotonMapperC1ERKN8nlohmann10basic_jsonISt3mapS_NSt7__cxx1112basic_stringIcSt11char_traitsIcESaIcEEEblmdSaNS1_14adl_serializerEEEE12EmissionWorkSaISE_EEC2Ev
	sd	zero, -488(s0)
	j	.LBB5_45
.LBB5_45:                               # %for.cond77
                                        # =>This Loop Header: Depth=1
                                        #     Child Loop BB5_51 Depth 2
	ld	s1, -488(s0)
	addi	a0, s7, 40
	call	_ZNKSt6vectorISt10shared_ptrIN7Surface4BaseEESaIS3_EE4sizeEv
	bgeu	s1, a0, .LBB5_62
	j	.LBB5_46
.LBB5_46:                               # %for.body81
                                        #   in Loop: Header=BB5_45 Depth=1
	addi	a0, s7, 40
	ld	a1, -488(s0)
	call	_ZNSt6vectorISt10shared_ptrIN7Surface4BaseEESaIS3_EEixEm
	mv	a1, a0
	addi	s6, s0, -504
	mv	a0, s6
	call	_ZNSt10shared_ptrIN7Surface4BaseEEC2ERKS2_
	mv	a0, s6
	call	_ZNKSt19__shared_ptr_accessIN7Surface4BaseELN9__gnu_cxx12_Lock_policyE0ELb0ELb0EEptEv
	addi	a0, a0, 8
	call	_ZNKSt19__shared_ptr_accessI8MaterialLN9__gnu_cxx12_Lock_policyE0ELb0ELb0EEptEv
	addi	s1, a0, 72
	mv	a0, s6
	call	_ZNKSt19__shared_ptr_accessIN7Surface4BaseELN9__gnu_cxx12_Lock_policyE0ELb0ELb0EEptEv
.Ltmp128:
	call	_ZNK7Surface4Base4areaEv
.Ltmp129:
	fmv.d.x	ft0, a0
	j	.LBB5_47
.LBB5_47:                               # %invoke.cont92
                                        #   in Loop: Header=BB5_45 Depth=1
.Ltmp130:
	fmv.x.d	a2, ft0
	addi	a0, s0, -528
	mv	a1, s1
	call	_ZN3glmmlIdLNS_9qualifierE0EEENS_3vecILi3ET_XT0_EEERKS4_S3_
.Ltmp131:
	j	.LBB5_48
.LBB5_48:                               # %invoke.cont94
                                        #   in Loop: Header=BB5_45 Depth=1
.Ltmp132:
	addi	a0, s0, -528
	call	_ZN3glm7compAddILi3EdLNS_9qualifierE0EEET0_RKNS_3vecIXT_ES2_XT1_EEE
.Ltmp133:
	fmv.d.x	ft0, a0
	j	.LBB5_49
.LBB5_49:                               # %invoke.cont95
                                        #   in Loop: Header=BB5_45 Depth=1
	fld	ft1, -400(s0)
	fdiv.d	ft0, ft0, ft1
	fsd	ft0, -536(s0)
	ld	a0, -224(s0)
	fcvt.d.lu	ft0, a0
	fld	ft1, -536(s0)
	fmul.d	ft0, ft0, ft1
	fcvt.lu.d	a0, ft0, rtz
	sd	a0, -544(s0)
	ld	a0, -544(s0)
	fcvt.d.lu	ft0, a0
.Ltmp134:
	fmv.x.d	a2, ft0
	addi	a0, s0, -568
	addi	a1, s0, -528
	call	_ZN3glmdvIdLNS_9qualifierE0EEENS_3vecILi3ET_XT0_EEERKS4_S3_
.Ltmp135:
	j	.LBB5_50
.LBB5_50:                               # %invoke.cont102
                                        #   in Loop: Header=BB5_45 Depth=1
	sd	zero, -576(s0)
	j	.LBB5_51
.LBB5_51:                               # %while.cond
                                        #   Parent Loop BB5_45 Depth=1
                                        # =>  This Inner Loop Header: Depth=2
	ld	a0, -576(s0)
	ld	a1, -544(s0)
	beq	a0, a1, .LBB5_60
	j	.LBB5_52
.LBB5_52:                               # %while.body
                                        #   in Loop: Header=BB5_51 Depth=2
	ld	a0, -576(s0)
	lui	a1, 24
	addiw	a1, a1, 1696
	add	a0, a0, a1
	ld	a1, -544(s0)
	bgeu	a1, a0, .LBB5_54
	j	.LBB5_53
.LBB5_53:                               # %cond.true
                                        #   in Loop: Header=BB5_51 Depth=2
	ld	a0, -544(s0)
	ld	a1, -576(s0)
	sub	a0, a0, a1
	j	.LBB5_55
.LBB5_54:                               # %cond.false
                                        #   in Loop: Header=BB5_51 Depth=2
	lui	a0, 24
	addiw	a0, a0, 1696
	j	.LBB5_55
.LBB5_55:                               # %cond.end
                                        #   in Loop: Header=BB5_51 Depth=2
	sd	a0, -584(s0)
.Ltmp137:
	addi	a0, s0, -480
	addi	a1, s0, -488
	addi	a2, s0, -576
	addi	a3, s0, -584
	addi	a4, s0, -568
	call	_ZNSt6vectorIZN12PhotonMapperC1ERKN8nlohmann10basic_jsonISt3mapS_NSt7__cxx1112basic_stringIcSt11char_traitsIcESaIcEEEblmdSaNS1_14adl_serializerEEEE12EmissionWorkSaISE_EE12emplace_backIJRmSI_SI_RN3glm3vecILi3EdLNSJ_9qualifierE0EEEEEERSE_DpOT_
.Ltmp138:
	j	.LBB5_56
.LBB5_56:                               # %invoke.cont106
                                        #   in Loop: Header=BB5_51 Depth=2
	ld	a0, -584(s0)
	ld	a1, -576(s0)
	add	a0, a1, a0
	sd	a0, -576(s0)
	j	.LBB5_51
.LBB5_57:                               # %lpad91.loopexit
.Ltmp139:
	j	.LBB5_59
.LBB5_58:                               # %lpad91.loopexit.split-lp
.Ltmp136:
	j	.LBB5_59
.LBB5_59:                               # %lpad91
	sd	a0, -112(s0)
	sw	a1, -116(s0)
	addi	a0, s0, -504
	call	_ZNSt10shared_ptrIN7Surface4BaseEED2Ev
	j	.LBB5_115
.LBB5_60:                               # %while.end
                                        #   in Loop: Header=BB5_45 Depth=1
	addi	a0, s0, -504
	call	_ZNSt10shared_ptrIN7Surface4BaseEED2Ev
	j	.LBB5_61
.LBB5_61:                               # %for.inc110
                                        #   in Loop: Header=BB5_45 Depth=1
	ld	a0, -488(s0)
	addi	a0, a0, 1
	sd	a0, -488(s0)
	j	.LBB5_45
.LBB5_62:                               # %for.end111
	addi	s1, s0, -480
	mv	a0, s1
	call	_ZNSt6vectorIZN12PhotonMapperC1ERKN8nlohmann10basic_jsonISt3mapS_NSt7__cxx1112basic_stringIcSt11char_traitsIcESaIcEEEblmdSaNS1_14adl_serializerEEEE12EmissionWorkSaISE_EE5beginEv
	sd	a0, -592(s0)
	mv	a0, s1
	call	_ZNSt6vectorIZN12PhotonMapperC1ERKN8nlohmann10basic_jsonISt3mapS_NSt7__cxx1112basic_stringIcSt11char_traitsIcESaIcEEEblmdSaNS1_14adl_serializerEEEE12EmissionWorkSaISE_EE3endEv
	sd	a0, -600(s0)
	call	_ZTWN6Random6engineE
	mv	a2, a0
	ld	a0, -592(s0)
	ld	a1, -600(s0)
.Ltmp57:
	call	_ZSt7shuffleIN9__gnu_cxx17__normal_iteratorIPZN12PhotonMapperC1ERKN8nlohmann10basic_jsonISt3mapSt6vectorNSt7__cxx1112basic_stringIcSt11char_traitsIcESaIcEEEblmdSaNS3_14adl_serializerEEEE12EmissionWorkS6_ISH_SaISH_EEEERSt23mersenne_twister_engineImLm64ELm312ELm156ELm31ELm13043109905998158313ELm29ELm6148914691236517205ELm17ELm8202884508482404352ELm37ELm18444473444759240704ELm43ELm6364136223846793005EEEvT_SP_OT0_
.Ltmp58:
	j	.LBB5_63
.LBB5_63:                               # %invoke.cont124
.Ltmp59:
	addi	a0, s0, -712
	addi	a1, s0, -480
	call	_ZNSt6vectorIZN12PhotonMapperC1ERKN8nlohmann10basic_jsonISt3mapS_NSt7__cxx1112basic_stringIcSt11char_traitsIcESaIcEEEblmdSaNS1_14adl_serializerEEEE12EmissionWorkSaISE_EEC2ERKSG_
.Ltmp60:
	j	.LBB5_64
.LBB5_64:                               # %invoke.cont126
.Ltmp62:
	addi	a0, s0, -688
	addi	a1, s0, -712
	call	_ZN9WorkQueueIZN12PhotonMapperC1ERKN8nlohmann10basic_jsonISt3mapSt6vectorNSt7__cxx1112basic_stringIcSt11char_traitsIcESaIcEEEblmdSaNS1_14adl_serializerEEEE12EmissionWorkEC2ES4_ISF_SaISF_EE
.Ltmp63:
	j	.LBB5_65
.LBB5_65:                               # %invoke.cont128
	addi	a0, s0, -712
	call	_ZNSt6vectorIZN12PhotonMapperC1ERKN8nlohmann10basic_jsonISt3mapS_NSt7__cxx1112basic_stringIcSt11char_traitsIcESaIcEEEblmdSaNS1_14adl_serializerEEEE12EmissionWorkSaISE_EED2Ev
	addi	a0, s7, 264
.Ltmp65:
	addi	a1, zero, 1
	call	_ZNSt6vectorIS_I6PhotonSaIS0_EESaIS2_EE6resizeEm
.Ltmp66:
	j	.LBB5_66
.LBB5_66:                               # %invoke.cont132
	addi	a0, s7, 288
.Ltmp67:
	addi	a1, zero, 1
	call	_ZNSt6vectorIS_I6PhotonSaIS0_EESaIS2_EE6resizeEm
.Ltmp68:
	j	.LBB5_67
.LBB5_67:                               # %invoke.cont134
.Ltmp69:
	addi	a0, s0, -760
	call	_ZZN12PhotonMapperC1ERKN8nlohmann10basic_jsonISt3mapSt6vectorNSt7__cxx1112basic_stringIcSt11char_traitsIcESaIcEEEblmdSaNS0_14adl_serializerEEEEN12EmissionWorkC2Ev
.Ltmp70:
	j	.LBB5_68
.LBB5_68:                               # %invoke.cont135
	j	.LBB5_69
.LBB5_69:                               # %while.cond136
                                        # =>This Loop Header: Depth=1
                                        #     Child Loop BB5_73 Depth 2
.Ltmp71:
	addi	a0, s0, -688
	addi	a1, s0, -760
	call	_ZN9WorkQueueIZN12PhotonMapperC1ERKN8nlohmann10basic_jsonISt3mapSt6vectorNSt7__cxx1112basic_stringIcSt11char_traitsIcESaIcEEEblmdSaNS1_14adl_serializerEEEE12EmissionWorkE7getWorkERSF_
.Ltmp72:
	j	.LBB5_70
.LBB5_70:                               # %invoke.cont137
                                        #   in Loop: Header=BB5_69 Depth=1
	andi	a0, a0, 1
	beqz	a0, .LBB5_95
	j	.LBB5_71
.LBB5_71:                               # %while.body139
                                        #   in Loop: Header=BB5_69 Depth=1
	addi	a0, s7, 40
	ld	a1, -760(s0)
	call	_ZNSt6vectorISt10shared_ptrIN7Surface4BaseEESaIS3_EEixEm
	mv	a1, a0
	addi	a0, s0, -776
	call	_ZNSt10shared_ptrIN7Surface4BaseEEC2ERKS2_
	lw	a0, -760(s0)
.Ltmp104:
	call	_ZN7Sampler8initiateEj
.Ltmp105:
	j	.LBB5_72
.LBB5_72:                               # %invoke.cont147
                                        #   in Loop: Header=BB5_69 Depth=1
	sd	zero, -784(s0)
	j	.LBB5_73
.LBB5_73:                               # %for.cond149
                                        #   Parent Loop BB5_69 Depth=1
                                        # =>  This Inner Loop Header: Depth=2
	ld	a0, -784(s0)
	ld	a1, -744(s0)
	bgeu	a0, a1, .LBB5_94
	j	.LBB5_74
.LBB5_74:                               # %for.body151
                                        #   in Loop: Header=BB5_73 Depth=2
	ld	a0, -752(s0)
	ld	a1, -784(s0)
	addw	a0, a0, a1
.Ltmp107:
	call	_ZN7Sampler8setIndexEj
.Ltmp108:
	j	.LBB5_75
.LBB5_75:                               # %invoke.cont154
                                        #   in Loop: Header=BB5_73 Depth=2
.Ltmp109:
	addi	a0, s0, -816
	call	_ZN7Sampler3getILi0ELi4EEEDav
.Ltmp110:
	j	.LBB5_76
.LBB5_76:                               # %invoke.cont155
                                        #   in Loop: Header=BB5_73 Depth=2
	addi	a0, s0, -776
	call	_ZNKSt19__shared_ptr_accessIN7Surface4BaseELN9__gnu_cxx12_Lock_policyE0ELb0ELb0EEdeEv
	mv	s1, a0
	addi	s6, s0, -816
	mv	a0, s6
	mv	a1, zero
	call	_ZNSt5arrayIdLm4EEixEm
	ld	s8, 0(a0)
	mv	a0, s6
	addi	a1, zero, 1
	call	_ZNSt5arrayIdLm4EEixEm
	ld	a1, 0(s1)
	ld	a4, 24(a1)
	ld	a3, 0(a0)
.Ltmp111:
	addi	a0, s0, -840
	mv	a1, s1
	mv	a2, s8
	jalr	a4
.Ltmp112:
	j	.LBB5_77
.LBB5_77:                               # %invoke.cont159
                                        #   in Loop: Header=BB5_73 Depth=2
	addi	a0, s0, -776
	call	_ZNKSt19__shared_ptr_accessIN7Surface4BaseELN9__gnu_cxx12_Lock_policyE0ELb0ELb0EEptEv
	mv	a1, a0
	ld	a0, 0(a1)
	ld	a3, 32(a0)
.Ltmp113:
	addi	a0, s0, -864
	addi	a2, s0, -840
	jalr	a3
.Ltmp114:
	j	.LBB5_78
.LBB5_78:                               # %invoke.cont163
                                        #   in Loop: Header=BB5_73 Depth=2
	addi	s6, s0, -816
	mv	a0, s6
	addi	a1, zero, 2
	call	_ZNSt5arrayIdLm4EEixEm
	ld	s1, 0(a0)
	mv	a0, s6
	addi	a1, zero, 3
	call	_ZNSt5arrayIdLm4EEixEm
	ld	a2, 0(a0)
.Ltmp115:
	addi	a0, s0, -912
	mv	a1, s1
	call	_ZN8Sampling15cosWeightedHemiEdd
.Ltmp116:
	j	.LBB5_79
.LBB5_79:                               # %invoke.cont167
                                        #   in Loop: Header=BB5_73 Depth=2
.Ltmp117:
	addi	a0, s0, -888
	addi	a1, s0, -912
	addi	a2, s0, -864
	call	_ZN16CoordinateSystem4fromERKN3glm3vecILi3EdLNS0_9qualifierE0EEES5_
.Ltmp118:
	j	.LBB5_80
.LBB5_80:                               # %invoke.cont168
                                        #   in Loop: Header=BB5_73 Depth=2
.Ltmp119:
	lui	a0, 497
	addiw	a0, a0, -1897
	slli	a0, a0, 14
	addi	a0, a0, 381
	slli	a0, a0, 15
	addi	a0, a0, 621
	slli	a0, a0, 12
	addi	a2, a0, 1685
	addi	a0, s0, -936
	addi	a1, s0, -864
	call	_ZN3glmmlIdLNS_9qualifierE0EEENS_3vecILi3ET_XT0_EEERKS4_S3_
.Ltmp120:
	j	.LBB5_81
.LBB5_81:                               # %invoke.cont170
                                        #   in Loop: Header=BB5_73 Depth=2
.Ltmp121:
	addi	a0, s0, -840
	addi	a1, s0, -936
	call	_ZN3glm3vecILi3EdLNS_9qualifierE0EEpLIdEERS2_RKNS0_ILi3ET_LS1_0EEE
.Ltmp122:
	j	.LBB5_82
.LBB5_82:                               # %invoke.cont171
                                        #   in Loop: Header=BB5_73 Depth=2
	ld	a3, 104(s7)
.Ltmp123:
	addi	a0, s0, -1040
	addi	a1, s0, -840
	addi	a2, s0, -888
	call	_ZN3RayC1ERKN3glm3vecILi3EdLNS0_9qualifierE0EEES5_d
.Ltmp124:
	j	.LBB5_83
.LBB5_83:                               # %invoke.cont175
                                        #   in Loop: Header=BB5_73 Depth=2
	ld	a0, -720(s0)
	sd	a0, -1048(s0)
	ld	a0, -728(s0)
	sd	a0, -1056(s0)
	ld	a0, -736(s0)
	sd	a0, -1064(s0)
.Ltmp125:
	addi	a1, s0, -1040
	addi	a2, s0, -1064
	mv	a0, s7
	mv	a3, zero
	call	_ZN12PhotonMapper10emitPhotonE3RayN3glm3vecILi3EdLNS1_9qualifierE0EEEm
.Ltmp126:
	j	.LBB5_84
.LBB5_84:                               # %invoke.cont178
                                        #   in Loop: Header=BB5_73 Depth=2
	j	.LBB5_85
.LBB5_85:                               # %for.inc179
                                        #   in Loop: Header=BB5_73 Depth=2
	ld	a0, -784(s0)
	addi	a0, a0, 1
	sd	a0, -784(s0)
	j	.LBB5_73
.LBB5_86:                               # %lpad123
.Ltmp61:
	sd	a0, -112(s0)
	sw	a1, -116(s0)
	j	.LBB5_115
.LBB5_87:                               # %lpad127
.Ltmp64:
	sd	a0, -112(s0)
	sw	a1, -116(s0)
	addi	a0, s0, -712
	call	_ZNSt6vectorIZN12PhotonMapperC1ERKN8nlohmann10basic_jsonISt3mapS_NSt7__cxx1112basic_stringIcSt11char_traitsIcESaIcEEEblmdSaNS1_14adl_serializerEEEE12EmissionWorkSaISE_EED2Ev
	j	.LBB5_115
.LBB5_88:                               # %lpad131.loopexit
.Ltmp73:
	j	.LBB5_90
.LBB5_89:                               # %lpad131.loopexit.split-lp
.Ltmp84:
	j	.LBB5_90
.LBB5_90:                               # %lpad131
	sd	a0, -112(s0)
	sw	a1, -116(s0)
	j	.LBB5_114
.LBB5_91:                               # %lpad146.loopexit
.Ltmp127:
	j	.LBB5_93
.LBB5_92:                               # %lpad146.loopexit.split-lp
.Ltmp106:
	j	.LBB5_93
.LBB5_93:                               # %lpad146
	sd	a0, -112(s0)
	sw	a1, -116(s0)
	addi	a0, s0, -776
	call	_ZNSt10shared_ptrIN7Surface4BaseEED2Ev
	j	.LBB5_114
.LBB5_94:                               # %for.end181
                                        #   in Loop: Header=BB5_69 Depth=1
	addi	a0, s0, -776
	call	_ZNSt10shared_ptrIN7Surface4BaseEED2Ev
	j	.LBB5_69
.LBB5_95:                               # %while.end183
	call	_ZNSt6chrono3_V212system_clock3nowEv
	sd	a0, -1072(s0)
	ld	a1, -224(s0)
.Ltmp74:
	lui	a0, %hi(.L.str.7)
	addi	a0, a0, %lo(.L.str.7)
	call	printf
.Ltmp75:
	j	.LBB5_96
.LBB5_96:                               # %invoke.cont187
	sb	zero, -1073(s0)
	call	_ZNSt6chrono3_V212system_clock3nowEv
	sd	a0, -1088(s0)
.Ltmp76:
	addi	a0, s0, -1088
	addi	a1, s0, -1072
	call	_ZNSt6chronomiINS_3_V212system_clockENS_8durationIlSt5ratioILl1ELl1000000000EEEES6_EENSt11common_typeIJT0_T1_EE4typeERKNS_10time_pointIT_S8_EERKNSC_ISD_S9_EE
.Ltmp77:
	j	.LBB5_97
.LBB5_97:                               # %invoke.cont194
	sd	a0, -1136(s0)
.Ltmp78:
	addi	a0, s0, -1136
	call	_ZNSt6chrono13duration_castINS_8durationIlSt5ratioILl1ELl1000EEEElS2_ILl1ELl1000000000EEEENSt9enable_ifIXsr13__is_durationIT_EE5valueES7_E4typeERKNS1_IT0_T1_EE
.Ltmp79:
	j	.LBB5_98
.LBB5_98:                               # %invoke.cont197
	sd	a0, -1128(s0)
.Ltmp80:
	addi	a0, s0, -1128
	call	_ZNKSt6chrono8durationIlSt5ratioILl1ELl1000EEE5countEv
	mv	a1, a0
.Ltmp81:
	j	.LBB5_99
.LBB5_99:                               # %invoke.cont200
.Ltmp82:
	addi	a0, s0, -1120
	call	_ZN6Format12timeDurationB5cxx11Em
.Ltmp83:
	j	.LBB5_100
.LBB5_100:                              # %invoke.cont202
	sd	zero, -1144(s0)
	sd	zero, -1152(s0)
	addi	a1, s7, 16
.Ltmp85:
	addi	a0, s0, -1208
	call	_ZNK5Scene2BBEv
.Ltmp86:
	j	.LBB5_101
.LBB5_101:                              # %invoke.cont205
	lhu	a2, 322(s7)
.Ltmp87:
	addi	a0, s0, -1312
	addi	a1, s0, -1208
	call	_ZN6OctreeI6PhotonEC2ERK11BoundingBoxm
.Ltmp88:
	j	.LBB5_102
.LBB5_102:                              # %invoke.cont208
	lhu	a2, 322(s7)
.Ltmp90:
	addi	a0, s0, -1416
	addi	a1, s0, -1208
	call	_ZN6OctreeI6PhotonEC2ERK11BoundingBoxm
.Ltmp91:
	j	.LBB5_103
.LBB5_103:                              # %invoke.cont212
	addi	s1, s7, 288
	mv	a0, s1
	mv	a1, zero
	call	_ZNSt6vectorIS_I6PhotonSaIS0_EESaIS2_EEixEm
	call	_ZNKSt6vectorI6PhotonSaIS0_EE4sizeEv
	ld	a1, -1144(s0)
	add	a0, a1, a0
	sd	a0, -1144(s0)
	mv	a0, s1
	mv	a1, zero
	call	_ZNSt6vectorIS_I6PhotonSaIS0_EESaIS2_EEixEm
	mv	a1, a0
.Ltmp93:
	addi	a0, s0, -1160
	addi	a2, s0, -1416
	call	_ZZN12PhotonMapperC1ERKN8nlohmann10basic_jsonISt3mapSt6vectorNSt7__cxx1112basic_stringIcSt11char_traitsIcESaIcEEEblmdSaNS0_14adl_serializerEEEENK3$_0clIS3_I6PhotonSaISG_EE6OctreeISG_EEEDaRT_RT0_
.Ltmp94:
	j	.LBB5_104
.LBB5_104:                              # %invoke.cont220
	addi	s1, s7, 264
	mv	a0, s1
	mv	a1, zero
	call	_ZNSt6vectorIS_I6PhotonSaIS0_EESaIS2_EEixEm
	call	_ZNKSt6vectorI6PhotonSaIS0_EE4sizeEv
	ld	a1, -1152(s0)
	add	a0, a1, a0
	sd	a0, -1152(s0)
	mv	a0, s1
	mv	a1, zero
	call	_ZNSt6vectorIS_I6PhotonSaIS0_EESaIS2_EEixEm
	mv	a1, a0
.Ltmp95:
	addi	a0, s0, -1160
	addi	a2, s0, -1312
	call	_ZZN12PhotonMapperC1ERKN8nlohmann10basic_jsonISt3mapSt6vectorNSt7__cxx1112basic_stringIcSt11char_traitsIcESaIcEEEblmdSaNS0_14adl_serializerEEEENK3$_0clIS3_I6PhotonSaISG_EE6OctreeISG_EEEDaRT_RT0_
.Ltmp96:
	j	.LBB5_105
.LBB5_105:                              # %invoke.cont227
.Ltmp97:
	addi	a0, s0, -1464
	addi	a1, s0, -1312
	call	_ZN12LinearOctreeI6PhotonEC2ER6OctreeIS0_E
.Ltmp98:
	j	.LBB5_106
.LBB5_106:                              # %invoke.cont229
	addi	a0, s7, 168
	addi	s1, s0, -1464
	mv	a1, s1
	call	_ZN12LinearOctreeI6PhotonEaSEOS1_
	mv	a0, s1
	call	_ZN12LinearOctreeI6PhotonED2Ev
.Ltmp99:
	addi	a0, s0, -1512
	addi	a1, s0, -1416
	call	_ZN12LinearOctreeI6PhotonEC2ER6OctreeIS0_E
.Ltmp100:
	j	.LBB5_107
.LBB5_107:                              # %invoke.cont233
	addi	a0, s7, 216
	addi	s1, s0, -1512
	mv	a1, s1
	call	_ZN12LinearOctreeI6PhotonEaSEOS1_
	mv	a0, s1
	call	_ZN12LinearOctreeI6PhotonED2Ev
	addi	a0, zero, 1
	sb	a0, -1073(s0)
	ld	a1, -1144(s0)
	ld	a2, -1152(s0)
.Ltmp101:
	lui	a0, %hi(.L.str.8)
	addi	a0, a0, %lo(.L.str.8)
	call	printf
.Ltmp102:
	j	.LBB5_108
.LBB5_108:                              # %invoke.cont236
	addi	a0, s0, -1416
	call	_ZN6OctreeI6PhotonED2Ev
	addi	a0, s0, -1312
	call	_ZN6OctreeI6PhotonED2Ev
	addi	a0, s0, -1120
	call	_ZNSt7__cxx1112basic_stringIcSt11char_traitsIcESaIcEED1Ev
	addi	a0, s0, -688
	call	_ZN9WorkQueueIZN12PhotonMapperC1ERKN8nlohmann10basic_jsonISt3mapSt6vectorNSt7__cxx1112basic_stringIcSt11char_traitsIcESaIcEEEblmdSaNS1_14adl_serializerEEEE12EmissionWorkED2Ev
	addi	a0, s0, -480
	call	_ZNSt6vectorIZN12PhotonMapperC1ERKN8nlohmann10basic_jsonISt3mapS_NSt7__cxx1112basic_stringIcSt11char_traitsIcESaIcEEEblmdSaNS1_14adl_serializerEEEE12EmissionWorkSaISE_EED2Ev
	ld	s8, 1440(sp)
	ld	s7, 1448(sp)
	ld	s6, 1456(sp)
	ld	s5, 1464(sp)
	ld	s4, 1472(sp)
	ld	s3, 1480(sp)
	ld	s2, 1488(sp)
	ld	s1, 1496(sp)
	ld	s0, 1504(sp)
	.cfi_def_cfa sp, 1520
	ld	ra, 1512(sp)
	.cfi_restore ra
	.cfi_restore s0
	.cfi_restore s1
	.cfi_restore s2
	.cfi_restore s3
	.cfi_restore s4
	.cfi_restore s5
	.cfi_restore s6
	.cfi_restore s7
	.cfi_restore s8
	addi	sp, sp, 1520
	.cfi_def_cfa_offset 0
	ret
.LBB5_109:                              # %lpad204
.Ltmp89:
	sd	a0, -112(s0)
	sw	a1, -116(s0)
	j	.LBB5_113
.LBB5_110:                              # %lpad211
.Ltmp92:
	sd	a0, -112(s0)
	sw	a1, -116(s0)
	j	.LBB5_112
.LBB5_111:                              # %lpad219
.Ltmp103:
	sd	a0, -112(s0)
	sw	a1, -116(s0)
	addi	a0, s0, -1416
	call	_ZN6OctreeI6PhotonED2Ev
	j	.LBB5_112
.LBB5_112:                              # %ehcleanup239
	addi	a0, s0, -1312
	call	_ZN6OctreeI6PhotonED2Ev
	j	.LBB5_113
.LBB5_113:                              # %ehcleanup240
	addi	a0, s0, -1120
	call	_ZNSt7__cxx1112basic_stringIcSt11char_traitsIcESaIcEED1Ev
	j	.LBB5_114
.LBB5_114:                              # %ehcleanup241
	addi	a0, s0, -688
	call	_ZN9WorkQueueIZN12PhotonMapperC1ERKN8nlohmann10basic_jsonISt3mapSt6vectorNSt7__cxx1112basic_stringIcSt11char_traitsIcESaIcEEEblmdSaNS1_14adl_serializerEEEE12EmissionWorkED2Ev
	j	.LBB5_115
.LBB5_115:                              # %ehcleanup242
	addi	a0, s0, -480
	call	_ZNSt6vectorIZN12PhotonMapperC1ERKN8nlohmann10basic_jsonISt3mapS_NSt7__cxx1112basic_stringIcSt11char_traitsIcESaIcEEEblmdSaNS1_14adl_serializerEEEE12EmissionWorkSaISE_EED2Ev
	j	.LBB5_116
.LBB5_116:                              # %ehcleanup243
	mv	a0, s5
	call	_ZNSt6vectorIS_I6PhotonSaIS0_EESaIS2_EED2Ev
	mv	a0, s4
	call	_ZNSt6vectorIS_I6PhotonSaIS0_EESaIS2_EED2Ev
	mv	a0, s3
	call	_ZN12LinearOctreeI6PhotonED2Ev
	j	.LBB5_117
.LBB5_117:                              # %ehcleanup246
	mv	a0, s2
	call	_ZN12LinearOctreeI6PhotonED2Ev
	j	.LBB5_118
.LBB5_118:                              # %ehcleanup247
	mv	a0, s7
	call	_ZN10IntegratorD2Ev
	j	.LBB5_119
.LBB5_119:                              # %eh.resume
	ld	a0, -112(s0)
	call	_Unwind_Resume
.Lfunc_end5:
	.size	_ZN12PhotonMapperC2ERKN8nlohmann10basic_jsonISt3mapSt6vectorNSt7__cxx1112basic_stringIcSt11char_traitsIcESaIcEEEblmdSaNS0_14adl_serializerEEE, .Lfunc_end5-_ZN12PhotonMapperC2ERKN8nlohmann10basic_jsonISt3mapSt6vectorNSt7__cxx1112basic_stringIcSt11char_traitsIcESaIcEEEblmdSaNS0_14adl_serializerEEE
	.cfi_endproc
	.section	.gcc_except_table,"a",@progbits
	.p2align	2
GCC_except_table5:
.Lexception2:
	.byte	255                     # @LPStart Encoding = omit
	.byte	255                     # @TType Encoding = omit
	.byte	3                       # Call site Encoding = udata4
	.uleb128 .Lcst_end2-.Lcst_begin2
.Lcst_begin2:
	.word	.Lfunc_begin2-.Lfunc_begin2 # >> Call Site 1 <<
	.word	.Ltmp11-.Lfunc_begin2   #   Call between .Lfunc_begin2 and .Ltmp11
	.word	0                       #     has no landing pad
	.byte	0                       #   On action: cleanup
	.word	.Ltmp11-.Lfunc_begin2   # >> Call Site 2 <<
	.word	.Ltmp12-.Ltmp11         #   Call between .Ltmp11 and .Ltmp12
	.word	.Ltmp13-.Lfunc_begin2   #     jumps to .Ltmp13
	.byte	0                       #   On action: cleanup
	.word	.Ltmp14-.Lfunc_begin2   # >> Call Site 3 <<
	.word	.Ltmp15-.Ltmp14         #   Call between .Ltmp14 and .Ltmp15
	.word	.Ltmp16-.Lfunc_begin2   #     jumps to .Ltmp16
	.byte	0                       #   On action: cleanup
	.word	.Ltmp17-.Lfunc_begin2   # >> Call Site 4 <<
	.word	.Ltmp18-.Ltmp17         #   Call between .Ltmp17 and .Ltmp18
	.word	.Ltmp19-.Lfunc_begin2   #     jumps to .Ltmp19
	.byte	0                       #   On action: cleanup
	.word	.Ltmp20-.Lfunc_begin2   # >> Call Site 5 <<
	.word	.Ltmp21-.Ltmp20         #   Call between .Ltmp20 and .Ltmp21
	.word	.Ltmp22-.Lfunc_begin2   #     jumps to .Ltmp22
	.byte	0                       #   On action: cleanup
	.word	.Ltmp23-.Lfunc_begin2   # >> Call Site 6 <<
	.word	.Ltmp24-.Ltmp23         #   Call between .Ltmp23 and .Ltmp24
	.word	.Ltmp25-.Lfunc_begin2   #     jumps to .Ltmp25
	.byte	0                       #   On action: cleanup
	.word	.Ltmp26-.Lfunc_begin2   # >> Call Site 7 <<
	.word	.Ltmp29-.Ltmp26         #   Call between .Ltmp26 and .Ltmp29
	.word	.Ltmp30-.Lfunc_begin2   #     jumps to .Ltmp30
	.byte	0                       #   On action: cleanup
	.word	.Ltmp31-.Lfunc_begin2   # >> Call Site 8 <<
	.word	.Ltmp32-.Ltmp31         #   Call between .Ltmp31 and .Ltmp32
	.word	.Ltmp33-.Lfunc_begin2   #     jumps to .Ltmp33
	.byte	0                       #   On action: cleanup
	.word	.Ltmp34-.Lfunc_begin2   # >> Call Site 9 <<
	.word	.Ltmp37-.Ltmp34         #   Call between .Ltmp34 and .Ltmp37
	.word	.Ltmp38-.Lfunc_begin2   #     jumps to .Ltmp38
	.byte	0                       #   On action: cleanup
	.word	.Ltmp39-.Lfunc_begin2   # >> Call Site 10 <<
	.word	.Ltmp40-.Ltmp39         #   Call between .Ltmp39 and .Ltmp40
	.word	.Ltmp41-.Lfunc_begin2   #     jumps to .Ltmp41
	.byte	0                       #   On action: cleanup
	.word	.Ltmp42-.Lfunc_begin2   # >> Call Site 11 <<
	.word	.Ltmp43-.Ltmp42         #   Call between .Ltmp42 and .Ltmp43
	.word	.Ltmp44-.Lfunc_begin2   #     jumps to .Ltmp44
	.byte	0                       #   On action: cleanup
	.word	.Ltmp45-.Lfunc_begin2   # >> Call Site 12 <<
	.word	.Ltmp46-.Ltmp45         #   Call between .Ltmp45 and .Ltmp46
	.word	.Ltmp47-.Lfunc_begin2   #     jumps to .Ltmp47
	.byte	0                       #   On action: cleanup
	.word	.Ltmp48-.Lfunc_begin2   # >> Call Site 13 <<
	.word	.Ltmp49-.Ltmp48         #   Call between .Ltmp48 and .Ltmp49
	.word	.Ltmp50-.Lfunc_begin2   #     jumps to .Ltmp50
	.byte	0                       #   On action: cleanup
	.word	.Ltmp51-.Lfunc_begin2   # >> Call Site 14 <<
	.word	.Ltmp52-.Ltmp51         #   Call between .Ltmp51 and .Ltmp52
	.word	.Ltmp53-.Lfunc_begin2   #     jumps to .Ltmp53
	.byte	0                       #   On action: cleanup
	.word	.Ltmp54-.Lfunc_begin2   # >> Call Site 15 <<
	.word	.Ltmp55-.Ltmp54         #   Call between .Ltmp54 and .Ltmp55
	.word	.Ltmp56-.Lfunc_begin2   #     jumps to .Ltmp56
	.byte	0                       #   On action: cleanup
	.word	.Ltmp140-.Lfunc_begin2  # >> Call Site 16 <<
	.word	.Ltmp145-.Ltmp140       #   Call between .Ltmp140 and .Ltmp145
	.word	.Ltmp146-.Lfunc_begin2  #     jumps to .Ltmp146
	.byte	0                       #   On action: cleanup
	.word	.Ltmp128-.Lfunc_begin2  # >> Call Site 17 <<
	.word	.Ltmp135-.Ltmp128       #   Call between .Ltmp128 and .Ltmp135
	.word	.Ltmp136-.Lfunc_begin2  #     jumps to .Ltmp136
	.byte	0                       #   On action: cleanup
	.word	.Ltmp137-.Lfunc_begin2  # >> Call Site 18 <<
	.word	.Ltmp138-.Ltmp137       #   Call between .Ltmp137 and .Ltmp138
	.word	.Ltmp139-.Lfunc_begin2  #     jumps to .Ltmp139
	.byte	0                       #   On action: cleanup
	.word	.Ltmp138-.Lfunc_begin2  # >> Call Site 19 <<
	.word	.Ltmp57-.Ltmp138        #   Call between .Ltmp138 and .Ltmp57
	.word	0                       #     has no landing pad
	.byte	0                       #   On action: cleanup
	.word	.Ltmp57-.Lfunc_begin2   # >> Call Site 20 <<
	.word	.Ltmp60-.Ltmp57         #   Call between .Ltmp57 and .Ltmp60
	.word	.Ltmp61-.Lfunc_begin2   #     jumps to .Ltmp61
	.byte	0                       #   On action: cleanup
	.word	.Ltmp62-.Lfunc_begin2   # >> Call Site 21 <<
	.word	.Ltmp63-.Ltmp62         #   Call between .Ltmp62 and .Ltmp63
	.word	.Ltmp64-.Lfunc_begin2   #     jumps to .Ltmp64
	.byte	0                       #   On action: cleanup
	.word	.Ltmp65-.Lfunc_begin2   # >> Call Site 22 <<
	.word	.Ltmp70-.Ltmp65         #   Call between .Ltmp65 and .Ltmp70
	.word	.Ltmp84-.Lfunc_begin2   #     jumps to .Ltmp84
	.byte	0                       #   On action: cleanup
	.word	.Ltmp71-.Lfunc_begin2   # >> Call Site 23 <<
	.word	.Ltmp72-.Ltmp71         #   Call between .Ltmp71 and .Ltmp72
	.word	.Ltmp73-.Lfunc_begin2   #     jumps to .Ltmp73
	.byte	0                       #   On action: cleanup
	.word	.Ltmp104-.Lfunc_begin2  # >> Call Site 24 <<
	.word	.Ltmp105-.Ltmp104       #   Call between .Ltmp104 and .Ltmp105
	.word	.Ltmp106-.Lfunc_begin2  #     jumps to .Ltmp106
	.byte	0                       #   On action: cleanup
	.word	.Ltmp107-.Lfunc_begin2  # >> Call Site 25 <<
	.word	.Ltmp126-.Ltmp107       #   Call between .Ltmp107 and .Ltmp126
	.word	.Ltmp127-.Lfunc_begin2  #     jumps to .Ltmp127
	.byte	0                       #   On action: cleanup
	.word	.Ltmp74-.Lfunc_begin2   # >> Call Site 26 <<
	.word	.Ltmp83-.Ltmp74         #   Call between .Ltmp74 and .Ltmp83
	.word	.Ltmp84-.Lfunc_begin2   #     jumps to .Ltmp84
	.byte	0                       #   On action: cleanup
	.word	.Ltmp85-.Lfunc_begin2   # >> Call Site 27 <<
	.word	.Ltmp88-.Ltmp85         #   Call between .Ltmp85 and .Ltmp88
	.word	.Ltmp89-.Lfunc_begin2   #     jumps to .Ltmp89
	.byte	0                       #   On action: cleanup
	.word	.Ltmp90-.Lfunc_begin2   # >> Call Site 28 <<
	.word	.Ltmp91-.Ltmp90         #   Call between .Ltmp90 and .Ltmp91
	.word	.Ltmp92-.Lfunc_begin2   #     jumps to .Ltmp92
	.byte	0                       #   On action: cleanup
	.word	.Ltmp93-.Lfunc_begin2   # >> Call Site 29 <<
	.word	.Ltmp102-.Ltmp93        #   Call between .Ltmp93 and .Ltmp102
	.word	.Ltmp103-.Lfunc_begin2  #     jumps to .Ltmp103
	.byte	0                       #   On action: cleanup
	.word	.Ltmp102-.Lfunc_begin2  # >> Call Site 30 <<
	.word	.Lfunc_end5-.Ltmp102    #   Call between .Ltmp102 and .Lfunc_end5
	.word	0                       #     has no landing pad
	.byte	0                       #   On action: cleanup
.Lcst_end2:
	.p2align	2
                                        # -- End function
	.section	.text._ZN12LinearOctreeI6PhotonEC2Ev,"axG",@progbits,_ZN12LinearOctreeI6PhotonEC2Ev,comdat
	.weak	_ZN12LinearOctreeI6PhotonEC2Ev # -- Begin function _ZN12LinearOctreeI6PhotonEC2Ev
	.p2align	2
	.type	_ZN12LinearOctreeI6PhotonEC2Ev,@function
_ZN12LinearOctreeI6PhotonEC2Ev:         # @_ZN12LinearOctreeI6PhotonEC2Ev
# %bb.0:                                # %entry
	addi	sp, sp, -32
	sd	ra, 24(sp)
	sd	s0, 16(sp)
	sd	s1, 8(sp)
	addi	s0, sp, 32
	sd	a0, -32(s0)
	ld	s1, -32(s0)
	mv	a0, s1
	call	_ZNSt6vectorIN12LinearOctreeI6PhotonE12LinearOctantESaIS3_EEC2Ev
	addi	a0, s1, 24
	call	_ZNSt6vectorI6PhotonSaIS0_EEC2Ev
	ld	s1, 8(sp)
	ld	s0, 16(sp)
	ld	ra, 24(sp)
	addi	sp, sp, 32
	ret
.Lfunc_end6:
	.size	_ZN12LinearOctreeI6PhotonEC2Ev, .Lfunc_end6-_ZN12LinearOctreeI6PhotonEC2Ev
                                        # -- End function
	.section	.text._ZNSt6vectorIS_I6PhotonSaIS0_EESaIS2_EEC2Ev,"axG",@progbits,_ZNSt6vectorIS_I6PhotonSaIS0_EESaIS2_EEC2Ev,comdat
	.weak	_ZNSt6vectorIS_I6PhotonSaIS0_EESaIS2_EEC2Ev # -- Begin function _ZNSt6vectorIS_I6PhotonSaIS0_EESaIS2_EEC2Ev
	.p2align	2
	.type	_ZNSt6vectorIS_I6PhotonSaIS0_EESaIS2_EEC2Ev,@function
_ZNSt6vectorIS_I6PhotonSaIS0_EESaIS2_EEC2Ev: # @_ZNSt6vectorIS_I6PhotonSaIS0_EESaIS2_EEC2Ev
# %bb.0:                                # %entry
	addi	sp, sp, -32
	sd	ra, 24(sp)
	sd	s0, 16(sp)
	addi	s0, sp, 32
	sd	a0, -24(s0)
	ld	a0, -24(s0)
	call	_ZNSt12_Vector_baseISt6vectorI6PhotonSaIS1_EESaIS3_EEC2Ev
	ld	s0, 16(sp)
	ld	ra, 24(sp)
	addi	sp, sp, 32
	ret
.Lfunc_end7:
	.size	_ZNSt6vectorIS_I6PhotonSaIS0_EESaIS2_EEC2Ev, .Lfunc_end7-_ZNSt6vectorIS_I6PhotonSaIS0_EESaIS2_EEC2Ev
                                        # -- End function
	.section	.text._ZNK8nlohmann10basic_jsonISt3mapSt6vectorNSt7__cxx1112basic_stringIcSt11char_traitsIcESaIcEEEblmdSaNS_14adl_serializerEE2atERKS8_,"axG",@progbits,_ZNK8nlohmann10basic_jsonISt3mapSt6vectorNSt7__cxx1112basic_stringIcSt11char_traitsIcESaIcEEEblmdSaNS_14adl_serializerEE2atERKS8_,comdat
	.weak	_ZNK8nlohmann10basic_jsonISt3mapSt6vectorNSt7__cxx1112basic_stringIcSt11char_traitsIcESaIcEEEblmdSaNS_14adl_serializerEE2atERKS8_ # -- Begin function _ZNK8nlohmann10basic_jsonISt3mapSt6vectorNSt7__cxx1112basic_stringIcSt11char_traitsIcESaIcEEEblmdSaNS_14adl_serializerEE2atERKS8_
	.p2align	2
	.type	_ZNK8nlohmann10basic_jsonISt3mapSt6vectorNSt7__cxx1112basic_stringIcSt11char_traitsIcESaIcEEEblmdSaNS_14adl_serializerEE2atERKS8_,@function
_ZNK8nlohmann10basic_jsonISt3mapSt6vectorNSt7__cxx1112basic_stringIcSt11char_traitsIcESaIcEEEblmdSaNS_14adl_serializerEE2atERKS8_: # @_ZNK8nlohmann10basic_jsonISt3mapSt6vectorNSt7__cxx1112basic_stringIcSt11char_traitsIcESaIcEEEblmdSaNS_14adl_serializerEE2atERKS8_
.Lfunc_begin3:
	.cfi_startproc
	.cfi_personality 155, DW.ref.__gxx_personality_v0
	.cfi_lsda 27, .Lexception3
# %bb.0:                                # %entry
	addi	sp, sp, -240
	.cfi_def_cfa_offset 240
	sd	ra, 232(sp)
	sd	s0, 224(sp)
	sd	s1, 216(sp)
	sd	s2, 208(sp)
	sd	s3, 200(sp)
	.cfi_offset ra, -8
	.cfi_offset s0, -16
	.cfi_offset s1, -24
	.cfi_offset s2, -32
	.cfi_offset s3, -40
	addi	s0, sp, 240
	.cfi_def_cfa s0, 0
	sd	a0, -48(s0)
	sd	a1, -56(s0)
	ld	s1, -48(s0)
	mv	a0, s1
	call	_ZNK8nlohmann10basic_jsonISt3mapSt6vectorNSt7__cxx1112basic_stringIcSt11char_traitsIcESaIcEEEblmdSaNS_14adl_serializerEE9is_objectEv
	beqz	a0, .LBB8_17
	j	.LBB8_1
.LBB8_1:                                # %if.then
	ld	a0, 8(s1)
	ld	a1, -56(s0)
.Ltmp158:
	call	_ZNSt3mapINSt7__cxx1112basic_stringIcSt11char_traitsIcESaIcEEEN8nlohmann10basic_jsonIS_St6vectorS5_blmdSaNS6_14adl_serializerEEESt4lessIvESaISt4pairIKS5_SA_EEE2atERSE_
.Ltmp159:
	j	.LBB8_2
.LBB8_2:                                # %invoke.cont
	ld	s3, 200(sp)
	ld	s2, 208(sp)
	ld	s1, 216(sp)
	ld	s0, 224(sp)
	.cfi_def_cfa sp, 240
	ld	ra, 232(sp)
	.cfi_restore ra
	.cfi_restore s0
	.cfi_restore s1
	.cfi_restore s2
	.cfi_restore s3
	addi	sp, sp, 240
	.cfi_def_cfa_offset 0
	ret
.LBB8_3:                                # %lpad
.Ltmp160:
	sd	a0, -64(s0)
	sw	a1, -68(s0)
	j	.LBB8_4
.LBB8_4:                                # %catch.dispatch
	lw	a0, -68(s0)
	addi	a1, zero, 1
	bne	a0, a1, .LBB8_28
	j	.LBB8_5
.LBB8_5:                                # %catch
	ld	a0, -64(s0)
	call	__cxa_begin_catch
	sd	a0, -80(s0)
	addi	a0, zero, 32
	call	__cxa_allocate_exception
	mv	s1, a0
	addi	a0, zero, 1
	sb	a0, -145(s0)
	ld	a2, -56(s0)
.Ltmp161:
	lui	a0, %hi(.L.str.14)
	addi	a1, a0, %lo(.L.str.14)
	addi	a0, s0, -144
	call	_ZStplIcSt11char_traitsIcESaIcEENSt7__cxx1112basic_stringIT_T0_T1_EEPKS5_RKS8_
.Ltmp162:
	j	.LBB8_6
.LBB8_6:                                # %invoke.cont6
.Ltmp164:
	lui	a0, %hi(.L.str.15)
	addi	a2, a0, %lo(.L.str.15)
	addi	a0, s0, -112
	addi	a1, s0, -144
	call	_ZStplIcSt11char_traitsIcESaIcEENSt7__cxx1112basic_stringIT_T0_T1_EEOS8_PKS5_
.Ltmp165:
	j	.LBB8_7
.LBB8_7:                                # %invoke.cont8
.Ltmp167:
	addi	a2, s0, -112
	mv	a0, s1
	addi	a1, zero, 403
	call	_ZN8nlohmann6detail12out_of_range6createEiRKNSt7__cxx1112basic_stringIcSt11char_traitsIcESaIcEEE
.Ltmp168:
	j	.LBB8_8
.LBB8_8:                                # %invoke.cont10
	sb	zero, -145(s0)
.Ltmp169:
	lui	a0, %hi(_ZTIN8nlohmann6detail12out_of_rangeE)
	addi	a1, a0, %lo(_ZTIN8nlohmann6detail12out_of_rangeE)
	lui	a0, %hi(_ZN8nlohmann6detail12out_of_rangeD2Ev)
	addi	a2, a0, %lo(_ZN8nlohmann6detail12out_of_rangeD2Ev)
	mv	a0, s1
	call	__cxa_throw
.Ltmp170:
	j	.LBB8_30
.LBB8_9:                                # %lpad5
.Ltmp163:
	sd	a0, -64(s0)
	sw	a1, -68(s0)
	j	.LBB8_13
.LBB8_10:                               # %lpad7
.Ltmp166:
	sd	a0, -64(s0)
	sw	a1, -68(s0)
	j	.LBB8_12
.LBB8_11:                               # %lpad9
.Ltmp171:
	sd	a0, -64(s0)
	sw	a1, -68(s0)
	addi	a0, s0, -112
	call	_ZNSt7__cxx1112basic_stringIcSt11char_traitsIcESaIcEED1Ev
	j	.LBB8_12
.LBB8_12:                               # %ehcleanup
	addi	a0, s0, -144
	call	_ZNSt7__cxx1112basic_stringIcSt11char_traitsIcESaIcEED1Ev
	j	.LBB8_13
.LBB8_13:                               # %ehcleanup11
	lbu	a0, -145(s0)
	beqz	a0, .LBB8_15
	j	.LBB8_14
.LBB8_14:                               # %cleanup.action
	mv	a0, s1
	call	__cxa_free_exception
	j	.LBB8_15
.LBB8_15:                               # %cleanup.done
.Ltmp172:
	call	__cxa_end_catch
.Ltmp173:
	j	.LBB8_16
.LBB8_16:                               # %invoke.cont13
	j	.LBB8_28
.LBB8_17:                               # %if.else
	addi	a0, zero, 32
	call	__cxa_allocate_exception
	mv	s2, a0
	addi	a0, zero, 1
	sb	a0, -225(s0)
	mv	a0, s1
	call	_ZNK8nlohmann10basic_jsonISt3mapSt6vectorNSt7__cxx1112basic_stringIcSt11char_traitsIcESaIcEEEblmdSaNS_14adl_serializerEE9type_nameEv
	mv	s1, a0
	addi	s3, s0, -224
	mv	a0, s3
	call	_ZNSaIcEC1Ev
.Ltmp147:
	addi	a0, s0, -216
	mv	a1, s1
	mv	a2, s3
	call	_ZNSt7__cxx1112basic_stringIcSt11char_traitsIcESaIcEEC2IS3_EEPKcRKS3_
.Ltmp148:
	j	.LBB8_18
.LBB8_18:                               # %invoke.cont20
.Ltmp150:
	lui	a0, %hi(.L.str.16)
	addi	a1, a0, %lo(.L.str.16)
	addi	a0, s0, -184
	addi	a2, s0, -216
	call	_ZStplIcSt11char_traitsIcESaIcEENSt7__cxx1112basic_stringIT_T0_T1_EEPKS5_OS8_
.Ltmp151:
	j	.LBB8_19
.LBB8_19:                               # %invoke.cont22
.Ltmp153:
	addi	a2, s0, -184
	mv	a0, s2
	addi	a1, zero, 304
	call	_ZN8nlohmann6detail10type_error6createEiRKNSt7__cxx1112basic_stringIcSt11char_traitsIcESaIcEEE
.Ltmp154:
	j	.LBB8_20
.LBB8_20:                               # %invoke.cont24
	sb	zero, -225(s0)
.Ltmp155:
	lui	a0, %hi(_ZTIN8nlohmann6detail10type_errorE)
	addi	a1, a0, %lo(_ZTIN8nlohmann6detail10type_errorE)
	lui	a0, %hi(_ZN8nlohmann6detail10type_errorD2Ev)
	addi	a2, a0, %lo(_ZN8nlohmann6detail10type_errorD2Ev)
	mv	a0, s2
	call	__cxa_throw
.Ltmp156:
	j	.LBB8_30
.LBB8_21:                               # %lpad19
.Ltmp149:
	sd	a0, -64(s0)
	sw	a1, -68(s0)
	j	.LBB8_25
.LBB8_22:                               # %lpad21
.Ltmp152:
	sd	a0, -64(s0)
	sw	a1, -68(s0)
	j	.LBB8_24
.LBB8_23:                               # %lpad23
.Ltmp157:
	sd	a0, -64(s0)
	sw	a1, -68(s0)
	addi	a0, s0, -184
	call	_ZNSt7__cxx1112basic_stringIcSt11char_traitsIcESaIcEED1Ev
	j	.LBB8_24
.LBB8_24:                               # %ehcleanup27
	addi	a0, s0, -216
	call	_ZNSt7__cxx1112basic_stringIcSt11char_traitsIcESaIcEED1Ev
	j	.LBB8_25
.LBB8_25:                               # %ehcleanup28
	addi	a0, s0, -224
	call	_ZNSaIcED1Ev
	lbu	a0, -225(s0)
	beqz	a0, .LBB8_27
	j	.LBB8_26
.LBB8_26:                               # %cleanup.action31
	mv	a0, s2
	call	__cxa_free_exception
	j	.LBB8_27
.LBB8_27:                               # %cleanup.done32
	j	.LBB8_28
.LBB8_28:                               # %eh.resume
	ld	a0, -64(s0)
	call	_Unwind_Resume
.LBB8_29:                               # %terminate.lpad
.Ltmp174:
	call	__clang_call_terminate
.LBB8_30:                               # %unreachable
.Lfunc_end8:
	.size	_ZNK8nlohmann10basic_jsonISt3mapSt6vectorNSt7__cxx1112basic_stringIcSt11char_traitsIcESaIcEEEblmdSaNS_14adl_serializerEE2atERKS8_, .Lfunc_end8-_ZNK8nlohmann10basic_jsonISt3mapSt6vectorNSt7__cxx1112basic_stringIcSt11char_traitsIcESaIcEEEblmdSaNS_14adl_serializerEE2atERKS8_
	.cfi_endproc
	.section	.gcc_except_table,"a",@progbits
	.p2align	2
GCC_except_table8:
.Lexception3:
	.byte	255                     # @LPStart Encoding = omit
	.byte	155                     # @TType Encoding = indirect pcrel sdata4
	.uleb128 .Lttbase0-.Lttbaseref0
.Lttbaseref0:
	.byte	3                       # Call site Encoding = udata4
	.uleb128 .Lcst_end3-.Lcst_begin3
.Lcst_begin3:
	.word	.Ltmp158-.Lfunc_begin3  # >> Call Site 1 <<
	.word	.Ltmp159-.Ltmp158       #   Call between .Ltmp158 and .Ltmp159
	.word	.Ltmp160-.Lfunc_begin3  #     jumps to .Ltmp160
	.byte	1                       #   On action: 1
	.word	.Ltmp159-.Lfunc_begin3  # >> Call Site 2 <<
	.word	.Ltmp161-.Ltmp159       #   Call between .Ltmp159 and .Ltmp161
	.word	0                       #     has no landing pad
	.byte	0                       #   On action: cleanup
	.word	.Ltmp161-.Lfunc_begin3  # >> Call Site 3 <<
	.word	.Ltmp162-.Ltmp161       #   Call between .Ltmp161 and .Ltmp162
	.word	.Ltmp163-.Lfunc_begin3  #     jumps to .Ltmp163
	.byte	0                       #   On action: cleanup
	.word	.Ltmp164-.Lfunc_begin3  # >> Call Site 4 <<
	.word	.Ltmp165-.Ltmp164       #   Call between .Ltmp164 and .Ltmp165
	.word	.Ltmp166-.Lfunc_begin3  #     jumps to .Ltmp166
	.byte	0                       #   On action: cleanup
	.word	.Ltmp167-.Lfunc_begin3  # >> Call Site 5 <<
	.word	.Ltmp170-.Ltmp167       #   Call between .Ltmp167 and .Ltmp170
	.word	.Ltmp171-.Lfunc_begin3  #     jumps to .Ltmp171
	.byte	0                       #   On action: cleanup
	.word	.Ltmp170-.Lfunc_begin3  # >> Call Site 6 <<
	.word	.Ltmp172-.Ltmp170       #   Call between .Ltmp170 and .Ltmp172
	.word	0                       #     has no landing pad
	.byte	0                       #   On action: cleanup
	.word	.Ltmp172-.Lfunc_begin3  # >> Call Site 7 <<
	.word	.Ltmp173-.Ltmp172       #   Call between .Ltmp172 and .Ltmp173
	.word	.Ltmp174-.Lfunc_begin3  #     jumps to .Ltmp174
	.byte	3                       #   On action: 2
	.word	.Ltmp173-.Lfunc_begin3  # >> Call Site 8 <<
	.word	.Ltmp147-.Ltmp173       #   Call between .Ltmp173 and .Ltmp147
	.word	0                       #     has no landing pad
	.byte	0                       #   On action: cleanup
	.word	.Ltmp147-.Lfunc_begin3  # >> Call Site 9 <<
	.word	.Ltmp148-.Ltmp147       #   Call between .Ltmp147 and .Ltmp148
	.word	.Ltmp149-.Lfunc_begin3  #     jumps to .Ltmp149
	.byte	0                       #   On action: cleanup
	.word	.Ltmp150-.Lfunc_begin3  # >> Call Site 10 <<
	.word	.Ltmp151-.Ltmp150       #   Call between .Ltmp150 and .Ltmp151
	.word	.Ltmp152-.Lfunc_begin3  #     jumps to .Ltmp152
	.byte	0                       #   On action: cleanup
	.word	.Ltmp153-.Lfunc_begin3  # >> Call Site 11 <<
	.word	.Ltmp156-.Ltmp153       #   Call between .Ltmp153 and .Ltmp156
	.word	.Ltmp157-.Lfunc_begin3  #     jumps to .Ltmp157
	.byte	0                       #   On action: cleanup
	.word	.Ltmp156-.Lfunc_begin3  # >> Call Site 12 <<
	.word	.Lfunc_end8-.Ltmp156    #   Call between .Ltmp156 and .Lfunc_end8
	.word	0                       #     has no landing pad
	.byte	0                       #   On action: cleanup
.Lcst_end3:
	.byte	1                       # >> Action Record 1 <<
                                        #   Catch TypeInfo 1
	.byte	0                       #   No further actions
	.byte	2                       # >> Action Record 2 <<
                                        #   Catch TypeInfo 2
	.byte	0                       #   No further actions
	.p2align	2
                                        # >> Catch TypeInfos <<
	.word	0                       # TypeInfo 2
.Ltmp175:                               # TypeInfo 1
	.word	.L_ZTISt12out_of_range.DW.stub-.Ltmp175
.Lttbase0:
	.p2align	2
                                        # -- End function
	.section	.text._ZNSt7__cxx1112basic_stringIcSt11char_traitsIcESaIcEEC2IS3_EEPKcRKS3_,"axG",@progbits,_ZNSt7__cxx1112basic_stringIcSt11char_traitsIcESaIcEEC2IS3_EEPKcRKS3_,comdat
	.weak	_ZNSt7__cxx1112basic_stringIcSt11char_traitsIcESaIcEEC2IS3_EEPKcRKS3_ # -- Begin function _ZNSt7__cxx1112basic_stringIcSt11char_traitsIcESaIcEEC2IS3_EEPKcRKS3_
	.p2align	2
	.type	_ZNSt7__cxx1112basic_stringIcSt11char_traitsIcESaIcEEC2IS3_EEPKcRKS3_,@function
_ZNSt7__cxx1112basic_stringIcSt11char_traitsIcESaIcEEC2IS3_EEPKcRKS3_: # @_ZNSt7__cxx1112basic_stringIcSt11char_traitsIcESaIcEEC2IS3_EEPKcRKS3_
.Lfunc_begin4:
	.cfi_startproc
	.cfi_personality 155, DW.ref.__gxx_personality_v0
	.cfi_lsda 27, .Lexception4
# %bb.0:                                # %entry
	addi	sp, sp, -80
	.cfi_def_cfa_offset 80
	sd	ra, 72(sp)
	sd	s0, 64(sp)
	sd	s1, 56(sp)
	sd	s2, 48(sp)
	sd	s3, 40(sp)
	.cfi_offset ra, -8
	.cfi_offset s0, -16
	.cfi_offset s1, -24
	.cfi_offset s2, -32
	.cfi_offset s3, -40
	addi	s0, sp, 80
	.cfi_def_cfa s0, 0
	sd	a0, -48(s0)
	sd	a1, -56(s0)
	sd	a2, -64(s0)
	ld	s1, -48(s0)
	mv	a0, s1
	call	_ZNSt7__cxx1112basic_stringIcSt11char_traitsIcESaIcEE13_M_local_dataEv
	mv	a1, a0
	ld	a2, -64(s0)
	mv	a0, s1
	call	_ZNSt7__cxx1112basic_stringIcSt11char_traitsIcESaIcEE12_Alloc_hiderC1EPcRKS3_
	ld	s2, -56(s0)
	beqz	s2, .LBB9_3
	j	.LBB9_1
.LBB9_1:                                # %cond.true
	ld	s3, -56(s0)
.Ltmp176:
	mv	a0, s3
	call	_ZNSt11char_traitsIcE6lengthEPKc
.Ltmp177:
	j	.LBB9_2
.LBB9_2:                                # %invoke.cont
	add	a2, s3, a0
	j	.LBB9_4
.LBB9_3:                                # %cond.false
	ld	a0, -56(s0)
	addi	a2, a0, -1
	j	.LBB9_4
.LBB9_4:                                # %cond.end
.Ltmp178:
	mv	a0, s1
	mv	a1, s2
	call	_ZNSt7__cxx1112basic_stringIcSt11char_traitsIcESaIcEE12_M_constructIPKcEEvT_S8_
.Ltmp179:
	j	.LBB9_5
.LBB9_5:                                # %invoke.cont4
	ld	s3, 40(sp)
	ld	s2, 48(sp)
	ld	s1, 56(sp)
	ld	s0, 64(sp)
	.cfi_def_cfa sp, 80
	ld	ra, 72(sp)
	.cfi_restore ra
	.cfi_restore s0
	.cfi_restore s1
	.cfi_restore s2
	.cfi_restore s3
	addi	sp, sp, 80
	.cfi_def_cfa_offset 0
	ret
.LBB9_6:                                # %lpad
.Ltmp180:
	sd	a0, -72(s0)
	sw	a1, -76(s0)
	mv	a0, s1
	call	_ZNSt7__cxx1112basic_stringIcSt11char_traitsIcESaIcEE12_Alloc_hiderD2Ev
	j	.LBB9_7
.LBB9_7:                                # %eh.resume
	ld	a0, -72(s0)
	call	_Unwind_Resume
.Lfunc_end9:
	.size	_ZNSt7__cxx1112basic_stringIcSt11char_traitsIcESaIcEEC2IS3_EEPKcRKS3_, .Lfunc_end9-_ZNSt7__cxx1112basic_stringIcSt11char_traitsIcESaIcEEC2IS3_EEPKcRKS3_
	.cfi_endproc
	.section	.gcc_except_table,"a",@progbits
	.p2align	2
GCC_except_table9:
.Lexception4:
	.byte	255                     # @LPStart Encoding = omit
	.byte	255                     # @TType Encoding = omit
	.byte	3                       # Call site Encoding = udata4
	.uleb128 .Lcst_end4-.Lcst_begin4
.Lcst_begin4:
	.word	.Lfunc_begin4-.Lfunc_begin4 # >> Call Site 1 <<
	.word	.Ltmp176-.Lfunc_begin4  #   Call between .Lfunc_begin4 and .Ltmp176
	.word	0                       #     has no landing pad
	.byte	0                       #   On action: cleanup
	.word	.Ltmp176-.Lfunc_begin4  # >> Call Site 2 <<
	.word	.Ltmp179-.Ltmp176       #   Call between .Ltmp176 and .Ltmp179
	.word	.Ltmp180-.Lfunc_begin4  #     jumps to .Ltmp180
	.byte	0                       #   On action: cleanup
	.word	.Ltmp179-.Lfunc_begin4  # >> Call Site 3 <<
	.word	.Lfunc_end9-.Ltmp179    #   Call between .Ltmp179 and .Lfunc_end9
	.word	0                       #     has no landing pad
	.byte	0                       #   On action: cleanup
.Lcst_end4:
	.p2align	2
                                        # -- End function
	.section	.text._ZNK8nlohmann10basic_jsonISt3mapSt6vectorNSt7__cxx1112basic_stringIcSt11char_traitsIcESaIcEEEblmdSaNS_14adl_serializerEEcvT_IdLi0EEEv,"axG",@progbits,_ZNK8nlohmann10basic_jsonISt3mapSt6vectorNSt7__cxx1112basic_stringIcSt11char_traitsIcESaIcEEEblmdSaNS_14adl_serializerEEcvT_IdLi0EEEv,comdat
	.weak	_ZNK8nlohmann10basic_jsonISt3mapSt6vectorNSt7__cxx1112basic_stringIcSt11char_traitsIcESaIcEEEblmdSaNS_14adl_serializerEEcvT_IdLi0EEEv # -- Begin function _ZNK8nlohmann10basic_jsonISt3mapSt6vectorNSt7__cxx1112basic_stringIcSt11char_traitsIcESaIcEEEblmdSaNS_14adl_serializerEEcvT_IdLi0EEEv
	.p2align	2
	.type	_ZNK8nlohmann10basic_jsonISt3mapSt6vectorNSt7__cxx1112basic_stringIcSt11char_traitsIcESaIcEEEblmdSaNS_14adl_serializerEEcvT_IdLi0EEEv,@function
_ZNK8nlohmann10basic_jsonISt3mapSt6vectorNSt7__cxx1112basic_stringIcSt11char_traitsIcESaIcEEEblmdSaNS_14adl_serializerEEcvT_IdLi0EEEv: # @_ZNK8nlohmann10basic_jsonISt3mapSt6vectorNSt7__cxx1112basic_stringIcSt11char_traitsIcESaIcEEEblmdSaNS_14adl_serializerEEcvT_IdLi0EEEv
	.cfi_startproc
# %bb.0:                                # %entry
	addi	sp, sp, -32
	.cfi_def_cfa_offset 32
	sd	ra, 24(sp)
	sd	s0, 16(sp)
	.cfi_offset ra, -8
	.cfi_offset s0, -16
	addi	s0, sp, 32
	.cfi_def_cfa s0, 0
	sd	a0, -24(s0)
	ld	a0, -24(s0)
	call	_ZNK8nlohmann10basic_jsonISt3mapSt6vectorNSt7__cxx1112basic_stringIcSt11char_traitsIcESaIcEEEblmdSaNS_14adl_serializerEE3getIddLi0EEET0_v
	ld	s0, 16(sp)
	.cfi_def_cfa sp, 32
	ld	ra, 24(sp)
	.cfi_restore ra
	.cfi_restore s0
	addi	sp, sp, 32
	.cfi_def_cfa_offset 0
	ret
.Lfunc_end10:
	.size	_ZNK8nlohmann10basic_jsonISt3mapSt6vectorNSt7__cxx1112basic_stringIcSt11char_traitsIcESaIcEEEblmdSaNS_14adl_serializerEEcvT_IdLi0EEEv, .Lfunc_end10-_ZNK8nlohmann10basic_jsonISt3mapSt6vectorNSt7__cxx1112basic_stringIcSt11char_traitsIcESaIcEEEblmdSaNS_14adl_serializerEEcvT_IdLi0EEEv
	.cfi_endproc
                                        # -- End function
	.section	.text._ZNK8nlohmann10basic_jsonISt3mapSt6vectorNSt7__cxx1112basic_stringIcSt11char_traitsIcESaIcEEEblmdSaNS_14adl_serializerEEcvT_ImLi0EEEv,"axG",@progbits,_ZNK8nlohmann10basic_jsonISt3mapSt6vectorNSt7__cxx1112basic_stringIcSt11char_traitsIcESaIcEEEblmdSaNS_14adl_serializerEEcvT_ImLi0EEEv,comdat
	.weak	_ZNK8nlohmann10basic_jsonISt3mapSt6vectorNSt7__cxx1112basic_stringIcSt11char_traitsIcESaIcEEEblmdSaNS_14adl_serializerEEcvT_ImLi0EEEv # -- Begin function _ZNK8nlohmann10basic_jsonISt3mapSt6vectorNSt7__cxx1112basic_stringIcSt11char_traitsIcESaIcEEEblmdSaNS_14adl_serializerEEcvT_ImLi0EEEv
	.p2align	2
	.type	_ZNK8nlohmann10basic_jsonISt3mapSt6vectorNSt7__cxx1112basic_stringIcSt11char_traitsIcESaIcEEEblmdSaNS_14adl_serializerEEcvT_ImLi0EEEv,@function
_ZNK8nlohmann10basic_jsonISt3mapSt6vectorNSt7__cxx1112basic_stringIcSt11char_traitsIcESaIcEEEblmdSaNS_14adl_serializerEEcvT_ImLi0EEEv: # @_ZNK8nlohmann10basic_jsonISt3mapSt6vectorNSt7__cxx1112basic_stringIcSt11char_traitsIcESaIcEEEblmdSaNS_14adl_serializerEEcvT_ImLi0EEEv
	.cfi_startproc
# %bb.0:                                # %entry
	addi	sp, sp, -32
	.cfi_def_cfa_offset 32
	sd	ra, 24(sp)
	sd	s0, 16(sp)
	.cfi_offset ra, -8
	.cfi_offset s0, -16
	addi	s0, sp, 32
	.cfi_def_cfa s0, 0
	sd	a0, -24(s0)
	ld	a0, -24(s0)
	call	_ZNK8nlohmann10basic_jsonISt3mapSt6vectorNSt7__cxx1112basic_stringIcSt11char_traitsIcESaIcEEEblmdSaNS_14adl_serializerEE3getImmLi0EEET0_v
	ld	s0, 16(sp)
	.cfi_def_cfa sp, 32
	ld	ra, 24(sp)
	.cfi_restore ra
	.cfi_restore s0
	addi	sp, sp, 32
	.cfi_def_cfa_offset 0
	ret
.Lfunc_end11:
	.size	_ZNK8nlohmann10basic_jsonISt3mapSt6vectorNSt7__cxx1112basic_stringIcSt11char_traitsIcESaIcEEEblmdSaNS_14adl_serializerEEcvT_ImLi0EEEv, .Lfunc_end11-_ZNK8nlohmann10basic_jsonISt3mapSt6vectorNSt7__cxx1112basic_stringIcSt11char_traitsIcESaIcEEEblmdSaNS_14adl_serializerEEcvT_ImLi0EEEv
	.cfi_endproc
                                        # -- End function
	.section	.text._Z11getOptionalIiET_RKN8nlohmann10basic_jsonISt3mapSt6vectorNSt7__cxx1112basic_stringIcSt11char_traitsIcESaIcEEEblmdSaNS1_14adl_serializerEEESA_S0_,"axG",@progbits,_Z11getOptionalIiET_RKN8nlohmann10basic_jsonISt3mapSt6vectorNSt7__cxx1112basic_stringIcSt11char_traitsIcESaIcEEEblmdSaNS1_14adl_serializerEEESA_S0_,comdat
	.weak	_Z11getOptionalIiET_RKN8nlohmann10basic_jsonISt3mapSt6vectorNSt7__cxx1112basic_stringIcSt11char_traitsIcESaIcEEEblmdSaNS1_14adl_serializerEEESA_S0_ # -- Begin function _Z11getOptionalIiET_RKN8nlohmann10basic_jsonISt3mapSt6vectorNSt7__cxx1112basic_stringIcSt11char_traitsIcESaIcEEEblmdSaNS1_14adl_serializerEEESA_S0_
	.p2align	2
	.type	_Z11getOptionalIiET_RKN8nlohmann10basic_jsonISt3mapSt6vectorNSt7__cxx1112basic_stringIcSt11char_traitsIcESaIcEEEblmdSaNS1_14adl_serializerEEESA_S0_,@function
_Z11getOptionalIiET_RKN8nlohmann10basic_jsonISt3mapSt6vectorNSt7__cxx1112basic_stringIcSt11char_traitsIcESaIcEEEblmdSaNS1_14adl_serializerEEESA_S0_: # @_Z11getOptionalIiET_RKN8nlohmann10basic_jsonISt3mapSt6vectorNSt7__cxx1112basic_stringIcSt11char_traitsIcESaIcEEEblmdSaNS1_14adl_serializerEEESA_S0_
	.cfi_startproc
# %bb.0:                                # %entry
	addi	sp, sp, -128
	.cfi_def_cfa_offset 128
	sd	ra, 120(sp)
	sd	s0, 112(sp)
	sd	s1, 104(sp)
	sd	s2, 96(sp)
	sd	s3, 88(sp)
	.cfi_offset ra, -8
	.cfi_offset s0, -16
	.cfi_offset s1, -24
	.cfi_offset s2, -32
	.cfi_offset s3, -40
	addi	s0, sp, 128
	.cfi_def_cfa s0, 0
	mv	s3, a1
	sd	a0, -48(s0)
	sw	a2, -52(s0)
	lw	a0, -52(s0)
	sw	a0, -56(s0)
	ld	a1, -48(s0)
	addi	s2, s0, -88
	mv	a0, s2
	mv	a2, s3
	call	_ZNK8nlohmann10basic_jsonISt3mapSt6vectorNSt7__cxx1112basic_stringIcSt11char_traitsIcESaIcEEEblmdSaNS_14adl_serializerEE4findIRS8_EENS_6detail9iter_implIKSA_EEOT_
	ld	a1, -48(s0)
	addi	s1, s0, -120
	mv	a0, s1
	call	_ZNK8nlohmann10basic_jsonISt3mapSt6vectorNSt7__cxx1112basic_stringIcSt11char_traitsIcESaIcEEEblmdSaNS_14adl_serializerEE3endEv
	mv	a0, s2
	mv	a1, s1
	call	_ZNK8nlohmann6detail9iter_implIKNS_10basic_jsonISt3mapSt6vectorNSt7__cxx1112basic_stringIcSt11char_traitsIcESaIcEEEblmdSaNS_14adl_serializerEEEEneERKSE_
	beqz	a0, .LBB12_2
	j	.LBB12_1
.LBB12_1:                               # %if.then
	ld	a0, -48(s0)
	mv	a1, s3
	call	_ZNK8nlohmann10basic_jsonISt3mapSt6vectorNSt7__cxx1112basic_stringIcSt11char_traitsIcESaIcEEEblmdSaNS_14adl_serializerEE2atERKS8_
	call	_ZNK8nlohmann10basic_jsonISt3mapSt6vectorNSt7__cxx1112basic_stringIcSt11char_traitsIcESaIcEEEblmdSaNS_14adl_serializerEE3getIiiLi0EEET0_v
	sw	a0, -56(s0)
	j	.LBB12_2
.LBB12_2:                               # %if.end
	lw	a0, -56(s0)
	ld	s3, 88(sp)
	ld	s2, 96(sp)
	ld	s1, 104(sp)
	ld	s0, 112(sp)
	.cfi_def_cfa sp, 128
	ld	ra, 120(sp)
	.cfi_restore ra
	.cfi_restore s0
	.cfi_restore s1
	.cfi_restore s2
	.cfi_restore s3
	addi	sp, sp, 128
	.cfi_def_cfa_offset 0
	ret
.Lfunc_end12:
	.size	_Z11getOptionalIiET_RKN8nlohmann10basic_jsonISt3mapSt6vectorNSt7__cxx1112basic_stringIcSt11char_traitsIcESaIcEEEblmdSaNS1_14adl_serializerEEESA_S0_, .Lfunc_end12-_Z11getOptionalIiET_RKN8nlohmann10basic_jsonISt3mapSt6vectorNSt7__cxx1112basic_stringIcSt11char_traitsIcESaIcEEEblmdSaNS1_14adl_serializerEEESA_S0_
	.cfi_endproc
                                        # -- End function
	.section	.text._Z11getOptionalIbET_RKN8nlohmann10basic_jsonISt3mapSt6vectorNSt7__cxx1112basic_stringIcSt11char_traitsIcESaIcEEEblmdSaNS1_14adl_serializerEEESA_S0_,"axG",@progbits,_Z11getOptionalIbET_RKN8nlohmann10basic_jsonISt3mapSt6vectorNSt7__cxx1112basic_stringIcSt11char_traitsIcESaIcEEEblmdSaNS1_14adl_serializerEEESA_S0_,comdat
	.weak	_Z11getOptionalIbET_RKN8nlohmann10basic_jsonISt3mapSt6vectorNSt7__cxx1112basic_stringIcSt11char_traitsIcESaIcEEEblmdSaNS1_14adl_serializerEEESA_S0_ # -- Begin function _Z11getOptionalIbET_RKN8nlohmann10basic_jsonISt3mapSt6vectorNSt7__cxx1112basic_stringIcSt11char_traitsIcESaIcEEEblmdSaNS1_14adl_serializerEEESA_S0_
	.p2align	2
	.type	_Z11getOptionalIbET_RKN8nlohmann10basic_jsonISt3mapSt6vectorNSt7__cxx1112basic_stringIcSt11char_traitsIcESaIcEEEblmdSaNS1_14adl_serializerEEESA_S0_,@function
_Z11getOptionalIbET_RKN8nlohmann10basic_jsonISt3mapSt6vectorNSt7__cxx1112basic_stringIcSt11char_traitsIcESaIcEEEblmdSaNS1_14adl_serializerEEESA_S0_: # @_Z11getOptionalIbET_RKN8nlohmann10basic_jsonISt3mapSt6vectorNSt7__cxx1112basic_stringIcSt11char_traitsIcESaIcEEEblmdSaNS1_14adl_serializerEEESA_S0_
	.cfi_startproc
# %bb.0:                                # %entry
	addi	sp, sp, -128
	.cfi_def_cfa_offset 128
	sd	ra, 120(sp)
	sd	s0, 112(sp)
	sd	s1, 104(sp)
	sd	s2, 96(sp)
	sd	s3, 88(sp)
	.cfi_offset ra, -8
	.cfi_offset s0, -16
	.cfi_offset s1, -24
	.cfi_offset s2, -32
	.cfi_offset s3, -40
	addi	s0, sp, 128
	.cfi_def_cfa s0, 0
	mv	s3, a1
	sd	a0, -48(s0)
	sb	a2, -49(s0)
	lbu	a0, -49(s0)
	andi	a0, a0, 1
	sb	a0, -50(s0)
	ld	a1, -48(s0)
	addi	s2, s0, -88
	mv	a0, s2
	mv	a2, s3
	call	_ZNK8nlohmann10basic_jsonISt3mapSt6vectorNSt7__cxx1112basic_stringIcSt11char_traitsIcESaIcEEEblmdSaNS_14adl_serializerEE4findIRS8_EENS_6detail9iter_implIKSA_EEOT_
	ld	a1, -48(s0)
	addi	s1, s0, -120
	mv	a0, s1
	call	_ZNK8nlohmann10basic_jsonISt3mapSt6vectorNSt7__cxx1112basic_stringIcSt11char_traitsIcESaIcEEEblmdSaNS_14adl_serializerEE3endEv
	mv	a0, s2
	mv	a1, s1
	call	_ZNK8nlohmann6detail9iter_implIKNS_10basic_jsonISt3mapSt6vectorNSt7__cxx1112basic_stringIcSt11char_traitsIcESaIcEEEblmdSaNS_14adl_serializerEEEEneERKSE_
	beqz	a0, .LBB13_2
	j	.LBB13_1
.LBB13_1:                               # %if.then
	ld	a0, -48(s0)
	mv	a1, s3
	call	_ZNK8nlohmann10basic_jsonISt3mapSt6vectorNSt7__cxx1112basic_stringIcSt11char_traitsIcESaIcEEEblmdSaNS_14adl_serializerEE2atERKS8_
	call	_ZNK8nlohmann10basic_jsonISt3mapSt6vectorNSt7__cxx1112basic_stringIcSt11char_traitsIcESaIcEEEblmdSaNS_14adl_serializerEE3getIbbLi0EEET0_v
	sb	a0, -50(s0)
	j	.LBB13_2
.LBB13_2:                               # %if.end
	lbu	a0, -50(s0)
	andi	a0, a0, 1
	ld	s3, 88(sp)
	ld	s2, 96(sp)
	ld	s1, 104(sp)
	ld	s0, 112(sp)
	.cfi_def_cfa sp, 128
	ld	ra, 120(sp)
	.cfi_restore ra
	.cfi_restore s0
	.cfi_restore s1
	.cfi_restore s2
	.cfi_restore s3
	addi	sp, sp, 128
	.cfi_def_cfa_offset 0
	ret
.Lfunc_end13:
	.size	_Z11getOptionalIbET_RKN8nlohmann10basic_jsonISt3mapSt6vectorNSt7__cxx1112basic_stringIcSt11char_traitsIcESaIcEEEblmdSaNS1_14adl_serializerEEESA_S0_, .Lfunc_end13-_Z11getOptionalIbET_RKN8nlohmann10basic_jsonISt3mapSt6vectorNSt7__cxx1112basic_stringIcSt11char_traitsIcESaIcEEEblmdSaNS1_14adl_serializerEEESA_S0_
	.cfi_endproc
                                        # -- End function
	.section	.text._ZNSt6vectorISt10shared_ptrIN7Surface4BaseEESaIS3_EE5beginEv,"axG",@progbits,_ZNSt6vectorISt10shared_ptrIN7Surface4BaseEESaIS3_EE5beginEv,comdat
	.weak	_ZNSt6vectorISt10shared_ptrIN7Surface4BaseEESaIS3_EE5beginEv # -- Begin function _ZNSt6vectorISt10shared_ptrIN7Surface4BaseEESaIS3_EE5beginEv
	.p2align	2
	.type	_ZNSt6vectorISt10shared_ptrIN7Surface4BaseEESaIS3_EE5beginEv,@function
_ZNSt6vectorISt10shared_ptrIN7Surface4BaseEESaIS3_EE5beginEv: # @_ZNSt6vectorISt10shared_ptrIN7Surface4BaseEESaIS3_EE5beginEv
# %bb.0:                                # %entry
	addi	sp, sp, -32
	sd	ra, 24(sp)
	sd	s0, 16(sp)
	addi	s0, sp, 32
	sd	a0, -32(s0)
	ld	a1, -32(s0)
	addi	a0, s0, -24
	call	_ZN9__gnu_cxx17__normal_iteratorIPSt10shared_ptrIN7Surface4BaseEESt6vectorIS4_SaIS4_EEEC2ERKS5_
	ld	a0, -24(s0)
	ld	s0, 16(sp)
	ld	ra, 24(sp)
	addi	sp, sp, 32
	ret
.Lfunc_end14:
	.size	_ZNSt6vectorISt10shared_ptrIN7Surface4BaseEESaIS3_EE5beginEv, .Lfunc_end14-_ZNSt6vectorISt10shared_ptrIN7Surface4BaseEESaIS3_EE5beginEv
                                        # -- End function
	.section	.text._ZNSt6vectorISt10shared_ptrIN7Surface4BaseEESaIS3_EE3endEv,"axG",@progbits,_ZNSt6vectorISt10shared_ptrIN7Surface4BaseEESaIS3_EE3endEv,comdat
	.weak	_ZNSt6vectorISt10shared_ptrIN7Surface4BaseEESaIS3_EE3endEv # -- Begin function _ZNSt6vectorISt10shared_ptrIN7Surface4BaseEESaIS3_EE3endEv
	.p2align	2
	.type	_ZNSt6vectorISt10shared_ptrIN7Surface4BaseEESaIS3_EE3endEv,@function
_ZNSt6vectorISt10shared_ptrIN7Surface4BaseEESaIS3_EE3endEv: # @_ZNSt6vectorISt10shared_ptrIN7Surface4BaseEESaIS3_EE3endEv
# %bb.0:                                # %entry
	addi	sp, sp, -32
	sd	ra, 24(sp)
	sd	s0, 16(sp)
	addi	s0, sp, 32
	sd	a0, -32(s0)
	ld	a0, -32(s0)
	addi	a1, a0, 8
	addi	a0, s0, -24
	call	_ZN9__gnu_cxx17__normal_iteratorIPSt10shared_ptrIN7Surface4BaseEESt6vectorIS4_SaIS4_EEEC2ERKS5_
	ld	a0, -24(s0)
	ld	s0, 16(sp)
	ld	ra, 24(sp)
	addi	sp, sp, 32
	ret
.Lfunc_end15:
	.size	_ZNSt6vectorISt10shared_ptrIN7Surface4BaseEESaIS3_EE3endEv, .Lfunc_end15-_ZNSt6vectorISt10shared_ptrIN7Surface4BaseEESaIS3_EE3endEv
                                        # -- End function
	.section	.text._ZN9__gnu_cxxneIPSt10shared_ptrIN7Surface4BaseEESt6vectorIS4_SaIS4_EEEEbRKNS_17__normal_iteratorIT_T0_EESE_,"axG",@progbits,_ZN9__gnu_cxxneIPSt10shared_ptrIN7Surface4BaseEESt6vectorIS4_SaIS4_EEEEbRKNS_17__normal_iteratorIT_T0_EESE_,comdat
	.weak	_ZN9__gnu_cxxneIPSt10shared_ptrIN7Surface4BaseEESt6vectorIS4_SaIS4_EEEEbRKNS_17__normal_iteratorIT_T0_EESE_ # -- Begin function _ZN9__gnu_cxxneIPSt10shared_ptrIN7Surface4BaseEESt6vectorIS4_SaIS4_EEEEbRKNS_17__normal_iteratorIT_T0_EESE_
	.p2align	2
	.type	_ZN9__gnu_cxxneIPSt10shared_ptrIN7Surface4BaseEESt6vectorIS4_SaIS4_EEEEbRKNS_17__normal_iteratorIT_T0_EESE_,@function
_ZN9__gnu_cxxneIPSt10shared_ptrIN7Surface4BaseEESt6vectorIS4_SaIS4_EEEEbRKNS_17__normal_iteratorIT_T0_EESE_: # @_ZN9__gnu_cxxneIPSt10shared_ptrIN7Surface4BaseEESt6vectorIS4_SaIS4_EEEEbRKNS_17__normal_iteratorIT_T0_EESE_
# %bb.0:                                # %entry
	addi	sp, sp, -48
	sd	ra, 40(sp)
	sd	s0, 32(sp)
	sd	s1, 24(sp)
	addi	s0, sp, 48
	sd	a0, -32(s0)
	sd	a1, -40(s0)
	ld	a0, -32(s0)
	call	_ZNK9__gnu_cxx17__normal_iteratorIPSt10shared_ptrIN7Surface4BaseEESt6vectorIS4_SaIS4_EEE4baseEv
	ld	s1, 0(a0)
	ld	a0, -40(s0)
	call	_ZNK9__gnu_cxx17__normal_iteratorIPSt10shared_ptrIN7Surface4BaseEESt6vectorIS4_SaIS4_EEE4baseEv
	ld	a0, 0(a0)
	xor	a0, s1, a0
	snez	a0, a0
	ld	s1, 24(sp)
	ld	s0, 32(sp)
	ld	ra, 40(sp)
	addi	sp, sp, 48
	ret
.Lfunc_end16:
	.size	_ZN9__gnu_cxxneIPSt10shared_ptrIN7Surface4BaseEESt6vectorIS4_SaIS4_EEEEbRKNS_17__normal_iteratorIT_T0_EESE_, .Lfunc_end16-_ZN9__gnu_cxxneIPSt10shared_ptrIN7Surface4BaseEESt6vectorIS4_SaIS4_EEEEbRKNS_17__normal_iteratorIT_T0_EESE_
                                        # -- End function
	.section	.text._ZNK9__gnu_cxx17__normal_iteratorIPSt10shared_ptrIN7Surface4BaseEESt6vectorIS4_SaIS4_EEEdeEv,"axG",@progbits,_ZNK9__gnu_cxx17__normal_iteratorIPSt10shared_ptrIN7Surface4BaseEESt6vectorIS4_SaIS4_EEEdeEv,comdat
	.weak	_ZNK9__gnu_cxx17__normal_iteratorIPSt10shared_ptrIN7Surface4BaseEESt6vectorIS4_SaIS4_EEEdeEv # -- Begin function _ZNK9__gnu_cxx17__normal_iteratorIPSt10shared_ptrIN7Surface4BaseEESt6vectorIS4_SaIS4_EEEdeEv
	.p2align	2
	.type	_ZNK9__gnu_cxx17__normal_iteratorIPSt10shared_ptrIN7Surface4BaseEESt6vectorIS4_SaIS4_EEEdeEv,@function
_ZNK9__gnu_cxx17__normal_iteratorIPSt10shared_ptrIN7Surface4BaseEESt6vectorIS4_SaIS4_EEEdeEv: # @_ZNK9__gnu_cxx17__normal_iteratorIPSt10shared_ptrIN7Surface4BaseEESt6vectorIS4_SaIS4_EEEdeEv
# %bb.0:                                # %entry
	addi	sp, sp, -32
	sd	ra, 24(sp)
	sd	s0, 16(sp)
	addi	s0, sp, 32
	sd	a0, -24(s0)
	ld	a0, -24(s0)
	ld	a0, 0(a0)
	ld	s0, 16(sp)
	ld	ra, 24(sp)
	addi	sp, sp, 32
	ret
.Lfunc_end17:
	.size	_ZNK9__gnu_cxx17__normal_iteratorIPSt10shared_ptrIN7Surface4BaseEESt6vectorIS4_SaIS4_EEEdeEv, .Lfunc_end17-_ZNK9__gnu_cxx17__normal_iteratorIPSt10shared_ptrIN7Surface4BaseEESt6vectorIS4_SaIS4_EEEdeEv
                                        # -- End function
	.section	.text._ZN3glm7compAddILi3EdLNS_9qualifierE0EEET0_RKNS_3vecIXT_ES2_XT1_EEE,"axG",@progbits,_ZN3glm7compAddILi3EdLNS_9qualifierE0EEET0_RKNS_3vecIXT_ES2_XT1_EEE,comdat
	.weak	_ZN3glm7compAddILi3EdLNS_9qualifierE0EEET0_RKNS_3vecIXT_ES2_XT1_EEE # -- Begin function _ZN3glm7compAddILi3EdLNS_9qualifierE0EEET0_RKNS_3vecIXT_ES2_XT1_EEE
	.p2align	2
	.type	_ZN3glm7compAddILi3EdLNS_9qualifierE0EEET0_RKNS_3vecIXT_ES2_XT1_EEE,@function
_ZN3glm7compAddILi3EdLNS_9qualifierE0EEET0_RKNS_3vecIXT_ES2_XT1_EEE: # @_ZN3glm7compAddILi3EdLNS_9qualifierE0EEET0_RKNS_3vecIXT_ES2_XT1_EEE
	.cfi_startproc
# %bb.0:                                # %entry
	addi	sp, sp, -48
	.cfi_def_cfa_offset 48
	sd	ra, 40(sp)
	sd	s0, 32(sp)
	.cfi_offset ra, -8
	.cfi_offset s0, -16
	addi	s0, sp, 48
	.cfi_def_cfa s0, 0
	sd	a0, -24(s0)
	sd	zero, -32(s0)
	sw	zero, -36(s0)
	call	_ZN3glm3vecILi3EdLNS_9qualifierE0EE6lengthEv
	sw	a0, -40(s0)
	j	.LBB18_1
.LBB18_1:                               # %for.cond
                                        # =>This Inner Loop Header: Depth=1
	lw	a0, -36(s0)
	lw	a1, -40(s0)
	bge	a0, a1, .LBB18_4
	j	.LBB18_2
.LBB18_2:                               # %for.body
                                        #   in Loop: Header=BB18_1 Depth=1
	ld	a0, -24(s0)
	lw	a1, -36(s0)
	call	_ZNK3glm3vecILi3EdLNS_9qualifierE0EEixEi
	fld	ft0, 0(a0)
	fld	ft1, -32(s0)
	fadd.d	ft0, ft1, ft0
	fsd	ft0, -32(s0)
	j	.LBB18_3
.LBB18_3:                               # %for.inc
                                        #   in Loop: Header=BB18_1 Depth=1
	lw	a0, -36(s0)
	addi	a0, a0, 1
	sw	a0, -36(s0)
	j	.LBB18_1
.LBB18_4:                               # %for.end
	ld	a0, -32(s0)
	ld	s0, 32(sp)
	.cfi_def_cfa sp, 48
	ld	ra, 40(sp)
	.cfi_restore ra
	.cfi_restore s0
	addi	sp, sp, 48
	.cfi_def_cfa_offset 0
	ret
.Lfunc_end18:
	.size	_ZN3glm7compAddILi3EdLNS_9qualifierE0EEET0_RKNS_3vecIXT_ES2_XT1_EEE, .Lfunc_end18-_ZN3glm7compAddILi3EdLNS_9qualifierE0EEET0_RKNS_3vecIXT_ES2_XT1_EEE
	.cfi_endproc
                                        # -- End function
	.section	.text._ZN3glmmlIdLNS_9qualifierE0EEENS_3vecILi3ET_XT0_EEERKS4_S3_,"axG",@progbits,_ZN3glmmlIdLNS_9qualifierE0EEENS_3vecILi3ET_XT0_EEERKS4_S3_,comdat
	.weak	_ZN3glmmlIdLNS_9qualifierE0EEENS_3vecILi3ET_XT0_EEERKS4_S3_ # -- Begin function _ZN3glmmlIdLNS_9qualifierE0EEENS_3vecILi3ET_XT0_EEERKS4_S3_
	.p2align	2
	.type	_ZN3glmmlIdLNS_9qualifierE0EEENS_3vecILi3ET_XT0_EEERKS4_S3_,@function
_ZN3glmmlIdLNS_9qualifierE0EEENS_3vecILi3ET_XT0_EEERKS4_S3_: # @_ZN3glmmlIdLNS_9qualifierE0EEENS_3vecILi3ET_XT0_EEERKS4_S3_
	.cfi_startproc
# %bb.0:                                # %entry
	addi	sp, sp, -48
	.cfi_def_cfa_offset 48
	sd	ra, 40(sp)
	sd	s0, 32(sp)
	.cfi_offset ra, -8
	.cfi_offset s0, -16
	addi	s0, sp, 48
	.cfi_def_cfa s0, 0
	fmv.d.x	ft0, a2
	sd	a0, -24(s0)
	sd	a1, -32(s0)
	sd	a2, -40(s0)
	ld	a1, -32(s0)
	fld	ft0, 0(a1)
	fld	ft1, -40(s0)
	fmul.d	ft0, ft0, ft1
	fld	ft2, 8(a1)
	fmul.d	ft2, ft2, ft1
	fld	ft3, 16(a1)
	fmul.d	ft1, ft3, ft1
	fmv.x.d	a1, ft0
	fmv.x.d	a2, ft2
	fmv.x.d	a3, ft1
	call	_ZN3glm3vecILi3EdLNS_9qualifierE0EEC2Eddd
	ld	s0, 32(sp)
	.cfi_def_cfa sp, 48
	ld	ra, 40(sp)
	.cfi_restore ra
	.cfi_restore s0
	addi	sp, sp, 48
	.cfi_def_cfa_offset 0
	ret
.Lfunc_end19:
	.size	_ZN3glmmlIdLNS_9qualifierE0EEENS_3vecILi3ET_XT0_EEERKS4_S3_, .Lfunc_end19-_ZN3glmmlIdLNS_9qualifierE0EEENS_3vecILi3ET_XT0_EEERKS4_S3_
	.cfi_endproc
                                        # -- End function
	.section	.text._ZNKSt19__shared_ptr_accessIN7Surface4BaseELN9__gnu_cxx12_Lock_policyE0ELb0ELb0EEptEv,"axG",@progbits,_ZNKSt19__shared_ptr_accessIN7Surface4BaseELN9__gnu_cxx12_Lock_policyE0ELb0ELb0EEptEv,comdat
	.weak	_ZNKSt19__shared_ptr_accessIN7Surface4BaseELN9__gnu_cxx12_Lock_policyE0ELb0ELb0EEptEv # -- Begin function _ZNKSt19__shared_ptr_accessIN7Surface4BaseELN9__gnu_cxx12_Lock_policyE0ELb0ELb0EEptEv
	.p2align	2
	.type	_ZNKSt19__shared_ptr_accessIN7Surface4BaseELN9__gnu_cxx12_Lock_policyE0ELb0ELb0EEptEv,@function
_ZNKSt19__shared_ptr_accessIN7Surface4BaseELN9__gnu_cxx12_Lock_policyE0ELb0ELb0EEptEv: # @_ZNKSt19__shared_ptr_accessIN7Surface4BaseELN9__gnu_cxx12_Lock_policyE0ELb0ELb0EEptEv
# %bb.0:                                # %entry
	addi	sp, sp, -32
	sd	ra, 24(sp)
	sd	s0, 16(sp)
	addi	s0, sp, 32
	sd	a0, -24(s0)
	ld	a0, -24(s0)
	call	_ZNKSt19__shared_ptr_accessIN7Surface4BaseELN9__gnu_cxx12_Lock_policyE0ELb0ELb0EE6_M_getEv
	ld	s0, 16(sp)
	ld	ra, 24(sp)
	addi	sp, sp, 32
	ret
.Lfunc_end20:
	.size	_ZNKSt19__shared_ptr_accessIN7Surface4BaseELN9__gnu_cxx12_Lock_policyE0ELb0ELb0EEptEv, .Lfunc_end20-_ZNKSt19__shared_ptr_accessIN7Surface4BaseELN9__gnu_cxx12_Lock_policyE0ELb0ELb0EEptEv
                                        # -- End function
	.section	.text._ZNKSt19__shared_ptr_accessI8MaterialLN9__gnu_cxx12_Lock_policyE0ELb0ELb0EEptEv,"axG",@progbits,_ZNKSt19__shared_ptr_accessI8MaterialLN9__gnu_cxx12_Lock_policyE0ELb0ELb0EEptEv,comdat
	.weak	_ZNKSt19__shared_ptr_accessI8MaterialLN9__gnu_cxx12_Lock_policyE0ELb0ELb0EEptEv # -- Begin function _ZNKSt19__shared_ptr_accessI8MaterialLN9__gnu_cxx12_Lock_policyE0ELb0ELb0EEptEv
	.p2align	2
	.type	_ZNKSt19__shared_ptr_accessI8MaterialLN9__gnu_cxx12_Lock_policyE0ELb0ELb0EEptEv,@function
_ZNKSt19__shared_ptr_accessI8MaterialLN9__gnu_cxx12_Lock_policyE0ELb0ELb0EEptEv: # @_ZNKSt19__shared_ptr_accessI8MaterialLN9__gnu_cxx12_Lock_policyE0ELb0ELb0EEptEv
# %bb.0:                                # %entry
	addi	sp, sp, -32
	sd	ra, 24(sp)
	sd	s0, 16(sp)
	addi	s0, sp, 32
	sd	a0, -24(s0)
	ld	a0, -24(s0)
	call	_ZNKSt19__shared_ptr_accessI8MaterialLN9__gnu_cxx12_Lock_policyE0ELb0ELb0EE6_M_getEv
	ld	s0, 16(sp)
	ld	ra, 24(sp)
	addi	sp, sp, 32
	ret
.Lfunc_end21:
	.size	_ZNKSt19__shared_ptr_accessI8MaterialLN9__gnu_cxx12_Lock_policyE0ELb0ELb0EEptEv, .Lfunc_end21-_ZNKSt19__shared_ptr_accessI8MaterialLN9__gnu_cxx12_Lock_policyE0ELb0ELb0EEptEv
                                        # -- End function
	.section	.text._ZNK7Surface4Base4areaEv,"axG",@progbits,_ZNK7Surface4Base4areaEv,comdat
	.weak	_ZNK7Surface4Base4areaEv # -- Begin function _ZNK7Surface4Base4areaEv
	.p2align	2
	.type	_ZNK7Surface4Base4areaEv,@function
_ZNK7Surface4Base4areaEv:               # @_ZNK7Surface4Base4areaEv
# %bb.0:                                # %entry
	addi	sp, sp, -32
	sd	ra, 24(sp)
	sd	s0, 16(sp)
	addi	s0, sp, 32
	sd	a0, -24(s0)
	ld	a0, -24(s0)
	ld	a0, 24(a0)
	ld	s0, 16(sp)
	ld	ra, 24(sp)
	addi	sp, sp, 32
	ret
.Lfunc_end22:
	.size	_ZNK7Surface4Base4areaEv, .Lfunc_end22-_ZNK7Surface4Base4areaEv
                                        # -- End function
	.section	.text._ZN9__gnu_cxx17__normal_iteratorIPSt10shared_ptrIN7Surface4BaseEESt6vectorIS4_SaIS4_EEEppEv,"axG",@progbits,_ZN9__gnu_cxx17__normal_iteratorIPSt10shared_ptrIN7Surface4BaseEESt6vectorIS4_SaIS4_EEEppEv,comdat
	.weak	_ZN9__gnu_cxx17__normal_iteratorIPSt10shared_ptrIN7Surface4BaseEESt6vectorIS4_SaIS4_EEEppEv # -- Begin function _ZN9__gnu_cxx17__normal_iteratorIPSt10shared_ptrIN7Surface4BaseEESt6vectorIS4_SaIS4_EEEppEv
	.p2align	2
	.type	_ZN9__gnu_cxx17__normal_iteratorIPSt10shared_ptrIN7Surface4BaseEESt6vectorIS4_SaIS4_EEEppEv,@function
_ZN9__gnu_cxx17__normal_iteratorIPSt10shared_ptrIN7Surface4BaseEESt6vectorIS4_SaIS4_EEEppEv: # @_ZN9__gnu_cxx17__normal_iteratorIPSt10shared_ptrIN7Surface4BaseEESt6vectorIS4_SaIS4_EEEppEv
# %bb.0:                                # %entry
	addi	sp, sp, -32
	sd	ra, 24(sp)
	sd	s0, 16(sp)
	addi	s0, sp, 32
	sd	a0, -24(s0)
	ld	a0, -24(s0)
	ld	a1, 0(a0)
	addi	a1, a1, 16
	sd	a1, 0(a0)
	ld	s0, 16(sp)
	ld	ra, 24(sp)
	addi	sp, sp, 32
	ret
.Lfunc_end23:
	.size	_ZN9__gnu_cxx17__normal_iteratorIPSt10shared_ptrIN7Surface4BaseEESt6vectorIS4_SaIS4_EEEppEv, .Lfunc_end23-_ZN9__gnu_cxx17__normal_iteratorIPSt10shared_ptrIN7Surface4BaseEESt6vectorIS4_SaIS4_EEEppEv
                                        # -- End function
	.text
	.p2align	2               # -- Begin function _ZNSt6vectorIZN12PhotonMapperC1ERKN8nlohmann10basic_jsonISt3mapS_NSt7__cxx1112basic_stringIcSt11char_traitsIcESaIcEEEblmdSaNS1_14adl_serializerEEEE12EmissionWorkSaISE_EEC2Ev
	.type	_ZNSt6vectorIZN12PhotonMapperC1ERKN8nlohmann10basic_jsonISt3mapS_NSt7__cxx1112basic_stringIcSt11char_traitsIcESaIcEEEblmdSaNS1_14adl_serializerEEEE12EmissionWorkSaISE_EEC2Ev,@function
_ZNSt6vectorIZN12PhotonMapperC1ERKN8nlohmann10basic_jsonISt3mapS_NSt7__cxx1112basic_stringIcSt11char_traitsIcESaIcEEEblmdSaNS1_14adl_serializerEEEE12EmissionWorkSaISE_EEC2Ev: # @_ZNSt6vectorIZN12PhotonMapperC1ERKN8nlohmann10basic_jsonISt3mapS_NSt7__cxx1112basic_stringIcSt11char_traitsIcESaIcEEEblmdSaNS1_14adl_serializerEEEE12EmissionWorkSaISE_EEC2Ev
# %bb.0:                                # %entry
	addi	sp, sp, -32
	sd	ra, 24(sp)
	sd	s0, 16(sp)
	addi	s0, sp, 32
	sd	a0, -24(s0)
	ld	a0, -24(s0)
	call	_ZNSt12_Vector_baseIZN12PhotonMapperC1ERKN8nlohmann10basic_jsonISt3mapSt6vectorNSt7__cxx1112basic_stringIcSt11char_traitsIcESaIcEEEblmdSaNS1_14adl_serializerEEEE12EmissionWorkSaISF_EEC2Ev
	ld	s0, 16(sp)
	ld	ra, 24(sp)
	addi	sp, sp, 32
	ret
.Lfunc_end24:
	.size	_ZNSt6vectorIZN12PhotonMapperC1ERKN8nlohmann10basic_jsonISt3mapS_NSt7__cxx1112basic_stringIcSt11char_traitsIcESaIcEEEblmdSaNS1_14adl_serializerEEEE12EmissionWorkSaISE_EEC2Ev, .Lfunc_end24-_ZNSt6vectorIZN12PhotonMapperC1ERKN8nlohmann10basic_jsonISt3mapS_NSt7__cxx1112basic_stringIcSt11char_traitsIcESaIcEEEblmdSaNS1_14adl_serializerEEEE12EmissionWorkSaISE_EEC2Ev
                                        # -- End function
	.section	.text._ZNKSt6vectorISt10shared_ptrIN7Surface4BaseEESaIS3_EE4sizeEv,"axG",@progbits,_ZNKSt6vectorISt10shared_ptrIN7Surface4BaseEESaIS3_EE4sizeEv,comdat
	.weak	_ZNKSt6vectorISt10shared_ptrIN7Surface4BaseEESaIS3_EE4sizeEv # -- Begin function _ZNKSt6vectorISt10shared_ptrIN7Surface4BaseEESaIS3_EE4sizeEv
	.p2align	2
	.type	_ZNKSt6vectorISt10shared_ptrIN7Surface4BaseEESaIS3_EE4sizeEv,@function
_ZNKSt6vectorISt10shared_ptrIN7Surface4BaseEESaIS3_EE4sizeEv: # @_ZNKSt6vectorISt10shared_ptrIN7Surface4BaseEESaIS3_EE4sizeEv
# %bb.0:                                # %entry
	addi	sp, sp, -32
	sd	ra, 24(sp)
	sd	s0, 16(sp)
	addi	s0, sp, 32
	sd	a0, -24(s0)
	ld	a0, -24(s0)
	ld	a1, 8(a0)
	ld	a0, 0(a0)
	sub	a0, a1, a0
	srai	a0, a0, 4
	ld	s0, 16(sp)
	ld	ra, 24(sp)
	addi	sp, sp, 32
	ret
.Lfunc_end25:
	.size	_ZNKSt6vectorISt10shared_ptrIN7Surface4BaseEESaIS3_EE4sizeEv, .Lfunc_end25-_ZNKSt6vectorISt10shared_ptrIN7Surface4BaseEESaIS3_EE4sizeEv
                                        # -- End function
	.section	.text._ZNSt6vectorISt10shared_ptrIN7Surface4BaseEESaIS3_EEixEm,"axG",@progbits,_ZNSt6vectorISt10shared_ptrIN7Surface4BaseEESaIS3_EEixEm,comdat
	.weak	_ZNSt6vectorISt10shared_ptrIN7Surface4BaseEESaIS3_EEixEm # -- Begin function _ZNSt6vectorISt10shared_ptrIN7Surface4BaseEESaIS3_EEixEm
	.p2align	2
	.type	_ZNSt6vectorISt10shared_ptrIN7Surface4BaseEESaIS3_EEixEm,@function
_ZNSt6vectorISt10shared_ptrIN7Surface4BaseEESaIS3_EEixEm: # @_ZNSt6vectorISt10shared_ptrIN7Surface4BaseEESaIS3_EEixEm
# %bb.0:                                # %entry
	addi	sp, sp, -32
	sd	ra, 24(sp)
	sd	s0, 16(sp)
	addi	s0, sp, 32
	sd	a0, -24(s0)
	sd	a1, -32(s0)
	ld	a0, -24(s0)
	ld	a0, 0(a0)
	ld	a1, -32(s0)
	slli	a1, a1, 4
	add	a0, a0, a1
	ld	s0, 16(sp)
	ld	ra, 24(sp)
	addi	sp, sp, 32
	ret
.Lfunc_end26:
	.size	_ZNSt6vectorISt10shared_ptrIN7Surface4BaseEESaIS3_EEixEm, .Lfunc_end26-_ZNSt6vectorISt10shared_ptrIN7Surface4BaseEESaIS3_EEixEm
                                        # -- End function
	.section	.text._ZNSt10shared_ptrIN7Surface4BaseEEC2ERKS2_,"axG",@progbits,_ZNSt10shared_ptrIN7Surface4BaseEEC2ERKS2_,comdat
	.weak	_ZNSt10shared_ptrIN7Surface4BaseEEC2ERKS2_ # -- Begin function _ZNSt10shared_ptrIN7Surface4BaseEEC2ERKS2_
	.p2align	2
	.type	_ZNSt10shared_ptrIN7Surface4BaseEEC2ERKS2_,@function
_ZNSt10shared_ptrIN7Surface4BaseEEC2ERKS2_: # @_ZNSt10shared_ptrIN7Surface4BaseEEC2ERKS2_
# %bb.0:                                # %entry
	addi	sp, sp, -32
	sd	ra, 24(sp)
	sd	s0, 16(sp)
	addi	s0, sp, 32
	sd	a0, -24(s0)
	sd	a1, -32(s0)
	ld	a0, -24(s0)
	ld	a1, -32(s0)
	call	_ZNSt12__shared_ptrIN7Surface4BaseELN9__gnu_cxx12_Lock_policyE0EEC2ERKS4_
	ld	s0, 16(sp)
	ld	ra, 24(sp)
	addi	sp, sp, 32
	ret
.Lfunc_end27:
	.size	_ZNSt10shared_ptrIN7Surface4BaseEEC2ERKS2_, .Lfunc_end27-_ZNSt10shared_ptrIN7Surface4BaseEEC2ERKS2_
                                        # -- End function
	.section	.text._ZN3glmdvIdLNS_9qualifierE0EEENS_3vecILi3ET_XT0_EEERKS4_S3_,"axG",@progbits,_ZN3glmdvIdLNS_9qualifierE0EEENS_3vecILi3ET_XT0_EEERKS4_S3_,comdat
	.weak	_ZN3glmdvIdLNS_9qualifierE0EEENS_3vecILi3ET_XT0_EEERKS4_S3_ # -- Begin function _ZN3glmdvIdLNS_9qualifierE0EEENS_3vecILi3ET_XT0_EEERKS4_S3_
	.p2align	2
	.type	_ZN3glmdvIdLNS_9qualifierE0EEENS_3vecILi3ET_XT0_EEERKS4_S3_,@function
_ZN3glmdvIdLNS_9qualifierE0EEENS_3vecILi3ET_XT0_EEERKS4_S3_: # @_ZN3glmdvIdLNS_9qualifierE0EEENS_3vecILi3ET_XT0_EEERKS4_S3_
	.cfi_startproc
# %bb.0:                                # %entry
	addi	sp, sp, -48
	.cfi_def_cfa_offset 48
	sd	ra, 40(sp)
	sd	s0, 32(sp)
	.cfi_offset ra, -8
	.cfi_offset s0, -16
	addi	s0, sp, 48
	.cfi_def_cfa s0, 0
	fmv.d.x	ft0, a2
	sd	a0, -24(s0)
	sd	a1, -32(s0)
	sd	a2, -40(s0)
	ld	a1, -32(s0)
	fld	ft0, 0(a1)
	fld	ft1, -40(s0)
	fdiv.d	ft0, ft0, ft1
	fld	ft2, 8(a1)
	fdiv.d	ft2, ft2, ft1
	fld	ft3, 16(a1)
	fdiv.d	ft1, ft3, ft1
	fmv.x.d	a1, ft0
	fmv.x.d	a2, ft2
	fmv.x.d	a3, ft1
	call	_ZN3glm3vecILi3EdLNS_9qualifierE0EEC2Eddd
	ld	s0, 32(sp)
	.cfi_def_cfa sp, 48
	ld	ra, 40(sp)
	.cfi_restore ra
	.cfi_restore s0
	addi	sp, sp, 48
	.cfi_def_cfa_offset 0
	ret
.Lfunc_end28:
	.size	_ZN3glmdvIdLNS_9qualifierE0EEENS_3vecILi3ET_XT0_EEERKS4_S3_, .Lfunc_end28-_ZN3glmdvIdLNS_9qualifierE0EEENS_3vecILi3ET_XT0_EEERKS4_S3_
	.cfi_endproc
                                        # -- End function
	.text
	.p2align	2               # -- Begin function _ZNSt6vectorIZN12PhotonMapperC1ERKN8nlohmann10basic_jsonISt3mapS_NSt7__cxx1112basic_stringIcSt11char_traitsIcESaIcEEEblmdSaNS1_14adl_serializerEEEE12EmissionWorkSaISE_EE12emplace_backIJRmSI_SI_RN3glm3vecILi3EdLNSJ_9qualifierE0EEEEEERSE_DpOT_
	.type	_ZNSt6vectorIZN12PhotonMapperC1ERKN8nlohmann10basic_jsonISt3mapS_NSt7__cxx1112basic_stringIcSt11char_traitsIcESaIcEEEblmdSaNS1_14adl_serializerEEEE12EmissionWorkSaISE_EE12emplace_backIJRmSI_SI_RN3glm3vecILi3EdLNSJ_9qualifierE0EEEEEERSE_DpOT_,@function
_ZNSt6vectorIZN12PhotonMapperC1ERKN8nlohmann10basic_jsonISt3mapS_NSt7__cxx1112basic_stringIcSt11char_traitsIcESaIcEEEblmdSaNS1_14adl_serializerEEEE12EmissionWorkSaISE_EE12emplace_backIJRmSI_SI_RN3glm3vecILi3EdLNSJ_9qualifierE0EEEEEERSE_DpOT_: # @_ZNSt6vectorIZN12PhotonMapperC1ERKN8nlohmann10basic_jsonISt3mapS_NSt7__cxx1112basic_stringIcSt11char_traitsIcESaIcEEEblmdSaNS1_14adl_serializerEEEE12EmissionWorkSaISE_EE12emplace_backIJRmSI_SI_RN3glm3vecILi3EdLNSJ_9qualifierE0EEEEEERSE_DpOT_
	.cfi_startproc
# %bb.0:                                # %entry
	addi	sp, sp, -112
	.cfi_def_cfa_offset 112
	sd	ra, 104(sp)
	sd	s0, 96(sp)
	sd	s1, 88(sp)
	sd	s2, 80(sp)
	sd	s3, 72(sp)
	sd	s4, 64(sp)
	sd	s5, 56(sp)
	.cfi_offset ra, -8
	.cfi_offset s0, -16
	.cfi_offset s1, -24
	.cfi_offset s2, -32
	.cfi_offset s3, -40
	.cfi_offset s4, -48
	.cfi_offset s5, -56
	addi	s0, sp, 112
	.cfi_def_cfa s0, 0
	sd	a0, -64(s0)
	sd	a1, -72(s0)
	sd	a2, -80(s0)
	sd	a3, -88(s0)
	sd	a4, -96(s0)
	ld	s1, -64(s0)
	ld	a0, 8(s1)
	ld	a1, 16(s1)
	beq	a0, a1, .LBB29_2
	j	.LBB29_1
.LBB29_1:                               # %if.then
	ld	s2, 8(s1)
	ld	a0, -72(s0)
	call	_ZSt7forwardIRmEOT_RNSt16remove_referenceIS1_E4typeE
	mv	s3, a0
	ld	a0, -80(s0)
	call	_ZSt7forwardIRmEOT_RNSt16remove_referenceIS1_E4typeE
	mv	s4, a0
	ld	a0, -88(s0)
	call	_ZSt7forwardIRmEOT_RNSt16remove_referenceIS1_E4typeE
	mv	s5, a0
	ld	a0, -96(s0)
	call	_ZSt7forwardIRN3glm3vecILi3EdLNS0_9qualifierE0EEEEOT_RNSt16remove_referenceIS5_E4typeE
	mv	a5, a0
	mv	a0, s1
	mv	a1, s2
	mv	a2, s3
	mv	a3, s4
	mv	a4, s5
	call	_ZNSt16allocator_traitsISaIZN12PhotonMapperC1ERKN8nlohmann10basic_jsonISt3mapSt6vectorNSt7__cxx1112basic_stringIcSt11char_traitsIcESaIcEEEblmdSaNS1_14adl_serializerEEEE12EmissionWorkEE9constructISF_JRmSJ_SJ_RN3glm3vecILi3EdLNSK_9qualifierE0EEEEEEvRSG_PT_DpOT0_
	ld	a0, 8(s1)
	addi	a0, a0, 48
	sd	a0, 8(s1)
	j	.LBB29_3
.LBB29_2:                               # %if.else
	mv	a0, s1
	call	_ZNSt6vectorIZN12PhotonMapperC1ERKN8nlohmann10basic_jsonISt3mapS_NSt7__cxx1112basic_stringIcSt11char_traitsIcESaIcEEEblmdSaNS1_14adl_serializerEEEE12EmissionWorkSaISE_EE3endEv
	sd	a0, -104(s0)
	ld	a0, -72(s0)
	call	_ZSt7forwardIRmEOT_RNSt16remove_referenceIS1_E4typeE
	mv	s2, a0
	ld	a0, -80(s0)
	call	_ZSt7forwardIRmEOT_RNSt16remove_referenceIS1_E4typeE
	mv	s3, a0
	ld	a0, -88(s0)
	call	_ZSt7forwardIRmEOT_RNSt16remove_referenceIS1_E4typeE
	mv	s4, a0
	ld	a0, -96(s0)
	call	_ZSt7forwardIRN3glm3vecILi3EdLNS0_9qualifierE0EEEEOT_RNSt16remove_referenceIS5_E4typeE
	mv	a5, a0
	ld	a1, -104(s0)
	mv	a0, s1
	mv	a2, s2
	mv	a3, s3
	mv	a4, s4
	call	_ZNSt6vectorIZN12PhotonMapperC1ERKN8nlohmann10basic_jsonISt3mapS_NSt7__cxx1112basic_stringIcSt11char_traitsIcESaIcEEEblmdSaNS1_14adl_serializerEEEE12EmissionWorkSaISE_EE17_M_realloc_insertIJRmSI_SI_RN3glm3vecILi3EdLNSJ_9qualifierE0EEEEEEvN9__gnu_cxx17__normal_iteratorIPSE_SG_EEDpOT_
	j	.LBB29_3
.LBB29_3:                               # %if.end
	mv	a0, s1
	call	_ZNSt6vectorIZN12PhotonMapperC1ERKN8nlohmann10basic_jsonISt3mapS_NSt7__cxx1112basic_stringIcSt11char_traitsIcESaIcEEEblmdSaNS1_14adl_serializerEEEE12EmissionWorkSaISE_EE4backEv
	ld	s5, 56(sp)
	ld	s4, 64(sp)
	ld	s3, 72(sp)
	ld	s2, 80(sp)
	ld	s1, 88(sp)
	ld	s0, 96(sp)
	.cfi_def_cfa sp, 112
	ld	ra, 104(sp)
	.cfi_restore ra
	.cfi_restore s0
	.cfi_restore s1
	.cfi_restore s2
	.cfi_restore s3
	.cfi_restore s4
	.cfi_restore s5
	addi	sp, sp, 112
	.cfi_def_cfa_offset 0
	ret
.Lfunc_end29:
	.size	_ZNSt6vectorIZN12PhotonMapperC1ERKN8nlohmann10basic_jsonISt3mapS_NSt7__cxx1112basic_stringIcSt11char_traitsIcESaIcEEEblmdSaNS1_14adl_serializerEEEE12EmissionWorkSaISE_EE12emplace_backIJRmSI_SI_RN3glm3vecILi3EdLNSJ_9qualifierE0EEEEEERSE_DpOT_, .Lfunc_end29-_ZNSt6vectorIZN12PhotonMapperC1ERKN8nlohmann10basic_jsonISt3mapS_NSt7__cxx1112basic_stringIcSt11char_traitsIcESaIcEEEblmdSaNS1_14adl_serializerEEEE12EmissionWorkSaISE_EE12emplace_backIJRmSI_SI_RN3glm3vecILi3EdLNSJ_9qualifierE0EEEEEERSE_DpOT_
	.cfi_endproc
                                        # -- End function
	.section	.text._ZNSt10shared_ptrIN7Surface4BaseEED2Ev,"axG",@progbits,_ZNSt10shared_ptrIN7Surface4BaseEED2Ev,comdat
	.weak	_ZNSt10shared_ptrIN7Surface4BaseEED2Ev # -- Begin function _ZNSt10shared_ptrIN7Surface4BaseEED2Ev
	.p2align	2
	.type	_ZNSt10shared_ptrIN7Surface4BaseEED2Ev,@function
_ZNSt10shared_ptrIN7Surface4BaseEED2Ev: # @_ZNSt10shared_ptrIN7Surface4BaseEED2Ev
# %bb.0:                                # %entry
	addi	sp, sp, -32
	sd	ra, 24(sp)
	sd	s0, 16(sp)
	addi	s0, sp, 32
	sd	a0, -24(s0)
	ld	a0, -24(s0)
	call	_ZNSt12__shared_ptrIN7Surface4BaseELN9__gnu_cxx12_Lock_policyE0EED2Ev
	ld	s0, 16(sp)
	ld	ra, 24(sp)
	addi	sp, sp, 32
	ret
.Lfunc_end30:
	.size	_ZNSt10shared_ptrIN7Surface4BaseEED2Ev, .Lfunc_end30-_ZNSt10shared_ptrIN7Surface4BaseEED2Ev
                                        # -- End function
	.text
	.p2align	2               # -- Begin function _ZSt7shuffleIN9__gnu_cxx17__normal_iteratorIPZN12PhotonMapperC1ERKN8nlohmann10basic_jsonISt3mapSt6vectorNSt7__cxx1112basic_stringIcSt11char_traitsIcESaIcEEEblmdSaNS3_14adl_serializerEEEE12EmissionWorkS6_ISH_SaISH_EEEERSt23mersenne_twister_engineImLm64ELm312ELm156ELm31ELm13043109905998158313ELm29ELm6148914691236517205ELm17ELm8202884508482404352ELm37ELm18444473444759240704ELm43ELm6364136223846793005EEEvT_SP_OT0_
	.type	_ZSt7shuffleIN9__gnu_cxx17__normal_iteratorIPZN12PhotonMapperC1ERKN8nlohmann10basic_jsonISt3mapSt6vectorNSt7__cxx1112basic_stringIcSt11char_traitsIcESaIcEEEblmdSaNS3_14adl_serializerEEEE12EmissionWorkS6_ISH_SaISH_EEEERSt23mersenne_twister_engineImLm64ELm312ELm156ELm31ELm13043109905998158313ELm29ELm6148914691236517205ELm17ELm8202884508482404352ELm37ELm18444473444759240704ELm43ELm6364136223846793005EEEvT_SP_OT0_,@function
_ZSt7shuffleIN9__gnu_cxx17__normal_iteratorIPZN12PhotonMapperC1ERKN8nlohmann10basic_jsonISt3mapSt6vectorNSt7__cxx1112basic_stringIcSt11char_traitsIcESaIcEEEblmdSaNS3_14adl_serializerEEEE12EmissionWorkS6_ISH_SaISH_EEEERSt23mersenne_twister_engineImLm64ELm312ELm156ELm31ELm13043109905998158313ELm29ELm6148914691236517205ELm17ELm8202884508482404352ELm37ELm18444473444759240704ELm43ELm6364136223846793005EEEvT_SP_OT0_: # @_ZSt7shuffleIN9__gnu_cxx17__normal_iteratorIPZN12PhotonMapperC1ERKN8nlohmann10basic_jsonISt3mapSt6vectorNSt7__cxx1112basic_stringIcSt11char_traitsIcESaIcEEEblmdSaNS3_14adl_serializerEEEE12EmissionWorkS6_ISH_SaISH_EEEERSt23mersenne_twister_engineImLm64ELm312ELm156ELm31ELm13043109905998158313ELm29ELm6148914691236517205ELm17ELm8202884508482404352ELm37ELm18444473444759240704ELm43ELm6364136223846793005EEEvT_SP_OT0_
	.cfi_startproc
# %bb.0:                                # %entry
	addi	sp, sp, -240
	.cfi_def_cfa_offset 240
	sd	ra, 232(sp)
	sd	s0, 224(sp)
	sd	s1, 216(sp)
	sd	s2, 208(sp)
	sd	s3, 200(sp)
	.cfi_offset ra, -8
	.cfi_offset s0, -16
	.cfi_offset s1, -24
	.cfi_offset s2, -32
	.cfi_offset s3, -40
	addi	s0, sp, 240
	.cfi_def_cfa s0, 0
	sd	a0, -48(s0)
	sd	a1, -56(s0)
	sd	a2, -64(s0)
	addi	a0, s0, -48
	addi	a1, s0, -56
	call	_ZN9__gnu_cxxeqIPZN12PhotonMapperC1ERKN8nlohmann10basic_jsonISt3mapSt6vectorNSt7__cxx1112basic_stringIcSt11char_traitsIcESaIcEEEblmdSaNS2_14adl_serializerEEEE12EmissionWorkS5_ISG_SaISG_EEEEbRKNS_17__normal_iteratorIT_T0_EESP_
	beqz	a0, .LBB31_2
	j	.LBB31_1
.LBB31_1:                               # %if.then
	j	.LBB31_14
.LBB31_2:                               # %if.end
	call	_ZNSt23mersenne_twister_engineImLm64ELm312ELm156ELm31ELm13043109905998158313ELm29ELm6148914691236517205ELm17ELm8202884508482404352ELm37ELm18444473444759240704ELm43ELm6364136223846793005EE3maxEv
	mv	s1, a0
	call	_ZNSt23mersenne_twister_engineImLm64ELm312ELm156ELm31ELm13043109905998158313ELm29ELm6148914691236517205ELm17ELm8202884508482404352ELm37ELm18444473444759240704ELm43ELm6364136223846793005EE3minEv
	sub	a0, s1, a0
	sd	a0, -72(s0)
	addi	a0, s0, -56
	addi	a1, s0, -48
	call	_ZN9__gnu_cxxmiIPZN12PhotonMapperC1ERKN8nlohmann10basic_jsonISt3mapSt6vectorNSt7__cxx1112basic_stringIcSt11char_traitsIcESaIcEEEblmdSaNS2_14adl_serializerEEEE12EmissionWorkS5_ISG_SaISG_EEEENS_17__normal_iteratorIT_T0_E15difference_typeERKSN_SQ_
	sd	a0, -80(s0)
	ld	a0, -72(s0)
	ld	a1, -80(s0)
	divu	a0, a0, a1
	bltu	a0, a1, .LBB31_9
	j	.LBB31_3
.LBB31_3:                               # %if.then6
	addi	a0, s0, -48
	addi	a1, zero, 1
	call	_ZNK9__gnu_cxx17__normal_iteratorIPZN12PhotonMapperC1ERKN8nlohmann10basic_jsonISt3mapSt6vectorNSt7__cxx1112basic_stringIcSt11char_traitsIcESaIcEEEblmdSaNS2_14adl_serializerEEEE12EmissionWorkS5_ISG_SaISG_EEEplEl
	sd	a0, -88(s0)
	lbu	a0, -80(s0)
	andi	a0, a0, 1
	bnez	a0, .LBB31_5
	j	.LBB31_4
.LBB31_4:                               # %if.then11
	addi	s1, s0, -104
	mv	a0, s1
	mv	a1, zero
	addi	a2, zero, 1
	call	_ZNSt24uniform_int_distributionImEC2Emm
	addi	a0, s0, -88
	mv	a1, zero
	call	_ZN9__gnu_cxx17__normal_iteratorIPZN12PhotonMapperC1ERKN8nlohmann10basic_jsonISt3mapSt6vectorNSt7__cxx1112basic_stringIcSt11char_traitsIcESaIcEEEblmdSaNS2_14adl_serializerEEEE12EmissionWorkS5_ISG_SaISG_EEEppEi
	sd	a0, -112(s0)
	ld	a1, -64(s0)
	mv	a0, s1
	call	_ZNSt24uniform_int_distributionImEclISt23mersenne_twister_engineImLm64ELm312ELm156ELm31ELm13043109905998158313ELm29ELm6148914691236517205ELm17ELm8202884508482404352ELm37ELm18444473444759240704ELm43ELm6364136223846793005EEEEmRT_
	mv	a1, a0
	addi	a0, s0, -48
	call	_ZNK9__gnu_cxx17__normal_iteratorIPZN12PhotonMapperC1ERKN8nlohmann10basic_jsonISt3mapSt6vectorNSt7__cxx1112basic_stringIcSt11char_traitsIcESaIcEEEblmdSaNS2_14adl_serializerEEEE12EmissionWorkS5_ISG_SaISG_EEEplEl
	sd	a0, -120(s0)
	ld	a0, -112(s0)
	ld	a1, -120(s0)
	call	_ZSt9iter_swapIN9__gnu_cxx17__normal_iteratorIPZN12PhotonMapperC1ERKN8nlohmann10basic_jsonISt3mapSt6vectorNSt7__cxx1112basic_stringIcSt11char_traitsIcESaIcEEEblmdSaNS3_14adl_serializerEEEE12EmissionWorkS6_ISH_SaISH_EEEESL_EvT_T0_
	j	.LBB31_5
.LBB31_5:                               # %if.end23
	j	.LBB31_6
.LBB31_6:                               # %while.cond
                                        # =>This Inner Loop Header: Depth=1
	addi	a0, s0, -88
	addi	a1, s0, -56
	call	_ZN9__gnu_cxxneIPZN12PhotonMapperC1ERKN8nlohmann10basic_jsonISt3mapSt6vectorNSt7__cxx1112basic_stringIcSt11char_traitsIcESaIcEEEblmdSaNS2_14adl_serializerEEEE12EmissionWorkS5_ISG_SaISG_EEEEbRKNS_17__normal_iteratorIT_T0_EESP_
	beqz	a0, .LBB31_8
	j	.LBB31_7
.LBB31_7:                               # %while.body
                                        #   in Loop: Header=BB31_6 Depth=1
	addi	s1, s0, -88
	addi	s2, s0, -48
	mv	a0, s1
	mv	a1, s2
	call	_ZN9__gnu_cxxmiIPZN12PhotonMapperC1ERKN8nlohmann10basic_jsonISt3mapSt6vectorNSt7__cxx1112basic_stringIcSt11char_traitsIcESaIcEEEblmdSaNS2_14adl_serializerEEEE12EmissionWorkS5_ISG_SaISG_EEEENS_17__normal_iteratorIT_T0_E15difference_typeERKSN_SQ_
	addi	a0, a0, 1
	sd	a0, -128(s0)
	ld	a0, -128(s0)
	addi	a1, a0, 1
	ld	a2, -64(s0)
	call	_ZSt22__gen_two_uniform_intsImRSt23mersenne_twister_engineImLm64ELm312ELm156ELm31ELm13043109905998158313ELm29ELm6148914691236517205ELm17ELm8202884508482404352ELm37ELm18444473444759240704ELm43ELm6364136223846793005EEESt4pairIT_S4_ES4_S4_OT0_
	sd	a1, -136(s0)
	sd	a0, -144(s0)
	mv	a0, s1
	mv	a1, zero
	call	_ZN9__gnu_cxx17__normal_iteratorIPZN12PhotonMapperC1ERKN8nlohmann10basic_jsonISt3mapSt6vectorNSt7__cxx1112basic_stringIcSt11char_traitsIcESaIcEEEblmdSaNS2_14adl_serializerEEEE12EmissionWorkS5_ISG_SaISG_EEEppEi
	sd	a0, -152(s0)
	ld	a1, -144(s0)
	mv	a0, s2
	call	_ZNK9__gnu_cxx17__normal_iteratorIPZN12PhotonMapperC1ERKN8nlohmann10basic_jsonISt3mapSt6vectorNSt7__cxx1112basic_stringIcSt11char_traitsIcESaIcEEEblmdSaNS2_14adl_serializerEEEE12EmissionWorkS5_ISG_SaISG_EEEplEl
	sd	a0, -160(s0)
	ld	a0, -152(s0)
	ld	a1, -160(s0)
	call	_ZSt9iter_swapIN9__gnu_cxx17__normal_iteratorIPZN12PhotonMapperC1ERKN8nlohmann10basic_jsonISt3mapSt6vectorNSt7__cxx1112basic_stringIcSt11char_traitsIcESaIcEEEblmdSaNS3_14adl_serializerEEEE12EmissionWorkS6_ISH_SaISH_EEEESL_EvT_T0_
	mv	a0, s1
	mv	a1, zero
	call	_ZN9__gnu_cxx17__normal_iteratorIPZN12PhotonMapperC1ERKN8nlohmann10basic_jsonISt3mapSt6vectorNSt7__cxx1112basic_stringIcSt11char_traitsIcESaIcEEEblmdSaNS2_14adl_serializerEEEE12EmissionWorkS5_ISG_SaISG_EEEppEi
	sd	a0, -168(s0)
	ld	a1, -136(s0)
	mv	a0, s2
	call	_ZNK9__gnu_cxx17__normal_iteratorIPZN12PhotonMapperC1ERKN8nlohmann10basic_jsonISt3mapSt6vectorNSt7__cxx1112basic_stringIcSt11char_traitsIcESaIcEEEblmdSaNS2_14adl_serializerEEEE12EmissionWorkS5_ISG_SaISG_EEEplEl
	sd	a0, -176(s0)
	ld	a0, -168(s0)
	ld	a1, -176(s0)
	call	_ZSt9iter_swapIN9__gnu_cxx17__normal_iteratorIPZN12PhotonMapperC1ERKN8nlohmann10basic_jsonISt3mapSt6vectorNSt7__cxx1112basic_stringIcSt11char_traitsIcESaIcEEEblmdSaNS3_14adl_serializerEEEE12EmissionWorkS6_ISH_SaISH_EEEESL_EvT_T0_
	j	.LBB31_6
.LBB31_8:                               # %while.end
	j	.LBB31_14
.LBB31_9:                               # %if.end52
	addi	a0, s0, -192
	call	_ZNSt24uniform_int_distributionImEC2Ev
	addi	a0, s0, -48
	addi	a1, zero, 1
	call	_ZNK9__gnu_cxx17__normal_iteratorIPZN12PhotonMapperC1ERKN8nlohmann10basic_jsonISt3mapSt6vectorNSt7__cxx1112basic_stringIcSt11char_traitsIcESaIcEEEblmdSaNS2_14adl_serializerEEEE12EmissionWorkS5_ISG_SaISG_EEEplEl
	sd	a0, -200(s0)
	j	.LBB31_10
.LBB31_10:                              # %for.cond
                                        # =>This Inner Loop Header: Depth=1
	addi	a0, s0, -200
	addi	a1, s0, -56
	call	_ZN9__gnu_cxxneIPZN12PhotonMapperC1ERKN8nlohmann10basic_jsonISt3mapSt6vectorNSt7__cxx1112basic_stringIcSt11char_traitsIcESaIcEEEblmdSaNS2_14adl_serializerEEEE12EmissionWorkS5_ISG_SaISG_EEEEbRKNS_17__normal_iteratorIT_T0_EESP_
	beqz	a0, .LBB31_13
	j	.LBB31_11
.LBB31_11:                              # %for.body
                                        #   in Loop: Header=BB31_10 Depth=1
	ld	a0, -200(s0)
	sd	a0, -208(s0)
	ld	s1, -64(s0)
	addi	a0, s0, -200
	addi	s2, s0, -48
	mv	a1, s2
	call	_ZN9__gnu_cxxmiIPZN12PhotonMapperC1ERKN8nlohmann10basic_jsonISt3mapSt6vectorNSt7__cxx1112basic_stringIcSt11char_traitsIcESaIcEEEblmdSaNS2_14adl_serializerEEEE12EmissionWorkS5_ISG_SaISG_EEEENS_17__normal_iteratorIT_T0_E15difference_typeERKSN_SQ_
	mv	a2, a0
	addi	s3, s0, -232
	mv	a0, s3
	mv	a1, zero
	call	_ZNSt24uniform_int_distributionImE10param_typeC2Emm
	addi	a0, s0, -192
	mv	a1, s1
	mv	a2, s3
	call	_ZNSt24uniform_int_distributionImEclISt23mersenne_twister_engineImLm64ELm312ELm156ELm31ELm13043109905998158313ELm29ELm6148914691236517205ELm17ELm8202884508482404352ELm37ELm18444473444759240704ELm43ELm6364136223846793005EEEEmRT_RKNS0_10param_typeE
	mv	a1, a0
	mv	a0, s2
	call	_ZNK9__gnu_cxx17__normal_iteratorIPZN12PhotonMapperC1ERKN8nlohmann10basic_jsonISt3mapSt6vectorNSt7__cxx1112basic_stringIcSt11char_traitsIcESaIcEEEblmdSaNS2_14adl_serializerEEEE12EmissionWorkS5_ISG_SaISG_EEEplEl
	sd	a0, -216(s0)
	ld	a0, -208(s0)
	ld	a1, -216(s0)
	call	_ZSt9iter_swapIN9__gnu_cxx17__normal_iteratorIPZN12PhotonMapperC1ERKN8nlohmann10basic_jsonISt3mapSt6vectorNSt7__cxx1112basic_stringIcSt11char_traitsIcESaIcEEEblmdSaNS3_14adl_serializerEEEE12EmissionWorkS6_ISH_SaISH_EEEESL_EvT_T0_
	j	.LBB31_12
.LBB31_12:                              # %for.inc
                                        #   in Loop: Header=BB31_10 Depth=1
	addi	a0, s0, -200
	call	_ZN9__gnu_cxx17__normal_iteratorIPZN12PhotonMapperC1ERKN8nlohmann10basic_jsonISt3mapSt6vectorNSt7__cxx1112basic_stringIcSt11char_traitsIcESaIcEEEblmdSaNS2_14adl_serializerEEEE12EmissionWorkS5_ISG_SaISG_EEEppEv
	j	.LBB31_10
.LBB31_13:                              # %for.end.loopexit
	j	.LBB31_14
.LBB31_14:                              # %for.end
	ld	s3, 200(sp)
	ld	s2, 208(sp)
	ld	s1, 216(sp)
	ld	s0, 224(sp)
	.cfi_def_cfa sp, 240
	ld	ra, 232(sp)
	.cfi_restore ra
	.cfi_restore s0
	.cfi_restore s1
	.cfi_restore s2
	.cfi_restore s3
	addi	sp, sp, 240
	.cfi_def_cfa_offset 0
	ret
.Lfunc_end31:
	.size	_ZSt7shuffleIN9__gnu_cxx17__normal_iteratorIPZN12PhotonMapperC1ERKN8nlohmann10basic_jsonISt3mapSt6vectorNSt7__cxx1112basic_stringIcSt11char_traitsIcESaIcEEEblmdSaNS3_14adl_serializerEEEE12EmissionWorkS6_ISH_SaISH_EEEERSt23mersenne_twister_engineImLm64ELm312ELm156ELm31ELm13043109905998158313ELm29ELm6148914691236517205ELm17ELm8202884508482404352ELm37ELm18444473444759240704ELm43ELm6364136223846793005EEEvT_SP_OT0_, .Lfunc_end31-_ZSt7shuffleIN9__gnu_cxx17__normal_iteratorIPZN12PhotonMapperC1ERKN8nlohmann10basic_jsonISt3mapSt6vectorNSt7__cxx1112basic_stringIcSt11char_traitsIcESaIcEEEblmdSaNS3_14adl_serializerEEEE12EmissionWorkS6_ISH_SaISH_EEEERSt23mersenne_twister_engineImLm64ELm312ELm156ELm31ELm13043109905998158313ELm29ELm6148914691236517205ELm17ELm8202884508482404352ELm37ELm18444473444759240704ELm43ELm6364136223846793005EEEvT_SP_OT0_
	.cfi_endproc
                                        # -- End function
	.p2align	2               # -- Begin function _ZNSt6vectorIZN12PhotonMapperC1ERKN8nlohmann10basic_jsonISt3mapS_NSt7__cxx1112basic_stringIcSt11char_traitsIcESaIcEEEblmdSaNS1_14adl_serializerEEEE12EmissionWorkSaISE_EE5beginEv
	.type	_ZNSt6vectorIZN12PhotonMapperC1ERKN8nlohmann10basic_jsonISt3mapS_NSt7__cxx1112basic_stringIcSt11char_traitsIcESaIcEEEblmdSaNS1_14adl_serializerEEEE12EmissionWorkSaISE_EE5beginEv,@function
_ZNSt6vectorIZN12PhotonMapperC1ERKN8nlohmann10basic_jsonISt3mapS_NSt7__cxx1112basic_stringIcSt11char_traitsIcESaIcEEEblmdSaNS1_14adl_serializerEEEE12EmissionWorkSaISE_EE5beginEv: # @_ZNSt6vectorIZN12PhotonMapperC1ERKN8nlohmann10basic_jsonISt3mapS_NSt7__cxx1112basic_stringIcSt11char_traitsIcESaIcEEEblmdSaNS1_14adl_serializerEEEE12EmissionWorkSaISE_EE5beginEv
# %bb.0:                                # %entry
	addi	sp, sp, -32
	sd	ra, 24(sp)
	sd	s0, 16(sp)
	addi	s0, sp, 32
	sd	a0, -32(s0)
	ld	a1, -32(s0)
	addi	a0, s0, -24
	call	_ZN9__gnu_cxx17__normal_iteratorIPZN12PhotonMapperC1ERKN8nlohmann10basic_jsonISt3mapSt6vectorNSt7__cxx1112basic_stringIcSt11char_traitsIcESaIcEEEblmdSaNS2_14adl_serializerEEEE12EmissionWorkS5_ISG_SaISG_EEEC2ERKSH_
	ld	a0, -24(s0)
	ld	s0, 16(sp)
	ld	ra, 24(sp)
	addi	sp, sp, 32
	ret
.Lfunc_end32:
	.size	_ZNSt6vectorIZN12PhotonMapperC1ERKN8nlohmann10basic_jsonISt3mapS_NSt7__cxx1112basic_stringIcSt11char_traitsIcESaIcEEEblmdSaNS1_14adl_serializerEEEE12EmissionWorkSaISE_EE5beginEv, .Lfunc_end32-_ZNSt6vectorIZN12PhotonMapperC1ERKN8nlohmann10basic_jsonISt3mapS_NSt7__cxx1112basic_stringIcSt11char_traitsIcESaIcEEEblmdSaNS1_14adl_serializerEEEE12EmissionWorkSaISE_EE5beginEv
                                        # -- End function
	.p2align	2               # -- Begin function _ZNSt6vectorIZN12PhotonMapperC1ERKN8nlohmann10basic_jsonISt3mapS_NSt7__cxx1112basic_stringIcSt11char_traitsIcESaIcEEEblmdSaNS1_14adl_serializerEEEE12EmissionWorkSaISE_EE3endEv
	.type	_ZNSt6vectorIZN12PhotonMapperC1ERKN8nlohmann10basic_jsonISt3mapS_NSt7__cxx1112basic_stringIcSt11char_traitsIcESaIcEEEblmdSaNS1_14adl_serializerEEEE12EmissionWorkSaISE_EE3endEv,@function
_ZNSt6vectorIZN12PhotonMapperC1ERKN8nlohmann10basic_jsonISt3mapS_NSt7__cxx1112basic_stringIcSt11char_traitsIcESaIcEEEblmdSaNS1_14adl_serializerEEEE12EmissionWorkSaISE_EE3endEv: # @_ZNSt6vectorIZN12PhotonMapperC1ERKN8nlohmann10basic_jsonISt3mapS_NSt7__cxx1112basic_stringIcSt11char_traitsIcESaIcEEEblmdSaNS1_14adl_serializerEEEE12EmissionWorkSaISE_EE3endEv
# %bb.0:                                # %entry
	addi	sp, sp, -32
	sd	ra, 24(sp)
	sd	s0, 16(sp)
	addi	s0, sp, 32
	sd	a0, -32(s0)
	ld	a0, -32(s0)
	addi	a1, a0, 8
	addi	a0, s0, -24
	call	_ZN9__gnu_cxx17__normal_iteratorIPZN12PhotonMapperC1ERKN8nlohmann10basic_jsonISt3mapSt6vectorNSt7__cxx1112basic_stringIcSt11char_traitsIcESaIcEEEblmdSaNS2_14adl_serializerEEEE12EmissionWorkS5_ISG_SaISG_EEEC2ERKSH_
	ld	a0, -24(s0)
	ld	s0, 16(sp)
	ld	ra, 24(sp)
	addi	sp, sp, 32
	ret
.Lfunc_end33:
	.size	_ZNSt6vectorIZN12PhotonMapperC1ERKN8nlohmann10basic_jsonISt3mapS_NSt7__cxx1112basic_stringIcSt11char_traitsIcESaIcEEEblmdSaNS1_14adl_serializerEEEE12EmissionWorkSaISE_EE3endEv, .Lfunc_end33-_ZNSt6vectorIZN12PhotonMapperC1ERKN8nlohmann10basic_jsonISt3mapS_NSt7__cxx1112basic_stringIcSt11char_traitsIcESaIcEEEblmdSaNS1_14adl_serializerEEEE12EmissionWorkSaISE_EE3endEv
                                        # -- End function
	.hidden	_ZTWN6Random6engineE    # -- Begin function _ZTWN6Random6engineE
	.weak	_ZTWN6Random6engineE
	.p2align	2
	.type	_ZTWN6Random6engineE,@function
_ZTWN6Random6engineE:                   # @_ZTWN6Random6engineE
	.cfi_startproc
# %bb.0:
	addi	sp, sp, -16
	.cfi_def_cfa_offset 16
	sd	ra, 8(sp)
	sd	s0, 0(sp)
	.cfi_offset ra, -8
	.cfi_offset s0, -16
	addi	s0, sp, 16
	.cfi_def_cfa s0, 0
	call	_ZTHN6Random6engineE
	lui	a0, %tprel_hi(_ZN6Random6engineE)
	add	a0, a0, tp, %tprel_add(_ZN6Random6engineE)
	addi	a0, a0, %tprel_lo(_ZN6Random6engineE)
	ld	s0, 0(sp)
	.cfi_def_cfa sp, 16
	ld	ra, 8(sp)
	.cfi_restore ra
	.cfi_restore s0
	addi	sp, sp, 16
	.cfi_def_cfa_offset 0
	ret
.Lfunc_end34:
	.size	_ZTWN6Random6engineE, .Lfunc_end34-_ZTWN6Random6engineE
	.cfi_endproc
                                        # -- End function
	.p2align	2               # -- Begin function _ZNSt6vectorIZN12PhotonMapperC1ERKN8nlohmann10basic_jsonISt3mapS_NSt7__cxx1112basic_stringIcSt11char_traitsIcESaIcEEEblmdSaNS1_14adl_serializerEEEE12EmissionWorkSaISE_EEC2ERKSG_
	.type	_ZNSt6vectorIZN12PhotonMapperC1ERKN8nlohmann10basic_jsonISt3mapS_NSt7__cxx1112basic_stringIcSt11char_traitsIcESaIcEEEblmdSaNS1_14adl_serializerEEEE12EmissionWorkSaISE_EEC2ERKSG_,@function
_ZNSt6vectorIZN12PhotonMapperC1ERKN8nlohmann10basic_jsonISt3mapS_NSt7__cxx1112basic_stringIcSt11char_traitsIcESaIcEEEblmdSaNS1_14adl_serializerEEEE12EmissionWorkSaISE_EEC2ERKSG_: # @_ZNSt6vectorIZN12PhotonMapperC1ERKN8nlohmann10basic_jsonISt3mapS_NSt7__cxx1112basic_stringIcSt11char_traitsIcESaIcEEEblmdSaNS1_14adl_serializerEEEE12EmissionWorkSaISE_EEC2ERKSG_
.Lfunc_begin5:
	.cfi_startproc
	.cfi_personality 155, DW.ref.__gxx_personality_v0
	.cfi_lsda 27, .Lexception5
# %bb.0:                                # %entry
	addi	sp, sp, -96
	.cfi_def_cfa_offset 96
	sd	ra, 88(sp)
	sd	s0, 80(sp)
	sd	s1, 72(sp)
	sd	s2, 64(sp)
	sd	s3, 56(sp)
	.cfi_offset ra, -8
	.cfi_offset s0, -16
	.cfi_offset s1, -24
	.cfi_offset s2, -32
	.cfi_offset s3, -40
	addi	s0, sp, 96
	.cfi_def_cfa s0, 0
	sd	a0, -48(s0)
	sd	a1, -56(s0)
	ld	s2, -48(s0)
	ld	a0, -56(s0)
	call	_ZNKSt6vectorIZN12PhotonMapperC1ERKN8nlohmann10basic_jsonISt3mapS_NSt7__cxx1112basic_stringIcSt11char_traitsIcESaIcEEEblmdSaNS1_14adl_serializerEEEE12EmissionWorkSaISE_EE4sizeEv
	mv	s1, a0
	ld	a0, -56(s0)
	call	_ZNKSt12_Vector_baseIZN12PhotonMapperC1ERKN8nlohmann10basic_jsonISt3mapSt6vectorNSt7__cxx1112basic_stringIcSt11char_traitsIcESaIcEEEblmdSaNS1_14adl_serializerEEEE12EmissionWorkSaISF_EE19_M_get_Tp_allocatorEv
	mv	a1, a0
	addi	s3, s0, -64
	mv	a0, s3
	call	_ZN9__gnu_cxx14__alloc_traitsISaIZN12PhotonMapperC1ERKN8nlohmann10basic_jsonISt3mapSt6vectorNSt7__cxx1112basic_stringIcSt11char_traitsIcESaIcEEEblmdSaNS2_14adl_serializerEEEE12EmissionWorkESG_E17_S_select_on_copyERKSH_
.Ltmp181:
	mv	a0, s2
	mv	a1, s1
	mv	a2, s3
	call	_ZNSt12_Vector_baseIZN12PhotonMapperC1ERKN8nlohmann10basic_jsonISt3mapSt6vectorNSt7__cxx1112basic_stringIcSt11char_traitsIcESaIcEEEblmdSaNS1_14adl_serializerEEEE12EmissionWorkSaISF_EEC2EmRKSG_
.Ltmp182:
	j	.LBB35_1
.LBB35_1:                               # %invoke.cont
	addi	a0, s0, -64
	call	_ZNSaIZN12PhotonMapperC1ERKN8nlohmann10basic_jsonISt3mapSt6vectorNSt7__cxx1112basic_stringIcSt11char_traitsIcESaIcEEEblmdSaNS0_14adl_serializerEEEE12EmissionWorkED2Ev
	ld	a0, -56(s0)
	call	_ZNKSt6vectorIZN12PhotonMapperC1ERKN8nlohmann10basic_jsonISt3mapS_NSt7__cxx1112basic_stringIcSt11char_traitsIcESaIcEEEblmdSaNS1_14adl_serializerEEEE12EmissionWorkSaISE_EE5beginEv
	sd	a0, -88(s0)
	ld	a0, -56(s0)
	call	_ZNKSt6vectorIZN12PhotonMapperC1ERKN8nlohmann10basic_jsonISt3mapS_NSt7__cxx1112basic_stringIcSt11char_traitsIcESaIcEEEblmdSaNS1_14adl_serializerEEEE12EmissionWorkSaISE_EE3endEv
	sd	a0, -96(s0)
	ld	s1, 0(s2)
	mv	a0, s2
	call	_ZNSt12_Vector_baseIZN12PhotonMapperC1ERKN8nlohmann10basic_jsonISt3mapSt6vectorNSt7__cxx1112basic_stringIcSt11char_traitsIcESaIcEEEblmdSaNS1_14adl_serializerEEEE12EmissionWorkSaISF_EE19_M_get_Tp_allocatorEv
	mv	a3, a0
	ld	a0, -88(s0)
	ld	a1, -96(s0)
.Ltmp184:
	mv	a2, s1
	call	_ZSt22__uninitialized_copy_aIN9__gnu_cxx17__normal_iteratorIPKZN12PhotonMapperC1ERKN8nlohmann10basic_jsonISt3mapSt6vectorNSt7__cxx1112basic_stringIcSt11char_traitsIcESaIcEEEblmdSaNS3_14adl_serializerEEEE12EmissionWorkS6_ISH_SaISH_EEEEPSH_SH_ET0_T_SP_SO_RSaIT1_E
.Ltmp185:
	j	.LBB35_2
.LBB35_2:                               # %invoke.cont13
	sd	a0, 8(s2)
	ld	s3, 56(sp)
	ld	s2, 64(sp)
	ld	s1, 72(sp)
	ld	s0, 80(sp)
	.cfi_def_cfa sp, 96
	ld	ra, 88(sp)
	.cfi_restore ra
	.cfi_restore s0
	.cfi_restore s1
	.cfi_restore s2
	.cfi_restore s3
	addi	sp, sp, 96
	.cfi_def_cfa_offset 0
	ret
.LBB35_3:                               # %lpad
.Ltmp183:
	sd	a0, -72(s0)
	sw	a1, -76(s0)
	addi	a0, s0, -64
	call	_ZNSaIZN12PhotonMapperC1ERKN8nlohmann10basic_jsonISt3mapSt6vectorNSt7__cxx1112basic_stringIcSt11char_traitsIcESaIcEEEblmdSaNS0_14adl_serializerEEEE12EmissionWorkED2Ev
	j	.LBB35_5
.LBB35_4:                               # %lpad12
.Ltmp186:
	sd	a0, -72(s0)
	sw	a1, -76(s0)
	mv	a0, s2
	call	_ZNSt12_Vector_baseIZN12PhotonMapperC1ERKN8nlohmann10basic_jsonISt3mapSt6vectorNSt7__cxx1112basic_stringIcSt11char_traitsIcESaIcEEEblmdSaNS1_14adl_serializerEEEE12EmissionWorkSaISF_EED2Ev
	j	.LBB35_5
.LBB35_5:                               # %eh.resume
	ld	a0, -72(s0)
	call	_Unwind_Resume
.Lfunc_end35:
	.size	_ZNSt6vectorIZN12PhotonMapperC1ERKN8nlohmann10basic_jsonISt3mapS_NSt7__cxx1112basic_stringIcSt11char_traitsIcESaIcEEEblmdSaNS1_14adl_serializerEEEE12EmissionWorkSaISE_EEC2ERKSG_, .Lfunc_end35-_ZNSt6vectorIZN12PhotonMapperC1ERKN8nlohmann10basic_jsonISt3mapS_NSt7__cxx1112basic_stringIcSt11char_traitsIcESaIcEEEblmdSaNS1_14adl_serializerEEEE12EmissionWorkSaISE_EEC2ERKSG_
	.cfi_endproc
	.section	.gcc_except_table,"a",@progbits
	.p2align	2
GCC_except_table35:
.Lexception5:
	.byte	255                     # @LPStart Encoding = omit
	.byte	255                     # @TType Encoding = omit
	.byte	3                       # Call site Encoding = udata4
	.uleb128 .Lcst_end5-.Lcst_begin5
.Lcst_begin5:
	.word	.Lfunc_begin5-.Lfunc_begin5 # >> Call Site 1 <<
	.word	.Ltmp181-.Lfunc_begin5  #   Call between .Lfunc_begin5 and .Ltmp181
	.word	0                       #     has no landing pad
	.byte	0                       #   On action: cleanup
	.word	.Ltmp181-.Lfunc_begin5  # >> Call Site 2 <<
	.word	.Ltmp182-.Ltmp181       #   Call between .Ltmp181 and .Ltmp182
	.word	.Ltmp183-.Lfunc_begin5  #     jumps to .Ltmp183
	.byte	0                       #   On action: cleanup
	.word	.Ltmp184-.Lfunc_begin5  # >> Call Site 3 <<
	.word	.Ltmp185-.Ltmp184       #   Call between .Ltmp184 and .Ltmp185
	.word	.Ltmp186-.Lfunc_begin5  #     jumps to .Ltmp186
	.byte	0                       #   On action: cleanup
	.word	.Ltmp185-.Lfunc_begin5  # >> Call Site 4 <<
	.word	.Lfunc_end35-.Ltmp185   #   Call between .Ltmp185 and .Lfunc_end35
	.word	0                       #     has no landing pad
	.byte	0                       #   On action: cleanup
.Lcst_end5:
	.p2align	2
                                        # -- End function
	.text
	.p2align	2               # -- Begin function _ZN9WorkQueueIZN12PhotonMapperC1ERKN8nlohmann10basic_jsonISt3mapSt6vectorNSt7__cxx1112basic_stringIcSt11char_traitsIcESaIcEEEblmdSaNS1_14adl_serializerEEEE12EmissionWorkEC2ES4_ISF_SaISF_EE
	.type	_ZN9WorkQueueIZN12PhotonMapperC1ERKN8nlohmann10basic_jsonISt3mapSt6vectorNSt7__cxx1112basic_stringIcSt11char_traitsIcESaIcEEEblmdSaNS1_14adl_serializerEEEE12EmissionWorkEC2ES4_ISF_SaISF_EE,@function
_ZN9WorkQueueIZN12PhotonMapperC1ERKN8nlohmann10basic_jsonISt3mapSt6vectorNSt7__cxx1112basic_stringIcSt11char_traitsIcESaIcEEEblmdSaNS1_14adl_serializerEEEE12EmissionWorkEC2ES4_ISF_SaISF_EE: # @_ZN9WorkQueueIZN12PhotonMapperC1ERKN8nlohmann10basic_jsonISt3mapSt6vectorNSt7__cxx1112basic_stringIcSt11char_traitsIcESaIcEEEblmdSaNS1_14adl_serializerEEEE12EmissionWorkEC2ES4_ISF_SaISF_EE
.Lfunc_begin6:
	.cfi_startproc
	.cfi_personality 155, DW.ref.__gxx_personality_v0
	.cfi_lsda 27, .Lexception6
# %bb.0:                                # %entry
	addi	sp, sp, -96
	.cfi_def_cfa_offset 96
	sd	ra, 88(sp)
	sd	s0, 80(sp)
	sd	s1, 72(sp)
	sd	s2, 64(sp)
	sd	s3, 56(sp)
	.cfi_offset ra, -8
	.cfi_offset s0, -16
	.cfi_offset s1, -24
	.cfi_offset s2, -32
	.cfi_offset s3, -40
	addi	s0, sp, 96
	.cfi_def_cfa s0, 0
	mv	s1, a1
	sd	a0, -48(s0)
	ld	s3, -48(s0)
	addi	s2, s3, 8
	mv	a0, s2
	call	_ZNSt5queueIZN12PhotonMapperC1ERKN8nlohmann10basic_jsonISt3mapSt6vectorNSt7__cxx1112basic_stringIcSt11char_traitsIcESaIcEEEblmdSaNS1_14adl_serializerEEEE12EmissionWorkSt5dequeISF_SaISF_EEEC2ISI_vEEv
	mv	a0, s1
	call	_ZNKSt6vectorIZN12PhotonMapperC1ERKN8nlohmann10basic_jsonISt3mapS_NSt7__cxx1112basic_stringIcSt11char_traitsIcESaIcEEEblmdSaNS1_14adl_serializerEEEE12EmissionWorkSaISE_EE4sizeEv
	sd	a0, 0(s3)
	sd	s1, -56(s0)
	ld	a0, -56(s0)
	call	_ZNKSt6vectorIZN12PhotonMapperC1ERKN8nlohmann10basic_jsonISt3mapS_NSt7__cxx1112basic_stringIcSt11char_traitsIcESaIcEEEblmdSaNS1_14adl_serializerEEEE12EmissionWorkSaISE_EE5beginEv
	sd	a0, -64(s0)
	ld	a0, -56(s0)
	call	_ZNKSt6vectorIZN12PhotonMapperC1ERKN8nlohmann10basic_jsonISt3mapS_NSt7__cxx1112basic_stringIcSt11char_traitsIcESaIcEEEblmdSaNS1_14adl_serializerEEEE12EmissionWorkSaISE_EE3endEv
	sd	a0, -72(s0)
	j	.LBB36_1
.LBB36_1:                               # %for.cond
                                        # =>This Inner Loop Header: Depth=1
	addi	a0, s0, -64
	addi	a1, s0, -72
	call	_ZN9__gnu_cxxneIPKZN12PhotonMapperC1ERKN8nlohmann10basic_jsonISt3mapSt6vectorNSt7__cxx1112basic_stringIcSt11char_traitsIcESaIcEEEblmdSaNS2_14adl_serializerEEEE12EmissionWorkS5_ISG_SaISG_EEEEbRKNS_17__normal_iteratorIT_T0_EESQ_
	beqz	a0, .LBB36_6
	j	.LBB36_2
.LBB36_2:                               # %for.body
                                        #   in Loop: Header=BB36_1 Depth=1
	addi	a0, s0, -64
	call	_ZNK9__gnu_cxx17__normal_iteratorIPKZN12PhotonMapperC1ERKN8nlohmann10basic_jsonISt3mapSt6vectorNSt7__cxx1112basic_stringIcSt11char_traitsIcESaIcEEEblmdSaNS2_14adl_serializerEEEE12EmissionWorkS5_ISG_SaISG_EEEdeEv
	sd	a0, -80(s0)
	addi	a0, s3, 8
	ld	a1, -80(s0)
.Ltmp187:
	call	_ZNSt5queueIZN12PhotonMapperC1ERKN8nlohmann10basic_jsonISt3mapSt6vectorNSt7__cxx1112basic_stringIcSt11char_traitsIcESaIcEEEblmdSaNS1_14adl_serializerEEEE12EmissionWorkSt5dequeISF_SaISF_EEE4pushERKSF_
.Ltmp188:
	j	.LBB36_3
.LBB36_3:                               # %invoke.cont
                                        #   in Loop: Header=BB36_1 Depth=1
	j	.LBB36_4
.LBB36_4:                               # %for.inc
                                        #   in Loop: Header=BB36_1 Depth=1
	addi	a0, s0, -64
	call	_ZN9__gnu_cxx17__normal_iteratorIPKZN12PhotonMapperC1ERKN8nlohmann10basic_jsonISt3mapSt6vectorNSt7__cxx1112basic_stringIcSt11char_traitsIcESaIcEEEblmdSaNS2_14adl_serializerEEEE12EmissionWorkS5_ISG_SaISG_EEEppEv
	j	.LBB36_1
.LBB36_5:                               # %lpad
.Ltmp189:
	sd	a0, -88(s0)
	sw	a1, -92(s0)
	mv	a0, s2
	call	_ZNSt5queueIZN12PhotonMapperC1ERKN8nlohmann10basic_jsonISt3mapSt6vectorNSt7__cxx1112basic_stringIcSt11char_traitsIcESaIcEEEblmdSaNS1_14adl_serializerEEEE12EmissionWorkSt5dequeISF_SaISF_EEED2Ev
	j	.LBB36_7
.LBB36_6:                               # %for.end
	ld	s3, 56(sp)
	ld	s2, 64(sp)
	ld	s1, 72(sp)
	ld	s0, 80(sp)
	.cfi_def_cfa sp, 96
	ld	ra, 88(sp)
	.cfi_restore ra
	.cfi_restore s0
	.cfi_restore s1
	.cfi_restore s2
	.cfi_restore s3
	addi	sp, sp, 96
	.cfi_def_cfa_offset 0
	ret
.LBB36_7:                               # %eh.resume
	ld	a0, -88(s0)
	call	_Unwind_Resume
.Lfunc_end36:
	.size	_ZN9WorkQueueIZN12PhotonMapperC1ERKN8nlohmann10basic_jsonISt3mapSt6vectorNSt7__cxx1112basic_stringIcSt11char_traitsIcESaIcEEEblmdSaNS1_14adl_serializerEEEE12EmissionWorkEC2ES4_ISF_SaISF_EE, .Lfunc_end36-_ZN9WorkQueueIZN12PhotonMapperC1ERKN8nlohmann10basic_jsonISt3mapSt6vectorNSt7__cxx1112basic_stringIcSt11char_traitsIcESaIcEEEblmdSaNS1_14adl_serializerEEEE12EmissionWorkEC2ES4_ISF_SaISF_EE
	.cfi_endproc
	.section	.gcc_except_table,"a",@progbits
	.p2align	2
GCC_except_table36:
.Lexception6:
	.byte	255                     # @LPStart Encoding = omit
	.byte	255                     # @TType Encoding = omit
	.byte	3                       # Call site Encoding = udata4
	.uleb128 .Lcst_end6-.Lcst_begin6
.Lcst_begin6:
	.word	.Lfunc_begin6-.Lfunc_begin6 # >> Call Site 1 <<
	.word	.Ltmp187-.Lfunc_begin6  #   Call between .Lfunc_begin6 and .Ltmp187
	.word	0                       #     has no landing pad
	.byte	0                       #   On action: cleanup
	.word	.Ltmp187-.Lfunc_begin6  # >> Call Site 2 <<
	.word	.Ltmp188-.Ltmp187       #   Call between .Ltmp187 and .Ltmp188
	.word	.Ltmp189-.Lfunc_begin6  #     jumps to .Ltmp189
	.byte	0                       #   On action: cleanup
	.word	.Ltmp188-.Lfunc_begin6  # >> Call Site 3 <<
	.word	.Lfunc_end36-.Ltmp188   #   Call between .Ltmp188 and .Lfunc_end36
	.word	0                       #     has no landing pad
	.byte	0                       #   On action: cleanup
.Lcst_end6:
	.p2align	2
                                        # -- End function
	.text
	.p2align	2               # -- Begin function _ZNSt6vectorIZN12PhotonMapperC1ERKN8nlohmann10basic_jsonISt3mapS_NSt7__cxx1112basic_stringIcSt11char_traitsIcESaIcEEEblmdSaNS1_14adl_serializerEEEE12EmissionWorkSaISE_EED2Ev
	.type	_ZNSt6vectorIZN12PhotonMapperC1ERKN8nlohmann10basic_jsonISt3mapS_NSt7__cxx1112basic_stringIcSt11char_traitsIcESaIcEEEblmdSaNS1_14adl_serializerEEEE12EmissionWorkSaISE_EED2Ev,@function
_ZNSt6vectorIZN12PhotonMapperC1ERKN8nlohmann10basic_jsonISt3mapS_NSt7__cxx1112basic_stringIcSt11char_traitsIcESaIcEEEblmdSaNS1_14adl_serializerEEEE12EmissionWorkSaISE_EED2Ev: # @_ZNSt6vectorIZN12PhotonMapperC1ERKN8nlohmann10basic_jsonISt3mapS_NSt7__cxx1112basic_stringIcSt11char_traitsIcESaIcEEEblmdSaNS1_14adl_serializerEEEE12EmissionWorkSaISE_EED2Ev
.Lfunc_begin7:
	.cfi_startproc
	.cfi_personality 155, DW.ref.__gxx_personality_v0
	.cfi_lsda 27, .Lexception7
# %bb.0:                                # %entry
	addi	sp, sp, -64
	.cfi_def_cfa_offset 64
	sd	ra, 56(sp)
	sd	s0, 48(sp)
	sd	s1, 40(sp)
	sd	s2, 32(sp)
	sd	s3, 24(sp)
	.cfi_offset ra, -8
	.cfi_offset s0, -16
	.cfi_offset s1, -24
	.cfi_offset s2, -32
	.cfi_offset s3, -40
	addi	s0, sp, 64
	.cfi_def_cfa s0, 0
	sd	a0, -48(s0)
	ld	s1, -48(s0)
	ld	s2, 0(s1)
	ld	s3, 8(s1)
	mv	a0, s1
	call	_ZNSt12_Vector_baseIZN12PhotonMapperC1ERKN8nlohmann10basic_jsonISt3mapSt6vectorNSt7__cxx1112basic_stringIcSt11char_traitsIcESaIcEEEblmdSaNS1_14adl_serializerEEEE12EmissionWorkSaISF_EE19_M_get_Tp_allocatorEv
	mv	a2, a0
.Ltmp190:
	mv	a0, s2
	mv	a1, s3
	call	_ZSt8_DestroyIPZN12PhotonMapperC1ERKN8nlohmann10basic_jsonISt3mapSt6vectorNSt7__cxx1112basic_stringIcSt11char_traitsIcESaIcEEEblmdSaNS1_14adl_serializerEEEE12EmissionWorkSF_EvT_SH_RSaIT0_E
.Ltmp191:
	j	.LBB37_1
.LBB37_1:                               # %invoke.cont
	mv	a0, s1
	call	_ZNSt12_Vector_baseIZN12PhotonMapperC1ERKN8nlohmann10basic_jsonISt3mapSt6vectorNSt7__cxx1112basic_stringIcSt11char_traitsIcESaIcEEEblmdSaNS1_14adl_serializerEEEE12EmissionWorkSaISF_EED2Ev
	ld	s3, 24(sp)
	ld	s2, 32(sp)
	ld	s1, 40(sp)
	ld	s0, 48(sp)
	.cfi_def_cfa sp, 64
	ld	ra, 56(sp)
	.cfi_restore ra
	.cfi_restore s0
	.cfi_restore s1
	.cfi_restore s2
	.cfi_restore s3
	addi	sp, sp, 64
	.cfi_def_cfa_offset 0
	ret
.LBB37_2:                               # %lpad
.Ltmp192:
	sd	a0, -56(s0)
	sw	a1, -60(s0)
	mv	a0, s1
	call	_ZNSt12_Vector_baseIZN12PhotonMapperC1ERKN8nlohmann10basic_jsonISt3mapSt6vectorNSt7__cxx1112basic_stringIcSt11char_traitsIcESaIcEEEblmdSaNS1_14adl_serializerEEEE12EmissionWorkSaISF_EED2Ev
	j	.LBB37_3
.LBB37_3:                               # %terminate.handler
	ld	a0, -56(s0)
	call	__clang_call_terminate
.Lfunc_end37:
	.size	_ZNSt6vectorIZN12PhotonMapperC1ERKN8nlohmann10basic_jsonISt3mapS_NSt7__cxx1112basic_stringIcSt11char_traitsIcESaIcEEEblmdSaNS1_14adl_serializerEEEE12EmissionWorkSaISE_EED2Ev, .Lfunc_end37-_ZNSt6vectorIZN12PhotonMapperC1ERKN8nlohmann10basic_jsonISt3mapS_NSt7__cxx1112basic_stringIcSt11char_traitsIcESaIcEEEblmdSaNS1_14adl_serializerEEEE12EmissionWorkSaISE_EED2Ev
	.cfi_endproc
	.section	.gcc_except_table,"a",@progbits
	.p2align	2
GCC_except_table37:
.Lexception7:
	.byte	255                     # @LPStart Encoding = omit
	.byte	155                     # @TType Encoding = indirect pcrel sdata4
	.uleb128 .Lttbase1-.Lttbaseref1
.Lttbaseref1:
	.byte	3                       # Call site Encoding = udata4
	.uleb128 .Lcst_end7-.Lcst_begin7
.Lcst_begin7:
	.word	.Ltmp190-.Lfunc_begin7  # >> Call Site 1 <<
	.word	.Ltmp191-.Ltmp190       #   Call between .Ltmp190 and .Ltmp191
	.word	.Ltmp192-.Lfunc_begin7  #     jumps to .Ltmp192
	.byte	1                       #   On action: 1
.Lcst_end7:
	.byte	1                       # >> Action Record 1 <<
                                        #   Catch TypeInfo 1
	.byte	0                       #   No further actions
	.p2align	2
                                        # >> Catch TypeInfos <<
	.word	0                       # TypeInfo 1
.Lttbase1:
	.p2align	2
                                        # -- End function
	.section	.text._ZNSt6vectorIS_I6PhotonSaIS0_EESaIS2_EE6resizeEm,"axG",@progbits,_ZNSt6vectorIS_I6PhotonSaIS0_EESaIS2_EE6resizeEm,comdat
	.weak	_ZNSt6vectorIS_I6PhotonSaIS0_EESaIS2_EE6resizeEm # -- Begin function _ZNSt6vectorIS_I6PhotonSaIS0_EESaIS2_EE6resizeEm
	.p2align	2
	.type	_ZNSt6vectorIS_I6PhotonSaIS0_EESaIS2_EE6resizeEm,@function
_ZNSt6vectorIS_I6PhotonSaIS0_EESaIS2_EE6resizeEm: # @_ZNSt6vectorIS_I6PhotonSaIS0_EESaIS2_EE6resizeEm
	.cfi_startproc
# %bb.0:                                # %entry
	addi	sp, sp, -48
	.cfi_def_cfa_offset 48
	sd	ra, 40(sp)
	sd	s0, 32(sp)
	sd	s1, 24(sp)
	sd	s2, 16(sp)
	.cfi_offset ra, -8
	.cfi_offset s0, -16
	.cfi_offset s1, -24
	.cfi_offset s2, -32
	addi	s0, sp, 48
	.cfi_def_cfa s0, 0
	sd	a0, -40(s0)
	sd	a1, -48(s0)
	ld	s1, -40(s0)
	ld	s2, -48(s0)
	mv	a0, s1
	call	_ZNKSt6vectorIS_I6PhotonSaIS0_EESaIS2_EE4sizeEv
	bgeu	a0, s2, .LBB38_2
	j	.LBB38_1
.LBB38_1:                               # %if.then
	ld	s2, -48(s0)
	mv	a0, s1
	call	_ZNKSt6vectorIS_I6PhotonSaIS0_EESaIS2_EE4sizeEv
	sub	a1, s2, a0
	mv	a0, s1
	call	_ZNSt6vectorIS_I6PhotonSaIS0_EESaIS2_EE17_M_default_appendEm
	j	.LBB38_5
.LBB38_2:                               # %if.else
	ld	s2, -48(s0)
	mv	a0, s1
	call	_ZNKSt6vectorIS_I6PhotonSaIS0_EESaIS2_EE4sizeEv
	bgeu	s2, a0, .LBB38_4
	j	.LBB38_3
.LBB38_3:                               # %if.then5
	ld	a0, 0(s1)
	ld	a1, -48(s0)
	addi	a2, zero, 24
	mul	a1, a1, a2
	add	a1, a0, a1
	mv	a0, s1
	call	_ZNSt6vectorIS_I6PhotonSaIS0_EESaIS2_EE15_M_erase_at_endEPS2_
	j	.LBB38_4
.LBB38_4:                               # %if.end
	j	.LBB38_5
.LBB38_5:                               # %if.end6
	ld	s2, 16(sp)
	ld	s1, 24(sp)
	ld	s0, 32(sp)
	.cfi_def_cfa sp, 48
	ld	ra, 40(sp)
	.cfi_restore ra
	.cfi_restore s0
	.cfi_restore s1
	.cfi_restore s2
	addi	sp, sp, 48
	.cfi_def_cfa_offset 0
	ret
.Lfunc_end38:
	.size	_ZNSt6vectorIS_I6PhotonSaIS0_EESaIS2_EE6resizeEm, .Lfunc_end38-_ZNSt6vectorIS_I6PhotonSaIS0_EESaIS2_EE6resizeEm
	.cfi_endproc
                                        # -- End function
	.text
	.p2align	2               # -- Begin function _ZZN12PhotonMapperC1ERKN8nlohmann10basic_jsonISt3mapSt6vectorNSt7__cxx1112basic_stringIcSt11char_traitsIcESaIcEEEblmdSaNS0_14adl_serializerEEEEN12EmissionWorkC2Ev
	.type	_ZZN12PhotonMapperC1ERKN8nlohmann10basic_jsonISt3mapSt6vectorNSt7__cxx1112basic_stringIcSt11char_traitsIcESaIcEEEblmdSaNS0_14adl_serializerEEEEN12EmissionWorkC2Ev,@function
_ZZN12PhotonMapperC1ERKN8nlohmann10basic_jsonISt3mapSt6vectorNSt7__cxx1112basic_stringIcSt11char_traitsIcESaIcEEEblmdSaNS0_14adl_serializerEEEEN12EmissionWorkC2Ev: # @_ZZN12PhotonMapperC1ERKN8nlohmann10basic_jsonISt3mapSt6vectorNSt7__cxx1112basic_stringIcSt11char_traitsIcESaIcEEEblmdSaNS0_14adl_serializerEEEEN12EmissionWorkC2Ev
	.cfi_startproc
# %bb.0:                                # %entry
	addi	sp, sp, -32
	.cfi_def_cfa_offset 32
	sd	ra, 24(sp)
	sd	s0, 16(sp)
	.cfi_offset ra, -8
	.cfi_offset s0, -16
	addi	s0, sp, 32
	.cfi_def_cfa s0, 0
	sd	a0, -24(s0)
	ld	a0, -24(s0)
	sd	zero, 0(a0)
	sd	zero, 8(a0)
	sd	zero, 16(a0)
	addi	a0, a0, 24
	mv	a1, zero
	call	_ZN3glm3vecILi3EdLNS_9qualifierE0EEC2Ed
	ld	s0, 16(sp)
	.cfi_def_cfa sp, 32
	ld	ra, 24(sp)
	.cfi_restore ra
	.cfi_restore s0
	addi	sp, sp, 32
	.cfi_def_cfa_offset 0
	ret
.Lfunc_end39:
	.size	_ZZN12PhotonMapperC1ERKN8nlohmann10basic_jsonISt3mapSt6vectorNSt7__cxx1112basic_stringIcSt11char_traitsIcESaIcEEEblmdSaNS0_14adl_serializerEEEEN12EmissionWorkC2Ev, .Lfunc_end39-_ZZN12PhotonMapperC1ERKN8nlohmann10basic_jsonISt3mapSt6vectorNSt7__cxx1112basic_stringIcSt11char_traitsIcESaIcEEEblmdSaNS0_14adl_serializerEEEEN12EmissionWorkC2Ev
	.cfi_endproc
                                        # -- End function
	.p2align	2               # -- Begin function _ZN9WorkQueueIZN12PhotonMapperC1ERKN8nlohmann10basic_jsonISt3mapSt6vectorNSt7__cxx1112basic_stringIcSt11char_traitsIcESaIcEEEblmdSaNS1_14adl_serializerEEEE12EmissionWorkE7getWorkERSF_
	.type	_ZN9WorkQueueIZN12PhotonMapperC1ERKN8nlohmann10basic_jsonISt3mapSt6vectorNSt7__cxx1112basic_stringIcSt11char_traitsIcESaIcEEEblmdSaNS1_14adl_serializerEEEE12EmissionWorkE7getWorkERSF_,@function
_ZN9WorkQueueIZN12PhotonMapperC1ERKN8nlohmann10basic_jsonISt3mapSt6vectorNSt7__cxx1112basic_stringIcSt11char_traitsIcESaIcEEEblmdSaNS1_14adl_serializerEEEE12EmissionWorkE7getWorkERSF_: # @_ZN9WorkQueueIZN12PhotonMapperC1ERKN8nlohmann10basic_jsonISt3mapSt6vectorNSt7__cxx1112basic_stringIcSt11char_traitsIcESaIcEEEblmdSaNS1_14adl_serializerEEEE12EmissionWorkE7getWorkERSF_
	.cfi_startproc
# %bb.0:                                # %entry
	addi	sp, sp, -48
	.cfi_def_cfa_offset 48
	sd	ra, 40(sp)
	sd	s0, 32(sp)
	sd	s1, 24(sp)
	.cfi_offset ra, -8
	.cfi_offset s0, -16
	.cfi_offset s1, -24
	addi	s0, sp, 48
	.cfi_def_cfa s0, 0
	sd	a0, -32(s0)
	sd	a1, -40(s0)
	ld	s1, -32(s0)
	addi	a0, s1, 8
	call	_ZNKSt5queueIZN12PhotonMapperC1ERKN8nlohmann10basic_jsonISt3mapSt6vectorNSt7__cxx1112basic_stringIcSt11char_traitsIcESaIcEEEblmdSaNS1_14adl_serializerEEEE12EmissionWorkSt5dequeISF_SaISF_EEE5emptyEv
	sb	a0, -41(s0)
	lbu	a0, -41(s0)
	andi	a0, a0, 1
	bnez	a0, .LBB40_2
	j	.LBB40_1
.LBB40_1:                               # %if.then
	addi	s1, s1, 8
	mv	a0, s1
	call	_ZNSt5queueIZN12PhotonMapperC1ERKN8nlohmann10basic_jsonISt3mapSt6vectorNSt7__cxx1112basic_stringIcSt11char_traitsIcESaIcEEEblmdSaNS1_14adl_serializerEEEE12EmissionWorkSt5dequeISF_SaISF_EEE5frontEv
	ld	a1, -40(s0)
	ld	a2, 40(a0)
	sd	a2, 40(a1)
	ld	a2, 32(a0)
	sd	a2, 32(a1)
	ld	a2, 24(a0)
	sd	a2, 24(a1)
	ld	a2, 16(a0)
	sd	a2, 16(a1)
	ld	a2, 8(a0)
	sd	a2, 8(a1)
	ld	a0, 0(a0)
	sd	a0, 0(a1)
	mv	a0, s1
	call	_ZNSt5queueIZN12PhotonMapperC1ERKN8nlohmann10basic_jsonISt3mapSt6vectorNSt7__cxx1112basic_stringIcSt11char_traitsIcESaIcEEEblmdSaNS1_14adl_serializerEEEE12EmissionWorkSt5dequeISF_SaISF_EEE3popEv
	j	.LBB40_2
.LBB40_2:                               # %if.end
	lb	a0, -41(s0)
	not	a0, a0
	andi	a0, a0, 1
	ld	s1, 24(sp)
	ld	s0, 32(sp)
	.cfi_def_cfa sp, 48
	ld	ra, 40(sp)
	.cfi_restore ra
	.cfi_restore s0
	.cfi_restore s1
	addi	sp, sp, 48
	.cfi_def_cfa_offset 0
	ret
.Lfunc_end40:
	.size	_ZN9WorkQueueIZN12PhotonMapperC1ERKN8nlohmann10basic_jsonISt3mapSt6vectorNSt7__cxx1112basic_stringIcSt11char_traitsIcESaIcEEEblmdSaNS1_14adl_serializerEEEE12EmissionWorkE7getWorkERSF_, .Lfunc_end40-_ZN9WorkQueueIZN12PhotonMapperC1ERKN8nlohmann10basic_jsonISt3mapSt6vectorNSt7__cxx1112basic_stringIcSt11char_traitsIcESaIcEEEblmdSaNS1_14adl_serializerEEEE12EmissionWorkE7getWorkERSF_
	.cfi_endproc
                                        # -- End function
	.section	.text._ZN7Sampler8initiateEj,"axG",@progbits,_ZN7Sampler8initiateEj,comdat
	.weak	_ZN7Sampler8initiateEj  # -- Begin function _ZN7Sampler8initiateEj
	.p2align	2
	.type	_ZN7Sampler8initiateEj,@function
_ZN7Sampler8initiateEj:                 # @_ZN7Sampler8initiateEj
	.cfi_startproc
# %bb.0:                                # %entry
	addi	sp, sp, -32
	.cfi_def_cfa_offset 32
	sd	ra, 24(sp)
	sd	s0, 16(sp)
	sd	s1, 8(sp)
	.cfi_offset ra, -8
	.cfi_offset s0, -16
	.cfi_offset s1, -24
	addi	s0, sp, 32
	.cfi_def_cfa s0, 0
	sw	a0, -28(s0)
	lui	a0, %hi(_ZN7Sampler11global_seedE)
	lw	s1, %lo(_ZN7Sampler11global_seedE)(a0)
	lw	a0, -28(s0)
	call	_ZN7Sampler4hashEj
	mv	a1, a0
	mv	a0, s1
	call	_ZN7Sampler11hashCombineEjj
	mv	s1, a0
	call	_ZTWN7Sampler9base_seedE
	sw	s1, 0(a0)
	ld	s1, 8(sp)
	ld	s0, 16(sp)
	.cfi_def_cfa sp, 32
	ld	ra, 24(sp)
	.cfi_restore ra
	.cfi_restore s0
	.cfi_restore s1
	addi	sp, sp, 32
	.cfi_def_cfa_offset 0
	ret
.Lfunc_end41:
	.size	_ZN7Sampler8initiateEj, .Lfunc_end41-_ZN7Sampler8initiateEj
	.cfi_endproc
                                        # -- End function
	.section	.text._ZN7Sampler8setIndexEj,"axG",@progbits,_ZN7Sampler8setIndexEj,comdat
	.weak	_ZN7Sampler8setIndexEj  # -- Begin function _ZN7Sampler8setIndexEj
	.p2align	2
	.type	_ZN7Sampler8setIndexEj,@function
_ZN7Sampler8setIndexEj:                 # @_ZN7Sampler8setIndexEj
	.cfi_startproc
# %bb.0:                                # %entry
	addi	sp, sp, -32
	.cfi_def_cfa_offset 32
	sd	ra, 24(sp)
	sd	s0, 16(sp)
	sd	s1, 8(sp)
	.cfi_offset ra, -8
	.cfi_offset s0, -16
	.cfi_offset s1, -24
	addi	s0, sp, 32
	.cfi_def_cfa s0, 0
	sw	a0, -28(s0)
	call	_ZTWN7Sampler8sequenceE
	sw	zero, 0(a0)
	call	_ZTWN7Sampler9base_seedE
	lw	s1, 0(a0)
	call	_ZTWN7Sampler4seedE
	sw	s1, 0(a0)
	lw	a0, -28(s0)
	call	_ZN5Sobol11reverseBitsEj
	mv	s1, a0
	call	_ZTWN7Sampler18bit_reversed_indexE
	sw	s1, 0(a0)
	lw	s1, -28(s0)
	call	_ZTWN7Sampler14shuffled_indexE
	sw	s1, 0(a0)
	ld	s1, 8(sp)
	ld	s0, 16(sp)
	.cfi_def_cfa sp, 32
	ld	ra, 24(sp)
	.cfi_restore ra
	.cfi_restore s0
	.cfi_restore s1
	addi	sp, sp, 32
	.cfi_def_cfa_offset 0
	ret
.Lfunc_end42:
	.size	_ZN7Sampler8setIndexEj, .Lfunc_end42-_ZN7Sampler8setIndexEj
	.cfi_endproc
                                        # -- End function
	.section	.text._ZN7Sampler3getILi0ELi4EEEDav,"axG",@progbits,_ZN7Sampler3getILi0ELi4EEEDav,comdat
	.weak	_ZN7Sampler3getILi0ELi4EEEDav # -- Begin function _ZN7Sampler3getILi0ELi4EEEDav
	.p2align	2
	.type	_ZN7Sampler3getILi0ELi4EEEDav,@function
_ZN7Sampler3getILi0ELi4EEEDav:          # @_ZN7Sampler3getILi0ELi4EEEDav
	.cfi_startproc
# %bb.0:                                # %entry
	addi	sp, sp, -80
	.cfi_def_cfa_offset 80
	sd	ra, 72(sp)
	sd	s0, 64(sp)
	sd	s1, 56(sp)
	.cfi_offset ra, -8
	.cfi_offset s0, -16
	.cfi_offset s1, -24
	addi	s0, sp, 80
	.cfi_def_cfa s0, 0
	mv	s1, a0
	sd	s1, -32(s0)
	addi	a0, s0, -64
	sd	a0, -72(s0)
	addi	a0, s0, -72
	call	_Z12unrolledLoopIiLi4EZN7Sampler3getILi0ELi4EEEDavEUlT_E_EvOT1_
	ld	a0, -40(s0)
	sd	a0, 24(s1)
	ld	a0, -48(s0)
	sd	a0, 16(s1)
	ld	a0, -56(s0)
	sd	a0, 8(s1)
	ld	a0, -64(s0)
	sd	a0, 0(s1)
	ld	s1, 56(sp)
	ld	s0, 64(sp)
	.cfi_def_cfa sp, 80
	ld	ra, 72(sp)
	.cfi_restore ra
	.cfi_restore s0
	.cfi_restore s1
	addi	sp, sp, 80
	.cfi_def_cfa_offset 0
	ret
.Lfunc_end43:
	.size	_ZN7Sampler3getILi0ELi4EEEDav, .Lfunc_end43-_ZN7Sampler3getILi0ELi4EEEDav
	.cfi_endproc
                                        # -- End function
	.section	.text._ZNKSt19__shared_ptr_accessIN7Surface4BaseELN9__gnu_cxx12_Lock_policyE0ELb0ELb0EEdeEv,"axG",@progbits,_ZNKSt19__shared_ptr_accessIN7Surface4BaseELN9__gnu_cxx12_Lock_policyE0ELb0ELb0EEdeEv,comdat
	.weak	_ZNKSt19__shared_ptr_accessIN7Surface4BaseELN9__gnu_cxx12_Lock_policyE0ELb0ELb0EEdeEv # -- Begin function _ZNKSt19__shared_ptr_accessIN7Surface4BaseELN9__gnu_cxx12_Lock_policyE0ELb0ELb0EEdeEv
	.p2align	2
	.type	_ZNKSt19__shared_ptr_accessIN7Surface4BaseELN9__gnu_cxx12_Lock_policyE0ELb0ELb0EEdeEv,@function
_ZNKSt19__shared_ptr_accessIN7Surface4BaseELN9__gnu_cxx12_Lock_policyE0ELb0ELb0EEdeEv: # @_ZNKSt19__shared_ptr_accessIN7Surface4BaseELN9__gnu_cxx12_Lock_policyE0ELb0ELb0EEdeEv
# %bb.0:                                # %entry
	addi	sp, sp, -32
	sd	ra, 24(sp)
	sd	s0, 16(sp)
	addi	s0, sp, 32
	sd	a0, -24(s0)
	ld	a0, -24(s0)
	j	.LBB44_1
.LBB44_1:                               # %do.body
	j	.LBB44_2
.LBB44_2:                               # %do.cond
	j	.LBB44_3
.LBB44_3:                               # %do.end
	call	_ZNKSt19__shared_ptr_accessIN7Surface4BaseELN9__gnu_cxx12_Lock_policyE0ELb0ELb0EE6_M_getEv
	ld	s0, 16(sp)
	ld	ra, 24(sp)
	addi	sp, sp, 32
	ret
.Lfunc_end44:
	.size	_ZNKSt19__shared_ptr_accessIN7Surface4BaseELN9__gnu_cxx12_Lock_policyE0ELb0ELb0EEdeEv, .Lfunc_end44-_ZNKSt19__shared_ptr_accessIN7Surface4BaseELN9__gnu_cxx12_Lock_policyE0ELb0ELb0EEdeEv
                                        # -- End function
	.section	.text._ZNSt5arrayIdLm4EEixEm,"axG",@progbits,_ZNSt5arrayIdLm4EEixEm,comdat
	.weak	_ZNSt5arrayIdLm4EEixEm  # -- Begin function _ZNSt5arrayIdLm4EEixEm
	.p2align	2
	.type	_ZNSt5arrayIdLm4EEixEm,@function
_ZNSt5arrayIdLm4EEixEm:                 # @_ZNSt5arrayIdLm4EEixEm
# %bb.0:                                # %entry
	addi	sp, sp, -32
	sd	ra, 24(sp)
	sd	s0, 16(sp)
	addi	s0, sp, 32
	sd	a0, -24(s0)
	sd	a1, -32(s0)
	ld	a0, -24(s0)
	ld	a1, -32(s0)
	call	_ZNSt14__array_traitsIdLm4EE6_S_refERA4_Kdm
	ld	s0, 16(sp)
	ld	ra, 24(sp)
	addi	sp, sp, 32
	ret
.Lfunc_end45:
	.size	_ZNSt5arrayIdLm4EEixEm, .Lfunc_end45-_ZNSt5arrayIdLm4EEixEm
                                        # -- End function
	.section	.sdata,"aw",@progbits
	.p2align	3               # -- Begin function _ZN8Sampling15cosWeightedHemiEdd
.LCPI46_0:
	.quad	4618760256179416344     # double 6.2831853071795862
.LCPI46_1:
	.quad	4607182418800017408     # double 1
	.section	.text._ZN8Sampling15cosWeightedHemiEdd,"axG",@progbits,_ZN8Sampling15cosWeightedHemiEdd,comdat
	.weak	_ZN8Sampling15cosWeightedHemiEdd
	.p2align	2
	.type	_ZN8Sampling15cosWeightedHemiEdd,@function
_ZN8Sampling15cosWeightedHemiEdd:       # @_ZN8Sampling15cosWeightedHemiEdd
	.cfi_startproc
# %bb.0:                                # %entry
	addi	sp, sp, -96
	.cfi_def_cfa_offset 96
	sd	ra, 88(sp)
	sd	s0, 80(sp)
	sd	s1, 72(sp)
	sd	s2, 64(sp)
	.cfi_offset ra, -8
	.cfi_offset s0, -16
	.cfi_offset s1, -24
	.cfi_offset s2, -32
	addi	s0, sp, 96
	.cfi_def_cfa s0, 0
	mv	s2, a0
	fmv.d.x	ft0, a2
	fmv.d.x	ft0, a1
	sd	s2, -40(s0)
	sd	a1, -48(s0)
	sd	a2, -56(s0)
	fld	ft0, -48(s0)
	fsqrt.d	ft0, ft0
	fsd	ft0, -64(s0)
	fld	ft0, -56(s0)
	lui	a0, %hi(.LCPI46_0)
	addi	a0, a0, %lo(.LCPI46_0)
	fld	ft1, 0(a0)
	fmul.d	ft0, ft0, ft1
	fsd	ft0, -72(s0)
	fld	ft0, -64(s0)
	fsd	ft0, -80(s0)
	ld	s1, -72(s0)
	mv	a0, s1
	call	cos
	fmv.d.x	ft0, a0
	fld	ft1, -80(s0)
	fmul.d	ft0, ft1, ft0
	fsd	ft0, -88(s0)
	mv	a0, s1
	call	sin
	fmv.d.x	ft0, a0
	fld	ft1, -80(s0)
	fmul.d	ft0, ft1, ft0
	fld	ft1, -48(s0)
	lui	a0, %hi(.LCPI46_1)
	addi	a0, a0, %lo(.LCPI46_1)
	fld	ft2, 0(a0)
	fsub.d	ft1, ft2, ft1
	fsqrt.d	ft1, ft1
	fmv.x.d	a3, ft1
	fld	ft1, -88(s0)
	fmv.x.d	a1, ft1
	fmv.x.d	a2, ft0
	mv	a0, s2
	call	_ZN3glm3vecILi3EdLNS_9qualifierE0EEC2Eddd
	ld	s2, 64(sp)
	ld	s1, 72(sp)
	ld	s0, 80(sp)
	.cfi_def_cfa sp, 96
	ld	ra, 88(sp)
	.cfi_restore ra
	.cfi_restore s0
	.cfi_restore s1
	.cfi_restore s2
	addi	sp, sp, 96
	.cfi_def_cfa_offset 0
	ret
.Lfunc_end46:
	.size	_ZN8Sampling15cosWeightedHemiEdd, .Lfunc_end46-_ZN8Sampling15cosWeightedHemiEdd
	.cfi_endproc
                                        # -- End function
	.section	.text._ZN3glm3vecILi3EdLNS_9qualifierE0EEpLIdEERS2_RKNS0_ILi3ET_LS1_0EEE,"axG",@progbits,_ZN3glm3vecILi3EdLNS_9qualifierE0EEpLIdEERS2_RKNS0_ILi3ET_LS1_0EEE,comdat
	.weak	_ZN3glm3vecILi3EdLNS_9qualifierE0EEpLIdEERS2_RKNS0_ILi3ET_LS1_0EEE # -- Begin function _ZN3glm3vecILi3EdLNS_9qualifierE0EEpLIdEERS2_RKNS0_ILi3ET_LS1_0EEE
	.p2align	2
	.type	_ZN3glm3vecILi3EdLNS_9qualifierE0EEpLIdEERS2_RKNS0_ILi3ET_LS1_0EEE,@function
_ZN3glm3vecILi3EdLNS_9qualifierE0EEpLIdEERS2_RKNS0_ILi3ET_LS1_0EEE: # @_ZN3glm3vecILi3EdLNS_9qualifierE0EEpLIdEERS2_RKNS0_ILi3ET_LS1_0EEE
# %bb.0:                                # %entry
	addi	sp, sp, -32
	sd	ra, 24(sp)
	sd	s0, 16(sp)
	addi	s0, sp, 32
	sd	a0, -24(s0)
	sd	a1, -32(s0)
	ld	a0, -24(s0)
	ld	a1, -32(s0)
	fld	ft0, 0(a1)
	fld	ft1, 0(a0)
	fadd.d	ft0, ft1, ft0
	fsd	ft0, 0(a0)
	ld	a1, -32(s0)
	fld	ft0, 8(a1)
	fld	ft1, 8(a0)
	fadd.d	ft0, ft1, ft0
	fsd	ft0, 8(a0)
	ld	a1, -32(s0)
	fld	ft0, 16(a1)
	fld	ft1, 16(a0)
	fadd.d	ft0, ft1, ft0
	fsd	ft0, 16(a0)
	ld	s0, 16(sp)
	ld	ra, 24(sp)
	addi	sp, sp, 32
	ret
.Lfunc_end47:
	.size	_ZN3glm3vecILi3EdLNS_9qualifierE0EEpLIdEERS2_RKNS0_ILi3ET_LS1_0EEE, .Lfunc_end47-_ZN3glm3vecILi3EdLNS_9qualifierE0EEpLIdEERS2_RKNS0_ILi3ET_LS1_0EEE
                                        # -- End function
	.section	.sdata,"aw",@progbits
	.p2align	3               # -- Begin function _ZN12PhotonMapper10emitPhotonE3RayN3glm3vecILi3EdLNS1_9qualifierE0EEEm
.LCPI48_0:
	.quad	0                       # double 0
	.text
	.globl	_ZN12PhotonMapper10emitPhotonE3RayN3glm3vecILi3EdLNS1_9qualifierE0EEEm
	.p2align	2
	.type	_ZN12PhotonMapper10emitPhotonE3RayN3glm3vecILi3EdLNS1_9qualifierE0EEEm,@function
_ZN12PhotonMapper10emitPhotonE3RayN3glm3vecILi3EdLNS1_9qualifierE0EEEm: # @_ZN12PhotonMapper10emitPhotonE3RayN3glm3vecILi3EdLNS1_9qualifierE0EEEm
.Lfunc_begin8:
	.cfi_startproc
	.cfi_personality 155, DW.ref.__gxx_personality_v0
	.cfi_lsda 27, .Lexception8
# %bb.0:                                # %entry
	addi	sp, sp, -688
	.cfi_def_cfa_offset 688
	sd	ra, 680(sp)
	sd	s0, 672(sp)
	sd	s1, 664(sp)
	sd	s2, 656(sp)
	sd	s3, 648(sp)
	sd	s4, 640(sp)
	sd	s5, 632(sp)
	.cfi_offset ra, -8
	.cfi_offset s0, -16
	.cfi_offset s1, -24
	.cfi_offset s2, -32
	.cfi_offset s3, -40
	.cfi_offset s4, -48
	.cfi_offset s5, -56
	addi	s0, sp, 688
	.cfi_def_cfa s0, 0
	mv	s2, a2
	mv	s1, a1
	sd	a0, -64(s0)
	sd	a3, -72(s0)
	ld	s5, -64(s0)
	addi	a0, s0, -96
	mv	a1, s1
	call	_ZN17RefractionHistoryC1ERK3Ray
	j	.LBB48_1
.LBB48_1:                               # %while.cond
                                        # =>This Inner Loop Header: Depth=1
	j	.LBB48_2
.LBB48_2:                               # %while.body
                                        #   in Loop: Header=BB48_1 Depth=1
.Ltmp193:
	call	_ZN7Sampler7shuffleEv
.Ltmp194:
	j	.LBB48_3
.LBB48_3:                               # %invoke.cont
                                        #   in Loop: Header=BB48_1 Depth=1
	addi	a1, s5, 16
.Ltmp195:
	addi	a0, s0, -192
	mv	a2, s1
	call	_ZNK5Scene9intersectERK3Ray
.Ltmp196:
	j	.LBB48_4
.LBB48_4:                               # %invoke.cont2
                                        #   in Loop: Header=BB48_1 Depth=1
.Ltmp198:
	addi	a0, s0, -192
	call	_ZNK12IntersectioncvbEv
.Ltmp199:
	j	.LBB48_5
.LBB48_5:                               # %invoke.cont4
                                        #   in Loop: Header=BB48_1 Depth=1
	andi	a0, a0, 1
	bnez	a0, .LBB48_9
	j	.LBB48_6
.LBB48_6:                               # %if.then
                                        #   in Loop: Header=BB48_1 Depth=1
	addi	a0, zero, 1
	sw	a0, -196(s0)
	j	.LBB48_41
.LBB48_7:                               # %lpad
.Ltmp197:
	sd	a0, -136(s0)
	sw	a1, -140(s0)
	j	.LBB48_45
.LBB48_8:                               # %lpad3
.Ltmp204:
	sd	a0, -136(s0)
	sw	a1, -140(s0)
	j	.LBB48_43
.LBB48_9:                               # %if.end
                                        #   in Loop: Header=BB48_1 Depth=1
.Ltmp200:
	addi	a0, s0, -96
	mv	a1, s1
	call	_ZNK17RefractionHistory11externalIORERK3Ray
	fmv.d.x	ft0, a0
.Ltmp201:
	j	.LBB48_10
.LBB48_10:                              # %invoke.cont5
                                        #   in Loop: Header=BB48_1 Depth=1
.Ltmp202:
	fmv.x.d	a3, ft0
	addi	a0, s0, -536
	addi	a1, s0, -192
	mv	a2, s1
	call	_ZN11InteractionC1ERK12IntersectionRK3Rayd
.Ltmp203:
	j	.LBB48_11
.LBB48_11:                              # %invoke.cont7
                                        #   in Loop: Header=BB48_1 Depth=1
	addi	a0, s0, -536
	addi	a0, a0, 48
	call	_ZNKSt19__shared_ptr_accessI8MaterialLN9__gnu_cxx12_Lock_policyE0ELb0ELb0EEptEv
	lbu	a0, 148(a0)
	andi	a0, a0, 1
	bnez	a0, .LBB48_25
	j	.LBB48_12
.LBB48_12:                              # %if.then9
                                        #   in Loop: Header=BB48_1 Depth=1
	lbu	a0, 88(s1)
	andi	a0, a0, 1
	beqz	a0, .LBB48_17
	j	.LBB48_13
.LBB48_13:                              # %if.then12
                                        #   in Loop: Header=BB48_1 Depth=1
	addi	a0, s5, 264
	ld	a1, -72(s0)
	call	_ZNSt6vectorIS_I6PhotonSaIS0_EESaIS2_EEixEm
	mv	s3, a0
	addi	a0, s0, -536
	addi	s4, a0, 80
	addi	a1, s1, 24
.Ltmp213:
	addi	a0, s0, -560
	call	_ZN3glmngIdLNS_9qualifierE0EEENS_3vecILi3ET_XT0_EEERKS4_
.Ltmp214:
	j	.LBB48_14
.LBB48_14:                              # %invoke.cont15
                                        #   in Loop: Header=BB48_1 Depth=1
.Ltmp215:
	addi	a3, s0, -560
	mv	a0, s3
	mv	a1, s2
	mv	a2, s4
	call	_ZNSt6vectorI6PhotonSaIS0_EE12emplace_backIJRN3glm3vecILi3EdLNS4_9qualifierE0EEES8_S7_EEERS0_DpOT_
.Ltmp216:
	j	.LBB48_15
.LBB48_15:                              # %invoke.cont16
                                        #   in Loop: Header=BB48_1 Depth=1
	j	.LBB48_24
.LBB48_16:                              # %lpad14
.Ltmp233:
	sd	a0, -136(s0)
	sw	a1, -140(s0)
	addi	a0, s0, -536
	call	_ZN11InteractionD2Ev
	j	.LBB48_43
.LBB48_17:                              # %if.else
                                        #   in Loop: Header=BB48_1 Depth=1
	fld	ft0, 312(s5)
	fsd	ft0, -680(s0)
.Ltmp205:
	call	_ZN7Sampler3getILi2ELi1EEEDav
.Ltmp206:
	j	.LBB48_18
.LBB48_18:                              # %invoke.cont19
                                        #   in Loop: Header=BB48_1 Depth=1
	sd	a0, -568(s0)
	addi	a0, s0, -568
	mv	a1, zero
	call	_ZNSt5arrayIdLm1EEixEm
	fld	ft0, 0(a0)
	fld	ft1, -680(s0)
	flt.d	a0, ft0, ft1
	xori	a0, a0, 1
	bnez	a0, .LBB48_23
	j	.LBB48_19
.LBB48_19:                              # %if.then22
                                        #   in Loop: Header=BB48_1 Depth=1
	addi	a0, s5, 288
	ld	a1, -72(s0)
	call	_ZNSt6vectorIS_I6PhotonSaIS0_EESaIS2_EEixEm
	mv	s3, a0
	ld	a2, 312(s5)
.Ltmp207:
	addi	a0, s0, -592
	mv	a1, s2
	call	_ZN3glmdvIdLNS_9qualifierE0EEENS_3vecILi3ET_XT0_EEERKS4_S3_
.Ltmp208:
	j	.LBB48_20
.LBB48_20:                              # %invoke.cont26
                                        #   in Loop: Header=BB48_1 Depth=1
	addi	a0, s0, -536
	addi	s4, a0, 80
	addi	a1, s1, 24
.Ltmp209:
	addi	a0, s0, -616
	call	_ZN3glmngIdLNS_9qualifierE0EEENS_3vecILi3ET_XT0_EEERKS4_
.Ltmp210:
	j	.LBB48_21
.LBB48_21:                              # %invoke.cont30
                                        #   in Loop: Header=BB48_1 Depth=1
.Ltmp211:
	addi	a1, s0, -592
	addi	a3, s0, -616
	mv	a0, s3
	mv	a2, s4
	call	_ZNSt6vectorI6PhotonSaIS0_EE12emplace_backIJN3glm3vecILi3EdLNS4_9qualifierE0EEERS7_S7_EEERS0_DpOT_
.Ltmp212:
	j	.LBB48_22
.LBB48_22:                              # %invoke.cont31
                                        #   in Loop: Header=BB48_1 Depth=1
	j	.LBB48_23
.LBB48_23:                              # %if.end33
                                        #   in Loop: Header=BB48_1 Depth=1
	j	.LBB48_24
.LBB48_24:                              # %if.end34
                                        #   in Loop: Header=BB48_1 Depth=1
	j	.LBB48_25
.LBB48_25:                              # %if.end35
                                        #   in Loop: Header=BB48_1 Depth=1
.Ltmp217:
	addi	a0, s0, -536
	addi	a1, s0, -120
	addi	a2, s0, -128
	mv	a3, s1
	addi	a4, zero, 1
	call	_ZNK11Interaction10sampleBSDFERN3glm3vecILi3EdLNS0_9qualifierE0EEERdR3Rayb
.Ltmp218:
	j	.LBB48_26
.LBB48_26:                              # %invoke.cont36
                                        #   in Loop: Header=BB48_1 Depth=1
	andi	a0, a0, 1
	bnez	a0, .LBB48_28
	j	.LBB48_27
.LBB48_27:                              # %if.then38
                                        #   in Loop: Header=BB48_1 Depth=1
	addi	a0, zero, 1
	sw	a0, -196(s0)
	j	.LBB48_40
.LBB48_28:                              # %if.end39
                                        #   in Loop: Header=BB48_1 Depth=1
	ld	a1, -128(s0)
.Ltmp219:
	addi	a0, s0, -120
	call	_ZN3glm3vecILi3EdLNS_9qualifierE0EEdVIdEERS2_T_
.Ltmp220:
	j	.LBB48_29
.LBB48_29:                              # %invoke.cont40
                                        #   in Loop: Header=BB48_1 Depth=1
.Ltmp221:
	addi	a0, s0, -120
	call	_ZN3glm7compMaxILi3EdLNS_9qualifierE0EEET0_RKNS_3vecIXT_ES2_XT1_EEE
.Ltmp222:
	fmv.d.x	ft0, a0
	j	.LBB48_30
.LBB48_30:                              # %invoke.cont43
                                        #   in Loop: Header=BB48_1 Depth=1
	fsd	ft0, -632(s0)
	lui	a0, 8183
	addiw	a0, a0, 819
	slli	a0, a0, 12
	addi	a0, a0, 819
	slli	a0, a0, 12
	addi	a0, a0, 819
	slli	a0, a0, 13
	addi	a0, a0, 1638
	sd	a0, -640(s0)
.Ltmp223:
	addi	a0, s0, -632
	addi	a1, s0, -640
	call	_ZSt3minIdERKT_S2_S2_
.Ltmp224:
	j	.LBB48_31
.LBB48_31:                              # %invoke.cont46
                                        #   in Loop: Header=BB48_1 Depth=1
	fld	ft0, 0(a0)
	fsd	ft0, -624(s0)
	fld	ft0, -624(s0)
	lui	a0, %hi(.LCPI48_0)
	addi	a0, a0, %lo(.LCPI48_0)
	fld	ft1, 0(a0)
	feq.d	a1, ft0, ft1
	addi	a0, zero, 1
	bnez	a1, .LBB48_34
	j	.LBB48_32
.LBB48_32:                              # %lor.rhs
                                        #   in Loop: Header=BB48_1 Depth=1
	fld	ft0, -624(s0)
	fsd	ft0, -688(s0)
.Ltmp225:
	call	_ZN7Sampler3getILi6ELi1EEEDav
.Ltmp226:
	j	.LBB48_33
.LBB48_33:                              # %invoke.cont50
                                        #   in Loop: Header=BB48_1 Depth=1
	sd	a0, -648(s0)
	addi	a0, s0, -648
	mv	a1, zero
	call	_ZNSt5arrayIdLm1EEixEm
	fld	ft0, 0(a0)
	fld	ft1, -688(s0)
	fle.d	a0, ft1, ft0
	j	.LBB48_34
.LBB48_34:                              # %lor.end
                                        #   in Loop: Header=BB48_1 Depth=1
	andi	a0, a0, 1
	beqz	a0, .LBB48_36
	j	.LBB48_35
.LBB48_35:                              # %if.then55
                                        #   in Loop: Header=BB48_1 Depth=1
	addi	a0, zero, 1
	sw	a0, -196(s0)
	j	.LBB48_40
.LBB48_36:                              # %if.end56
                                        #   in Loop: Header=BB48_1 Depth=1
	ld	a2, -624(s0)
.Ltmp227:
	addi	a0, s0, -672
	addi	a1, s0, -120
	call	_ZN3glmdvIdLNS_9qualifierE0EEENS_3vecILi3ET_XT0_EEERKS4_S3_
.Ltmp228:
	j	.LBB48_37
.LBB48_37:                              # %invoke.cont58
                                        #   in Loop: Header=BB48_1 Depth=1
.Ltmp229:
	addi	a1, s0, -672
	mv	a0, s2
	call	_ZN3glm3vecILi3EdLNS_9qualifierE0EEmLIdEERS2_RKNS0_ILi3ET_LS1_0EEE
.Ltmp230:
	j	.LBB48_38
.LBB48_38:                              # %invoke.cont59
                                        #   in Loop: Header=BB48_1 Depth=1
.Ltmp231:
	addi	a0, s0, -96
	mv	a1, s1
	call	_ZN17RefractionHistory6updateERK3Ray
.Ltmp232:
	j	.LBB48_39
.LBB48_39:                              # %invoke.cont61
                                        #   in Loop: Header=BB48_1 Depth=1
	sw	zero, -196(s0)
	j	.LBB48_40
.LBB48_40:                              # %cleanup
                                        #   in Loop: Header=BB48_1 Depth=1
	addi	a0, s0, -536
	call	_ZN11InteractionD2Ev
	j	.LBB48_41
.LBB48_41:                              # %cleanup62
                                        #   in Loop: Header=BB48_1 Depth=1
	addi	a0, s0, -192
	call	_ZN12IntersectionD2Ev
	lw	a0, -196(s0)
	bnez	a0, .LBB48_44
	j	.LBB48_42
.LBB48_42:                              # %cleanup.cont
                                        #   in Loop: Header=BB48_1 Depth=1
	j	.LBB48_1
.LBB48_43:                              # %ehcleanup
	addi	a0, s0, -192
	call	_ZN12IntersectionD2Ev
	j	.LBB48_45
.LBB48_44:                              # %cleanup63
	addi	a0, s0, -96
	call	_ZN17RefractionHistoryD2Ev
	ld	s5, 632(sp)
	ld	s4, 640(sp)
	ld	s3, 648(sp)
	ld	s2, 656(sp)
	ld	s1, 664(sp)
	ld	s0, 672(sp)
	.cfi_def_cfa sp, 688
	ld	ra, 680(sp)
	.cfi_restore ra
	.cfi_restore s0
	.cfi_restore s1
	.cfi_restore s2
	.cfi_restore s3
	.cfi_restore s4
	.cfi_restore s5
	addi	sp, sp, 688
	.cfi_def_cfa_offset 0
	ret
.LBB48_45:                              # %ehcleanup64
	addi	a0, s0, -96
	call	_ZN17RefractionHistoryD2Ev
	j	.LBB48_46
.LBB48_46:                              # %eh.resume
	ld	a0, -136(s0)
	call	_Unwind_Resume
.Lfunc_end48:
	.size	_ZN12PhotonMapper10emitPhotonE3RayN3glm3vecILi3EdLNS1_9qualifierE0EEEm, .Lfunc_end48-_ZN12PhotonMapper10emitPhotonE3RayN3glm3vecILi3EdLNS1_9qualifierE0EEEm
	.cfi_endproc
	.section	.gcc_except_table,"a",@progbits
	.p2align	2
GCC_except_table48:
.Lexception8:
	.byte	255                     # @LPStart Encoding = omit
	.byte	255                     # @TType Encoding = omit
	.byte	3                       # Call site Encoding = udata4
	.uleb128 .Lcst_end8-.Lcst_begin8
.Lcst_begin8:
	.word	.Lfunc_begin8-.Lfunc_begin8 # >> Call Site 1 <<
	.word	.Ltmp193-.Lfunc_begin8  #   Call between .Lfunc_begin8 and .Ltmp193
	.word	0                       #     has no landing pad
	.byte	0                       #   On action: cleanup
	.word	.Ltmp193-.Lfunc_begin8  # >> Call Site 2 <<
	.word	.Ltmp196-.Ltmp193       #   Call between .Ltmp193 and .Ltmp196
	.word	.Ltmp197-.Lfunc_begin8  #     jumps to .Ltmp197
	.byte	0                       #   On action: cleanup
	.word	.Ltmp198-.Lfunc_begin8  # >> Call Site 3 <<
	.word	.Ltmp203-.Ltmp198       #   Call between .Ltmp198 and .Ltmp203
	.word	.Ltmp204-.Lfunc_begin8  #     jumps to .Ltmp204
	.byte	0                       #   On action: cleanup
	.word	.Ltmp213-.Lfunc_begin8  # >> Call Site 4 <<
	.word	.Ltmp232-.Ltmp213       #   Call between .Ltmp213 and .Ltmp232
	.word	.Ltmp233-.Lfunc_begin8  #     jumps to .Ltmp233
	.byte	0                       #   On action: cleanup
	.word	.Ltmp232-.Lfunc_begin8  # >> Call Site 5 <<
	.word	.Lfunc_end48-.Ltmp232   #   Call between .Ltmp232 and .Lfunc_end48
	.word	0                       #     has no landing pad
	.byte	0                       #   On action: cleanup
.Lcst_end8:
	.p2align	2
                                        # -- End function
	.section	.text._ZNSt6chrono13duration_castINS_8durationIlSt5ratioILl1ELl1000EEEElS2_ILl1ELl1000000000EEEENSt9enable_ifIXsr13__is_durationIT_EE5valueES7_E4typeERKNS1_IT0_T1_EE,"axG",@progbits,_ZNSt6chrono13duration_castINS_8durationIlSt5ratioILl1ELl1000EEEElS2_ILl1ELl1000000000EEEENSt9enable_ifIXsr13__is_durationIT_EE5valueES7_E4typeERKNS1_IT0_T1_EE,comdat
	.weak	_ZNSt6chrono13duration_castINS_8durationIlSt5ratioILl1ELl1000EEEElS2_ILl1ELl1000000000EEEENSt9enable_ifIXsr13__is_durationIT_EE5valueES7_E4typeERKNS1_IT0_T1_EE # -- Begin function _ZNSt6chrono13duration_castINS_8durationIlSt5ratioILl1ELl1000EEEElS2_ILl1ELl1000000000EEEENSt9enable_ifIXsr13__is_durationIT_EE5valueES7_E4typeERKNS1_IT0_T1_EE
	.p2align	2
	.type	_ZNSt6chrono13duration_castINS_8durationIlSt5ratioILl1ELl1000EEEElS2_ILl1ELl1000000000EEEENSt9enable_ifIXsr13__is_durationIT_EE5valueES7_E4typeERKNS1_IT0_T1_EE,@function
_ZNSt6chrono13duration_castINS_8durationIlSt5ratioILl1ELl1000EEEElS2_ILl1ELl1000000000EEEENSt9enable_ifIXsr13__is_durationIT_EE5valueES7_E4typeERKNS1_IT0_T1_EE: # @_ZNSt6chrono13duration_castINS_8durationIlSt5ratioILl1ELl1000EEEElS2_ILl1ELl1000000000EEEENSt9enable_ifIXsr13__is_durationIT_EE5valueES7_E4typeERKNS1_IT0_T1_EE
	.cfi_startproc
# %bb.0:                                # %entry
	addi	sp, sp, -32
	.cfi_def_cfa_offset 32
	sd	ra, 24(sp)
	sd	s0, 16(sp)
	.cfi_offset ra, -8
	.cfi_offset s0, -16
	addi	s0, sp, 32
	.cfi_def_cfa s0, 0
	sd	a0, -32(s0)
	ld	a0, -32(s0)
	call	_ZNSt6chrono20__duration_cast_implINS_8durationIlSt5ratioILl1ELl1000EEEES2_ILl1ELl1000000EElLb1ELb0EE6__castIlS2_ILl1ELl1000000000EEEES4_RKNS1_IT_T0_EE
	sd	a0, -24(s0)
	ld	a0, -24(s0)
	ld	s0, 16(sp)
	.cfi_def_cfa sp, 32
	ld	ra, 24(sp)
	.cfi_restore ra
	.cfi_restore s0
	addi	sp, sp, 32
	.cfi_def_cfa_offset 0
	ret
.Lfunc_end49:
	.size	_ZNSt6chrono13duration_castINS_8durationIlSt5ratioILl1ELl1000EEEElS2_ILl1ELl1000000000EEEENSt9enable_ifIXsr13__is_durationIT_EE5valueES7_E4typeERKNS1_IT0_T1_EE, .Lfunc_end49-_ZNSt6chrono13duration_castINS_8durationIlSt5ratioILl1ELl1000EEEElS2_ILl1ELl1000000000EEEENSt9enable_ifIXsr13__is_durationIT_EE5valueES7_E4typeERKNS1_IT0_T1_EE
	.cfi_endproc
                                        # -- End function
	.section	.text._ZNSt6chronomiINS_3_V212system_clockENS_8durationIlSt5ratioILl1ELl1000000000EEEES6_EENSt11common_typeIJT0_T1_EE4typeERKNS_10time_pointIT_S8_EERKNSC_ISD_S9_EE,"axG",@progbits,_ZNSt6chronomiINS_3_V212system_clockENS_8durationIlSt5ratioILl1ELl1000000000EEEES6_EENSt11common_typeIJT0_T1_EE4typeERKNS_10time_pointIT_S8_EERKNSC_ISD_S9_EE,comdat
	.weak	_ZNSt6chronomiINS_3_V212system_clockENS_8durationIlSt5ratioILl1ELl1000000000EEEES6_EENSt11common_typeIJT0_T1_EE4typeERKNS_10time_pointIT_S8_EERKNSC_ISD_S9_EE # -- Begin function _ZNSt6chronomiINS_3_V212system_clockENS_8durationIlSt5ratioILl1ELl1000000000EEEES6_EENSt11common_typeIJT0_T1_EE4typeERKNS_10time_pointIT_S8_EERKNSC_ISD_S9_EE
	.p2align	2
	.type	_ZNSt6chronomiINS_3_V212system_clockENS_8durationIlSt5ratioILl1ELl1000000000EEEES6_EENSt11common_typeIJT0_T1_EE4typeERKNS_10time_pointIT_S8_EERKNSC_ISD_S9_EE,@function
_ZNSt6chronomiINS_3_V212system_clockENS_8durationIlSt5ratioILl1ELl1000000000EEEES6_EENSt11common_typeIJT0_T1_EE4typeERKNS_10time_pointIT_S8_EERKNSC_ISD_S9_EE: # @_ZNSt6chronomiINS_3_V212system_clockENS_8durationIlSt5ratioILl1ELl1000000000EEEES6_EENSt11common_typeIJT0_T1_EE4typeERKNS_10time_pointIT_S8_EERKNSC_ISD_S9_EE
	.cfi_startproc
# %bb.0:                                # %entry
	addi	sp, sp, -64
	.cfi_def_cfa_offset 64
	sd	ra, 56(sp)
	sd	s0, 48(sp)
	.cfi_offset ra, -8
	.cfi_offset s0, -16
	addi	s0, sp, 64
	.cfi_def_cfa s0, 0
	sd	a0, -32(s0)
	sd	a1, -40(s0)
	ld	a0, -32(s0)
	call	_ZNKSt6chrono10time_pointINS_3_V212system_clockENS_8durationIlSt5ratioILl1ELl1000000000EEEEE16time_since_epochEv
	sd	a0, -48(s0)
	ld	a0, -40(s0)
	call	_ZNKSt6chrono10time_pointINS_3_V212system_clockENS_8durationIlSt5ratioILl1ELl1000000000EEEEE16time_since_epochEv
	sd	a0, -56(s0)
	addi	a0, s0, -48
	addi	a1, s0, -56
	call	_ZNSt6chronomiIlSt5ratioILl1ELl1000000000EElS2_EENSt11common_typeIJNS_8durationIT_T0_EENS4_IT1_T2_EEEE4typeERKS7_RKSA_
	sd	a0, -24(s0)
	ld	a0, -24(s0)
	ld	s0, 48(sp)
	.cfi_def_cfa sp, 64
	ld	ra, 56(sp)
	.cfi_restore ra
	.cfi_restore s0
	addi	sp, sp, 64
	.cfi_def_cfa_offset 0
	ret
.Lfunc_end50:
	.size	_ZNSt6chronomiINS_3_V212system_clockENS_8durationIlSt5ratioILl1ELl1000000000EEEES6_EENSt11common_typeIJT0_T1_EE4typeERKNS_10time_pointIT_S8_EERKNSC_ISD_S9_EE, .Lfunc_end50-_ZNSt6chronomiINS_3_V212system_clockENS_8durationIlSt5ratioILl1ELl1000000000EEEES6_EENSt11common_typeIJT0_T1_EE4typeERKNS_10time_pointIT_S8_EERKNSC_ISD_S9_EE
	.cfi_endproc
                                        # -- End function
	.section	.text._ZNKSt6chrono8durationIlSt5ratioILl1ELl1000EEE5countEv,"axG",@progbits,_ZNKSt6chrono8durationIlSt5ratioILl1ELl1000EEE5countEv,comdat
	.weak	_ZNKSt6chrono8durationIlSt5ratioILl1ELl1000EEE5countEv # -- Begin function _ZNKSt6chrono8durationIlSt5ratioILl1ELl1000EEE5countEv
	.p2align	2
	.type	_ZNKSt6chrono8durationIlSt5ratioILl1ELl1000EEE5countEv,@function
_ZNKSt6chrono8durationIlSt5ratioILl1ELl1000EEE5countEv: # @_ZNKSt6chrono8durationIlSt5ratioILl1ELl1000EEE5countEv
# %bb.0:                                # %entry
	addi	sp, sp, -32
	sd	ra, 24(sp)
	sd	s0, 16(sp)
	addi	s0, sp, 32
	sd	a0, -24(s0)
	ld	a0, -24(s0)
	ld	a0, 0(a0)
	ld	s0, 16(sp)
	ld	ra, 24(sp)
	addi	sp, sp, 32
	ret
.Lfunc_end51:
	.size	_ZNKSt6chrono8durationIlSt5ratioILl1ELl1000EEE5countEv, .Lfunc_end51-_ZNKSt6chrono8durationIlSt5ratioILl1ELl1000EEE5countEv
                                        # -- End function
	.section	.text._ZNK5Scene2BBEv,"axG",@progbits,_ZNK5Scene2BBEv,comdat
	.weak	_ZNK5Scene2BBEv         # -- Begin function _ZNK5Scene2BBEv
	.p2align	2
	.type	_ZNK5Scene2BBEv,@function
_ZNK5Scene2BBEv:                        # @_ZNK5Scene2BBEv
# %bb.0:                                # %entry
	addi	sp, sp, -32
	sd	ra, 24(sp)
	sd	s0, 16(sp)
	addi	s0, sp, 32
	sd	a0, -24(s0)
	sd	a1, -32(s0)
	ld	a1, -32(s0)
	ld	a2, 136(a1)
	sd	a2, 40(a0)
	ld	a2, 128(a1)
	sd	a2, 32(a0)
	ld	a2, 120(a1)
	sd	a2, 24(a0)
	ld	a2, 112(a1)
	sd	a2, 16(a0)
	ld	a2, 104(a1)
	sd	a2, 8(a0)
	ld	a1, 96(a1)
	sd	a1, 0(a0)
	ld	s0, 16(sp)
	ld	ra, 24(sp)
	addi	sp, sp, 32
	ret
.Lfunc_end52:
	.size	_ZNK5Scene2BBEv, .Lfunc_end52-_ZNK5Scene2BBEv
                                        # -- End function
	.section	.text._ZN6OctreeI6PhotonEC2ERK11BoundingBoxm,"axG",@progbits,_ZN6OctreeI6PhotonEC2ERK11BoundingBoxm,comdat
	.weak	_ZN6OctreeI6PhotonEC2ERK11BoundingBoxm # -- Begin function _ZN6OctreeI6PhotonEC2ERK11BoundingBoxm
	.p2align	2
	.type	_ZN6OctreeI6PhotonEC2ERK11BoundingBoxm,@function
_ZN6OctreeI6PhotonEC2ERK11BoundingBoxm: # @_ZN6OctreeI6PhotonEC2ERK11BoundingBoxm
.Lfunc_begin9:
	.cfi_startproc
	.cfi_personality 155, DW.ref.__gxx_personality_v0
	.cfi_lsda 27, .Lexception9
# %bb.0:                                # %entry
	addi	sp, sp, -96
	.cfi_def_cfa_offset 96
	sd	ra, 88(sp)
	sd	s0, 80(sp)
	sd	s1, 72(sp)
	sd	s2, 64(sp)
	sd	s3, 56(sp)
	.cfi_offset ra, -8
	.cfi_offset s0, -16
	.cfi_offset s1, -24
	.cfi_offset s2, -32
	.cfi_offset s3, -40
	addi	s0, sp, 96
	.cfi_def_cfa s0, 0
	sd	a0, -48(s0)
	sd	a1, -56(s0)
	sd	a2, -64(s0)
	ld	s1, -48(s0)
	mv	a0, s1
	call	_ZNSt6vectorI6PhotonSaIS0_EEC2Ev
	ld	a0, -56(s0)
	ld	a1, 40(a0)
	sd	a1, 64(s1)
	ld	a1, 32(a0)
	sd	a1, 56(s1)
	ld	a1, 24(a0)
	sd	a1, 48(s1)
	ld	a1, 16(a0)
	sd	a1, 40(s1)
	ld	a1, 8(a0)
	sd	a1, 32(s1)
	ld	a0, 0(a0)
	sd	a0, 24(s1)
	addi	s2, s1, 72
	addi	s3, s0, -72
	mv	a0, s3
	call	_ZNSaISt10unique_ptrI6OctreeI6PhotonESt14default_deleteIS2_EEEC2Ev
.Ltmp234:
	mv	a0, s2
	mv	a1, zero
	mv	a2, s3
	call	_ZNSt6vectorISt10unique_ptrI6OctreeI6PhotonESt14default_deleteIS3_EESaIS6_EEC2EmRKS7_
.Ltmp235:
	j	.LBB53_1
.LBB53_1:                               # %invoke.cont
	addi	a0, s0, -72
	call	_ZNSaISt10unique_ptrI6OctreeI6PhotonESt14default_deleteIS2_EEED2Ev
	ld	a0, -64(s0)
	sd	a0, 96(s1)
	ld	s3, 56(sp)
	ld	s2, 64(sp)
	ld	s1, 72(sp)
	ld	s0, 80(sp)
	.cfi_def_cfa sp, 96
	ld	ra, 88(sp)
	.cfi_restore ra
	.cfi_restore s0
	.cfi_restore s1
	.cfi_restore s2
	.cfi_restore s3
	addi	sp, sp, 96
	.cfi_def_cfa_offset 0
	ret
.LBB53_2:                               # %lpad
.Ltmp236:
	sd	a0, -80(s0)
	sw	a1, -84(s0)
	addi	a0, s0, -72
	call	_ZNSaISt10unique_ptrI6OctreeI6PhotonESt14default_deleteIS2_EEED2Ev
	mv	a0, s1
	call	_ZNSt6vectorI6PhotonSaIS0_EED2Ev
	j	.LBB53_3
.LBB53_3:                               # %eh.resume
	ld	a0, -80(s0)
	call	_Unwind_Resume
.Lfunc_end53:
	.size	_ZN6OctreeI6PhotonEC2ERK11BoundingBoxm, .Lfunc_end53-_ZN6OctreeI6PhotonEC2ERK11BoundingBoxm
	.cfi_endproc
	.section	.gcc_except_table,"a",@progbits
	.p2align	2
GCC_except_table53:
.Lexception9:
	.byte	255                     # @LPStart Encoding = omit
	.byte	255                     # @TType Encoding = omit
	.byte	3                       # Call site Encoding = udata4
	.uleb128 .Lcst_end9-.Lcst_begin9
.Lcst_begin9:
	.word	.Ltmp234-.Lfunc_begin9  # >> Call Site 1 <<
	.word	.Ltmp235-.Ltmp234       #   Call between .Ltmp234 and .Ltmp235
	.word	.Ltmp236-.Lfunc_begin9  #     jumps to .Ltmp236
	.byte	0                       #   On action: cleanup
	.word	.Ltmp235-.Lfunc_begin9  # >> Call Site 2 <<
	.word	.Lfunc_end53-.Ltmp235   #   Call between .Ltmp235 and .Lfunc_end53
	.word	0                       #     has no landing pad
	.byte	0                       #   On action: cleanup
.Lcst_end9:
	.p2align	2
                                        # -- End function
	.section	.text._ZNSt6vectorIS_I6PhotonSaIS0_EESaIS2_EEixEm,"axG",@progbits,_ZNSt6vectorIS_I6PhotonSaIS0_EESaIS2_EEixEm,comdat
	.weak	_ZNSt6vectorIS_I6PhotonSaIS0_EESaIS2_EEixEm # -- Begin function _ZNSt6vectorIS_I6PhotonSaIS0_EESaIS2_EEixEm
	.p2align	2
	.type	_ZNSt6vectorIS_I6PhotonSaIS0_EESaIS2_EEixEm,@function
_ZNSt6vectorIS_I6PhotonSaIS0_EESaIS2_EEixEm: # @_ZNSt6vectorIS_I6PhotonSaIS0_EESaIS2_EEixEm
# %bb.0:                                # %entry
	addi	sp, sp, -32
	sd	ra, 24(sp)
	sd	s0, 16(sp)
	addi	s0, sp, 32
	sd	a0, -24(s0)
	sd	a1, -32(s0)
	ld	a0, -24(s0)
	ld	a0, 0(a0)
	ld	a1, -32(s0)
	addi	a2, zero, 24
	mul	a1, a1, a2
	add	a0, a0, a1
	ld	s0, 16(sp)
	ld	ra, 24(sp)
	addi	sp, sp, 32
	ret
.Lfunc_end54:
	.size	_ZNSt6vectorIS_I6PhotonSaIS0_EESaIS2_EEixEm, .Lfunc_end54-_ZNSt6vectorIS_I6PhotonSaIS0_EESaIS2_EEixEm
                                        # -- End function
	.section	.text._ZNKSt6vectorI6PhotonSaIS0_EE4sizeEv,"axG",@progbits,_ZNKSt6vectorI6PhotonSaIS0_EE4sizeEv,comdat
	.weak	_ZNKSt6vectorI6PhotonSaIS0_EE4sizeEv # -- Begin function _ZNKSt6vectorI6PhotonSaIS0_EE4sizeEv
	.p2align	2
	.type	_ZNKSt6vectorI6PhotonSaIS0_EE4sizeEv,@function
_ZNKSt6vectorI6PhotonSaIS0_EE4sizeEv:   # @_ZNKSt6vectorI6PhotonSaIS0_EE4sizeEv
# %bb.0:                                # %entry
	addi	sp, sp, -32
	sd	ra, 24(sp)
	sd	s0, 16(sp)
	addi	s0, sp, 32
	sd	a0, -24(s0)
	ld	a0, -24(s0)
	ld	a1, 8(a0)
	ld	a0, 0(a0)
	sub	a0, a1, a0
	srai	a0, a0, 5
	ld	s0, 16(sp)
	ld	ra, 24(sp)
	addi	sp, sp, 32
	ret
.Lfunc_end55:
	.size	_ZNKSt6vectorI6PhotonSaIS0_EE4sizeEv, .Lfunc_end55-_ZNKSt6vectorI6PhotonSaIS0_EE4sizeEv
                                        # -- End function
	.text
	.p2align	2               # -- Begin function _ZZN12PhotonMapperC1ERKN8nlohmann10basic_jsonISt3mapSt6vectorNSt7__cxx1112basic_stringIcSt11char_traitsIcESaIcEEEblmdSaNS0_14adl_serializerEEEENK3$_0clIS3_I6PhotonSaISG_EE6OctreeISG_EEEDaRT_RT0_
	.type	_ZZN12PhotonMapperC1ERKN8nlohmann10basic_jsonISt3mapSt6vectorNSt7__cxx1112basic_stringIcSt11char_traitsIcESaIcEEEblmdSaNS0_14adl_serializerEEEENK3$_0clIS3_I6PhotonSaISG_EE6OctreeISG_EEEDaRT_RT0_,@function
_ZZN12PhotonMapperC1ERKN8nlohmann10basic_jsonISt3mapSt6vectorNSt7__cxx1112basic_stringIcSt11char_traitsIcESaIcEEEblmdSaNS0_14adl_serializerEEEENK3$_0clIS3_I6PhotonSaISG_EE6OctreeISG_EEEDaRT_RT0_: # @"_ZZN12PhotonMapperC1ERKN8nlohmann10basic_jsonISt3mapSt6vectorNSt7__cxx1112basic_stringIcSt11char_traitsIcESaIcEEEblmdSaNS0_14adl_serializerEEEENK3$_0clIS3_I6PhotonSaISG_EE6OctreeISG_EEEDaRT_RT0_"
	.cfi_startproc
# %bb.0:                                # %entry
	addi	sp, sp, -112
	.cfi_def_cfa_offset 112
	sd	ra, 104(sp)
	sd	s0, 96(sp)
	sd	s1, 88(sp)
	sd	s2, 80(sp)
	.cfi_offset ra, -8
	.cfi_offset s0, -16
	.cfi_offset s1, -24
	.cfi_offset s2, -32
	addi	s0, sp, 112
	.cfi_def_cfa s0, 0
	sd	a0, -40(s0)
	sd	a1, -48(s0)
	sd	a2, -56(s0)
	sd	zero, -64(s0)
	ld	a0, -48(s0)
	call	_ZNSt6vectorI6PhotonSaIS0_EE3endEv
	sd	a0, -72(s0)
	j	.LBB56_1
.LBB56_1:                               # %while.cond
                                        # =>This Inner Loop Header: Depth=1
	ld	a0, -48(s0)
	call	_ZNSt6vectorI6PhotonSaIS0_EE5beginEv
	sd	a0, -80(s0)
	addi	a0, s0, -72
	addi	a1, s0, -80
	call	_ZN9__gnu_cxxgtIP6PhotonSt6vectorIS1_SaIS1_EEEEbRKNS_17__normal_iteratorIT_T0_EESB_
	beqz	a0, .LBB56_5
	j	.LBB56_2
.LBB56_2:                               # %while.body
                                        #   in Loop: Header=BB56_1 Depth=1
	ld	a0, -64(s0)
	lui	a1, 4096
	addiw	a1, a1, 1
	bltu	a0, a1, .LBB56_4
	j	.LBB56_3
.LBB56_3:                               # %if.then
                                        #   in Loop: Header=BB56_1 Depth=1
	ld	a0, -48(s0)
	call	_ZNSt6vectorI6PhotonSaIS0_EE13shrink_to_fitEv
	ld	a0, -48(s0)
	call	_ZNSt6vectorI6PhotonSaIS0_EE3endEv
	sd	a0, -88(s0)
	ld	a0, -88(s0)
	sd	a0, -72(s0)
	sd	zero, -64(s0)
	j	.LBB56_4
.LBB56_4:                               # %if.end
                                        #   in Loop: Header=BB56_1 Depth=1
	addi	s2, s0, -72
	mv	a0, s2
	mv	a1, zero
	call	_ZN9__gnu_cxx17__normal_iteratorIP6PhotonSt6vectorIS1_SaIS1_EEEmmEi
	sd	a0, -96(s0)
	ld	s1, -56(s0)
	mv	a0, s2
	call	_ZNK9__gnu_cxx17__normal_iteratorIP6PhotonSt6vectorIS1_SaIS1_EEEdeEv
	mv	a1, a0
	mv	a0, s1
	call	_ZN6OctreeI6PhotonE6insertERKS0_
	ld	s1, -48(s0)
	addi	a0, s0, -112
	mv	a1, s2
	call	_ZN9__gnu_cxx17__normal_iteratorIPK6PhotonSt6vectorIS1_SaIS1_EEEC2IPS1_EERKNS0_IT_NS_11__enable_ifIXsr3std10__are_sameISA_S9_EE7__valueES6_E6__typeEEE
	ld	a1, -112(s0)
	mv	a0, s1
	call	_ZNSt6vectorI6PhotonSaIS0_EE5eraseEN9__gnu_cxx17__normal_iteratorIPKS0_S2_EE
	sd	a0, -104(s0)
	ld	a0, -104(s0)
	sd	a0, -72(s0)
	ld	a0, -64(s0)
	addi	a0, a0, 32
	sd	a0, -64(s0)
	j	.LBB56_1
.LBB56_5:                               # %while.end
	ld	a0, -48(s0)
	call	_ZNSt6vectorI6PhotonSaIS0_EE5clearEv
	ld	a0, -48(s0)
	call	_ZNSt6vectorI6PhotonSaIS0_EE13shrink_to_fitEv
	ld	s2, 80(sp)
	ld	s1, 88(sp)
	ld	s0, 96(sp)
	.cfi_def_cfa sp, 112
	ld	ra, 104(sp)
	.cfi_restore ra
	.cfi_restore s0
	.cfi_restore s1
	.cfi_restore s2
	addi	sp, sp, 112
	.cfi_def_cfa_offset 0
	ret
.Lfunc_end56:
	.size	_ZZN12PhotonMapperC1ERKN8nlohmann10basic_jsonISt3mapSt6vectorNSt7__cxx1112basic_stringIcSt11char_traitsIcESaIcEEEblmdSaNS0_14adl_serializerEEEENK3$_0clIS3_I6PhotonSaISG_EE6OctreeISG_EEEDaRT_RT0_, .Lfunc_end56-_ZZN12PhotonMapperC1ERKN8nlohmann10basic_jsonISt3mapSt6vectorNSt7__cxx1112basic_stringIcSt11char_traitsIcESaIcEEEblmdSaNS0_14adl_serializerEEEENK3$_0clIS3_I6PhotonSaISG_EE6OctreeISG_EEEDaRT_RT0_
	.cfi_endproc
                                        # -- End function
	.section	.text._ZN12LinearOctreeI6PhotonEC2ER6OctreeIS0_E,"axG",@progbits,_ZN12LinearOctreeI6PhotonEC2ER6OctreeIS0_E,comdat
	.weak	_ZN12LinearOctreeI6PhotonEC2ER6OctreeIS0_E # -- Begin function _ZN12LinearOctreeI6PhotonEC2ER6OctreeIS0_E
	.p2align	2
	.type	_ZN12LinearOctreeI6PhotonEC2ER6OctreeIS0_E,@function
_ZN12LinearOctreeI6PhotonEC2ER6OctreeIS0_E: # @_ZN12LinearOctreeI6PhotonEC2ER6OctreeIS0_E
.Lfunc_begin10:
	.cfi_startproc
	.cfi_personality 155, DW.ref.__gxx_personality_v0
	.cfi_lsda 27, .Lexception10
# %bb.0:                                # %entry
	addi	sp, sp, -144
	.cfi_def_cfa_offset 144
	sd	ra, 136(sp)
	sd	s0, 128(sp)
	sd	s1, 120(sp)
	sd	s2, 112(sp)
	.cfi_offset ra, -8
	.cfi_offset s0, -16
	.cfi_offset s1, -24
	.cfi_offset s2, -32
	addi	s0, sp, 144
	.cfi_def_cfa s0, 0
	sd	a0, -40(s0)
	sd	a1, -48(s0)
	ld	s1, -40(s0)
	mv	a0, s1
	call	_ZNSt6vectorIN12LinearOctreeI6PhotonE12LinearOctantESaIS3_EEC2Ev
	addi	s2, s1, 24
	mv	a0, s2
	call	_ZNSt6vectorI6PhotonSaIS0_EEC2Ev
	sd	zero, -56(s0)
	sd	zero, -64(s0)
	ld	a1, -48(s0)
.Ltmp237:
	addi	a2, s0, -56
	addi	a3, s0, -64
	mv	a0, s1
	call	_ZNK12LinearOctreeI6PhotonE10octreeSizeERK6OctreeIS0_ERmS6_
.Ltmp238:
	j	.LBB57_1
.LBB57_1:                               # %invoke.cont
	ld	a0, -56(s0)
	beqz	a0, .LBB57_3
	j	.LBB57_2
.LBB57_2:                               # %lor.lhs.false
	ld	a0, -64(s0)
	bnez	a0, .LBB57_5
	j	.LBB57_3
.LBB57_3:                               # %if.then
	j	.LBB57_6
.LBB57_4:                               # %lpad
.Ltmp241:
	sd	a0, -72(s0)
	sw	a1, -76(s0)
	mv	a0, s2
	call	_ZNSt6vectorI6PhotonSaIS0_EED2Ev
	mv	a0, s1
	call	_ZNSt6vectorIN12LinearOctreeI6PhotonE12LinearOctantESaIS3_EED2Ev
	j	.LBB57_7
.LBB57_5:                               # %if.end
	sw	zero, -80(s0)
	sd	zero, -88(s0)
	ld	a2, -48(s0)
.Ltmp239:
	addi	a0, s0, -144
	addi	a3, s0, -80
	addi	a4, s0, -88
	addi	a5, s0, -96
	mv	a1, s1
	addi	a6, zero, 1
	call	_ZN12LinearOctreeI6PhotonE7compactEP6OctreeIS0_ERjRmS6_b
.Ltmp240:
	j	.LBB57_6
.LBB57_6:                               # %invoke.cont3
	ld	s2, 112(sp)
	ld	s1, 120(sp)
	ld	s0, 128(sp)
	.cfi_def_cfa sp, 144
	ld	ra, 136(sp)
	.cfi_restore ra
	.cfi_restore s0
	.cfi_restore s1
	.cfi_restore s2
	addi	sp, sp, 144
	.cfi_def_cfa_offset 0
	ret
.LBB57_7:                               # %eh.resume
	ld	a0, -72(s0)
	call	_Unwind_Resume
.Lfunc_end57:
	.size	_ZN12LinearOctreeI6PhotonEC2ER6OctreeIS0_E, .Lfunc_end57-_ZN12LinearOctreeI6PhotonEC2ER6OctreeIS0_E
	.cfi_endproc
	.section	.gcc_except_table,"a",@progbits
	.p2align	2
GCC_except_table57:
.Lexception10:
	.byte	255                     # @LPStart Encoding = omit
	.byte	255                     # @TType Encoding = omit
	.byte	3                       # Call site Encoding = udata4
	.uleb128 .Lcst_end10-.Lcst_begin10
.Lcst_begin10:
	.word	.Ltmp237-.Lfunc_begin10 # >> Call Site 1 <<
	.word	.Ltmp240-.Ltmp237       #   Call between .Ltmp237 and .Ltmp240
	.word	.Ltmp241-.Lfunc_begin10 #     jumps to .Ltmp241
	.byte	0                       #   On action: cleanup
	.word	.Ltmp240-.Lfunc_begin10 # >> Call Site 2 <<
	.word	.Lfunc_end57-.Ltmp240   #   Call between .Ltmp240 and .Lfunc_end57
	.word	0                       #     has no landing pad
	.byte	0                       #   On action: cleanup
.Lcst_end10:
	.p2align	2
                                        # -- End function
	.section	.text._ZN12LinearOctreeI6PhotonEaSEOS1_,"axG",@progbits,_ZN12LinearOctreeI6PhotonEaSEOS1_,comdat
	.weak	_ZN12LinearOctreeI6PhotonEaSEOS1_ # -- Begin function _ZN12LinearOctreeI6PhotonEaSEOS1_
	.p2align	2
	.type	_ZN12LinearOctreeI6PhotonEaSEOS1_,@function
_ZN12LinearOctreeI6PhotonEaSEOS1_:      # @_ZN12LinearOctreeI6PhotonEaSEOS1_
# %bb.0:                                # %entry
	addi	sp, sp, -48
	sd	ra, 40(sp)
	sd	s0, 32(sp)
	sd	s1, 24(sp)
	addi	s0, sp, 48
	sd	a0, -32(s0)
	sd	a1, -40(s0)
	ld	s1, -32(s0)
	ld	a1, -40(s0)
	mv	a0, s1
	call	_ZNSt6vectorIN12LinearOctreeI6PhotonE12LinearOctantESaIS3_EEaSEOS5_
	addi	a0, s1, 24
	ld	a1, -40(s0)
	addi	a1, a1, 24
	call	_ZNSt6vectorI6PhotonSaIS0_EEaSEOS2_
	mv	a0, s1
	ld	s1, 24(sp)
	ld	s0, 32(sp)
	ld	ra, 40(sp)
	addi	sp, sp, 48
	ret
.Lfunc_end58:
	.size	_ZN12LinearOctreeI6PhotonEaSEOS1_, .Lfunc_end58-_ZN12LinearOctreeI6PhotonEaSEOS1_
                                        # -- End function
	.section	.text._ZN12LinearOctreeI6PhotonED2Ev,"axG",@progbits,_ZN12LinearOctreeI6PhotonED2Ev,comdat
	.weak	_ZN12LinearOctreeI6PhotonED2Ev # -- Begin function _ZN12LinearOctreeI6PhotonED2Ev
	.p2align	2
	.type	_ZN12LinearOctreeI6PhotonED2Ev,@function
_ZN12LinearOctreeI6PhotonED2Ev:         # @_ZN12LinearOctreeI6PhotonED2Ev
# %bb.0:                                # %entry
	addi	sp, sp, -32
	sd	ra, 24(sp)
	sd	s0, 16(sp)
	sd	s1, 8(sp)
	addi	s0, sp, 32
	sd	a0, -32(s0)
	ld	s1, -32(s0)
	addi	a0, s1, 24
	call	_ZNSt6vectorI6PhotonSaIS0_EED2Ev
	mv	a0, s1
	call	_ZNSt6vectorIN12LinearOctreeI6PhotonE12LinearOctantESaIS3_EED2Ev
	ld	s1, 8(sp)
	ld	s0, 16(sp)
	ld	ra, 24(sp)
	addi	sp, sp, 32
	ret
.Lfunc_end59:
	.size	_ZN12LinearOctreeI6PhotonED2Ev, .Lfunc_end59-_ZN12LinearOctreeI6PhotonED2Ev
                                        # -- End function
	.section	.text._ZN6OctreeI6PhotonED2Ev,"axG",@progbits,_ZN6OctreeI6PhotonED2Ev,comdat
	.weak	_ZN6OctreeI6PhotonED2Ev # -- Begin function _ZN6OctreeI6PhotonED2Ev
	.p2align	2
	.type	_ZN6OctreeI6PhotonED2Ev,@function
_ZN6OctreeI6PhotonED2Ev:                # @_ZN6OctreeI6PhotonED2Ev
# %bb.0:                                # %entry
	addi	sp, sp, -32
	sd	ra, 24(sp)
	sd	s0, 16(sp)
	sd	s1, 8(sp)
	addi	s0, sp, 32
	sd	a0, -32(s0)
	ld	s1, -32(s0)
	addi	a0, s1, 72
	call	_ZNSt6vectorISt10unique_ptrI6OctreeI6PhotonESt14default_deleteIS3_EESaIS6_EED2Ev
	mv	a0, s1
	call	_ZNSt6vectorI6PhotonSaIS0_EED2Ev
	ld	s1, 8(sp)
	ld	s0, 16(sp)
	ld	ra, 24(sp)
	addi	sp, sp, 32
	ret
.Lfunc_end60:
	.size	_ZN6OctreeI6PhotonED2Ev, .Lfunc_end60-_ZN6OctreeI6PhotonED2Ev
                                        # -- End function
	.text
	.p2align	2               # -- Begin function _ZN9WorkQueueIZN12PhotonMapperC1ERKN8nlohmann10basic_jsonISt3mapSt6vectorNSt7__cxx1112basic_stringIcSt11char_traitsIcESaIcEEEblmdSaNS1_14adl_serializerEEEE12EmissionWorkED2Ev
	.type	_ZN9WorkQueueIZN12PhotonMapperC1ERKN8nlohmann10basic_jsonISt3mapSt6vectorNSt7__cxx1112basic_stringIcSt11char_traitsIcESaIcEEEblmdSaNS1_14adl_serializerEEEE12EmissionWorkED2Ev,@function
_ZN9WorkQueueIZN12PhotonMapperC1ERKN8nlohmann10basic_jsonISt3mapSt6vectorNSt7__cxx1112basic_stringIcSt11char_traitsIcESaIcEEEblmdSaNS1_14adl_serializerEEEE12EmissionWorkED2Ev: # @_ZN9WorkQueueIZN12PhotonMapperC1ERKN8nlohmann10basic_jsonISt3mapSt6vectorNSt7__cxx1112basic_stringIcSt11char_traitsIcESaIcEEEblmdSaNS1_14adl_serializerEEEE12EmissionWorkED2Ev
# %bb.0:                                # %entry
	addi	sp, sp, -32
	sd	ra, 24(sp)
	sd	s0, 16(sp)
	addi	s0, sp, 32
	sd	a0, -24(s0)
	ld	a0, -24(s0)
	addi	a0, a0, 8
	call	_ZNSt5queueIZN12PhotonMapperC1ERKN8nlohmann10basic_jsonISt3mapSt6vectorNSt7__cxx1112basic_stringIcSt11char_traitsIcESaIcEEEblmdSaNS1_14adl_serializerEEEE12EmissionWorkSt5dequeISF_SaISF_EEED2Ev
	ld	s0, 16(sp)
	ld	ra, 24(sp)
	addi	sp, sp, 32
	ret
.Lfunc_end61:
	.size	_ZN9WorkQueueIZN12PhotonMapperC1ERKN8nlohmann10basic_jsonISt3mapSt6vectorNSt7__cxx1112basic_stringIcSt11char_traitsIcESaIcEEEblmdSaNS1_14adl_serializerEEEE12EmissionWorkED2Ev, .Lfunc_end61-_ZN9WorkQueueIZN12PhotonMapperC1ERKN8nlohmann10basic_jsonISt3mapSt6vectorNSt7__cxx1112basic_stringIcSt11char_traitsIcESaIcEEEblmdSaNS1_14adl_serializerEEEE12EmissionWorkED2Ev
                                        # -- End function
	.section	.text._ZNSt6vectorIS_I6PhotonSaIS0_EESaIS2_EED2Ev,"axG",@progbits,_ZNSt6vectorIS_I6PhotonSaIS0_EESaIS2_EED2Ev,comdat
	.weak	_ZNSt6vectorIS_I6PhotonSaIS0_EESaIS2_EED2Ev # -- Begin function _ZNSt6vectorIS_I6PhotonSaIS0_EESaIS2_EED2Ev
	.p2align	2
	.type	_ZNSt6vectorIS_I6PhotonSaIS0_EESaIS2_EED2Ev,@function
_ZNSt6vectorIS_I6PhotonSaIS0_EESaIS2_EED2Ev: # @_ZNSt6vectorIS_I6PhotonSaIS0_EESaIS2_EED2Ev
.Lfunc_begin11:
	.cfi_startproc
	.cfi_personality 155, DW.ref.__gxx_personality_v0
	.cfi_lsda 27, .Lexception11
# %bb.0:                                # %entry
	addi	sp, sp, -64
	.cfi_def_cfa_offset 64
	sd	ra, 56(sp)
	sd	s0, 48(sp)
	sd	s1, 40(sp)
	sd	s2, 32(sp)
	sd	s3, 24(sp)
	.cfi_offset ra, -8
	.cfi_offset s0, -16
	.cfi_offset s1, -24
	.cfi_offset s2, -32
	.cfi_offset s3, -40
	addi	s0, sp, 64
	.cfi_def_cfa s0, 0
	sd	a0, -48(s0)
	ld	s1, -48(s0)
	ld	s2, 0(s1)
	ld	s3, 8(s1)
	mv	a0, s1
	call	_ZNSt12_Vector_baseISt6vectorI6PhotonSaIS1_EESaIS3_EE19_M_get_Tp_allocatorEv
	mv	a2, a0
.Ltmp242:
	mv	a0, s2
	mv	a1, s3
	call	_ZSt8_DestroyIPSt6vectorI6PhotonSaIS1_EES3_EvT_S5_RSaIT0_E
.Ltmp243:
	j	.LBB62_1
.LBB62_1:                               # %invoke.cont
	mv	a0, s1
	call	_ZNSt12_Vector_baseISt6vectorI6PhotonSaIS1_EESaIS3_EED2Ev
	ld	s3, 24(sp)
	ld	s2, 32(sp)
	ld	s1, 40(sp)
	ld	s0, 48(sp)
	.cfi_def_cfa sp, 64
	ld	ra, 56(sp)
	.cfi_restore ra
	.cfi_restore s0
	.cfi_restore s1
	.cfi_restore s2
	.cfi_restore s3
	addi	sp, sp, 64
	.cfi_def_cfa_offset 0
	ret
.LBB62_2:                               # %lpad
.Ltmp244:
	sd	a0, -56(s0)
	sw	a1, -60(s0)
	mv	a0, s1
	call	_ZNSt12_Vector_baseISt6vectorI6PhotonSaIS1_EESaIS3_EED2Ev
	j	.LBB62_3
.LBB62_3:                               # %terminate.handler
	ld	a0, -56(s0)
	call	__clang_call_terminate
.Lfunc_end62:
	.size	_ZNSt6vectorIS_I6PhotonSaIS0_EESaIS2_EED2Ev, .Lfunc_end62-_ZNSt6vectorIS_I6PhotonSaIS0_EESaIS2_EED2Ev
	.cfi_endproc
	.section	.gcc_except_table,"a",@progbits
	.p2align	2
GCC_except_table62:
.Lexception11:
	.byte	255                     # @LPStart Encoding = omit
	.byte	155                     # @TType Encoding = indirect pcrel sdata4
	.uleb128 .Lttbase2-.Lttbaseref2
.Lttbaseref2:
	.byte	3                       # Call site Encoding = udata4
	.uleb128 .Lcst_end11-.Lcst_begin11
.Lcst_begin11:
	.word	.Ltmp242-.Lfunc_begin11 # >> Call Site 1 <<
	.word	.Ltmp243-.Ltmp242       #   Call between .Ltmp242 and .Ltmp243
	.word	.Ltmp244-.Lfunc_begin11 #     jumps to .Ltmp244
	.byte	1                       #   On action: 1
.Lcst_end11:
	.byte	1                       # >> Action Record 1 <<
                                        #   Catch TypeInfo 1
	.byte	0                       #   No further actions
	.p2align	2
                                        # >> Catch TypeInfos <<
	.word	0                       # TypeInfo 1
.Lttbase2:
	.p2align	2
                                        # -- End function
	.section	.text._ZN7Sampler7shuffleEv,"axG",@progbits,_ZN7Sampler7shuffleEv,comdat
	.weak	_ZN7Sampler7shuffleEv   # -- Begin function _ZN7Sampler7shuffleEv
	.p2align	2
	.type	_ZN7Sampler7shuffleEv,@function
_ZN7Sampler7shuffleEv:                  # @_ZN7Sampler7shuffleEv
	.cfi_startproc
# %bb.0:                                # %entry
	addi	sp, sp, -32
	.cfi_def_cfa_offset 32
	sd	ra, 24(sp)
	sd	s0, 16(sp)
	sd	s1, 8(sp)
	.cfi_offset ra, -8
	.cfi_offset s0, -16
	.cfi_offset s1, -24
	addi	s0, sp, 32
	.cfi_def_cfa s0, 0
	call	_ZTWN7Sampler9base_seedE
	lw	s1, 0(a0)
	call	_ZTWN7Sampler8sequenceE
	lw	a1, 0(a0)
	addi	a2, a1, 1
	sw	a2, 0(a0)
	addiw	a0, a1, 1
	call	_ZN7Sampler4hashEj
	mv	a1, a0
	mv	a0, s1
	call	_ZN7Sampler11hashCombineEjj
	mv	s1, a0
	call	_ZTWN7Sampler4seedE
	sw	s1, 0(a0)
	call	_ZTWN7Sampler18bit_reversed_indexE
	lw	s1, 0(a0)
	call	_ZTWN7Sampler4seedE
	lw	a1, 0(a0)
	mv	a0, s1
	call	_ZN7Sampler8scrambleEjj
	mv	s1, a0
	call	_ZTWN7Sampler14shuffled_indexE
	sw	s1, 0(a0)
	ld	s1, 8(sp)
	ld	s0, 16(sp)
	.cfi_def_cfa sp, 32
	ld	ra, 24(sp)
	.cfi_restore ra
	.cfi_restore s0
	.cfi_restore s1
	addi	sp, sp, 32
	.cfi_def_cfa_offset 0
	ret
.Lfunc_end63:
	.size	_ZN7Sampler7shuffleEv, .Lfunc_end63-_ZN7Sampler7shuffleEv
	.cfi_endproc
                                        # -- End function
	.section	.text._ZNK12IntersectioncvbEv,"axG",@progbits,_ZNK12IntersectioncvbEv,comdat
	.weak	_ZNK12IntersectioncvbEv # -- Begin function _ZNK12IntersectioncvbEv
	.p2align	2
	.type	_ZNK12IntersectioncvbEv,@function
_ZNK12IntersectioncvbEv:                # @_ZNK12IntersectioncvbEv
# %bb.0:                                # %entry
	addi	sp, sp, -32
	sd	ra, 24(sp)
	sd	s0, 16(sp)
	addi	s0, sp, 32
	sd	a0, -24(s0)
	ld	a0, -24(s0)
	call	_ZNKSt12__shared_ptrIN7Surface4BaseELN9__gnu_cxx12_Lock_policyE0EEcvbEv
	ld	s0, 16(sp)
	ld	ra, 24(sp)
	addi	sp, sp, 32
	ret
.Lfunc_end64:
	.size	_ZNK12IntersectioncvbEv, .Lfunc_end64-_ZNK12IntersectioncvbEv
                                        # -- End function
	.section	.text._ZNSt6vectorI6PhotonSaIS0_EE12emplace_backIJRN3glm3vecILi3EdLNS4_9qualifierE0EEES8_S7_EEERS0_DpOT_,"axG",@progbits,_ZNSt6vectorI6PhotonSaIS0_EE12emplace_backIJRN3glm3vecILi3EdLNS4_9qualifierE0EEES8_S7_EEERS0_DpOT_,comdat
	.weak	_ZNSt6vectorI6PhotonSaIS0_EE12emplace_backIJRN3glm3vecILi3EdLNS4_9qualifierE0EEES8_S7_EEERS0_DpOT_ # -- Begin function _ZNSt6vectorI6PhotonSaIS0_EE12emplace_backIJRN3glm3vecILi3EdLNS4_9qualifierE0EEES8_S7_EEERS0_DpOT_
	.p2align	2
	.type	_ZNSt6vectorI6PhotonSaIS0_EE12emplace_backIJRN3glm3vecILi3EdLNS4_9qualifierE0EEES8_S7_EEERS0_DpOT_,@function
_ZNSt6vectorI6PhotonSaIS0_EE12emplace_backIJRN3glm3vecILi3EdLNS4_9qualifierE0EEES8_S7_EEERS0_DpOT_: # @_ZNSt6vectorI6PhotonSaIS0_EE12emplace_backIJRN3glm3vecILi3EdLNS4_9qualifierE0EEES8_S7_EEERS0_DpOT_
	.cfi_startproc
# %bb.0:                                # %entry
	addi	sp, sp, -96
	.cfi_def_cfa_offset 96
	sd	ra, 88(sp)
	sd	s0, 80(sp)
	sd	s1, 72(sp)
	sd	s2, 64(sp)
	sd	s3, 56(sp)
	sd	s4, 48(sp)
	.cfi_offset ra, -8
	.cfi_offset s0, -16
	.cfi_offset s1, -24
	.cfi_offset s2, -32
	.cfi_offset s3, -40
	.cfi_offset s4, -48
	addi	s0, sp, 96
	.cfi_def_cfa s0, 0
	sd	a0, -56(s0)
	sd	a1, -64(s0)
	sd	a2, -72(s0)
	sd	a3, -80(s0)
	ld	s1, -56(s0)
	ld	a0, 8(s1)
	ld	a1, 16(s1)
	beq	a0, a1, .LBB65_2
	j	.LBB65_1
.LBB65_1:                               # %if.then
	ld	s2, 8(s1)
	ld	a0, -64(s0)
	call	_ZSt7forwardIRN3glm3vecILi3EdLNS0_9qualifierE0EEEEOT_RNSt16remove_referenceIS5_E4typeE
	mv	s3, a0
	ld	a0, -72(s0)
	call	_ZSt7forwardIRN3glm3vecILi3EdLNS0_9qualifierE0EEEEOT_RNSt16remove_referenceIS5_E4typeE
	mv	s4, a0
	ld	a0, -80(s0)
	call	_ZSt7forwardIN3glm3vecILi3EdLNS0_9qualifierE0EEEEOT_RNSt16remove_referenceIS4_E4typeE
	mv	a4, a0
	mv	a0, s1
	mv	a1, s2
	mv	a2, s3
	mv	a3, s4
	call	_ZNSt16allocator_traitsISaI6PhotonEE9constructIS0_JRN3glm3vecILi3EdLNS4_9qualifierE0EEES8_S7_EEEvRS1_PT_DpOT0_
	ld	a0, 8(s1)
	addi	a0, a0, 32
	sd	a0, 8(s1)
	j	.LBB65_3
.LBB65_2:                               # %if.else
	mv	a0, s1
	call	_ZNSt6vectorI6PhotonSaIS0_EE3endEv
	sd	a0, -88(s0)
	ld	a0, -64(s0)
	call	_ZSt7forwardIRN3glm3vecILi3EdLNS0_9qualifierE0EEEEOT_RNSt16remove_referenceIS5_E4typeE
	mv	s2, a0
	ld	a0, -72(s0)
	call	_ZSt7forwardIRN3glm3vecILi3EdLNS0_9qualifierE0EEEEOT_RNSt16remove_referenceIS5_E4typeE
	mv	s3, a0
	ld	a0, -80(s0)
	call	_ZSt7forwardIN3glm3vecILi3EdLNS0_9qualifierE0EEEEOT_RNSt16remove_referenceIS4_E4typeE
	mv	a4, a0
	ld	a1, -88(s0)
	mv	a0, s1
	mv	a2, s2
	mv	a3, s3
	call	_ZNSt6vectorI6PhotonSaIS0_EE17_M_realloc_insertIJRN3glm3vecILi3EdLNS4_9qualifierE0EEES8_S7_EEEvN9__gnu_cxx17__normal_iteratorIPS0_S2_EEDpOT_
	j	.LBB65_3
.LBB65_3:                               # %if.end
	mv	a0, s1
	call	_ZNSt6vectorI6PhotonSaIS0_EE4backEv
	ld	s4, 48(sp)
	ld	s3, 56(sp)
	ld	s2, 64(sp)
	ld	s1, 72(sp)
	ld	s0, 80(sp)
	.cfi_def_cfa sp, 96
	ld	ra, 88(sp)
	.cfi_restore ra
	.cfi_restore s0
	.cfi_restore s1
	.cfi_restore s2
	.cfi_restore s3
	.cfi_restore s4
	addi	sp, sp, 96
	.cfi_def_cfa_offset 0
	ret
.Lfunc_end65:
	.size	_ZNSt6vectorI6PhotonSaIS0_EE12emplace_backIJRN3glm3vecILi3EdLNS4_9qualifierE0EEES8_S7_EEERS0_DpOT_, .Lfunc_end65-_ZNSt6vectorI6PhotonSaIS0_EE12emplace_backIJRN3glm3vecILi3EdLNS4_9qualifierE0EEES8_S7_EEERS0_DpOT_
	.cfi_endproc
                                        # -- End function
	.section	.text._ZN3glmngIdLNS_9qualifierE0EEENS_3vecILi3ET_XT0_EEERKS4_,"axG",@progbits,_ZN3glmngIdLNS_9qualifierE0EEENS_3vecILi3ET_XT0_EEERKS4_,comdat
	.weak	_ZN3glmngIdLNS_9qualifierE0EEENS_3vecILi3ET_XT0_EEERKS4_ # -- Begin function _ZN3glmngIdLNS_9qualifierE0EEENS_3vecILi3ET_XT0_EEERKS4_
	.p2align	2
	.type	_ZN3glmngIdLNS_9qualifierE0EEENS_3vecILi3ET_XT0_EEERKS4_,@function
_ZN3glmngIdLNS_9qualifierE0EEENS_3vecILi3ET_XT0_EEERKS4_: # @_ZN3glmngIdLNS_9qualifierE0EEENS_3vecILi3ET_XT0_EEERKS4_
	.cfi_startproc
# %bb.0:                                # %entry
	addi	sp, sp, -32
	.cfi_def_cfa_offset 32
	sd	ra, 24(sp)
	sd	s0, 16(sp)
	.cfi_offset ra, -8
	.cfi_offset s0, -16
	addi	s0, sp, 32
	.cfi_def_cfa s0, 0
	sd	a0, -24(s0)
	sd	a1, -32(s0)
	ld	a1, -32(s0)
	ld	a2, 0(a1)
	ld	a3, 8(a1)
	ld	a4, 16(a1)
	addi	a1, zero, -1
	slli	a5, a1, 63
	xor	a1, a2, a5
	xor	a2, a3, a5
	xor	a3, a4, a5
	call	_ZN3glm3vecILi3EdLNS_9qualifierE0EEC2Eddd
	ld	s0, 16(sp)
	.cfi_def_cfa sp, 32
	ld	ra, 24(sp)
	.cfi_restore ra
	.cfi_restore s0
	addi	sp, sp, 32
	.cfi_def_cfa_offset 0
	ret
.Lfunc_end66:
	.size	_ZN3glmngIdLNS_9qualifierE0EEENS_3vecILi3ET_XT0_EEERKS4_, .Lfunc_end66-_ZN3glmngIdLNS_9qualifierE0EEENS_3vecILi3ET_XT0_EEERKS4_
	.cfi_endproc
                                        # -- End function
	.section	.text._ZN7Sampler3getILi2ELi1EEEDav,"axG",@progbits,_ZN7Sampler3getILi2ELi1EEEDav,comdat
	.weak	_ZN7Sampler3getILi2ELi1EEEDav # -- Begin function _ZN7Sampler3getILi2ELi1EEEDav
	.p2align	2
	.type	_ZN7Sampler3getILi2ELi1EEEDav,@function
_ZN7Sampler3getILi2ELi1EEEDav:          # @_ZN7Sampler3getILi2ELi1EEEDav
	.cfi_startproc
# %bb.0:                                # %entry
	addi	sp, sp, -48
	.cfi_def_cfa_offset 48
	sd	ra, 40(sp)
	sd	s0, 32(sp)
	.cfi_offset ra, -8
	.cfi_offset s0, -16
	addi	s0, sp, 48
	.cfi_def_cfa s0, 0
	addi	a0, s0, -32
	sd	a0, -40(s0)
	addi	a0, s0, -40
	call	_Z12unrolledLoopIiLi1EZN7Sampler3getILi2ELi1EEEDavEUlT_E_EvOT1_
	ld	a0, -32(s0)
	sd	a0, -24(s0)
	ld	a0, -24(s0)
	ld	s0, 32(sp)
	.cfi_def_cfa sp, 48
	ld	ra, 40(sp)
	.cfi_restore ra
	.cfi_restore s0
	addi	sp, sp, 48
	.cfi_def_cfa_offset 0
	ret
.Lfunc_end67:
	.size	_ZN7Sampler3getILi2ELi1EEEDav, .Lfunc_end67-_ZN7Sampler3getILi2ELi1EEEDav
	.cfi_endproc
                                        # -- End function
	.section	.text._ZNSt5arrayIdLm1EEixEm,"axG",@progbits,_ZNSt5arrayIdLm1EEixEm,comdat
	.weak	_ZNSt5arrayIdLm1EEixEm  # -- Begin function _ZNSt5arrayIdLm1EEixEm
	.p2align	2
	.type	_ZNSt5arrayIdLm1EEixEm,@function
_ZNSt5arrayIdLm1EEixEm:                 # @_ZNSt5arrayIdLm1EEixEm
# %bb.0:                                # %entry
	addi	sp, sp, -32
	sd	ra, 24(sp)
	sd	s0, 16(sp)
	addi	s0, sp, 32
	sd	a0, -24(s0)
	sd	a1, -32(s0)
	ld	a0, -24(s0)
	ld	a1, -32(s0)
	call	_ZNSt14__array_traitsIdLm1EE6_S_refERA1_Kdm
	ld	s0, 16(sp)
	ld	ra, 24(sp)
	addi	sp, sp, 32
	ret
.Lfunc_end68:
	.size	_ZNSt5arrayIdLm1EEixEm, .Lfunc_end68-_ZNSt5arrayIdLm1EEixEm
                                        # -- End function
	.section	.text._ZNSt6vectorI6PhotonSaIS0_EE12emplace_backIJN3glm3vecILi3EdLNS4_9qualifierE0EEERS7_S7_EEERS0_DpOT_,"axG",@progbits,_ZNSt6vectorI6PhotonSaIS0_EE12emplace_backIJN3glm3vecILi3EdLNS4_9qualifierE0EEERS7_S7_EEERS0_DpOT_,comdat
	.weak	_ZNSt6vectorI6PhotonSaIS0_EE12emplace_backIJN3glm3vecILi3EdLNS4_9qualifierE0EEERS7_S7_EEERS0_DpOT_ # -- Begin function _ZNSt6vectorI6PhotonSaIS0_EE12emplace_backIJN3glm3vecILi3EdLNS4_9qualifierE0EEERS7_S7_EEERS0_DpOT_
	.p2align	2
	.type	_ZNSt6vectorI6PhotonSaIS0_EE12emplace_backIJN3glm3vecILi3EdLNS4_9qualifierE0EEERS7_S7_EEERS0_DpOT_,@function
_ZNSt6vectorI6PhotonSaIS0_EE12emplace_backIJN3glm3vecILi3EdLNS4_9qualifierE0EEERS7_S7_EEERS0_DpOT_: # @_ZNSt6vectorI6PhotonSaIS0_EE12emplace_backIJN3glm3vecILi3EdLNS4_9qualifierE0EEERS7_S7_EEERS0_DpOT_
	.cfi_startproc
# %bb.0:                                # %entry
	addi	sp, sp, -96
	.cfi_def_cfa_offset 96
	sd	ra, 88(sp)
	sd	s0, 80(sp)
	sd	s1, 72(sp)
	sd	s2, 64(sp)
	sd	s3, 56(sp)
	sd	s4, 48(sp)
	.cfi_offset ra, -8
	.cfi_offset s0, -16
	.cfi_offset s1, -24
	.cfi_offset s2, -32
	.cfi_offset s3, -40
	.cfi_offset s4, -48
	addi	s0, sp, 96
	.cfi_def_cfa s0, 0
	sd	a0, -56(s0)
	sd	a1, -64(s0)
	sd	a2, -72(s0)
	sd	a3, -80(s0)
	ld	s1, -56(s0)
	ld	a0, 8(s1)
	ld	a1, 16(s1)
	beq	a0, a1, .LBB69_2
	j	.LBB69_1
.LBB69_1:                               # %if.then
	ld	s2, 8(s1)
	ld	a0, -64(s0)
	call	_ZSt7forwardIN3glm3vecILi3EdLNS0_9qualifierE0EEEEOT_RNSt16remove_referenceIS4_E4typeE
	mv	s3, a0
	ld	a0, -72(s0)
	call	_ZSt7forwardIRN3glm3vecILi3EdLNS0_9qualifierE0EEEEOT_RNSt16remove_referenceIS5_E4typeE
	mv	s4, a0
	ld	a0, -80(s0)
	call	_ZSt7forwardIN3glm3vecILi3EdLNS0_9qualifierE0EEEEOT_RNSt16remove_referenceIS4_E4typeE
	mv	a4, a0
	mv	a0, s1
	mv	a1, s2
	mv	a2, s3
	mv	a3, s4
	call	_ZNSt16allocator_traitsISaI6PhotonEE9constructIS0_JN3glm3vecILi3EdLNS4_9qualifierE0EEERS7_S7_EEEvRS1_PT_DpOT0_
	ld	a0, 8(s1)
	addi	a0, a0, 32
	sd	a0, 8(s1)
	j	.LBB69_3
.LBB69_2:                               # %if.else
	mv	a0, s1
	call	_ZNSt6vectorI6PhotonSaIS0_EE3endEv
	sd	a0, -88(s0)
	ld	a0, -64(s0)
	call	_ZSt7forwardIN3glm3vecILi3EdLNS0_9qualifierE0EEEEOT_RNSt16remove_referenceIS4_E4typeE
	mv	s2, a0
	ld	a0, -72(s0)
	call	_ZSt7forwardIRN3glm3vecILi3EdLNS0_9qualifierE0EEEEOT_RNSt16remove_referenceIS5_E4typeE
	mv	s3, a0
	ld	a0, -80(s0)
	call	_ZSt7forwardIN3glm3vecILi3EdLNS0_9qualifierE0EEEEOT_RNSt16remove_referenceIS4_E4typeE
	mv	a4, a0
	ld	a1, -88(s0)
	mv	a0, s1
	mv	a2, s2
	mv	a3, s3
	call	_ZNSt6vectorI6PhotonSaIS0_EE17_M_realloc_insertIJN3glm3vecILi3EdLNS4_9qualifierE0EEERS7_S7_EEEvN9__gnu_cxx17__normal_iteratorIPS0_S2_EEDpOT_
	j	.LBB69_3
.LBB69_3:                               # %if.end
	mv	a0, s1
	call	_ZNSt6vectorI6PhotonSaIS0_EE4backEv
	ld	s4, 48(sp)
	ld	s3, 56(sp)
	ld	s2, 64(sp)
	ld	s1, 72(sp)
	ld	s0, 80(sp)
	.cfi_def_cfa sp, 96
	ld	ra, 88(sp)
	.cfi_restore ra
	.cfi_restore s0
	.cfi_restore s1
	.cfi_restore s2
	.cfi_restore s3
	.cfi_restore s4
	addi	sp, sp, 96
	.cfi_def_cfa_offset 0
	ret
.Lfunc_end69:
	.size	_ZNSt6vectorI6PhotonSaIS0_EE12emplace_backIJN3glm3vecILi3EdLNS4_9qualifierE0EEERS7_S7_EEERS0_DpOT_, .Lfunc_end69-_ZNSt6vectorI6PhotonSaIS0_EE12emplace_backIJN3glm3vecILi3EdLNS4_9qualifierE0EEERS7_S7_EEERS0_DpOT_
	.cfi_endproc
                                        # -- End function
	.section	.text._ZN3glm3vecILi3EdLNS_9qualifierE0EEdVIdEERS2_T_,"axG",@progbits,_ZN3glm3vecILi3EdLNS_9qualifierE0EEdVIdEERS2_T_,comdat
	.weak	_ZN3glm3vecILi3EdLNS_9qualifierE0EEdVIdEERS2_T_ # -- Begin function _ZN3glm3vecILi3EdLNS_9qualifierE0EEdVIdEERS2_T_
	.p2align	2
	.type	_ZN3glm3vecILi3EdLNS_9qualifierE0EEdVIdEERS2_T_,@function
_ZN3glm3vecILi3EdLNS_9qualifierE0EEdVIdEERS2_T_: # @_ZN3glm3vecILi3EdLNS_9qualifierE0EEdVIdEERS2_T_
# %bb.0:                                # %entry
	addi	sp, sp, -32
	sd	ra, 24(sp)
	sd	s0, 16(sp)
	addi	s0, sp, 32
	fmv.d.x	ft0, a1
	sd	a0, -24(s0)
	sd	a1, -32(s0)
	ld	a0, -24(s0)
	fld	ft0, -32(s0)
	fld	ft1, 0(a0)
	fdiv.d	ft0, ft1, ft0
	fsd	ft0, 0(a0)
	fld	ft0, -32(s0)
	fld	ft1, 8(a0)
	fdiv.d	ft0, ft1, ft0
	fsd	ft0, 8(a0)
	fld	ft0, -32(s0)
	fld	ft1, 16(a0)
	fdiv.d	ft0, ft1, ft0
	fsd	ft0, 16(a0)
	ld	s0, 16(sp)
	ld	ra, 24(sp)
	addi	sp, sp, 32
	ret
.Lfunc_end70:
	.size	_ZN3glm3vecILi3EdLNS_9qualifierE0EEdVIdEERS2_T_, .Lfunc_end70-_ZN3glm3vecILi3EdLNS_9qualifierE0EEdVIdEERS2_T_
                                        # -- End function
	.section	.text._ZSt3minIdERKT_S2_S2_,"axG",@progbits,_ZSt3minIdERKT_S2_S2_,comdat
	.weak	_ZSt3minIdERKT_S2_S2_   # -- Begin function _ZSt3minIdERKT_S2_S2_
	.p2align	2
	.type	_ZSt3minIdERKT_S2_S2_,@function
_ZSt3minIdERKT_S2_S2_:                  # @_ZSt3minIdERKT_S2_S2_
# %bb.0:                                # %entry
	addi	sp, sp, -48
	sd	ra, 40(sp)
	sd	s0, 32(sp)
	addi	s0, sp, 48
	sd	a0, -32(s0)
	sd	a1, -40(s0)
	ld	a0, -40(s0)
	fld	ft0, 0(a0)
	ld	a0, -32(s0)
	fld	ft1, 0(a0)
	flt.d	a0, ft0, ft1
	xori	a0, a0, 1
	bnez	a0, .LBB71_2
	j	.LBB71_1
.LBB71_1:                               # %if.then
	ld	a0, -40(s0)
	sd	a0, -24(s0)
	j	.LBB71_3
.LBB71_2:                               # %if.end
	ld	a0, -32(s0)
	sd	a0, -24(s0)
	j	.LBB71_3
.LBB71_3:                               # %return
	ld	a0, -24(s0)
	ld	s0, 32(sp)
	ld	ra, 40(sp)
	addi	sp, sp, 48
	ret
.Lfunc_end71:
	.size	_ZSt3minIdERKT_S2_S2_, .Lfunc_end71-_ZSt3minIdERKT_S2_S2_
                                        # -- End function
	.section	.text._ZN3glm7compMaxILi3EdLNS_9qualifierE0EEET0_RKNS_3vecIXT_ES2_XT1_EEE,"axG",@progbits,_ZN3glm7compMaxILi3EdLNS_9qualifierE0EEET0_RKNS_3vecIXT_ES2_XT1_EEE,comdat
	.weak	_ZN3glm7compMaxILi3EdLNS_9qualifierE0EEET0_RKNS_3vecIXT_ES2_XT1_EEE # -- Begin function _ZN3glm7compMaxILi3EdLNS_9qualifierE0EEET0_RKNS_3vecIXT_ES2_XT1_EEE
	.p2align	2
	.type	_ZN3glm7compMaxILi3EdLNS_9qualifierE0EEET0_RKNS_3vecIXT_ES2_XT1_EEE,@function
_ZN3glm7compMaxILi3EdLNS_9qualifierE0EEET0_RKNS_3vecIXT_ES2_XT1_EEE: # @_ZN3glm7compMaxILi3EdLNS_9qualifierE0EEET0_RKNS_3vecIXT_ES2_XT1_EEE
	.cfi_startproc
# %bb.0:                                # %entry
	addi	sp, sp, -48
	.cfi_def_cfa_offset 48
	sd	ra, 40(sp)
	sd	s0, 32(sp)
	sd	s1, 24(sp)
	.cfi_offset ra, -8
	.cfi_offset s0, -16
	.cfi_offset s1, -24
	addi	s0, sp, 48
	.cfi_def_cfa s0, 0
	sd	a0, -32(s0)
	ld	a0, -32(s0)
	mv	a1, zero
	call	_ZNK3glm3vecILi3EdLNS_9qualifierE0EEixEi
	fld	ft0, 0(a0)
	fsd	ft0, -40(s0)
	addi	a0, zero, 1
	sw	a0, -44(s0)
	call	_ZN3glm3vecILi3EdLNS_9qualifierE0EE6lengthEv
	sw	a0, -48(s0)
	j	.LBB72_1
.LBB72_1:                               # %for.cond
                                        # =>This Inner Loop Header: Depth=1
	lw	a0, -44(s0)
	lw	a1, -48(s0)
	bge	a0, a1, .LBB72_4
	j	.LBB72_2
.LBB72_2:                               # %for.body
                                        #   in Loop: Header=BB72_1 Depth=1
	ld	a0, -32(s0)
	lw	a1, -44(s0)
	ld	s1, -40(s0)
	call	_ZNK3glm3vecILi3EdLNS_9qualifierE0EEixEi
	ld	a1, 0(a0)
	mv	a0, s1
	call	_ZN3glm3maxIdEET_S1_S1_
	sd	a0, -40(s0)
	j	.LBB72_3
.LBB72_3:                               # %for.inc
                                        #   in Loop: Header=BB72_1 Depth=1
	lw	a0, -44(s0)
	addi	a0, a0, 1
	sw	a0, -44(s0)
	j	.LBB72_1
.LBB72_4:                               # %for.end
	ld	a0, -40(s0)
	ld	s1, 24(sp)
	ld	s0, 32(sp)
	.cfi_def_cfa sp, 48
	ld	ra, 40(sp)
	.cfi_restore ra
	.cfi_restore s0
	.cfi_restore s1
	addi	sp, sp, 48
	.cfi_def_cfa_offset 0
	ret
.Lfunc_end72:
	.size	_ZN3glm7compMaxILi3EdLNS_9qualifierE0EEET0_RKNS_3vecIXT_ES2_XT1_EEE, .Lfunc_end72-_ZN3glm7compMaxILi3EdLNS_9qualifierE0EEET0_RKNS_3vecIXT_ES2_XT1_EEE
	.cfi_endproc
                                        # -- End function
	.section	.text._ZN7Sampler3getILi6ELi1EEEDav,"axG",@progbits,_ZN7Sampler3getILi6ELi1EEEDav,comdat
	.weak	_ZN7Sampler3getILi6ELi1EEEDav # -- Begin function _ZN7Sampler3getILi6ELi1EEEDav
	.p2align	2
	.type	_ZN7Sampler3getILi6ELi1EEEDav,@function
_ZN7Sampler3getILi6ELi1EEEDav:          # @_ZN7Sampler3getILi6ELi1EEEDav
	.cfi_startproc
# %bb.0:                                # %entry
	addi	sp, sp, -48
	.cfi_def_cfa_offset 48
	sd	ra, 40(sp)
	sd	s0, 32(sp)
	.cfi_offset ra, -8
	.cfi_offset s0, -16
	addi	s0, sp, 48
	.cfi_def_cfa s0, 0
	addi	a0, s0, -32
	sd	a0, -40(s0)
	addi	a0, s0, -40
	call	_Z12unrolledLoopIiLi1EZN7Sampler3getILi6ELi1EEEDavEUlT_E_EvOT1_
	ld	a0, -32(s0)
	sd	a0, -24(s0)
	ld	a0, -24(s0)
	ld	s0, 32(sp)
	.cfi_def_cfa sp, 48
	ld	ra, 40(sp)
	.cfi_restore ra
	.cfi_restore s0
	addi	sp, sp, 48
	.cfi_def_cfa_offset 0
	ret
.Lfunc_end73:
	.size	_ZN7Sampler3getILi6ELi1EEEDav, .Lfunc_end73-_ZN7Sampler3getILi6ELi1EEEDav
	.cfi_endproc
                                        # -- End function
	.section	.text._ZN3glm3vecILi3EdLNS_9qualifierE0EEmLIdEERS2_RKNS0_ILi3ET_LS1_0EEE,"axG",@progbits,_ZN3glm3vecILi3EdLNS_9qualifierE0EEmLIdEERS2_RKNS0_ILi3ET_LS1_0EEE,comdat
	.weak	_ZN3glm3vecILi3EdLNS_9qualifierE0EEmLIdEERS2_RKNS0_ILi3ET_LS1_0EEE # -- Begin function _ZN3glm3vecILi3EdLNS_9qualifierE0EEmLIdEERS2_RKNS0_ILi3ET_LS1_0EEE
	.p2align	2
	.type	_ZN3glm3vecILi3EdLNS_9qualifierE0EEmLIdEERS2_RKNS0_ILi3ET_LS1_0EEE,@function
_ZN3glm3vecILi3EdLNS_9qualifierE0EEmLIdEERS2_RKNS0_ILi3ET_LS1_0EEE: # @_ZN3glm3vecILi3EdLNS_9qualifierE0EEmLIdEERS2_RKNS0_ILi3ET_LS1_0EEE
# %bb.0:                                # %entry
	addi	sp, sp, -32
	sd	ra, 24(sp)
	sd	s0, 16(sp)
	addi	s0, sp, 32
	sd	a0, -24(s0)
	sd	a1, -32(s0)
	ld	a0, -24(s0)
	ld	a1, -32(s0)
	fld	ft0, 0(a1)
	fld	ft1, 0(a0)
	fmul.d	ft0, ft1, ft0
	fsd	ft0, 0(a0)
	ld	a1, -32(s0)
	fld	ft0, 8(a1)
	fld	ft1, 8(a0)
	fmul.d	ft0, ft1, ft0
	fsd	ft0, 8(a0)
	ld	a1, -32(s0)
	fld	ft0, 16(a1)
	fld	ft1, 16(a0)
	fmul.d	ft0, ft1, ft0
	fsd	ft0, 16(a0)
	ld	s0, 16(sp)
	ld	ra, 24(sp)
	addi	sp, sp, 32
	ret
.Lfunc_end74:
	.size	_ZN3glm3vecILi3EdLNS_9qualifierE0EEmLIdEERS2_RKNS0_ILi3ET_LS1_0EEE, .Lfunc_end74-_ZN3glm3vecILi3EdLNS_9qualifierE0EEmLIdEERS2_RKNS0_ILi3ET_LS1_0EEE
                                        # -- End function
	.section	.text._ZN11InteractionD2Ev,"axG",@progbits,_ZN11InteractionD2Ev,comdat
	.weak	_ZN11InteractionD2Ev    # -- Begin function _ZN11InteractionD2Ev
	.p2align	2
	.type	_ZN11InteractionD2Ev,@function
_ZN11InteractionD2Ev:                   # @_ZN11InteractionD2Ev
# %bb.0:                                # %entry
	addi	sp, sp, -32
	sd	ra, 24(sp)
	sd	s0, 16(sp)
	sd	s1, 8(sp)
	addi	s0, sp, 32
	sd	a0, -32(s0)
	ld	s1, -32(s0)
	addi	a0, s1, 64
	call	_ZNSt10shared_ptrIN7Surface4BaseEED2Ev
	addi	a0, s1, 48
	call	_ZNSt10shared_ptrI8MaterialED2Ev
	ld	s1, 8(sp)
	ld	s0, 16(sp)
	ld	ra, 24(sp)
	addi	sp, sp, 32
	ret
.Lfunc_end75:
	.size	_ZN11InteractionD2Ev, .Lfunc_end75-_ZN11InteractionD2Ev
                                        # -- End function
	.section	.text._ZN12IntersectionD2Ev,"axG",@progbits,_ZN12IntersectionD2Ev,comdat
	.weak	_ZN12IntersectionD2Ev   # -- Begin function _ZN12IntersectionD2Ev
	.p2align	2
	.type	_ZN12IntersectionD2Ev,@function
_ZN12IntersectionD2Ev:                  # @_ZN12IntersectionD2Ev
# %bb.0:                                # %entry
	addi	sp, sp, -32
	sd	ra, 24(sp)
	sd	s0, 16(sp)
	addi	s0, sp, 32
	sd	a0, -24(s0)
	ld	a0, -24(s0)
	call	_ZNSt10shared_ptrIN7Surface4BaseEED2Ev
	ld	s0, 16(sp)
	ld	ra, 24(sp)
	addi	sp, sp, 32
	ret
.Lfunc_end76:
	.size	_ZN12IntersectionD2Ev, .Lfunc_end76-_ZN12IntersectionD2Ev
                                        # -- End function
	.section	.text._ZN17RefractionHistoryD2Ev,"axG",@progbits,_ZN17RefractionHistoryD2Ev,comdat
	.weak	_ZN17RefractionHistoryD2Ev # -- Begin function _ZN17RefractionHistoryD2Ev
	.p2align	2
	.type	_ZN17RefractionHistoryD2Ev,@function
_ZN17RefractionHistoryD2Ev:             # @_ZN17RefractionHistoryD2Ev
# %bb.0:                                # %entry
	addi	sp, sp, -32
	sd	ra, 24(sp)
	sd	s0, 16(sp)
	addi	s0, sp, 32
	sd	a0, -24(s0)
	ld	a0, -24(s0)
	call	_ZNSt6vectorIdSaIdEED2Ev
	ld	s0, 16(sp)
	ld	ra, 24(sp)
	addi	sp, sp, 32
	ret
.Lfunc_end77:
	.size	_ZN17RefractionHistoryD2Ev, .Lfunc_end77-_ZN17RefractionHistoryD2Ev
                                        # -- End function
	.text
	.globl	_ZN12PhotonMapper9sampleRayE3Ray # -- Begin function _ZN12PhotonMapper9sampleRayE3Ray
	.p2align	2
	.type	_ZN12PhotonMapper9sampleRayE3Ray,@function
_ZN12PhotonMapper9sampleRayE3Ray:       # @_ZN12PhotonMapper9sampleRayE3Ray
.Lfunc_begin12:
	.cfi_startproc
	.cfi_personality 155, DW.ref.__gxx_personality_v0
	.cfi_lsda 27, .Lexception12
# %bb.0:                                # %entry
	addi	sp, sp, -832
	.cfi_def_cfa_offset 832
	sd	ra, 824(sp)
	sd	s0, 816(sp)
	sd	s1, 808(sp)
	sd	s2, 800(sp)
	sd	s3, 792(sp)
	.cfi_offset ra, -8
	.cfi_offset s0, -16
	.cfi_offset s1, -24
	.cfi_offset s2, -32
	.cfi_offset s3, -40
	addi	s0, sp, 832
	.cfi_def_cfa s0, 0
	mv	s1, a2
	mv	s2, a0
	sd	s2, -48(s0)
	sd	a1, -56(s0)
	ld	s3, -56(s0)
	sd	zero, -64(s0)
	sd	zero, -72(s0)
	sd	zero, -80(s0)
	lui	a0, %hi(.L__const._ZN12PhotonMapper9sampleRayE3Ray.throughput)
	addi	a1, a0, %lo(.L__const._ZN12PhotonMapper9sampleRayE3Ray.throughput)
	ld	a2, 16(a1)
	sd	a2, -88(s0)
	ld	a1, 8(a1)
	sd	a1, -96(s0)
	ld	a0, %lo(.L__const._ZN12PhotonMapper9sampleRayE3Ray.throughput)(a0)
	sd	a0, -104(s0)
	addi	a0, s0, -128
	mv	a1, s1
	call	_ZN17RefractionHistoryC1ERK3Ray
	addi	a0, s0, -184
	call	_ZN10Integrator11LightSampleC2Ev
	j	.LBB78_1
.LBB78_1:                               # %while.cond
                                        # =>This Inner Loop Header: Depth=1
	j	.LBB78_2
.LBB78_2:                               # %while.body
                                        #   in Loop: Header=BB78_1 Depth=1
.Ltmp245:
	call	_ZN7Sampler7shuffleEv
.Ltmp246:
	j	.LBB78_3
.LBB78_3:                               # %invoke.cont
                                        #   in Loop: Header=BB78_1 Depth=1
	addi	a1, s3, 16
.Ltmp247:
	addi	a0, s0, -248
	mv	a2, s1
	call	_ZNK5Scene9intersectERK3Ray
.Ltmp248:
	j	.LBB78_4
.LBB78_4:                               # %invoke.cont2
                                        #   in Loop: Header=BB78_1 Depth=1
.Ltmp250:
	addi	a0, s0, -248
	call	_ZNK12IntersectioncvbEv
.Ltmp251:
	j	.LBB78_5
.LBB78_5:                               # %invoke.cont4
                                        #   in Loop: Header=BB78_1 Depth=1
	andi	a0, a0, 1
	bnez	a0, .LBB78_9
	j	.LBB78_6
.LBB78_6:                               # %if.then
                                        #   in Loop: Header=BB78_1 Depth=1
	ld	a0, -64(s0)
	sd	a0, 16(s2)
	ld	a0, -72(s0)
	sd	a0, 8(s2)
	ld	a0, -80(s0)
	sd	a0, 0(s2)
	addi	a0, zero, 1
	sw	a0, -252(s0)
	j	.LBB78_51
.LBB78_7:                               # %lpad
.Ltmp249:
	sd	a0, -192(s0)
	sw	a1, -196(s0)
	j	.LBB78_55
.LBB78_8:                               # %lpad3
.Ltmp256:
	sd	a0, -192(s0)
	sw	a1, -196(s0)
	j	.LBB78_53
.LBB78_9:                               # %if.end
                                        #   in Loop: Header=BB78_1 Depth=1
.Ltmp252:
	addi	a0, s0, -128
	mv	a1, s1
	call	_ZNK17RefractionHistory11externalIORERK3Ray
	fmv.d.x	ft0, a0
.Ltmp253:
	j	.LBB78_10
.LBB78_10:                              # %invoke.cont5
                                        #   in Loop: Header=BB78_1 Depth=1
.Ltmp254:
	fmv.x.d	a3, ft0
	addi	a0, s0, -592
	addi	a1, s0, -248
	mv	a2, s1
	call	_ZN11InteractionC1ERK12IntersectionRK3Rayd
.Ltmp255:
	j	.LBB78_11
.LBB78_11:                              # %invoke.cont7
                                        #   in Loop: Header=BB78_1 Depth=1
.Ltmp257:
	addi	a0, s0, -640
	addi	a2, s0, -592
	addi	a3, s0, -184
	mv	a1, s3
	call	_ZNK10Integrator14sampleEmissiveERK11InteractionRKNS_11LightSampleE
.Ltmp258:
	j	.LBB78_12
.LBB78_12:                              # %invoke.cont10
                                        #   in Loop: Header=BB78_1 Depth=1
.Ltmp259:
	addi	a0, s0, -616
	addi	a1, s0, -640
	addi	a2, s0, -104
	call	_ZN3glmmlIdLNS_9qualifierE0EEENS_3vecILi3ET_XT0_EEERKS4_S6_
.Ltmp260:
	j	.LBB78_13
.LBB78_13:                              # %invoke.cont11
                                        #   in Loop: Header=BB78_1 Depth=1
.Ltmp261:
	addi	a0, s0, -80
	addi	a1, s0, -616
	call	_ZN3glm3vecILi3EdLNS_9qualifierE0EEpLIdEERS2_RKNS0_ILi3ET_LS1_0EEE
.Ltmp262:
	j	.LBB78_14
.LBB78_14:                              # %invoke.cont12
                                        #   in Loop: Header=BB78_1 Depth=1
	lbu	a0, -367(s0)
	andi	a0, a0, 1
	beqz	a0, .LBB78_25
	j	.LBB78_15
.LBB78_15:                              # %if.then14
                                        #   in Loop: Header=BB78_1 Depth=1
	lbu	a0, 88(s1)
	andi	a0, a0, 1
	bnez	a0, .LBB78_19
	j	.LBB78_16
.LBB78_16:                              # %land.lhs.true
                                        #   in Loop: Header=BB78_1 Depth=1
	lhu	a0, 90(s1)
	beqz	a0, .LBB78_19
	j	.LBB78_17
.LBB78_17:                              # %if.then17
                                        #   in Loop: Header=BB78_1 Depth=1
	ld	a0, -64(s0)
	sd	a0, 16(s2)
	ld	a0, -72(s0)
	sd	a0, 8(s2)
	ld	a0, -80(s0)
	sd	a0, 0(s2)
	addi	a0, zero, 1
	sw	a0, -252(s0)
	j	.LBB78_50
.LBB78_18:                              # %lpad9
.Ltmp297:
	sd	a0, -192(s0)
	sw	a1, -196(s0)
	addi	a0, s0, -592
	call	_ZN11InteractionD2Ev
	j	.LBB78_53
.LBB78_19:                              # %if.end18
                                        #   in Loop: Header=BB78_1 Depth=1
.Ltmp287:
	addi	a0, s0, -592
	addi	a1, s0, -152
	addi	a2, s0, -184
	mv	a3, s1
	mv	a4, zero
	call	_ZNK11Interaction10sampleBSDFERN3glm3vecILi3EdLNS0_9qualifierE0EEERdR3Rayb
.Ltmp288:
	j	.LBB78_20
.LBB78_20:                              # %invoke.cont19
                                        #   in Loop: Header=BB78_1 Depth=1
	andi	a0, a0, 1
	bnez	a0, .LBB78_22
	j	.LBB78_21
.LBB78_21:                              # %if.then21
                                        #   in Loop: Header=BB78_1 Depth=1
	ld	a0, -64(s0)
	sd	a0, 16(s2)
	ld	a0, -72(s0)
	sd	a0, 8(s2)
	ld	a0, -80(s0)
	sd	a0, 0(s2)
	addi	a0, zero, 1
	sw	a0, -252(s0)
	j	.LBB78_50
.LBB78_22:                              # %if.end22
                                        #   in Loop: Header=BB78_1 Depth=1
	ld	a2, -184(s0)
.Ltmp289:
	addi	a0, s0, -664
	addi	a1, s0, -152
	call	_ZN3glmdvIdLNS_9qualifierE0EEENS_3vecILi3ET_XT0_EEERKS4_S3_
.Ltmp290:
	j	.LBB78_23
.LBB78_23:                              # %invoke.cont25
                                        #   in Loop: Header=BB78_1 Depth=1
.Ltmp291:
	addi	a0, s0, -104
	addi	a1, s0, -664
	call	_ZN3glm3vecILi3EdLNS_9qualifierE0EEmLIdEERS2_RKNS0_ILi3ET_LS1_0EEE
.Ltmp292:
	j	.LBB78_24
.LBB78_24:                              # %invoke.cont26
                                        #   in Loop: Header=BB78_1 Depth=1
	j	.LBB78_45
.LBB78_25:                              # %if.else
                                        #   in Loop: Header=BB78_1 Depth=1
.Ltmp263:
	addi	a0, s0, -712
	addi	a2, s0, -592
	mv	a1, s3
	call	_ZN12PhotonMapper23estimateCausticRadianceERK11Interaction
.Ltmp264:
	j	.LBB78_26
.LBB78_26:                              # %invoke.cont30
                                        #   in Loop: Header=BB78_1 Depth=1
.Ltmp265:
	addi	a0, s0, -688
	addi	a1, s0, -712
	addi	a2, s0, -104
	call	_ZN3glmmlIdLNS_9qualifierE0EEENS_3vecILi3ET_XT0_EEERKS4_S6_
.Ltmp266:
	j	.LBB78_27
.LBB78_27:                              # %invoke.cont31
                                        #   in Loop: Header=BB78_1 Depth=1
.Ltmp267:
	addi	a0, s0, -80
	addi	a1, s0, -688
	call	_ZN3glm3vecILi3EdLNS_9qualifierE0EEpLIdEERS2_RKNS0_ILi3ET_LS1_0EEE
.Ltmp268:
	j	.LBB78_28
.LBB78_28:                              # %invoke.cont32
                                        #   in Loop: Header=BB78_1 Depth=1
	lbu	a0, 320(s3)
	andi	a0, a0, 1
	bnez	a0, .LBB78_40
	j	.LBB78_29
.LBB78_29:                              # %land.lhs.true35
                                        #   in Loop: Header=BB78_1 Depth=1
	lbu	a0, 88(s1)
	andi	a0, a0, 1
	bnez	a0, .LBB78_31
	j	.LBB78_30
.LBB78_30:                              # %lor.lhs.false
                                        #   in Loop: Header=BB78_1 Depth=1
	lhu	a0, 90(s1)
	bnez	a0, .LBB78_40
	j	.LBB78_31
.LBB78_31:                              # %if.then41
                                        #   in Loop: Header=BB78_1 Depth=1
.Ltmp269:
	addi	a0, s0, -760
	addi	a2, s0, -592
	addi	a3, s0, -184
	mv	a1, s3
	call	_ZNK10Integrator12sampleDirectERK11InteractionRNS_11LightSampleE
.Ltmp270:
	j	.LBB78_32
.LBB78_32:                              # %invoke.cont44
                                        #   in Loop: Header=BB78_1 Depth=1
.Ltmp271:
	addi	a0, s0, -736
	addi	a1, s0, -760
	addi	a2, s0, -104
	call	_ZN3glmmlIdLNS_9qualifierE0EEENS_3vecILi3ET_XT0_EEERKS4_S6_
.Ltmp272:
	j	.LBB78_33
.LBB78_33:                              # %invoke.cont45
                                        #   in Loop: Header=BB78_1 Depth=1
.Ltmp273:
	addi	a0, s0, -80
	addi	a1, s0, -736
	call	_ZN3glm3vecILi3EdLNS_9qualifierE0EEpLIdEERS2_RKNS0_ILi3ET_LS1_0EEE
.Ltmp274:
	j	.LBB78_34
.LBB78_34:                              # %invoke.cont46
                                        #   in Loop: Header=BB78_1 Depth=1
.Ltmp275:
	addi	a0, s0, -592
	addi	a1, s0, -152
	addi	a2, s0, -184
	mv	a3, s1
	mv	a4, zero
	call	_ZNK11Interaction10sampleBSDFERN3glm3vecILi3EdLNS0_9qualifierE0EEERdR3Rayb
.Ltmp276:
	j	.LBB78_35
.LBB78_35:                              # %invoke.cont49
                                        #   in Loop: Header=BB78_1 Depth=1
	andi	a0, a0, 1
	bnez	a0, .LBB78_37
	j	.LBB78_36
.LBB78_36:                              # %if.then51
                                        #   in Loop: Header=BB78_1 Depth=1
	ld	a0, -64(s0)
	sd	a0, 16(s2)
	ld	a0, -72(s0)
	sd	a0, 8(s2)
	ld	a0, -80(s0)
	sd	a0, 0(s2)
	addi	a0, zero, 1
	sw	a0, -252(s0)
	j	.LBB78_50
.LBB78_37:                              # %if.end52
                                        #   in Loop: Header=BB78_1 Depth=1
	ld	a2, -184(s0)
.Ltmp277:
	addi	a0, s0, -784
	addi	a1, s0, -152
	call	_ZN3glmdvIdLNS_9qualifierE0EEENS_3vecILi3ET_XT0_EEERKS4_S3_
.Ltmp278:
	j	.LBB78_38
.LBB78_38:                              # %invoke.cont55
                                        #   in Loop: Header=BB78_1 Depth=1
.Ltmp279:
	addi	a0, s0, -104
	addi	a1, s0, -784
	call	_ZN3glm3vecILi3EdLNS_9qualifierE0EEmLIdEERS2_RKNS0_ILi3ET_LS1_0EEE
.Ltmp280:
	j	.LBB78_39
.LBB78_39:                              # %invoke.cont56
                                        #   in Loop: Header=BB78_1 Depth=1
	j	.LBB78_44
.LBB78_40:                              # %if.else58
                                        #   in Loop: Header=BB78_1 Depth=1
.Ltmp281:
	addi	a0, s0, -832
	addi	a2, s0, -592
	mv	a1, s3
	call	_ZN12PhotonMapper22estimateGlobalRadianceERK11Interaction
.Ltmp282:
	j	.LBB78_41
.LBB78_41:                              # %invoke.cont61
                                        #   in Loop: Header=BB78_1 Depth=1
.Ltmp283:
	addi	a0, s0, -808
	addi	a1, s0, -832
	addi	a2, s0, -104
	call	_ZN3glmmlIdLNS_9qualifierE0EEENS_3vecILi3ET_XT0_EEERKS4_S6_
.Ltmp284:
	j	.LBB78_42
.LBB78_42:                              # %invoke.cont62
                                        #   in Loop: Header=BB78_1 Depth=1
.Ltmp285:
	addi	a1, s0, -80
	addi	a2, s0, -808
	mv	a0, s2
	call	_ZN3glmplIdLNS_9qualifierE0EEENS_3vecILi3ET_XT0_EEERKS4_S6_
.Ltmp286:
	j	.LBB78_43
.LBB78_43:                              # %invoke.cont63
                                        #   in Loop: Header=BB78_1 Depth=1
	addi	a0, zero, 1
	sw	a0, -252(s0)
	j	.LBB78_50
.LBB78_44:                              # %if.end64
                                        #   in Loop: Header=BB78_1 Depth=1
	j	.LBB78_45
.LBB78_45:                              # %if.end65
                                        #   in Loop: Header=BB78_1 Depth=1
.Ltmp293:
	addi	a2, s0, -104
	mv	a0, s3
	mv	a1, s1
	call	_ZNK10Integrator6absorbERK3RayRN3glm3vecILi3EdLNS3_9qualifierE0EEE
.Ltmp294:
	j	.LBB78_46
.LBB78_46:                              # %invoke.cont66
                                        #   in Loop: Header=BB78_1 Depth=1
	andi	a0, a0, 1
	beqz	a0, .LBB78_48
	j	.LBB78_47
.LBB78_47:                              # %if.then68
                                        #   in Loop: Header=BB78_1 Depth=1
	ld	a0, -64(s0)
	sd	a0, 16(s2)
	ld	a0, -72(s0)
	sd	a0, 8(s2)
	ld	a0, -80(s0)
	sd	a0, 0(s2)
	addi	a0, zero, 1
	sw	a0, -252(s0)
	j	.LBB78_50
.LBB78_48:                              # %if.end69
                                        #   in Loop: Header=BB78_1 Depth=1
.Ltmp295:
	addi	a0, s0, -128
	mv	a1, s1
	call	_ZN17RefractionHistory6updateERK3Ray
.Ltmp296:
	j	.LBB78_49
.LBB78_49:                              # %invoke.cont70
                                        #   in Loop: Header=BB78_1 Depth=1
	sw	zero, -252(s0)
	j	.LBB78_50
.LBB78_50:                              # %cleanup
                                        #   in Loop: Header=BB78_1 Depth=1
	addi	a0, s0, -592
	call	_ZN11InteractionD2Ev
	j	.LBB78_51
.LBB78_51:                              # %cleanup71
                                        #   in Loop: Header=BB78_1 Depth=1
	addi	a0, s0, -248
	call	_ZN12IntersectionD2Ev
	lw	a0, -252(s0)
	bnez	a0, .LBB78_54
	j	.LBB78_52
.LBB78_52:                              # %cleanup.cont
                                        #   in Loop: Header=BB78_1 Depth=1
	j	.LBB78_1
.LBB78_53:                              # %ehcleanup
	addi	a0, s0, -248
	call	_ZN12IntersectionD2Ev
	j	.LBB78_55
.LBB78_54:                              # %cleanup72
	addi	a0, s0, -184
	call	_ZN10Integrator11LightSampleD2Ev
	addi	a0, s0, -128
	call	_ZN17RefractionHistoryD2Ev
	ld	s3, 792(sp)
	ld	s2, 800(sp)
	ld	s1, 808(sp)
	ld	s0, 816(sp)
	.cfi_def_cfa sp, 832
	ld	ra, 824(sp)
	.cfi_restore ra
	.cfi_restore s0
	.cfi_restore s1
	.cfi_restore s2
	.cfi_restore s3
	addi	sp, sp, 832
	.cfi_def_cfa_offset 0
	ret
.LBB78_55:                              # %ehcleanup73
	addi	a0, s0, -184
	call	_ZN10Integrator11LightSampleD2Ev
	addi	a0, s0, -128
	call	_ZN17RefractionHistoryD2Ev
	j	.LBB78_56
.LBB78_56:                              # %eh.resume
	ld	a0, -192(s0)
	call	_Unwind_Resume
.Lfunc_end78:
	.size	_ZN12PhotonMapper9sampleRayE3Ray, .Lfunc_end78-_ZN12PhotonMapper9sampleRayE3Ray
	.cfi_endproc
	.section	.gcc_except_table,"a",@progbits
	.p2align	2
GCC_except_table78:
.Lexception12:
	.byte	255                     # @LPStart Encoding = omit
	.byte	255                     # @TType Encoding = omit
	.byte	3                       # Call site Encoding = udata4
	.uleb128 .Lcst_end12-.Lcst_begin12
.Lcst_begin12:
	.word	.Lfunc_begin12-.Lfunc_begin12 # >> Call Site 1 <<
	.word	.Ltmp245-.Lfunc_begin12 #   Call between .Lfunc_begin12 and .Ltmp245
	.word	0                       #     has no landing pad
	.byte	0                       #   On action: cleanup
	.word	.Ltmp245-.Lfunc_begin12 # >> Call Site 2 <<
	.word	.Ltmp248-.Ltmp245       #   Call between .Ltmp245 and .Ltmp248
	.word	.Ltmp249-.Lfunc_begin12 #     jumps to .Ltmp249
	.byte	0                       #   On action: cleanup
	.word	.Ltmp250-.Lfunc_begin12 # >> Call Site 3 <<
	.word	.Ltmp255-.Ltmp250       #   Call between .Ltmp250 and .Ltmp255
	.word	.Ltmp256-.Lfunc_begin12 #     jumps to .Ltmp256
	.byte	0                       #   On action: cleanup
	.word	.Ltmp257-.Lfunc_begin12 # >> Call Site 4 <<
	.word	.Ltmp296-.Ltmp257       #   Call between .Ltmp257 and .Ltmp296
	.word	.Ltmp297-.Lfunc_begin12 #     jumps to .Ltmp297
	.byte	0                       #   On action: cleanup
	.word	.Ltmp296-.Lfunc_begin12 # >> Call Site 5 <<
	.word	.Lfunc_end78-.Ltmp296   #   Call between .Ltmp296 and .Lfunc_end78
	.word	0                       #     has no landing pad
	.byte	0                       #   On action: cleanup
.Lcst_end12:
	.p2align	2
                                        # -- End function
	.section	.text._ZN10Integrator11LightSampleC2Ev,"axG",@progbits,_ZN10Integrator11LightSampleC2Ev,comdat
	.weak	_ZN10Integrator11LightSampleC2Ev # -- Begin function _ZN10Integrator11LightSampleC2Ev
	.p2align	2
	.type	_ZN10Integrator11LightSampleC2Ev,@function
_ZN10Integrator11LightSampleC2Ev:       # @_ZN10Integrator11LightSampleC2Ev
# %bb.0:                                # %entry
	addi	sp, sp, -32
	sd	ra, 24(sp)
	sd	s0, 16(sp)
	addi	s0, sp, 32
	sd	a0, -24(s0)
	ld	a0, -24(s0)
	sd	zero, 0(a0)
	sd	zero, 8(a0)
	addi	a0, a0, 16
	call	_ZNSt10shared_ptrIN7Surface4BaseEEC2Ev
	ld	s0, 16(sp)
	ld	ra, 24(sp)
	addi	sp, sp, 32
	ret
.Lfunc_end79:
	.size	_ZN10Integrator11LightSampleC2Ev, .Lfunc_end79-_ZN10Integrator11LightSampleC2Ev
                                        # -- End function
	.section	.text._ZN3glmmlIdLNS_9qualifierE0EEENS_3vecILi3ET_XT0_EEERKS4_S6_,"axG",@progbits,_ZN3glmmlIdLNS_9qualifierE0EEENS_3vecILi3ET_XT0_EEERKS4_S6_,comdat
	.weak	_ZN3glmmlIdLNS_9qualifierE0EEENS_3vecILi3ET_XT0_EEERKS4_S6_ # -- Begin function _ZN3glmmlIdLNS_9qualifierE0EEENS_3vecILi3ET_XT0_EEERKS4_S6_
	.p2align	2
	.type	_ZN3glmmlIdLNS_9qualifierE0EEENS_3vecILi3ET_XT0_EEERKS4_S6_,@function
_ZN3glmmlIdLNS_9qualifierE0EEENS_3vecILi3ET_XT0_EEERKS4_S6_: # @_ZN3glmmlIdLNS_9qualifierE0EEENS_3vecILi3ET_XT0_EEERKS4_S6_
	.cfi_startproc
# %bb.0:                                # %entry
	addi	sp, sp, -48
	.cfi_def_cfa_offset 48
	sd	ra, 40(sp)
	sd	s0, 32(sp)
	.cfi_offset ra, -8
	.cfi_offset s0, -16
	addi	s0, sp, 48
	.cfi_def_cfa s0, 0
	sd	a0, -24(s0)
	sd	a1, -32(s0)
	sd	a2, -40(s0)
	ld	a1, -32(s0)
	fld	ft0, 0(a1)
	ld	a2, -40(s0)
	fld	ft1, 0(a2)
	fmul.d	ft0, ft0, ft1
	fld	ft1, 8(a1)
	fld	ft2, 8(a2)
	fmul.d	ft1, ft1, ft2
	fld	ft2, 16(a1)
	fld	ft3, 16(a2)
	fmul.d	ft2, ft2, ft3
	fmv.x.d	a1, ft0
	fmv.x.d	a2, ft1
	fmv.x.d	a3, ft2
	call	_ZN3glm3vecILi3EdLNS_9qualifierE0EEC2Eddd
	ld	s0, 32(sp)
	.cfi_def_cfa sp, 48
	ld	ra, 40(sp)
	.cfi_restore ra
	.cfi_restore s0
	addi	sp, sp, 48
	.cfi_def_cfa_offset 0
	ret
.Lfunc_end80:
	.size	_ZN3glmmlIdLNS_9qualifierE0EEENS_3vecILi3ET_XT0_EEERKS4_S6_, .Lfunc_end80-_ZN3glmmlIdLNS_9qualifierE0EEENS_3vecILi3ET_XT0_EEERKS4_S6_
	.cfi_endproc
                                        # -- End function
	.section	.sdata,"aw",@progbits
	.p2align	3               # -- Begin function _ZN12PhotonMapper23estimateCausticRadianceERK11Interaction
.LCPI81_0:
	.quad	4607182418800017408     # double 1
	.text
	.globl	_ZN12PhotonMapper23estimateCausticRadianceERK11Interaction
	.p2align	2
	.type	_ZN12PhotonMapper23estimateCausticRadianceERK11Interaction,@function
_ZN12PhotonMapper23estimateCausticRadianceERK11Interaction: # @_ZN12PhotonMapper23estimateCausticRadianceERK11Interaction
	.cfi_startproc
# %bb.0:                                # %entry
	addi	sp, sp, -368
	.cfi_def_cfa_offset 368
	sd	ra, 360(sp)
	sd	s0, 352(sp)
	sd	s1, 344(sp)
	sd	s2, 336(sp)
	sd	s3, 328(sp)
	sd	s4, 320(sp)
	.cfi_offset ra, -8
	.cfi_offset s0, -16
	.cfi_offset s1, -24
	.cfi_offset s2, -32
	.cfi_offset s3, -40
	.cfi_offset s4, -48
	addi	s0, sp, 368
	.cfi_def_cfa s0, 0
	mv	s2, a0
	sd	s2, -56(s0)
	sd	a1, -64(s0)
	sd	a2, -72(s0)
	ld	s1, -64(s0)
	lui	a0, %tprel_hi(_ZGVZN12PhotonMapper23estimateCausticRadianceERK11InteractionE7photons)
	add	a0, a0, tp, %tprel_add(_ZGVZN12PhotonMapper23estimateCausticRadianceERK11InteractionE7photons)
	lbu	a0, %tprel_lo(_ZGVZN12PhotonMapper23estimateCausticRadianceERK11InteractionE7photons)(a0)
	bnez	a0, .LBB81_2
	j	.LBB81_1
.LBB81_1:                               # %init.check
	lui	a0, %tprel_hi(_ZZN12PhotonMapper23estimateCausticRadianceERK11InteractionE7photons)
	add	a0, a0, tp, %tprel_add(_ZZN12PhotonMapper23estimateCausticRadianceERK11InteractionE7photons)
	addi	s3, a0, %tprel_lo(_ZZN12PhotonMapper23estimateCausticRadianceERK11InteractionE7photons)
	mv	a0, s3
	addi	a1, zero, 64
	call	_ZN13PriorityQueueI12SearchResultI6PhotonEEC2Em
	lui	a0, %hi(_ZN13PriorityQueueI12SearchResultI6PhotonEED2Ev)
	addi	a0, a0, %lo(_ZN13PriorityQueueI12SearchResultI6PhotonEED2Ev)
	lui	a1, %hi(__dso_handle)
	addi	a2, a1, %lo(__dso_handle)
	mv	a1, s3
	call	__cxa_thread_atexit
	lui	a0, %tprel_hi(_ZGVZN12PhotonMapper23estimateCausticRadianceERK11InteractionE7photons)
	add	a0, a0, tp, %tprel_add(_ZGVZN12PhotonMapper23estimateCausticRadianceERK11InteractionE7photons)
	addi	a1, zero, 1
	sb	a1, %tprel_lo(_ZGVZN12PhotonMapper23estimateCausticRadianceERK11InteractionE7photons)(a0)
	j	.LBB81_2
.LBB81_2:                               # %init.end
	addi	a0, s1, 168
	ld	a1, -72(s0)
	addi	a1, a1, 80
	ld	a2, 328(s1)
	lui	a3, %tprel_hi(_ZZN12PhotonMapper23estimateCausticRadianceERK11InteractionE7photons)
	add	a3, a3, tp, %tprel_add(_ZZN12PhotonMapper23estimateCausticRadianceERK11InteractionE7photons)
	addi	s1, a3, %tprel_lo(_ZZN12PhotonMapper23estimateCausticRadianceERK11InteractionE7photons)
	mv	a3, s1
	call	_ZNK12LinearOctreeI6PhotonE9knnSearchERKN3glm3vecILi3EdLNS2_9qualifierE0EEEmR13PriorityQueueI12SearchResultIS0_EE
	mv	a0, s1
	call	_ZNK13PriorityQueueI12SearchResultI6PhotonEE5emptyEv
	beqz	a0, .LBB81_4
	j	.LBB81_3
.LBB81_3:                               # %if.then
	mv	a0, s2
	mv	a1, zero
	call	_ZN3glm3vecILi3EdLNS_9qualifierE0EEC2Ed
	j	.LBB81_11
.LBB81_4:                               # %if.end
	lui	a0, %tprel_hi(_ZZN12PhotonMapper23estimateCausticRadianceERK11InteractionE7photons)
	add	a0, a0, tp, %tprel_add(_ZZN12PhotonMapper23estimateCausticRadianceERK11InteractionE7photons)
	addi	s1, a0, %tprel_lo(_ZZN12PhotonMapper23estimateCausticRadianceERK11InteractionE7photons)
	mv	a0, s1
	call	_ZNK13PriorityQueueI12SearchResultI6PhotonEE3topEv
	fld	ft0, 32(a0)
	lui	a0, %hi(.LCPI81_0)
	addi	a0, a0, %lo(.LCPI81_0)
	fld	ft1, 0(a0)
	fdiv.d	ft0, ft1, ft0
	fsd	ft0, -80(s0)
	sd	zero, -120(s0)
	sd	zero, -128(s0)
	sd	zero, -136(s0)
	sd	s1, -144(s0)
	ld	a0, -144(s0)
	call	_ZN13PriorityQueueI12SearchResultI6PhotonEE5beginEv
	sd	a0, -152(s0)
	ld	a0, -144(s0)
	call	_ZN13PriorityQueueI12SearchResultI6PhotonEE3endEv
	sd	a0, -160(s0)
	j	.LBB81_5
.LBB81_5:                               # %for.cond
                                        # =>This Inner Loop Header: Depth=1
	addi	a0, s0, -152
	addi	a1, s0, -160
	call	_ZN9__gnu_cxxneIPK12SearchResultI6PhotonESt6vectorIS3_SaIS3_EEEEbRKNS_17__normal_iteratorIT_T0_EESE_
	beqz	a0, .LBB81_10
	j	.LBB81_6
.LBB81_6:                               # %for.body
                                        #   in Loop: Header=BB81_5 Depth=1
	addi	a0, s0, -152
	call	_ZNK9__gnu_cxx17__normal_iteratorIPK12SearchResultI6PhotonESt6vectorIS3_SaIS3_EEEdeEv
	sd	a0, -168(s0)
	ld	s1, -72(s0)
	ld	a1, -168(s0)
	addi	s3, s0, -192
	mv	a0, s3
	call	_ZNK6Photon3dirEv
	addi	a1, s0, -112
	addi	a3, s0, -88
	mv	a0, s1
	mv	a2, s3
	call	_ZNK11Interaction4BSDFERN3glm3vecILi3EdLNS0_9qualifierE0EEERKS3_Rd
	beqz	a0, .LBB81_8
	j	.LBB81_7
.LBB81_7:                               # %if.then10
                                        #   in Loop: Header=BB81_5 Depth=1
	sd	zero, -208(s0)
	ld	a0, -168(s0)
	fld	ft0, 32(a0)
	fld	ft1, -80(s0)
	fmul.d	ft0, ft0, ft1
	fsqrt.d	ft0, ft0
	lui	a0, %hi(.LCPI81_0)
	addi	a0, a0, %lo(.LCPI81_0)
	fld	ft1, 0(a0)
	fsub.d	ft0, ft1, ft0
	fsd	ft0, -216(s0)
	addi	a0, s0, -208
	addi	a1, s0, -216
	call	_ZSt3maxIdERKT_S2_S2_
	fld	ft0, 0(a0)
	fsd	ft0, -200(s0)
	ld	a1, -168(s0)
	addi	s1, s0, -312
	mv	a0, s1
	call	_ZNK6Photon4fluxEv
	addi	s3, s0, -288
	addi	a2, s0, -112
	mv	a0, s3
	mv	a1, s1
	call	_ZN3glmmlIdLNS_9qualifierE0EEENS_3vecILi3ET_XT0_EEERKS4_S6_
	ld	a2, -200(s0)
	addi	s4, s0, -264
	mv	a0, s4
	mv	a1, s3
	call	_ZN3glmmlIdLNS_9qualifierE0EEENS_3vecILi3ET_XT0_EEERKS4_S3_
	ld	a2, -88(s0)
	addi	s1, s0, -240
	mv	a0, s1
	mv	a1, s4
	call	_ZN3glmdvIdLNS_9qualifierE0EEENS_3vecILi3ET_XT0_EEERKS4_S3_
	addi	a0, s0, -136
	mv	a1, s1
	call	_ZN3glm3vecILi3EdLNS_9qualifierE0EEpLIdEERS2_RKNS0_ILi3ET_LS1_0EEE
	j	.LBB81_8
.LBB81_8:                               # %if.end21
                                        #   in Loop: Header=BB81_5 Depth=1
	j	.LBB81_9
.LBB81_9:                               # %for.inc
                                        #   in Loop: Header=BB81_5 Depth=1
	addi	a0, s0, -152
	call	_ZN9__gnu_cxx17__normal_iteratorIPK12SearchResultI6PhotonESt6vectorIS3_SaIS3_EEEppEv
	j	.LBB81_5
.LBB81_10:                              # %for.end
	lui	a0, 1
	addiw	a0, a0, -2047
	slli	a1, a0, 51
	addi	s1, s0, -360
	addi	a2, s0, -136
	mv	a0, s1
	call	_ZN3glmmlIdLNS_9qualifierE0EEENS_3vecILi3ET_XT0_EEES3_RKS4_
	ld	a2, -80(s0)
	addi	s3, s0, -336
	mv	a0, s3
	mv	a1, s1
	call	_ZN3glmmlIdLNS_9qualifierE0EEENS_3vecILi3ET_XT0_EEERKS4_S3_
	lui	a0, 4085
	addiw	a0, a0, 381
	slli	a0, a0, 13
	addi	a0, a0, -1993
	slli	a0, a0, 13
	addi	a0, a0, -867
	slli	a0, a0, 12
	addi	a2, a0, -1917
	mv	a0, s2
	mv	a1, s3
	call	_ZN3glmmlIdLNS_9qualifierE0EEENS_3vecILi3ET_XT0_EEERKS4_S3_
	j	.LBB81_11
.LBB81_11:                              # %return
	ld	s4, 320(sp)
	ld	s3, 328(sp)
	ld	s2, 336(sp)
	ld	s1, 344(sp)
	ld	s0, 352(sp)
	.cfi_def_cfa sp, 368
	ld	ra, 360(sp)
	.cfi_restore ra
	.cfi_restore s0
	.cfi_restore s1
	.cfi_restore s2
	.cfi_restore s3
	.cfi_restore s4
	addi	sp, sp, 368
	.cfi_def_cfa_offset 0
	ret
.Lfunc_end81:
	.size	_ZN12PhotonMapper23estimateCausticRadianceERK11Interaction, .Lfunc_end81-_ZN12PhotonMapper23estimateCausticRadianceERK11Interaction
	.cfi_endproc
                                        # -- End function
	.section	.text._ZN3glmplIdLNS_9qualifierE0EEENS_3vecILi3ET_XT0_EEERKS4_S6_,"axG",@progbits,_ZN3glmplIdLNS_9qualifierE0EEENS_3vecILi3ET_XT0_EEERKS4_S6_,comdat
	.weak	_ZN3glmplIdLNS_9qualifierE0EEENS_3vecILi3ET_XT0_EEERKS4_S6_ # -- Begin function _ZN3glmplIdLNS_9qualifierE0EEENS_3vecILi3ET_XT0_EEERKS4_S6_
	.p2align	2
	.type	_ZN3glmplIdLNS_9qualifierE0EEENS_3vecILi3ET_XT0_EEERKS4_S6_,@function
_ZN3glmplIdLNS_9qualifierE0EEENS_3vecILi3ET_XT0_EEERKS4_S6_: # @_ZN3glmplIdLNS_9qualifierE0EEENS_3vecILi3ET_XT0_EEERKS4_S6_
	.cfi_startproc
# %bb.0:                                # %entry
	addi	sp, sp, -48
	.cfi_def_cfa_offset 48
	sd	ra, 40(sp)
	sd	s0, 32(sp)
	.cfi_offset ra, -8
	.cfi_offset s0, -16
	addi	s0, sp, 48
	.cfi_def_cfa s0, 0
	sd	a0, -24(s0)
	sd	a1, -32(s0)
	sd	a2, -40(s0)
	ld	a1, -32(s0)
	fld	ft0, 0(a1)
	ld	a2, -40(s0)
	fld	ft1, 0(a2)
	fadd.d	ft0, ft0, ft1
	fld	ft1, 8(a1)
	fld	ft2, 8(a2)
	fadd.d	ft1, ft1, ft2
	fld	ft2, 16(a1)
	fld	ft3, 16(a2)
	fadd.d	ft2, ft2, ft3
	fmv.x.d	a1, ft0
	fmv.x.d	a2, ft1
	fmv.x.d	a3, ft2
	call	_ZN3glm3vecILi3EdLNS_9qualifierE0EEC2Eddd
	ld	s0, 32(sp)
	.cfi_def_cfa sp, 48
	ld	ra, 40(sp)
	.cfi_restore ra
	.cfi_restore s0
	addi	sp, sp, 48
	.cfi_def_cfa_offset 0
	ret
.Lfunc_end82:
	.size	_ZN3glmplIdLNS_9qualifierE0EEENS_3vecILi3ET_XT0_EEERKS4_S6_, .Lfunc_end82-_ZN3glmplIdLNS_9qualifierE0EEENS_3vecILi3ET_XT0_EEERKS4_S6_
	.cfi_endproc
                                        # -- End function
	.section	.sdata,"aw",@progbits
	.p2align	3               # -- Begin function _ZN12PhotonMapper22estimateGlobalRadianceERK11Interaction
.LCPI83_0:
	.quad	4614256656552045848     # double 3.1415926535897931
	.text
	.globl	_ZN12PhotonMapper22estimateGlobalRadianceERK11Interaction
	.p2align	2
	.type	_ZN12PhotonMapper22estimateGlobalRadianceERK11Interaction,@function
_ZN12PhotonMapper22estimateGlobalRadianceERK11Interaction: # @_ZN12PhotonMapper22estimateGlobalRadianceERK11Interaction
	.cfi_startproc
# %bb.0:                                # %entry
	addi	sp, sp, -256
	.cfi_def_cfa_offset 256
	sd	ra, 248(sp)
	sd	s0, 240(sp)
	sd	s1, 232(sp)
	sd	s2, 224(sp)
	sd	s3, 216(sp)
	.cfi_offset ra, -8
	.cfi_offset s0, -16
	.cfi_offset s1, -24
	.cfi_offset s2, -32
	.cfi_offset s3, -40
	addi	s0, sp, 256
	.cfi_def_cfa s0, 0
	mv	s2, a0
	sd	s2, -48(s0)
	sd	a1, -56(s0)
	sd	a2, -64(s0)
	ld	s1, -56(s0)
	lui	a0, %tprel_hi(_ZGVZN12PhotonMapper22estimateGlobalRadianceERK11InteractionE7photons)
	add	a0, a0, tp, %tprel_add(_ZGVZN12PhotonMapper22estimateGlobalRadianceERK11InteractionE7photons)
	lbu	a0, %tprel_lo(_ZGVZN12PhotonMapper22estimateGlobalRadianceERK11InteractionE7photons)(a0)
	bnez	a0, .LBB83_2
	j	.LBB83_1
.LBB83_1:                               # %init.check
	lui	a0, %tprel_hi(_ZZN12PhotonMapper22estimateGlobalRadianceERK11InteractionE7photons)
	add	a0, a0, tp, %tprel_add(_ZZN12PhotonMapper22estimateGlobalRadianceERK11InteractionE7photons)
	addi	s3, a0, %tprel_lo(_ZZN12PhotonMapper22estimateGlobalRadianceERK11InteractionE7photons)
	mv	a0, s3
	addi	a1, zero, 64
	call	_ZN13PriorityQueueI12SearchResultI6PhotonEEC2Em
	lui	a0, %hi(_ZN13PriorityQueueI12SearchResultI6PhotonEED2Ev)
	addi	a0, a0, %lo(_ZN13PriorityQueueI12SearchResultI6PhotonEED2Ev)
	lui	a1, %hi(__dso_handle)
	addi	a2, a1, %lo(__dso_handle)
	mv	a1, s3
	call	__cxa_thread_atexit
	lui	a0, %tprel_hi(_ZGVZN12PhotonMapper22estimateGlobalRadianceERK11InteractionE7photons)
	add	a0, a0, tp, %tprel_add(_ZGVZN12PhotonMapper22estimateGlobalRadianceERK11InteractionE7photons)
	addi	a1, zero, 1
	sb	a1, %tprel_lo(_ZGVZN12PhotonMapper22estimateGlobalRadianceERK11InteractionE7photons)(a0)
	j	.LBB83_2
.LBB83_2:                               # %init.end
	addi	a0, s1, 216
	ld	a1, -64(s0)
	addi	a1, a1, 80
	ld	a2, 328(s1)
	lui	a3, %tprel_hi(_ZZN12PhotonMapper22estimateGlobalRadianceERK11InteractionE7photons)
	add	a3, a3, tp, %tprel_add(_ZZN12PhotonMapper22estimateGlobalRadianceERK11InteractionE7photons)
	addi	s1, a3, %tprel_lo(_ZZN12PhotonMapper22estimateGlobalRadianceERK11InteractionE7photons)
	mv	a3, s1
	call	_ZNK12LinearOctreeI6PhotonE9knnSearchERKN3glm3vecILi3EdLNS2_9qualifierE0EEEmR13PriorityQueueI12SearchResultIS0_EE
	mv	a0, s1
	call	_ZNK13PriorityQueueI12SearchResultI6PhotonEE5emptyEv
	beqz	a0, .LBB83_4
	j	.LBB83_3
.LBB83_3:                               # %if.then
	mv	a0, s2
	mv	a1, zero
	call	_ZN3glm3vecILi3EdLNS_9qualifierE0EEC2Ed
	j	.LBB83_11
.LBB83_4:                               # %if.end
	sd	zero, -104(s0)
	sd	zero, -112(s0)
	sd	zero, -120(s0)
	lui	a0, %tprel_hi(_ZZN12PhotonMapper22estimateGlobalRadianceERK11InteractionE7photons)
	add	a0, a0, tp, %tprel_add(_ZZN12PhotonMapper22estimateGlobalRadianceERK11InteractionE7photons)
	addi	a0, a0, %tprel_lo(_ZZN12PhotonMapper22estimateGlobalRadianceERK11InteractionE7photons)
	sd	a0, -128(s0)
	ld	a0, -128(s0)
	call	_ZN13PriorityQueueI12SearchResultI6PhotonEE5beginEv
	sd	a0, -136(s0)
	ld	a0, -128(s0)
	call	_ZN13PriorityQueueI12SearchResultI6PhotonEE3endEv
	sd	a0, -144(s0)
	j	.LBB83_5
.LBB83_5:                               # %for.cond
                                        # =>This Inner Loop Header: Depth=1
	addi	a0, s0, -136
	addi	a1, s0, -144
	call	_ZN9__gnu_cxxneIPK12SearchResultI6PhotonESt6vectorIS3_SaIS3_EEEEbRKNS_17__normal_iteratorIT_T0_EESE_
	beqz	a0, .LBB83_10
	j	.LBB83_6
.LBB83_6:                               # %for.body
                                        #   in Loop: Header=BB83_5 Depth=1
	addi	a0, s0, -136
	call	_ZNK9__gnu_cxx17__normal_iteratorIPK12SearchResultI6PhotonESt6vectorIS3_SaIS3_EEEdeEv
	sd	a0, -152(s0)
	ld	s1, -64(s0)
	ld	a1, -152(s0)
	addi	s3, s0, -176
	mv	a0, s3
	call	_ZNK6Photon3dirEv
	addi	a1, s0, -96
	addi	a3, s0, -72
	mv	a0, s1
	mv	a2, s3
	call	_ZNK11Interaction4BSDFERN3glm3vecILi3EdLNS0_9qualifierE0EEERKS3_Rd
	beqz	a0, .LBB83_8
	j	.LBB83_7
.LBB83_7:                               # %if.then9
                                        #   in Loop: Header=BB83_5 Depth=1
	ld	a1, -152(s0)
	addi	s1, s0, -248
	mv	a0, s1
	call	_ZNK6Photon4fluxEv
	addi	s3, s0, -224
	addi	a2, s0, -96
	mv	a0, s3
	mv	a1, s1
	call	_ZN3glmmlIdLNS_9qualifierE0EEENS_3vecILi3ET_XT0_EEERKS4_S6_
	ld	a2, -72(s0)
	addi	s1, s0, -200
	mv	a0, s1
	mv	a1, s3
	call	_ZN3glmdvIdLNS_9qualifierE0EEENS_3vecILi3ET_XT0_EEERKS4_S3_
	addi	a0, s0, -120
	mv	a1, s1
	call	_ZN3glm3vecILi3EdLNS_9qualifierE0EEpLIdEERS2_RKNS0_ILi3ET_LS1_0EEE
	j	.LBB83_8
.LBB83_8:                               # %if.end15
                                        #   in Loop: Header=BB83_5 Depth=1
	j	.LBB83_9
.LBB83_9:                               # %for.inc
                                        #   in Loop: Header=BB83_5 Depth=1
	addi	a0, s0, -136
	call	_ZN9__gnu_cxx17__normal_iteratorIPK12SearchResultI6PhotonESt6vectorIS3_SaIS3_EEEppEv
	j	.LBB83_5
.LBB83_10:                              # %for.end
	lui	a0, %tprel_hi(_ZZN12PhotonMapper22estimateGlobalRadianceERK11InteractionE7photons)
	add	a0, a0, tp, %tprel_add(_ZZN12PhotonMapper22estimateGlobalRadianceERK11InteractionE7photons)
	addi	a0, a0, %tprel_lo(_ZZN12PhotonMapper22estimateGlobalRadianceERK11InteractionE7photons)
	call	_ZNK13PriorityQueueI12SearchResultI6PhotonEE3topEv
	fld	ft0, 32(a0)
	lui	a0, %hi(.LCPI83_0)
	addi	a0, a0, %lo(.LCPI83_0)
	fld	ft1, 0(a0)
	fmul.d	ft0, ft0, ft1
	fmv.x.d	a2, ft0
	addi	a1, s0, -120
	mv	a0, s2
	call	_ZN3glmdvIdLNS_9qualifierE0EEENS_3vecILi3ET_XT0_EEERKS4_S3_
	j	.LBB83_11
.LBB83_11:                              # %return
	ld	s3, 216(sp)
	ld	s2, 224(sp)
	ld	s1, 232(sp)
	ld	s0, 240(sp)
	.cfi_def_cfa sp, 256
	ld	ra, 248(sp)
	.cfi_restore ra
	.cfi_restore s0
	.cfi_restore s1
	.cfi_restore s2
	.cfi_restore s3
	addi	sp, sp, 256
	.cfi_def_cfa_offset 0
	ret
.Lfunc_end83:
	.size	_ZN12PhotonMapper22estimateGlobalRadianceERK11Interaction, .Lfunc_end83-_ZN12PhotonMapper22estimateGlobalRadianceERK11Interaction
	.cfi_endproc
                                        # -- End function
	.section	.text._ZN10Integrator11LightSampleD2Ev,"axG",@progbits,_ZN10Integrator11LightSampleD2Ev,comdat
	.weak	_ZN10Integrator11LightSampleD2Ev # -- Begin function _ZN10Integrator11LightSampleD2Ev
	.p2align	2
	.type	_ZN10Integrator11LightSampleD2Ev,@function
_ZN10Integrator11LightSampleD2Ev:       # @_ZN10Integrator11LightSampleD2Ev
# %bb.0:                                # %entry
	addi	sp, sp, -32
	sd	ra, 24(sp)
	sd	s0, 16(sp)
	addi	s0, sp, 32
	sd	a0, -24(s0)
	ld	a0, -24(s0)
	addi	a0, a0, 16
	call	_ZNSt10shared_ptrIN7Surface4BaseEED2Ev
	ld	s0, 16(sp)
	ld	ra, 24(sp)
	addi	sp, sp, 32
	ret
.Lfunc_end84:
	.size	_ZN10Integrator11LightSampleD2Ev, .Lfunc_end84-_ZN10Integrator11LightSampleD2Ev
                                        # -- End function
	.section	.text._ZN13PriorityQueueI12SearchResultI6PhotonEEC2Em,"axG",@progbits,_ZN13PriorityQueueI12SearchResultI6PhotonEEC2Em,comdat
	.weak	_ZN13PriorityQueueI12SearchResultI6PhotonEEC2Em # -- Begin function _ZN13PriorityQueueI12SearchResultI6PhotonEEC2Em
	.p2align	2
	.type	_ZN13PriorityQueueI12SearchResultI6PhotonEEC2Em,@function
_ZN13PriorityQueueI12SearchResultI6PhotonEEC2Em: # @_ZN13PriorityQueueI12SearchResultI6PhotonEEC2Em
.Lfunc_begin13:
	.cfi_startproc
	.cfi_personality 155, DW.ref.__gxx_personality_v0
	.cfi_lsda 27, .Lexception13
# %bb.0:                                # %entry
	addi	sp, sp, -64
	.cfi_def_cfa_offset 64
	sd	ra, 56(sp)
	sd	s0, 48(sp)
	sd	s1, 40(sp)
	.cfi_offset ra, -8
	.cfi_offset s0, -16
	.cfi_offset s1, -24
	addi	s0, sp, 64
	.cfi_def_cfa s0, 0
	sd	a0, -32(s0)
	sd	a1, -40(s0)
	ld	s1, -32(s0)
	mv	a0, s1
	call	_ZNSt6vectorI12SearchResultI6PhotonESaIS2_EEC2Ev
	ld	a1, -40(s0)
.Ltmp298:
	mv	a0, s1
	call	_ZNSt6vectorI12SearchResultI6PhotonESaIS2_EE7reserveEm
.Ltmp299:
	j	.LBB85_1
.LBB85_1:                               # %invoke.cont
	ld	s1, 40(sp)
	ld	s0, 48(sp)
	.cfi_def_cfa sp, 64
	ld	ra, 56(sp)
	.cfi_restore ra
	.cfi_restore s0
	.cfi_restore s1
	addi	sp, sp, 64
	.cfi_def_cfa_offset 0
	ret
.LBB85_2:                               # %lpad
.Ltmp300:
	sd	a0, -48(s0)
	sw	a1, -52(s0)
	mv	a0, s1
	call	_ZNSt6vectorI12SearchResultI6PhotonESaIS2_EED2Ev
	j	.LBB85_3
.LBB85_3:                               # %eh.resume
	ld	a0, -48(s0)
	call	_Unwind_Resume
.Lfunc_end85:
	.size	_ZN13PriorityQueueI12SearchResultI6PhotonEEC2Em, .Lfunc_end85-_ZN13PriorityQueueI12SearchResultI6PhotonEEC2Em
	.cfi_endproc
	.section	.gcc_except_table,"a",@progbits
	.p2align	2
GCC_except_table85:
.Lexception13:
	.byte	255                     # @LPStart Encoding = omit
	.byte	255                     # @TType Encoding = omit
	.byte	3                       # Call site Encoding = udata4
	.uleb128 .Lcst_end13-.Lcst_begin13
.Lcst_begin13:
	.word	.Ltmp298-.Lfunc_begin13 # >> Call Site 1 <<
	.word	.Ltmp299-.Ltmp298       #   Call between .Ltmp298 and .Ltmp299
	.word	.Ltmp300-.Lfunc_begin13 #     jumps to .Ltmp300
	.byte	0                       #   On action: cleanup
	.word	.Ltmp299-.Lfunc_begin13 # >> Call Site 2 <<
	.word	.Lfunc_end85-.Ltmp299   #   Call between .Ltmp299 and .Lfunc_end85
	.word	0                       #     has no landing pad
	.byte	0                       #   On action: cleanup
.Lcst_end13:
	.p2align	2
                                        # -- End function
	.section	.text._ZN13PriorityQueueI12SearchResultI6PhotonEED2Ev,"axG",@progbits,_ZN13PriorityQueueI12SearchResultI6PhotonEED2Ev,comdat
	.weak	_ZN13PriorityQueueI12SearchResultI6PhotonEED2Ev # -- Begin function _ZN13PriorityQueueI12SearchResultI6PhotonEED2Ev
	.p2align	2
	.type	_ZN13PriorityQueueI12SearchResultI6PhotonEED2Ev,@function
_ZN13PriorityQueueI12SearchResultI6PhotonEED2Ev: # @_ZN13PriorityQueueI12SearchResultI6PhotonEED2Ev
# %bb.0:                                # %entry
	addi	sp, sp, -32
	sd	ra, 24(sp)
	sd	s0, 16(sp)
	addi	s0, sp, 32
	sd	a0, -24(s0)
	ld	a0, -24(s0)
	call	_ZNSt6vectorI12SearchResultI6PhotonESaIS2_EED2Ev
	ld	s0, 16(sp)
	ld	ra, 24(sp)
	addi	sp, sp, 32
	ret
.Lfunc_end86:
	.size	_ZN13PriorityQueueI12SearchResultI6PhotonEED2Ev, .Lfunc_end86-_ZN13PriorityQueueI12SearchResultI6PhotonEED2Ev
                                        # -- End function
	.section	.text._ZNK12LinearOctreeI6PhotonE9knnSearchERKN3glm3vecILi3EdLNS2_9qualifierE0EEEmR13PriorityQueueI12SearchResultIS0_EE,"axG",@progbits,_ZNK12LinearOctreeI6PhotonE9knnSearchERKN3glm3vecILi3EdLNS2_9qualifierE0EEEmR13PriorityQueueI12SearchResultIS0_EE,comdat
	.weak	_ZNK12LinearOctreeI6PhotonE9knnSearchERKN3glm3vecILi3EdLNS2_9qualifierE0EEEmR13PriorityQueueI12SearchResultIS0_EE # -- Begin function _ZNK12LinearOctreeI6PhotonE9knnSearchERKN3glm3vecILi3EdLNS2_9qualifierE0EEEmR13PriorityQueueI12SearchResultIS0_EE
	.p2align	2
	.type	_ZNK12LinearOctreeI6PhotonE9knnSearchERKN3glm3vecILi3EdLNS2_9qualifierE0EEEmR13PriorityQueueI12SearchResultIS0_EE,@function
_ZNK12LinearOctreeI6PhotonE9knnSearchERKN3glm3vecILi3EdLNS2_9qualifierE0EEEmR13PriorityQueueI12SearchResultIS0_EE: # @_ZNK12LinearOctreeI6PhotonE9knnSearchERKN3glm3vecILi3EdLNS2_9qualifierE0EEEmR13PriorityQueueI12SearchResultIS0_EE
	.cfi_startproc
# %bb.0:                                # %entry
	addi	sp, sp, -512
	.cfi_def_cfa_offset 512
	sd	ra, 504(sp)
	sd	s0, 496(sp)
	sd	s1, 488(sp)
	sd	s2, 480(sp)
	sd	s3, 472(sp)
	.cfi_offset ra, -8
	.cfi_offset s0, -16
	.cfi_offset s1, -24
	.cfi_offset s2, -32
	.cfi_offset s3, -40
	addi	s0, sp, 512
	.cfi_def_cfa s0, 0
	andi	sp, sp, -64
	sd	a0, 464(sp)
	sd	a1, 456(sp)
	sd	a2, 448(sp)
	sd	a3, 440(sp)
	ld	s2, 464(sp)
	ld	a0, 440(sp)
	call	_ZN13PriorityQueueI12SearchResultI6PhotonEE5clearEv
	mv	a0, s2
	call	_ZNKSt6vectorIN12LinearOctreeI6PhotonE12LinearOctantESaIS3_EE5emptyEv
	beqz	a0, .LBB87_2
	j	.LBB87_1
.LBB87_1:                               # %if.then
	j	.LBB87_36
.LBB87_2:                               # %if.end
	ld	s1, 448(sp)
	addi	a0, s2, 24
	call	_ZNKSt6vectorI6PhotonSaIS0_EE4sizeEv
	bgeu	a0, s1, .LBB87_4
	j	.LBB87_3
.LBB87_3:                               # %if.then3
	addi	a0, s2, 24
	call	_ZNKSt6vectorI6PhotonSaIS0_EE4sizeEv
	sd	a0, 448(sp)
	j	.LBB87_4
.LBB87_4:                               # %if.end6
	call	_ZNSt14numeric_limitsIdE3maxEv
	sd	a0, 432(sp)
	addi	a0, sp, 432
	sd	a0, 424(sp)
	lui	a0, %tprel_hi(_ZGVZNK12LinearOctreeI6PhotonE9knnSearchERKN3glm3vecILi3EdLNS2_9qualifierE0EEEmR13PriorityQueueI12SearchResultIS0_EEE8to_visit)
	add	a0, a0, tp, %tprel_add(_ZGVZNK12LinearOctreeI6PhotonE9knnSearchERKN3glm3vecILi3EdLNS2_9qualifierE0EEEmR13PriorityQueueI12SearchResultIS0_EEE8to_visit)
	lbu	a0, %tprel_lo(_ZGVZNK12LinearOctreeI6PhotonE9knnSearchERKN3glm3vecILi3EdLNS2_9qualifierE0EEEmR13PriorityQueueI12SearchResultIS0_EEE8to_visit)(a0)
	bnez	a0, .LBB87_6
	j	.LBB87_5
.LBB87_5:                               # %init.check
	lui	a0, %tprel_hi(_ZZNK12LinearOctreeI6PhotonE9knnSearchERKN3glm3vecILi3EdLNS2_9qualifierE0EEEmR13PriorityQueueI12SearchResultIS0_EEE8to_visit)
	add	a0, a0, tp, %tprel_add(_ZZNK12LinearOctreeI6PhotonE9knnSearchERKN3glm3vecILi3EdLNS2_9qualifierE0EEEmR13PriorityQueueI12SearchResultIS0_EEE8to_visit)
	addi	s1, a0, %tprel_lo(_ZZNK12LinearOctreeI6PhotonE9knnSearchERKN3glm3vecILi3EdLNS2_9qualifierE0EEEmR13PriorityQueueI12SearchResultIS0_EEE8to_visit)
	mv	a0, s1
	addi	a1, zero, 64
