	.text
	.file	"camera.cpp"
	.p2align	2               # -- Begin function __cxx_global_var_init
	.type	__cxx_global_var_init,@function
__cxx_global_var_init:                  # @__cxx_global_var_init
	.cfi_startproc
# %bb.0:                                # %entry
	lui	a0, 1
	addi	a0, a0, -1552
	sub	sp, sp, a0
	.cfi_def_cfa_offset 2544
	lui	a0, 1
	addi	a0, a0, -1560
	add	a0, sp, a0
	sd	ra, 0(a0)
	lui	a0, 1
	addi	a0, a0, -1568
	add	a0, sp, a0
	sd	s0, 0(a0)
	lui	a0, 1
	addi	a0, a0, -1576
	add	a0, sp, a0
	sd	s1, 0(a0)
	lui	a0, 1
	addi	a0, a0, -1584
	add	a0, sp, a0
	sd	s2, 0(a0)
	.cfi_offset ra, -8
	.cfi_offset s0, -16
	.cfi_offset s1, -24
	.cfi_offset s2, -32
	lui	a0, 1
	addi	a0, a0, -1552
	add	s0, sp, a0
	.cfi_def_cfa s0, 0
	lui	a0, %tprel_hi(_ZGVN6Random6engineE)
	add	s1, a0, tp, %tprel_add(_ZGVN6Random6engineE)
	lbu	a0, %tprel_lo(_ZGVN6Random6engineE)(s1)
	bnez	a0, .LBB0_2
# %bb.1:                                # %init.check
	lui	a0, 1048575
	addi	a0, a0, 1552
	add	a0, s0, a0
	mv	s2, a0
	mv	a0, s2
	call	_ZNSt13random_deviceC2Ev
	mv	a0, s2
	call	_ZNSt13random_deviceclEv
	lui	a1, %tprel_hi(_ZN6Random6engineE)
	add	a1, a1, tp, %tprel_add(_ZN6Random6engineE)
	addi	a2, a1, %tprel_lo(_ZN6Random6engineE)
	slli	a0, a0, 32
	srli	a1, a0, 32
	mv	a0, a2
	call	_ZNSt23mersenne_twister_engineImLm64ELm312ELm156ELm31ELm13043109905998158313ELm29ELm6148914691236517205ELm17ELm8202884508482404352ELm37ELm18444473444759240704ELm43ELm6364136223846793005EEC2Em
	addi	a0, s1, %tprel_lo(_ZGVN6Random6engineE)
	addi	a1, zero, 1
	sd	a1, 0(a0)
.LBB0_2:                                # %init.end
	lui	a0, 1
	addi	a0, a0, -1584
	add	a0, sp, a0
	ld	s2, 0(a0)
	lui	a0, 1
	addi	a0, a0, -1576
	add	a0, sp, a0
	ld	s1, 0(a0)
	lui	a0, 1
	addi	a0, a0, -1568
	add	a0, sp, a0
	ld	s0, 0(a0)
	.cfi_def_cfa sp, 2544
	lui	a0, 1
	addi	a0, a0, -1560
	add	a0, sp, a0
	ld	ra, 0(a0)
	.cfi_restore ra
	.cfi_restore s0
	.cfi_restore s1
	.cfi_restore s2
	lui	a0, 1
	addi	a0, a0, -1552
	add	sp, sp, a0
	.cfi_def_cfa_offset 0
	ret
.Lfunc_end0:
	.size	__cxx_global_var_init, .Lfunc_end0-__cxx_global_var_init
	.cfi_endproc
                                        # -- End function
	.section	.text._ZNSt13random_deviceC2Ev,"axG",@progbits,_ZNSt13random_deviceC2Ev,comdat
	.weak	_ZNSt13random_deviceC2Ev # -- Begin function _ZNSt13random_deviceC2Ev
	.p2align	2
	.type	_ZNSt13random_deviceC2Ev,@function
_ZNSt13random_deviceC2Ev:               # @_ZNSt13random_deviceC2Ev
.Lfunc_begin0:
	.cfi_startproc
	.cfi_personality 155, DW.ref.__gxx_personality_v0
	.cfi_lsda 27, .Lexception0
# %bb.0:                                # %entry
	addi	sp, sp, -96
	.cfi_def_cfa_offset 96
	sd	ra, 88(sp)
	sd	s0, 80(sp)
	sd	s1, 72(sp)
	sd	s2, 64(sp)
	.cfi_offset ra, -8
	.cfi_offset s0, -16
	.cfi_offset s1, -24
	.cfi_offset s2, -32
	addi	s0, sp, 96
	.cfi_def_cfa s0, 0
	sd	a0, -40(s0)
	ld	s2, -40(s0)
	addi	s1, s0, -80
	mv	a0, s1
	call	_ZNSaIcEC1Ev
.Ltmp0:
	lui	a0, %hi(.L.str.23)
	addi	a1, a0, %lo(.L.str.23)
	addi	a0, s0, -72
	mv	a2, s1
	call	_ZNSt7__cxx1112basic_stringIcSt11char_traitsIcESaIcEEC2IS3_EEPKcRKS3_
.Ltmp1:
	j	.LBB1_1
.LBB1_1:                                # %invoke.cont
.Ltmp3:
	addi	a1, s0, -72
	mv	a0, s2
	call	_ZNSt13random_device7_M_initERKNSt7__cxx1112basic_stringIcSt11char_traitsIcESaIcEEE
.Ltmp4:
	j	.LBB1_2
.LBB1_2:                                # %invoke.cont4
	addi	a0, s0, -72
	call	_ZNSt7__cxx1112basic_stringIcSt11char_traitsIcESaIcEED1Ev
	addi	a0, s0, -80
	call	_ZNSaIcED1Ev
	ld	s2, 64(sp)
	ld	s1, 72(sp)
	ld	s0, 80(sp)
	.cfi_def_cfa sp, 96
	ld	ra, 88(sp)
	.cfi_restore ra
	.cfi_restore s0
	.cfi_restore s1
	.cfi_restore s2
	addi	sp, sp, 96
	.cfi_def_cfa_offset 0
	ret
.LBB1_3:                                # %lpad
.Ltmp2:
	sd	a0, -88(s0)
	sw	a1, -92(s0)
	j	.LBB1_5
.LBB1_4:                                # %lpad3
.Ltmp5:
	sd	a0, -88(s0)
	sw	a1, -92(s0)
	addi	a0, s0, -72
	call	_ZNSt7__cxx1112basic_stringIcSt11char_traitsIcESaIcEED1Ev
	j	.LBB1_5
.LBB1_5:                                # %ehcleanup
	addi	a0, s0, -80
	call	_ZNSaIcED1Ev
	j	.LBB1_6
.LBB1_6:                                # %eh.resume
	ld	a0, -88(s0)
	call	_Unwind_Resume
.Lfunc_end1:
	.size	_ZNSt13random_deviceC2Ev, .Lfunc_end1-_ZNSt13random_deviceC2Ev
	.cfi_endproc
	.section	.gcc_except_table,"a",@progbits
	.p2align	2
GCC_except_table1:
.Lexception0:
	.byte	255                     # @LPStart Encoding = omit
	.byte	255                     # @TType Encoding = omit
	.byte	3                       # Call site Encoding = udata4
	.uleb128 .Lcst_end0-.Lcst_begin0
.Lcst_begin0:
	.word	.Ltmp0-.Lfunc_begin0    # >> Call Site 1 <<
	.word	.Ltmp1-.Ltmp0           #   Call between .Ltmp0 and .Ltmp1
	.word	.Ltmp2-.Lfunc_begin0    #     jumps to .Ltmp2
	.byte	0                       #   On action: cleanup
	.word	.Ltmp3-.Lfunc_begin0    # >> Call Site 2 <<
	.word	.Ltmp4-.Ltmp3           #   Call between .Ltmp3 and .Ltmp4
	.word	.Ltmp5-.Lfunc_begin0    #     jumps to .Ltmp5
	.byte	0                       #   On action: cleanup
	.word	.Ltmp4-.Lfunc_begin0    # >> Call Site 3 <<
	.word	.Lfunc_end1-.Ltmp4      #   Call between .Ltmp4 and .Lfunc_end1
	.word	0                       #     has no landing pad
	.byte	0                       #   On action: cleanup
.Lcst_end0:
	.p2align	2
                                        # -- End function
	.section	.text._ZNSt13random_deviceclEv,"axG",@progbits,_ZNSt13random_deviceclEv,comdat
	.weak	_ZNSt13random_deviceclEv # -- Begin function _ZNSt13random_deviceclEv
	.p2align	2
	.type	_ZNSt13random_deviceclEv,@function
_ZNSt13random_deviceclEv:               # @_ZNSt13random_deviceclEv
	.cfi_startproc
# %bb.0:                                # %entry
	addi	sp, sp, -32
	.cfi_def_cfa_offset 32
	sd	ra, 24(sp)
	sd	s0, 16(sp)
	.cfi_offset ra, -8
	.cfi_offset s0, -16
	addi	s0, sp, 32
	.cfi_def_cfa s0, 0
	sd	a0, -24(s0)
	ld	a0, -24(s0)
	call	_ZNSt13random_device9_M_getvalEv
	ld	s0, 16(sp)
	.cfi_def_cfa sp, 32
	ld	ra, 24(sp)
	.cfi_restore ra
	.cfi_restore s0
	addi	sp, sp, 32
	.cfi_def_cfa_offset 0
	ret
.Lfunc_end2:
	.size	_ZNSt13random_deviceclEv, .Lfunc_end2-_ZNSt13random_deviceclEv
	.cfi_endproc
                                        # -- End function
	.section	.text._ZNSt23mersenne_twister_engineImLm64ELm312ELm156ELm31ELm13043109905998158313ELm29ELm6148914691236517205ELm17ELm8202884508482404352ELm37ELm18444473444759240704ELm43ELm6364136223846793005EEC2Em,"axG",@progbits,_ZNSt23mersenne_twister_engineImLm64ELm312ELm156ELm31ELm13043109905998158313ELm29ELm6148914691236517205ELm17ELm8202884508482404352ELm37ELm18444473444759240704ELm43ELm6364136223846793005EEC2Em,comdat
	.weak	_ZNSt23mersenne_twister_engineImLm64ELm312ELm156ELm31ELm13043109905998158313ELm29ELm6148914691236517205ELm17ELm8202884508482404352ELm37ELm18444473444759240704ELm43ELm6364136223846793005EEC2Em # -- Begin function _ZNSt23mersenne_twister_engineImLm64ELm312ELm156ELm31ELm13043109905998158313ELm29ELm6148914691236517205ELm17ELm8202884508482404352ELm37ELm18444473444759240704ELm43ELm6364136223846793005EEC2Em
	.p2align	2
	.type	_ZNSt23mersenne_twister_engineImLm64ELm312ELm156ELm31ELm13043109905998158313ELm29ELm6148914691236517205ELm17ELm8202884508482404352ELm37ELm18444473444759240704ELm43ELm6364136223846793005EEC2Em,@function
_ZNSt23mersenne_twister_engineImLm64ELm312ELm156ELm31ELm13043109905998158313ELm29ELm6148914691236517205ELm17ELm8202884508482404352ELm37ELm18444473444759240704ELm43ELm6364136223846793005EEC2Em: # @_ZNSt23mersenne_twister_engineImLm64ELm312ELm156ELm31ELm13043109905998158313ELm29ELm6148914691236517205ELm17ELm8202884508482404352ELm37ELm18444473444759240704ELm43ELm6364136223846793005EEC2Em
	.cfi_startproc
# %bb.0:                                # %entry
	addi	sp, sp, -32
	.cfi_def_cfa_offset 32
	sd	ra, 24(sp)
	sd	s0, 16(sp)
	.cfi_offset ra, -8
	.cfi_offset s0, -16
	addi	s0, sp, 32
	.cfi_def_cfa s0, 0
	sd	a0, -24(s0)
	sd	a1, -32(s0)
	ld	a0, -24(s0)
	ld	a1, -32(s0)
	call	_ZNSt23mersenne_twister_engineImLm64ELm312ELm156ELm31ELm13043109905998158313ELm29ELm6148914691236517205ELm17ELm8202884508482404352ELm37ELm18444473444759240704ELm43ELm6364136223846793005EE4seedEm
	ld	s0, 16(sp)
	.cfi_def_cfa sp, 32
	ld	ra, 24(sp)
	.cfi_restore ra
	.cfi_restore s0
	addi	sp, sp, 32
	.cfi_def_cfa_offset 0
	ret
.Lfunc_end3:
	.size	_ZNSt23mersenne_twister_engineImLm64ELm312ELm156ELm31ELm13043109905998158313ELm29ELm6148914691236517205ELm17ELm8202884508482404352ELm37ELm18444473444759240704ELm43ELm6364136223846793005EEC2Em, .Lfunc_end3-_ZNSt23mersenne_twister_engineImLm64ELm312ELm156ELm31ELm13043109905998158313ELm29ELm6148914691236517205ELm17ELm8202884508482404352ELm37ELm18444473444759240704ELm43ELm6364136223846793005EEC2Em
	.cfi_endproc
                                        # -- End function
	.text
	.p2align	2               # -- Begin function __cxx_global_var_init.1
	.type	__cxx_global_var_init.1,@function
__cxx_global_var_init.1:                # @__cxx_global_var_init.1
.Lfunc_begin1:
	.cfi_startproc
	.cfi_personality 155, DW.ref.__gxx_personality_v0
	.cfi_lsda 27, .Lexception1
# %bb.0:                                # %entry
	lui	a0, 1
	addi	a0, a0, -1552
	sub	sp, sp, a0
	.cfi_def_cfa_offset 2544
	lui	a0, 1
	addi	a0, a0, -1560
	add	a0, sp, a0
	sd	ra, 0(a0)
	lui	a0, 1
	addi	a0, a0, -1568
	add	a0, sp, a0
	sd	s0, 0(a0)
	.cfi_offset ra, -8
	.cfi_offset s0, -16
	lui	a0, 1
	addi	a0, a0, -1552
	add	s0, sp, a0
	.cfi_def_cfa s0, 0
	lui	a0, %hi(_ZGVN7Sampler11global_seedE)
	lb	a1, %lo(_ZGVN7Sampler11global_seedE)(a0)
	fence	r, rw
	andi	a1, a1, 255
	bnez	a1, .LBB4_5
# %bb.1:                                # %init.check
	addi	a0, a0, %lo(_ZGVN7Sampler11global_seedE)
	call	__cxa_guard_acquire
	slli	a0, a0, 32
	srli	a0, a0, 32
	beqz	a0, .LBB4_5
# %bb.2:                                # %init
.Ltmp6:
	lui	a0, 1048575
	addi	a0, a0, 1568
	add	a0, s0, a0
	mv	a0, a0
	call	_ZNSt13random_deviceC2Ev
.Ltmp7:
# %bb.3:                                # %invoke.cont
.Ltmp8:
	lui	a0, 1048575
	addi	a0, a0, 1568
	add	a0, s0, a0
	mv	a0, a0
	call	_ZNSt13random_deviceclEv
.Ltmp9:
# %bb.4:                                # %invoke.cont1
	lui	a1, %hi(_ZN7Sampler11global_seedE)
	sw	a0, %lo(_ZN7Sampler11global_seedE)(a1)
	lui	a0, %hi(_ZGVN7Sampler11global_seedE)
	addi	a0, a0, %lo(_ZGVN7Sampler11global_seedE)
	call	__cxa_guard_release
.LBB4_5:                                # %init.end
	lui	a0, 1
	addi	a0, a0, -1568
	add	a0, sp, a0
	ld	s0, 0(a0)
	.cfi_def_cfa sp, 2544
	lui	a0, 1
	addi	a0, a0, -1560
	add	a0, sp, a0
	ld	ra, 0(a0)
	.cfi_restore ra
	.cfi_restore s0
	lui	a0, 1
	addi	a0, a0, -1552
	add	sp, sp, a0
	.cfi_def_cfa_offset 0
	ret
.LBB4_6:                                # %lpad
.Ltmp10:
	lui	a2, 1048575
	addi	a2, a2, 1556
	add	a2, s0, a2
	sw	a1, 0(a2)
	lui	a1, 1048575
	addi	a1, a1, 1560
	add	a1, s0, a1
	sd	a0, 0(a1)
	lui	a0, %hi(_ZGVN7Sampler11global_seedE)
	addi	a0, a0, %lo(_ZGVN7Sampler11global_seedE)
	call	__cxa_guard_abort
	lui	a0, 1048575
	addi	a0, a0, 1560
	add	a0, s0, a0
	ld	a0, 0(a0)
	call	_Unwind_Resume
.Lfunc_end4:
	.size	__cxx_global_var_init.1, .Lfunc_end4-__cxx_global_var_init.1
	.cfi_endproc
	.section	.gcc_except_table,"a",@progbits
	.p2align	2
GCC_except_table4:
.Lexception1:
	.byte	255                     # @LPStart Encoding = omit
	.byte	255                     # @TType Encoding = omit
	.byte	3                       # Call site Encoding = udata4
	.uleb128 .Lcst_end1-.Lcst_begin1
.Lcst_begin1:
	.word	.Ltmp6-.Lfunc_begin1    # >> Call Site 1 <<
	.word	.Ltmp9-.Ltmp6           #   Call between .Ltmp6 and .Ltmp9
	.word	.Ltmp10-.Lfunc_begin1   #     jumps to .Ltmp10
	.byte	0                       #   On action: cleanup
	.word	.Ltmp9-.Lfunc_begin1    # >> Call Site 2 <<
	.word	.Lfunc_end4-.Ltmp9      #   Call between .Ltmp9 and .Lfunc_end4
	.word	0                       #     has no landing pad
	.byte	0                       #   On action: cleanup
.Lcst_end1:
	.p2align	2
                                        # -- End function
	.section	.sdata,"aw",@progbits
	.p2align	3               # -- Begin function _ZN6CameraC2ERKN8nlohmann10basic_jsonISt3mapSt6vectorNSt7__cxx1112basic_stringIcSt11char_traitsIcESaIcEEEblmdSaNS0_14adl_serializerEEERK6Option
.LCPI5_0:
	.quad	4652007308841189376     # double 1000
.LCPI5_1:
	.quad	4643176031446892544     # double 255
.LCPI5_2:
	.quad	4611686018427387904     # double 2
.LCPI5_3:
	.quad	0                       # double 0
	.text
	.globl	_ZN6CameraC2ERKN8nlohmann10basic_jsonISt3mapSt6vectorNSt7__cxx1112basic_stringIcSt11char_traitsIcESaIcEEEblmdSaNS0_14adl_serializerEEERK6Option
	.p2align	2
	.type	_ZN6CameraC2ERKN8nlohmann10basic_jsonISt3mapSt6vectorNSt7__cxx1112basic_stringIcSt11char_traitsIcESaIcEEEblmdSaNS0_14adl_serializerEEERK6Option,@function
_ZN6CameraC2ERKN8nlohmann10basic_jsonISt3mapSt6vectorNSt7__cxx1112basic_stringIcSt11char_traitsIcESaIcEEEblmdSaNS0_14adl_serializerEEERK6Option: # @_ZN6CameraC2ERKN8nlohmann10basic_jsonISt3mapSt6vectorNSt7__cxx1112basic_stringIcSt11char_traitsIcESaIcEEEblmdSaNS0_14adl_serializerEEERK6Option
.Lfunc_begin2:
	.cfi_startproc
	.cfi_personality 155, DW.ref.__gxx_personality_v0
	.cfi_lsda 27, .Lexception2
# %bb.0:                                # %entry
	addi	sp, sp, -1536
	.cfi_def_cfa_offset 1536
	sd	ra, 1528(sp)
	sd	s0, 1520(sp)
	sd	s1, 1512(sp)
	sd	s2, 1504(sp)
	sd	s3, 1496(sp)
	sd	s4, 1488(sp)
	sd	s5, 1480(sp)
	sd	s6, 1472(sp)
	sd	s7, 1464(sp)
	sd	s8, 1456(sp)
	sd	s9, 1448(sp)
	sd	s10, 1440(sp)
	.cfi_offset ra, -8
	.cfi_offset s0, -16
	.cfi_offset s1, -24
	.cfi_offset s2, -32
	.cfi_offset s3, -40
	.cfi_offset s4, -48
	.cfi_offset s5, -56
	.cfi_offset s6, -64
	.cfi_offset s7, -72
	.cfi_offset s8, -80
	.cfi_offset s9, -88
	.cfi_offset s10, -96
	addi	s0, sp, 1536
	.cfi_def_cfa s0, 0
	sd	a0, -112(s0)
	sd	a1, -120(s0)
	sd	a2, -128(s0)
	ld	s1, -112(s0)
	addi	s6, s1, 144
	mv	a0, s6
	call	_ZN5ImageC2Ev
	addi	s2, s1, 248
.Ltmp11:
	mv	a0, s2
	call	_ZN4FilmC1Ev
.Ltmp12:
	j	.LBB5_1
.LBB5_1:                                # %invoke.cont
	addi	s3, s1, 376
	mv	a0, s3
	call	_ZNSt7__cxx1112basic_stringIcSt11char_traitsIcESaIcEEC1Ev
	addi	a0, zero, 2000
	sd	a0, 408(s1)
	addi	s4, s1, 416
	mv	a0, s4
	call	_ZNSt10shared_ptrI10IntegratorEC2Ev
	sd	zero, 432(s1)
	sd	zero, 440(s1)
	call	_ZNSt6chrono3_V212steady_clock3nowEv
	sd	a0, 448(s1)
	addi	a0, zero, 32
	sd	a0, 456(s1)
	addi	s5, s1, 464
.Ltmp14:
	mv	a0, s5
	call	_ZNSt5dequeIdSaIdEEC2Ev
.Ltmp15:
	j	.LBB5_2
.LBB5_2:                                # %invoke.cont4
	ld	a0, -128(s0)
	lbu	a0, 76(a0)
	andi	a0, a0, 1
	beqz	a0, .LBB5_8
	j	.LBB5_3
.LBB5_3:                                # %if.then
	ld	a1, -120(s0)
.Ltmp19:
	addi	a0, s0, -160
	call	_ZSt11make_sharedI12PhotonMapperJRKN8nlohmann10basic_jsonISt3mapSt6vectorNSt7__cxx1112basic_stringIcSt11char_traitsIcESaIcEEEblmdSaNS1_14adl_serializerEEEEESt10shared_ptrIT_EDpOT0_
.Ltmp20:
	j	.LBB5_4
.LBB5_4:                                # %invoke.cont6
	addi	a0, s1, 416
	addi	s7, s0, -160
	mv	a1, s7
	call	_ZNSt10shared_ptrI10IntegratorEaSI12PhotonMapperEENSt9enable_ifIXsr13is_assignableIRSt12__shared_ptrIS0_LN9__gnu_cxx12_Lock_policyE0EES_IT_EEE5valueERS1_E4typeEOSB_
	mv	a0, s7
	call	_ZNSt10shared_ptrI12PhotonMapperED2Ev
	j	.LBB5_10
.LBB5_5:                                # %lpad
.Ltmp13:
	sd	a0, -136(s0)
	sw	a1, -140(s0)
	j	.LBB5_128
.LBB5_6:                                # %lpad3
.Ltmp16:
	sd	a0, -136(s0)
	sw	a1, -140(s0)
	j	.LBB5_127
.LBB5_7:                                # %lpad5
.Ltmp167:
	sd	a0, -136(s0)
	sw	a1, -140(s0)
	j	.LBB5_126
.LBB5_8:                                # %if.else
	ld	a1, -120(s0)
.Ltmp17:
	addi	a0, s0, -176
	call	_ZSt11make_sharedI10PathTracerJRKN8nlohmann10basic_jsonISt3mapSt6vectorNSt7__cxx1112basic_stringIcSt11char_traitsIcESaIcEEEblmdSaNS1_14adl_serializerEEEEESt10shared_ptrIT_EDpOT0_
.Ltmp18:
	j	.LBB5_9
.LBB5_9:                                # %invoke.cont10
	addi	a0, s1, 416
	addi	s7, s0, -176
	mv	a1, s7
	call	_ZNSt10shared_ptrI10IntegratorEaSI10PathTracerEENSt9enable_ifIXsr13is_assignableIRSt12__shared_ptrIS0_LN9__gnu_cxx12_Lock_policyE0EES_IT_EEE5valueERS1_E4typeEOSB_
	mv	a0, s7
	call	_ZNSt10shared_ptrI10PathTracerED2Ev
	j	.LBB5_10
.LBB5_10:                               # %if.end
	ld	s7, -120(s0)
	addi	s8, s0, -224
	mv	a0, s8
	call	_ZNSaIcEC1Ev
.Ltmp21:
	lui	a0, %hi(.L.str)
	addi	a1, a0, %lo(.L.str)
	addi	a0, s0, -216
	mv	a2, s8
	call	_ZNSt7__cxx1112basic_stringIcSt11char_traitsIcESaIcEEC2IS3_EEPKcRKS3_
.Ltmp22:
	j	.LBB5_11
.LBB5_11:                               # %invoke.cont16
.Ltmp24:
	addi	a1, s0, -216
	mv	a0, s7
	call	_ZNK8nlohmann10basic_jsonISt3mapSt6vectorNSt7__cxx1112basic_stringIcSt11char_traitsIcESaIcEEEblmdSaNS_14adl_serializerEE2atERKS8_
.Ltmp25:
	j	.LBB5_12
.LBB5_12:                               # %invoke.cont18
	ld	a1, -128(s0)
	lw	a1, 72(a1)
.Ltmp26:
	call	_ZNK8nlohmann10basic_jsonISt3mapSt6vectorNSt7__cxx1112basic_stringIcSt11char_traitsIcESaIcEEEblmdSaNS_14adl_serializerEE2atEm
	mv	s7, a0
.Ltmp27:
	j	.LBB5_13
.LBB5_13:                               # %invoke.cont20
	addi	a0, s0, -216
	call	_ZNSt7__cxx1112basic_stringIcSt11char_traitsIcESaIcEED1Ev
	addi	a0, s0, -224
	call	_ZNSaIcED1Ev
	sd	s7, -184(s0)
	ld	s7, -184(s0)
	addi	s8, s0, -368
	mv	a0, s8
	call	_ZNSaIcEC1Ev
.Ltmp29:
	lui	a0, %hi(.L.str.2)
	addi	a1, a0, %lo(.L.str.2)
	addi	a0, s0, -360
	mv	a2, s8
	call	_ZNSt7__cxx1112basic_stringIcSt11char_traitsIcESaIcEEC2IS3_EEPKcRKS3_
.Ltmp30:
	j	.LBB5_14
.LBB5_14:                               # %invoke.cont26
.Ltmp32:
	addi	a1, s0, -360
	mv	a0, s7
	call	_ZNK8nlohmann10basic_jsonISt3mapSt6vectorNSt7__cxx1112basic_stringIcSt11char_traitsIcESaIcEEEblmdSaNS_14adl_serializerEE2atERKS8_
	mv	a1, a0
.Ltmp33:
	j	.LBB5_15
.LBB5_15:                               # %invoke.cont28
.Ltmp34:
	addi	a0, s0, -328
	call	_ZN5ImageC1ERKN8nlohmann10basic_jsonISt3mapSt6vectorNSt7__cxx1112basic_stringIcSt11char_traitsIcESaIcEEEblmdSaNS0_14adl_serializerEEE
.Ltmp35:
	j	.LBB5_16
.LBB5_16:                               # %invoke.cont30
	addi	a0, s1, 144
	addi	s7, s0, -328
	mv	a1, s7
	call	_ZN5ImageaSEOS_
	mv	a0, s7
	call	_ZN5ImageD2Ev
	addi	a0, s0, -360
	call	_ZNSt7__cxx1112basic_stringIcSt11char_traitsIcESaIcEED1Ev
	addi	a0, s0, -368
	call	_ZNSaIcED1Ev
	ld	a1, -184(s0)
.Ltmp37:
	lui	a0, %hi(.L.str.3)
	addi	a2, a0, %lo(.L.str.3)
	addi	a0, s0, -400
	call	_ZNK8nlohmann10basic_jsonISt3mapSt6vectorNSt7__cxx1112basic_stringIcSt11char_traitsIcESaIcEEEblmdSaNS_14adl_serializerEE4findIRA5_KcEENS_6detail9iter_implIKSA_EEOT_
.Ltmp38:
	j	.LBB5_17
.LBB5_17:                               # %invoke.cont36
	ld	a1, -184(s0)
	addi	s7, s0, -432
	mv	a0, s7
	call	_ZNK8nlohmann10basic_jsonISt3mapSt6vectorNSt7__cxx1112basic_stringIcSt11char_traitsIcESaIcEEEblmdSaNS_14adl_serializerEE3endEv
.Ltmp39:
	addi	a0, s0, -400
	mv	a1, s7
	call	_ZNK8nlohmann6detail9iter_implIKNS_10basic_jsonISt3mapSt6vectorNSt7__cxx1112basic_stringIcSt11char_traitsIcESaIcEEEblmdSaNS_14adl_serializerEEEEneERKSE_
.Ltmp40:
	j	.LBB5_18
.LBB5_18:                               # %invoke.cont38
	andi	a0, a0, 1
	beqz	a0, .LBB5_32
	j	.LBB5_19
.LBB5_19:                               # %if.then40
	ld	s7, 144(s1)
	ld	s8, 152(s1)
	ld	s9, -184(s0)
	addi	s10, s0, -592
	mv	a0, s10
	call	_ZNSaIcEC1Ev
.Ltmp43:
	lui	a0, %hi(.L.str.3)
	addi	a1, a0, %lo(.L.str.3)
	addi	a0, s0, -584
	mv	a2, s10
	call	_ZNSt7__cxx1112basic_stringIcSt11char_traitsIcESaIcEEC2IS3_EEPKcRKS3_
.Ltmp44:
	j	.LBB5_20
.LBB5_20:                               # %invoke.cont47
.Ltmp46:
	addi	a1, s0, -584
	mv	a0, s9
	call	_ZNK8nlohmann10basic_jsonISt3mapSt6vectorNSt7__cxx1112basic_stringIcSt11char_traitsIcESaIcEEEblmdSaNS_14adl_serializerEE2atERKS8_
	mv	a3, a0
.Ltmp47:
	j	.LBB5_21
.LBB5_21:                               # %invoke.cont49
.Ltmp48:
	addi	a0, s0, -552
	mv	a1, s7
	mv	a2, s8
	call	_ZN4FilmC1EmmRKN8nlohmann10basic_jsonISt3mapSt6vectorNSt7__cxx1112basic_stringIcSt11char_traitsIcESaIcEEEblmdSaNS0_14adl_serializerEEE
.Ltmp49:
	j	.LBB5_22
.LBB5_22:                               # %invoke.cont51
	addi	a0, s1, 248
	addi	s7, s0, -552
	mv	a1, s7
	call	_ZN4FilmaSEOS_
	mv	a0, s7
	call	_ZN4FilmD2Ev
	addi	a0, s0, -584
	call	_ZNSt7__cxx1112basic_stringIcSt11char_traitsIcESaIcEED1Ev
	addi	a0, s0, -592
	call	_ZNSaIcED1Ev
	j	.LBB5_34
.LBB5_23:                               # %lpad15
.Ltmp23:
	sd	a0, -136(s0)
	sw	a1, -140(s0)
	j	.LBB5_25
.LBB5_24:                               # %lpad17
.Ltmp28:
	sd	a0, -136(s0)
	sw	a1, -140(s0)
	addi	a0, s0, -216
	call	_ZNSt7__cxx1112basic_stringIcSt11char_traitsIcESaIcEED1Ev
	j	.LBB5_25
.LBB5_25:                               # %ehcleanup
	addi	a0, s0, -224
	call	_ZNSaIcED1Ev
	j	.LBB5_126
.LBB5_26:                               # %lpad25
.Ltmp31:
	sd	a0, -136(s0)
	sw	a1, -140(s0)
	j	.LBB5_28
.LBB5_27:                               # %lpad27
.Ltmp36:
	sd	a0, -136(s0)
	sw	a1, -140(s0)
	addi	a0, s0, -360
	call	_ZNSt7__cxx1112basic_stringIcSt11char_traitsIcESaIcEED1Ev
	j	.LBB5_28
.LBB5_28:                               # %ehcleanup34
	addi	a0, s0, -368
	call	_ZNSaIcED1Ev
	j	.LBB5_126
.LBB5_29:                               # %lpad46
.Ltmp45:
	sd	a0, -136(s0)
	sw	a1, -140(s0)
	j	.LBB5_31
.LBB5_30:                               # %lpad48
.Ltmp50:
	sd	a0, -136(s0)
	sw	a1, -140(s0)
	addi	a0, s0, -584
	call	_ZNSt7__cxx1112basic_stringIcSt11char_traitsIcESaIcEED1Ev
	j	.LBB5_31
.LBB5_31:                               # %ehcleanup55
	addi	a0, s0, -592
	call	_ZNSaIcED1Ev
	j	.LBB5_126
.LBB5_32:                               # %if.else56
	ld	a1, 144(s1)
	ld	a2, 152(s1)
.Ltmp41:
	addi	a0, s0, -712
	call	_ZN4FilmC1Emm
.Ltmp42:
	j	.LBB5_33
.LBB5_33:                               # %invoke.cont62
	addi	a0, s1, 248
	addi	s7, s0, -712
	mv	a1, s7
	call	_ZN4FilmaSEOS_
	mv	a0, s7
	call	_ZN4FilmD2Ev
	j	.LBB5_34
.LBB5_34:                               # %if.end65
	ld	s7, -184(s0)
	addi	s8, s0, -776
	mv	a0, s8
	call	_ZNSaIcEC1Ev
.Ltmp51:
	lui	a0, %hi(.L.str.4)
	addi	a1, a0, %lo(.L.str.4)
	addi	a0, s0, -768
	mv	a2, s8
	call	_ZNSt7__cxx1112basic_stringIcSt11char_traitsIcESaIcEEC2IS3_EEPKcRKS3_
.Ltmp52:
	j	.LBB5_35
.LBB5_35:                               # %invoke.cont70
.Ltmp54:
	addi	a1, s0, -768
	mv	a0, s7
	call	_ZNK8nlohmann10basic_jsonISt3mapSt6vectorNSt7__cxx1112basic_stringIcSt11char_traitsIcESaIcEEEblmdSaNS_14adl_serializerEE2atERKS8_
	mv	a1, a0
.Ltmp55:
	j	.LBB5_36
.LBB5_36:                               # %invoke.cont72
.Ltmp56:
	addi	a0, s0, -736
	call	_ZNK8nlohmann10basic_jsonISt3mapSt6vectorNSt7__cxx1112basic_stringIcSt11char_traitsIcESaIcEEEblmdSaNS_14adl_serializerEEcvT_IN3glm3vecILi3EdLNSD_9qualifierE0EEELi0EEEv
.Ltmp57:
	j	.LBB5_37
.LBB5_37:                               # %invoke.cont74
	ld	a0, -720(s0)
	sd	a0, 32(s1)
	ld	a0, -728(s0)
	sd	a0, 24(s1)
	ld	a0, -736(s0)
	sd	a0, 16(s1)
	addi	a0, s0, -768
	call	_ZNSt7__cxx1112basic_stringIcSt11char_traitsIcESaIcEED1Ev
	addi	a0, s0, -776
	call	_ZNSaIcED1Ev
	ld	s7, -184(s0)
	addi	s8, s0, -816
	mv	a0, s8
	call	_ZNSaIcEC1Ev
.Ltmp59:
	lui	a0, %hi(.L.str.5)
	addi	a1, a0, %lo(.L.str.5)
	addi	a0, s0, -808
	mv	a2, s8
	call	_ZNSt7__cxx1112basic_stringIcSt11char_traitsIcESaIcEEC2IS3_EEPKcRKS3_
.Ltmp60:
	j	.LBB5_38
.LBB5_38:                               # %invoke.cont81
.Ltmp62:
	addi	a1, s0, -808
	mv	a0, s7
	call	_ZNK8nlohmann10basic_jsonISt3mapSt6vectorNSt7__cxx1112basic_stringIcSt11char_traitsIcESaIcEEEblmdSaNS_14adl_serializerEE2atERKS8_
.Ltmp63:
	j	.LBB5_39
.LBB5_39:                               # %invoke.cont83
.Ltmp64:
	call	_ZNK8nlohmann10basic_jsonISt3mapSt6vectorNSt7__cxx1112basic_stringIcSt11char_traitsIcESaIcEEEblmdSaNS_14adl_serializerEE3getIddLi0EEET0_v
.Ltmp65:
	fmv.d.x	ft0, a0
	j	.LBB5_40
.LBB5_40:                               # %invoke.cont85
	lui	a0, %hi(.LCPI5_0)
	addi	a0, a0, %lo(.LCPI5_0)
	fld	ft1, 0(a0)
	fdiv.d	ft0, ft0, ft1
	fsd	ft0, 112(s1)
	addi	a0, s0, -808
	call	_ZNSt7__cxx1112basic_stringIcSt11char_traitsIcESaIcEED1Ev
	addi	a0, s0, -816
	call	_ZNSaIcED1Ev
	ld	s7, -184(s0)
	addi	s8, s0, -856
	mv	a0, s8
	call	_ZNSaIcEC1Ev
.Ltmp67:
	lui	a0, %hi(.L.str.6)
	addi	a1, a0, %lo(.L.str.6)
	addi	a0, s0, -848
	mv	a2, s8
	call	_ZNSt7__cxx1112basic_stringIcSt11char_traitsIcESaIcEEC2IS3_EEPKcRKS3_
.Ltmp68:
	j	.LBB5_41
.LBB5_41:                               # %invoke.cont92
.Ltmp70:
	addi	a1, s0, -848
	mv	a0, s7
	call	_ZNK8nlohmann10basic_jsonISt3mapSt6vectorNSt7__cxx1112basic_stringIcSt11char_traitsIcESaIcEEEblmdSaNS_14adl_serializerEE2atERKS8_
.Ltmp71:
	j	.LBB5_42
.LBB5_42:                               # %invoke.cont94
.Ltmp72:
	call	_ZNK8nlohmann10basic_jsonISt3mapSt6vectorNSt7__cxx1112basic_stringIcSt11char_traitsIcESaIcEEEblmdSaNS_14adl_serializerEE3getIddLi0EEET0_v
.Ltmp73:
	fmv.d.x	ft0, a0
	j	.LBB5_43
.LBB5_43:                               # %invoke.cont96
	lui	a0, %hi(.LCPI5_0)
	addi	a0, a0, %lo(.LCPI5_0)
	fld	ft1, 0(a0)
	fdiv.d	ft0, ft0, ft1
	fsd	ft0, 120(s1)
	addi	a0, s0, -848
	call	_ZNSt7__cxx1112basic_stringIcSt11char_traitsIcESaIcEED1Ev
	addi	a0, s0, -856
	call	_ZNSaIcED1Ev
	ld	s7, -184(s0)
	addi	s8, s0, -896
	mv	a0, s8
	call	_ZNSaIcEC1Ev
.Ltmp75:
	lui	a0, %hi(.L.str.7)
	addi	a1, a0, %lo(.L.str.7)
	addi	a0, s0, -888
	mv	a2, s8
	call	_ZNSt7__cxx1112basic_stringIcSt11char_traitsIcESaIcEEC2IS3_EEPKcRKS3_
.Ltmp76:
	j	.LBB5_44
.LBB5_44:                               # %invoke.cont104
.Ltmp78:
	addi	a1, s0, -888
	mv	a0, s7
	call	_ZNK8nlohmann10basic_jsonISt3mapSt6vectorNSt7__cxx1112basic_stringIcSt11char_traitsIcESaIcEEEblmdSaNS_14adl_serializerEE2atERKS8_
.Ltmp79:
	j	.LBB5_45
.LBB5_45:                               # %invoke.cont106
.Ltmp80:
	call	_ZNK8nlohmann10basic_jsonISt3mapSt6vectorNSt7__cxx1112basic_stringIcSt11char_traitsIcESaIcEEEblmdSaNS_14adl_serializerEEcvT_ImLi0EEEv
.Ltmp81:
	j	.LBB5_46
.LBB5_46:                               # %invoke.cont108
	sd	a0, 0(s1)
	addi	a0, s0, -888
	call	_ZNSt7__cxx1112basic_stringIcSt11char_traitsIcESaIcEED1Ev
	addi	a0, s0, -896
	call	_ZNSaIcED1Ev
	ld	s7, -184(s0)
	addi	s8, s0, -936
	mv	a0, s8
	call	_ZNSaIcEC1Ev
.Ltmp83:
	lui	a0, %hi(.L.str.8)
	addi	a1, a0, %lo(.L.str.8)
	addi	a0, s0, -928
	mv	a2, s8
	call	_ZNSt7__cxx1112basic_stringIcSt11char_traitsIcESaIcEEC2IS3_EEPKcRKS3_
.Ltmp84:
	j	.LBB5_47
.LBB5_47:                               # %invoke.cont115
.Ltmp86:
	addi	a1, s0, -928
	mv	a0, s7
	call	_ZNK8nlohmann10basic_jsonISt3mapSt6vectorNSt7__cxx1112basic_stringIcSt11char_traitsIcESaIcEEEblmdSaNS_14adl_serializerEE2atERKS8_
.Ltmp87:
	j	.LBB5_48
.LBB5_48:                               # %invoke.cont117
.Ltmp88:
	call	_ZNK8nlohmann10basic_jsonISt3mapSt6vectorNSt7__cxx1112basic_stringIcSt11char_traitsIcESaIcEEEblmdSaNS_14adl_serializerEEcvT_ImLi0EEEv
.Ltmp89:
	j	.LBB5_49
.LBB5_49:                               # %invoke.cont119
	sd	a0, 8(s1)
	addi	a0, s0, -928
	call	_ZNSt7__cxx1112basic_stringIcSt11char_traitsIcESaIcEED1Ev
	addi	a0, s0, -936
	call	_ZNSaIcED1Ev
	ld	s7, -184(s0)
	addi	s8, s0, -976
	mv	a0, s8
	call	_ZNSaIcEC1Ev
.Ltmp91:
	lui	a0, %hi(.L.str.9)
	addi	a1, a0, %lo(.L.str.9)
	addi	a0, s0, -968
	mv	a2, s8
	call	_ZNSt7__cxx1112basic_stringIcSt11char_traitsIcESaIcEEC2IS3_EEPKcRKS3_
.Ltmp92:
	j	.LBB5_50
.LBB5_50:                               # %invoke.cont126
.Ltmp94:
	addi	a1, s0, -968
	mv	a0, s7
	call	_ZNK8nlohmann10basic_jsonISt3mapSt6vectorNSt7__cxx1112basic_stringIcSt11char_traitsIcESaIcEEEblmdSaNS_14adl_serializerEE2atERKS8_
.Ltmp95:
	j	.LBB5_51
.LBB5_51:                               # %invoke.cont128
.Ltmp96:
	call	_ZNK8nlohmann10basic_jsonISt3mapSt6vectorNSt7__cxx1112basic_stringIcSt11char_traitsIcESaIcEEEblmdSaNS_14adl_serializerEEcvT_IdLi0EEEv
.Ltmp97:
	fmv.d.x	ft0, a0
	j	.LBB5_52
.LBB5_52:                               # %invoke.cont130
	lui	s7, %hi(edge_threshold)
	fsd	ft0, %lo(edge_threshold)(s7)
	addi	a0, s0, -968
	call	_ZNSt7__cxx1112basic_stringIcSt11char_traitsIcESaIcEED1Ev
	addi	a0, s0, -976
	call	_ZNSaIcED1Ev
	fld	ft0, %lo(edge_threshold)(s7)
	lui	a0, %hi(.LCPI5_1)
	addi	a0, a0, %lo(.LCPI5_1)
	fld	ft1, 0(a0)
	fdiv.d	ft0, ft0, ft1
	fsd	ft0, %lo(edge_threshold)(s7)
	ld	s7, -184(s0)
	addi	s8, s0, -1016
	mv	a0, s8
	call	_ZNSaIcEC1Ev
.Ltmp99:
	lui	a0, %hi(.L.str.10)
	addi	a1, a0, %lo(.L.str.10)
	addi	a0, s0, -1008
	mv	a2, s8
	call	_ZNSt7__cxx1112basic_stringIcSt11char_traitsIcESaIcEEC2IS3_EEPKcRKS3_
.Ltmp100:
	j	.LBB5_53
.LBB5_53:                               # %invoke.cont138
.Ltmp102:
	addi	a1, s0, -1008
	mv	a0, s7
	call	_ZNK8nlohmann10basic_jsonISt3mapSt6vectorNSt7__cxx1112basic_stringIcSt11char_traitsIcESaIcEEEblmdSaNS_14adl_serializerEE2atERKS8_
.Ltmp103:
	j	.LBB5_54
.LBB5_54:                               # %invoke.cont140
.Ltmp104:
	call	_ZNK8nlohmann10basic_jsonISt3mapSt6vectorNSt7__cxx1112basic_stringIcSt11char_traitsIcESaIcEEEblmdSaNS_14adl_serializerEEcvT_IdLi0EEEv
.Ltmp105:
	fmv.d.x	ft0, a0
	j	.LBB5_55
.LBB5_55:                               # %invoke.cont142
	lui	a0, %hi(approx_prob)
	fsd	ft0, %lo(approx_prob)(a0)
	addi	a0, s0, -1008
	call	_ZNSt7__cxx1112basic_stringIcSt11char_traitsIcESaIcEED1Ev
	addi	a0, s0, -1016
	call	_ZNSaIcED1Ev
	ld	s7, -184(s0)
	addi	s8, s0, -1088
	mv	a0, s8
	call	_ZNSaIcEC1Ev
.Ltmp107:
	lui	a0, %hi(.L.str.11)
	addi	a1, a0, %lo(.L.str.11)
	addi	a0, s0, -1080
	mv	a2, s8
	call	_ZNSt7__cxx1112basic_stringIcSt11char_traitsIcESaIcEEC2IS3_EEPKcRKS3_
.Ltmp108:
	j	.LBB5_56
.LBB5_56:                               # %invoke.cont150
.Ltmp110:
	addi	a1, s0, -1080
	mv	a0, s7
	call	_ZNK8nlohmann10basic_jsonISt3mapSt6vectorNSt7__cxx1112basic_stringIcSt11char_traitsIcESaIcEEEblmdSaNS_14adl_serializerEE2atERKS8_
	mv	a1, a0
.Ltmp111:
	j	.LBB5_57
.LBB5_57:                               # %invoke.cont152
.Ltmp112:
	addi	a0, s0, -1048
	call	_ZNK8nlohmann10basic_jsonISt3mapSt6vectorNSt7__cxx1112basic_stringIcSt11char_traitsIcESaIcEEEblmdSaNS_14adl_serializerEEcvT_IS8_Li0EEEv
.Ltmp113:
	j	.LBB5_58
.LBB5_58:                               # %invoke.cont154
	addi	a0, s1, 376
	addi	s7, s0, -1048
	mv	a1, s7
	call	_ZNSt7__cxx1112basic_stringIcSt11char_traitsIcESaIcEEaSEOS4_
	mv	a0, s7
	call	_ZNSt7__cxx1112basic_stringIcSt11char_traitsIcESaIcEED1Ev
	addi	a0, s0, -1080
	call	_ZNSt7__cxx1112basic_stringIcSt11char_traitsIcESaIcEED1Ev
	addi	a0, s0, -1088
	call	_ZNSaIcED1Ev
	fld	ft0, 112(s1)
	fsd	ft0, -1528(s0)
	ld	s7, -184(s0)
	addi	s8, s0, -1128
	mv	a0, s8
	call	_ZNSaIcEC1Ev
.Ltmp115:
	lui	a0, %hi(.L.str.12)
	addi	a1, a0, %lo(.L.str.12)
	addi	a0, s0, -1120
	mv	a2, s8
	call	_ZNSt7__cxx1112basic_stringIcSt11char_traitsIcESaIcEEC2IS3_EEPKcRKS3_
.Ltmp116:
	j	.LBB5_59
.LBB5_59:                               # %invoke.cont162
.Ltmp118:
	addi	a0, zero, -1025
	slli	a2, a0, 52
	addi	a1, s0, -1120
	mv	a0, s7
	call	_Z11getOptionalIdET_RKN8nlohmann10basic_jsonISt3mapSt6vectorNSt7__cxx1112basic_stringIcSt11char_traitsIcESaIcEEEblmdSaNS1_14adl_serializerEEESA_S0_
	fmv.d.x	ft0, a0
.Ltmp119:
	j	.LBB5_60
.LBB5_60:                               # %invoke.cont164
	fld	ft1, -1528(s0)
	fdiv.d	ft0, ft1, ft0
	lui	a0, %hi(.LCPI5_2)
	addi	a0, a0, %lo(.LCPI5_2)
	fld	ft1, 0(a0)
	fdiv.d	ft0, ft0, ft1
	fsd	ft0, 128(s1)
	addi	a0, s0, -1120
	call	_ZNSt7__cxx1112basic_stringIcSt11char_traitsIcESaIcEED1Ev
	addi	a0, s0, -1128
	call	_ZNSaIcED1Ev
	ld	s7, -184(s0)
	addi	s8, s0, -1168
	mv	a0, s8
	call	_ZNSaIcEC1Ev
.Ltmp121:
	lui	a0, %hi(.L.str.13)
	addi	a1, a0, %lo(.L.str.13)
	addi	a0, s0, -1160
	mv	a2, s8
	call	_ZNSt7__cxx1112basic_stringIcSt11char_traitsIcESaIcEEC2IS3_EEPKcRKS3_
.Ltmp122:
	j	.LBB5_61
.LBB5_61:                               # %invoke.cont173
.Ltmp124:
	addi	a0, zero, -1025
	slli	a2, a0, 52
	addi	a1, s0, -1160
	mv	a0, s7
	call	_Z11getOptionalIdET_RKN8nlohmann10basic_jsonISt3mapSt6vectorNSt7__cxx1112basic_stringIcSt11char_traitsIcESaIcEEEblmdSaNS1_14adl_serializerEEESA_S0_
	fmv.d.x	ft0, a0
.Ltmp125:
	j	.LBB5_62
.LBB5_62:                               # %invoke.cont175
	fsd	ft0, 136(s1)
	addi	a0, s0, -1160
	call	_ZNSt7__cxx1112basic_stringIcSt11char_traitsIcESaIcEED1Ev
	addi	a0, s0, -1168
	call	_ZNSaIcED1Ev
	ld	a1, -184(s0)
.Ltmp127:
	lui	a0, %hi(.L.str.14)
	addi	a2, a0, %lo(.L.str.14)
	addi	a0, s0, -1200
	call	_ZNK8nlohmann10basic_jsonISt3mapSt6vectorNSt7__cxx1112basic_stringIcSt11char_traitsIcESaIcEEEblmdSaNS_14adl_serializerEE4findIRA8_KcEENS_6detail9iter_implIKSA_EEOT_
.Ltmp128:
	j	.LBB5_63
.LBB5_63:                               # %invoke.cont180
	ld	a1, -184(s0)
	addi	s7, s0, -1232
	mv	a0, s7
	call	_ZNK8nlohmann10basic_jsonISt3mapSt6vectorNSt7__cxx1112basic_stringIcSt11char_traitsIcESaIcEEEblmdSaNS_14adl_serializerEE3endEv
.Ltmp129:
	addi	a0, s0, -1200
	mv	a1, s7
	call	_ZNK8nlohmann6detail9iter_implIKNS_10basic_jsonISt3mapSt6vectorNSt7__cxx1112basic_stringIcSt11char_traitsIcESaIcEEEblmdSaNS_14adl_serializerEEEEneERKSE_
.Ltmp130:
	j	.LBB5_64
.LBB5_64:                               # %invoke.cont182
	andi	a0, a0, 1
	beqz	a0, .LBB5_106
	j	.LBB5_65
.LBB5_65:                               # %if.then184
	ld	s7, -184(s0)
	addi	s8, s0, -1296
	mv	a0, s8
	call	_ZNSaIcEC1Ev
.Ltmp155:
	lui	a0, %hi(.L.str.14)
	addi	a1, a0, %lo(.L.str.14)
	addi	a0, s0, -1288
	mv	a2, s8
	call	_ZNSt7__cxx1112basic_stringIcSt11char_traitsIcESaIcEEC2IS3_EEPKcRKS3_
.Ltmp156:
	j	.LBB5_66
.LBB5_66:                               # %invoke.cont188
.Ltmp158:
	addi	a1, s0, -1288
	mv	a0, s7
	call	_ZNK8nlohmann10basic_jsonISt3mapSt6vectorNSt7__cxx1112basic_stringIcSt11char_traitsIcESaIcEEEblmdSaNS_14adl_serializerEE2atERKS8_
	mv	a1, a0
.Ltmp159:
	j	.LBB5_67
.LBB5_67:                               # %invoke.cont190
.Ltmp160:
	addi	a0, s0, -1256
	call	_ZNK8nlohmann10basic_jsonISt3mapSt6vectorNSt7__cxx1112basic_stringIcSt11char_traitsIcESaIcEEEblmdSaNS_14adl_serializerEEcvT_IN3glm3vecILi3EdLNSD_9qualifierE0EEELi0EEEv
.Ltmp161:
	j	.LBB5_68
.LBB5_68:                               # %invoke.cont192
	addi	a0, s0, -1288
	call	_ZNSt7__cxx1112basic_stringIcSt11char_traitsIcESaIcEED1Ev
	addi	a0, s0, -1296
	call	_ZNSaIcED1Ev
.Ltmp163:
	addi	a1, s0, -1256
	mv	a0, s1
	call	_ZN6Camera6lookAtERKN3glm3vecILi3EdLNS0_9qualifierE0EEE
.Ltmp164:
	j	.LBB5_69
.LBB5_69:                               # %invoke.cont195
	fld	ft0, 136(s1)
	lui	a0, %hi(.LCPI5_3)
	addi	a0, a0, %lo(.LCPI5_3)
	fld	ft1, 0(a0)
	flt.d	a0, ft0, ft1
	xori	a0, a0, 1
	bnez	a0, .LBB5_105
	j	.LBB5_70
.LBB5_70:                               # %if.then197
	addi	a0, s1, 16
.Ltmp165:
	addi	a1, s0, -1256
	call	_ZN3glm8distanceILi3EdLNS_9qualifierE0EEET0_RKNS_3vecIXT_ES2_XT1_EEES6_
	fmv.d.x	ft0, a0
.Ltmp166:
	j	.LBB5_71
.LBB5_71:                               # %invoke.cont199
	fsd	ft0, 136(s1)
	j	.LBB5_105
.LBB5_72:                               # %lpad69
.Ltmp53:
	sd	a0, -136(s0)
	sw	a1, -140(s0)
	j	.LBB5_74
.LBB5_73:                               # %lpad71
.Ltmp58:
	sd	a0, -136(s0)
	sw	a1, -140(s0)
	addi	a0, s0, -768
	call	_ZNSt7__cxx1112basic_stringIcSt11char_traitsIcESaIcEED1Ev
	j	.LBB5_74
.LBB5_74:                               # %ehcleanup77
	addi	a0, s0, -776
	call	_ZNSaIcED1Ev
	j	.LBB5_126
.LBB5_75:                               # %lpad80
.Ltmp61:
	sd	a0, -136(s0)
	sw	a1, -140(s0)
	j	.LBB5_77
.LBB5_76:                               # %lpad82
.Ltmp66:
	sd	a0, -136(s0)
	sw	a1, -140(s0)
	addi	a0, s0, -808
	call	_ZNSt7__cxx1112basic_stringIcSt11char_traitsIcESaIcEED1Ev
	j	.LBB5_77
.LBB5_77:                               # %ehcleanup88
	addi	a0, s0, -816
	call	_ZNSaIcED1Ev
	j	.LBB5_126
.LBB5_78:                               # %lpad91
.Ltmp69:
	sd	a0, -136(s0)
	sw	a1, -140(s0)
	j	.LBB5_80
.LBB5_79:                               # %lpad93
.Ltmp74:
	sd	a0, -136(s0)
	sw	a1, -140(s0)
	addi	a0, s0, -848
	call	_ZNSt7__cxx1112basic_stringIcSt11char_traitsIcESaIcEED1Ev
	j	.LBB5_80
.LBB5_80:                               # %ehcleanup100
	addi	a0, s0, -856
	call	_ZNSaIcED1Ev
	j	.LBB5_126
.LBB5_81:                               # %lpad103
.Ltmp77:
	sd	a0, -136(s0)
	sw	a1, -140(s0)
	j	.LBB5_83
.LBB5_82:                               # %lpad105
.Ltmp82:
	sd	a0, -136(s0)
	sw	a1, -140(s0)
	addi	a0, s0, -888
	call	_ZNSt7__cxx1112basic_stringIcSt11char_traitsIcESaIcEED1Ev
	j	.LBB5_83
.LBB5_83:                               # %ehcleanup111
	addi	a0, s0, -896
	call	_ZNSaIcED1Ev
	j	.LBB5_126
.LBB5_84:                               # %lpad114
.Ltmp85:
	sd	a0, -136(s0)
	sw	a1, -140(s0)
	j	.LBB5_86
.LBB5_85:                               # %lpad116
.Ltmp90:
	sd	a0, -136(s0)
	sw	a1, -140(s0)
	addi	a0, s0, -928
	call	_ZNSt7__cxx1112basic_stringIcSt11char_traitsIcESaIcEED1Ev
	j	.LBB5_86
.LBB5_86:                               # %ehcleanup122
	addi	a0, s0, -936
	call	_ZNSaIcED1Ev
	j	.LBB5_126
.LBB5_87:                               # %lpad125
.Ltmp93:
	sd	a0, -136(s0)
	sw	a1, -140(s0)
	j	.LBB5_89
.LBB5_88:                               # %lpad127
.Ltmp98:
	sd	a0, -136(s0)
	sw	a1, -140(s0)
	addi	a0, s0, -968
	call	_ZNSt7__cxx1112basic_stringIcSt11char_traitsIcESaIcEED1Ev
	j	.LBB5_89
.LBB5_89:                               # %ehcleanup133
	addi	a0, s0, -976
	call	_ZNSaIcED1Ev
	j	.LBB5_126
.LBB5_90:                               # %lpad137
.Ltmp101:
	sd	a0, -136(s0)
	sw	a1, -140(s0)
	j	.LBB5_92
.LBB5_91:                               # %lpad139
.Ltmp106:
	sd	a0, -136(s0)
	sw	a1, -140(s0)
	addi	a0, s0, -1008
	call	_ZNSt7__cxx1112basic_stringIcSt11char_traitsIcESaIcEED1Ev
	j	.LBB5_92
.LBB5_92:                               # %ehcleanup145
	addi	a0, s0, -1016
	call	_ZNSaIcED1Ev
	j	.LBB5_126
.LBB5_93:                               # %lpad149
.Ltmp109:
	sd	a0, -136(s0)
	sw	a1, -140(s0)
	j	.LBB5_95
.LBB5_94:                               # %lpad151
.Ltmp114:
	sd	a0, -136(s0)
	sw	a1, -140(s0)
	addi	a0, s0, -1080
	call	_ZNSt7__cxx1112basic_stringIcSt11char_traitsIcESaIcEED1Ev
	j	.LBB5_95
.LBB5_95:                               # %ehcleanup158
	addi	a0, s0, -1088
	call	_ZNSaIcED1Ev
	j	.LBB5_126
.LBB5_96:                               # %lpad161
.Ltmp117:
	sd	a0, -136(s0)
	sw	a1, -140(s0)
	j	.LBB5_98
.LBB5_97:                               # %lpad163
.Ltmp120:
	sd	a0, -136(s0)
	sw	a1, -140(s0)
	addi	a0, s0, -1120
	call	_ZNSt7__cxx1112basic_stringIcSt11char_traitsIcESaIcEED1Ev
	j	.LBB5_98
.LBB5_98:                               # %ehcleanup169
	addi	a0, s0, -1128
	call	_ZNSaIcED1Ev
	j	.LBB5_126
.LBB5_99:                               # %lpad172
.Ltmp123:
	sd	a0, -136(s0)
	sw	a1, -140(s0)
	j	.LBB5_101
.LBB5_100:                              # %lpad174
.Ltmp126:
	sd	a0, -136(s0)
	sw	a1, -140(s0)
	addi	a0, s0, -1160
	call	_ZNSt7__cxx1112basic_stringIcSt11char_traitsIcESaIcEED1Ev
	j	.LBB5_101
.LBB5_101:                              # %ehcleanup178
	addi	a0, s0, -1168
	call	_ZNSaIcED1Ev
	j	.LBB5_126
.LBB5_102:                              # %lpad187
.Ltmp157:
	sd	a0, -136(s0)
	sw	a1, -140(s0)
	j	.LBB5_104
.LBB5_103:                              # %lpad189
.Ltmp162:
	sd	a0, -136(s0)
	sw	a1, -140(s0)
	addi	a0, s0, -1288
	call	_ZNSt7__cxx1112basic_stringIcSt11char_traitsIcESaIcEED1Ev
	j	.LBB5_104
.LBB5_104:                              # %ehcleanup194
	addi	a0, s0, -1296
	call	_ZNSaIcED1Ev
	j	.LBB5_126
.LBB5_105:                              # %if.end202
	j	.LBB5_123
.LBB5_106:                              # %if.else203
	ld	s7, -184(s0)
	addi	s8, s0, -1384
	mv	a0, s8
	call	_ZNSaIcEC1Ev
.Ltmp131:
	lui	a0, %hi(.L.str.15)
	addi	a1, a0, %lo(.L.str.15)
	addi	a0, s0, -1376
	mv	a2, s8
	call	_ZNSt7__cxx1112basic_stringIcSt11char_traitsIcESaIcEEC2IS3_EEPKcRKS3_
.Ltmp132:
	j	.LBB5_107
.LBB5_107:                              # %invoke.cont209
.Ltmp134:
	addi	a1, s0, -1376
	mv	a0, s7
	call	_ZNK8nlohmann10basic_jsonISt3mapSt6vectorNSt7__cxx1112basic_stringIcSt11char_traitsIcESaIcEEEblmdSaNS_14adl_serializerEE2atERKS8_
	mv	a1, a0
.Ltmp135:
	j	.LBB5_108
.LBB5_108:                              # %invoke.cont211
.Ltmp136:
	addi	a0, s0, -1344
	call	_ZNK8nlohmann10basic_jsonISt3mapSt6vectorNSt7__cxx1112basic_stringIcSt11char_traitsIcESaIcEEEblmdSaNS_14adl_serializerEE3getIN3glm3vecILi3EdLNSC_9qualifierE0EEESF_Li0EEET0_v
.Ltmp137:
	j	.LBB5_109
.LBB5_109:                              # %invoke.cont213
.Ltmp138:
	addi	a0, s0, -1320
	addi	a1, s0, -1344
	call	_ZN3glm9normalizeILi3EdLNS_9qualifierE0EEENS_3vecIXT_ET0_XT1_EEERKS4_
.Ltmp139:
	j	.LBB5_110
.LBB5_110:                              # %invoke.cont214
	ld	a0, -1304(s0)
	sd	a0, 56(s1)
	ld	a0, -1312(s0)
	sd	a0, 48(s1)
	ld	a0, -1320(s0)
	sd	a0, 40(s1)
	addi	a0, s0, -1376
	call	_ZNSt7__cxx1112basic_stringIcSt11char_traitsIcESaIcEED1Ev
	addi	a0, s0, -1384
	call	_ZNSaIcED1Ev
	ld	s7, -184(s0)
	addi	s8, s0, -1472
	mv	a0, s8
	call	_ZNSaIcEC1Ev
.Ltmp141:
	lui	a0, %hi(.L.str.16)
	addi	a1, a0, %lo(.L.str.16)
	addi	a0, s0, -1464
	mv	a2, s8
	call	_ZNSt7__cxx1112basic_stringIcSt11char_traitsIcESaIcEEC2IS3_EEPKcRKS3_
.Ltmp142:
	j	.LBB5_111
.LBB5_111:                              # %invoke.cont223
.Ltmp144:
	addi	a1, s0, -1464
	mv	a0, s7
	call	_ZNK8nlohmann10basic_jsonISt3mapSt6vectorNSt7__cxx1112basic_stringIcSt11char_traitsIcESaIcEEEblmdSaNS_14adl_serializerEE2atERKS8_
	mv	a1, a0
.Ltmp145:
	j	.LBB5_112
.LBB5_112:                              # %invoke.cont225
.Ltmp146:
	addi	a0, s0, -1432
	call	_ZNK8nlohmann10basic_jsonISt3mapSt6vectorNSt7__cxx1112basic_stringIcSt11char_traitsIcESaIcEEEblmdSaNS_14adl_serializerEE3getIN3glm3vecILi3EdLNSC_9qualifierE0EEESF_Li0EEET0_v
.Ltmp147:
	j	.LBB5_113
.LBB5_113:                              # %invoke.cont227
.Ltmp148:
	addi	a0, s0, -1408
	addi	a1, s0, -1432
	call	_ZN3glm9normalizeILi3EdLNS_9qualifierE0EEENS_3vecIXT_ET0_XT1_EEERKS4_
.Ltmp149:
	j	.LBB5_114
.LBB5_114:                              # %invoke.cont228
	addi	s7, s1, 88
	ld	a0, -1392(s0)
	sd	a0, 104(s1)
	ld	a0, -1400(s0)
	sd	a0, 96(s1)
	ld	a0, -1408(s0)
	sd	a0, 88(s1)
	addi	a0, s0, -1464
	call	_ZNSt7__cxx1112basic_stringIcSt11char_traitsIcESaIcEED1Ev
	addi	a0, s0, -1472
	call	_ZNSaIcED1Ev
	addi	a2, s1, 40
.Ltmp151:
	addi	a0, s0, -1520
	mv	a1, s7
	call	_ZN3glm5crossIdLNS_9qualifierE0EEENS_3vecILi3ET_XT0_EEERKS4_S6_
.Ltmp152:
	j	.LBB5_115
.LBB5_115:                              # %invoke.cont236
.Ltmp153:
	addi	a0, s0, -1496
	addi	a1, s0, -1520
	call	_ZN3glm9normalizeILi3EdLNS_9qualifierE0EEENS_3vecIXT_ET0_XT1_EEERKS4_
.Ltmp154:
	j	.LBB5_116
.LBB5_116:                              # %invoke.cont237
	ld	a0, -1480(s0)
	sd	a0, 80(s1)
	ld	a0, -1488(s0)
	sd	a0, 72(s1)
	ld	a0, -1496(s0)
	sd	a0, 64(s1)
	j	.LBB5_123
.LBB5_117:                              # %lpad208
.Ltmp133:
	sd	a0, -136(s0)
	sw	a1, -140(s0)
	j	.LBB5_119
.LBB5_118:                              # %lpad210
.Ltmp140:
	sd	a0, -136(s0)
	sw	a1, -140(s0)
	addi	a0, s0, -1376
	call	_ZNSt7__cxx1112basic_stringIcSt11char_traitsIcESaIcEED1Ev
	j	.LBB5_119
.LBB5_119:                              # %ehcleanup217
	addi	a0, s0, -1384
	call	_ZNSaIcED1Ev
	j	.LBB5_126
.LBB5_120:                              # %lpad222
.Ltmp143:
	sd	a0, -136(s0)
	sw	a1, -140(s0)
	j	.LBB5_122
.LBB5_121:                              # %lpad224
.Ltmp150:
	sd	a0, -136(s0)
	sw	a1, -140(s0)
	addi	a0, s0, -1464
	call	_ZNSt7__cxx1112basic_stringIcSt11char_traitsIcESaIcEED1Ev
	j	.LBB5_122
.LBB5_122:                              # %ehcleanup231
	addi	a0, s0, -1472
	call	_ZNSaIcED1Ev
	j	.LBB5_126
.LBB5_123:                              # %if.end239
	fld	ft0, 128(s1)
	lui	a0, %hi(.LCPI5_3)
	addi	a0, a0, %lo(.LCPI5_3)
	fld	ft1, 0(a0)
	flt.d	a0, ft1, ft0
	xori	a1, a0, 1
	mv	a0, zero
	bnez	a1, .LBB5_125
	j	.LBB5_124
.LBB5_124:                              # %land.rhs
	fld	ft0, 136(s1)
	lui	a0, %hi(.LCPI5_3)
	addi	a0, a0, %lo(.LCPI5_3)
	fld	ft1, 0(a0)
	flt.d	a0, ft1, ft0
	j	.LBB5_125
.LBB5_125:                              # %land.end
	andi	a0, a0, 1
	sb	a0, 368(s1)
	ld	s10, 1440(sp)
	ld	s9, 1448(sp)
	ld	s8, 1456(sp)
	ld	s7, 1464(sp)
	ld	s6, 1472(sp)
	ld	s5, 1480(sp)
	ld	s4, 1488(sp)
	ld	s3, 1496(sp)
	ld	s2, 1504(sp)
	ld	s1, 1512(sp)
	ld	s0, 1520(sp)
	.cfi_def_cfa sp, 1536
	ld	ra, 1528(sp)
	.cfi_restore ra
	.cfi_restore s0
	.cfi_restore s1
	.cfi_restore s2
	.cfi_restore s3
	.cfi_restore s4
	.cfi_restore s5
	.cfi_restore s6
	.cfi_restore s7
	.cfi_restore s8
	.cfi_restore s9
	.cfi_restore s10
	addi	sp, sp, 1536
	.cfi_def_cfa_offset 0
	ret
.LBB5_126:                              # %ehcleanup244
	mv	a0, s5
	call	_ZNSt5dequeIdSaIdEED2Ev
	j	.LBB5_127
.LBB5_127:                              # %ehcleanup245
	mv	a0, s4
	call	_ZNSt10shared_ptrI10IntegratorED2Ev
	mv	a0, s3
	call	_ZNSt7__cxx1112basic_stringIcSt11char_traitsIcESaIcEED1Ev
	mv	a0, s2
	call	_ZN4FilmD2Ev
	j	.LBB5_128
.LBB5_128:                              # %ehcleanup248
	mv	a0, s6
	call	_ZN5ImageD2Ev
	j	.LBB5_129
.LBB5_129:                              # %eh.resume
	ld	a0, -136(s0)
	call	_Unwind_Resume
.Lfunc_end5:
	.size	_ZN6CameraC2ERKN8nlohmann10basic_jsonISt3mapSt6vectorNSt7__cxx1112basic_stringIcSt11char_traitsIcESaIcEEEblmdSaNS0_14adl_serializerEEERK6Option, .Lfunc_end5-_ZN6CameraC2ERKN8nlohmann10basic_jsonISt3mapSt6vectorNSt7__cxx1112basic_stringIcSt11char_traitsIcESaIcEEEblmdSaNS0_14adl_serializerEEERK6Option
	.cfi_endproc
	.section	.gcc_except_table,"a",@progbits
	.p2align	2
GCC_except_table5:
.Lexception2:
	.byte	255                     # @LPStart Encoding = omit
	.byte	255                     # @TType Encoding = omit
	.byte	3                       # Call site Encoding = udata4
	.uleb128 .Lcst_end2-.Lcst_begin2
.Lcst_begin2:
	.word	.Ltmp11-.Lfunc_begin2   # >> Call Site 1 <<
	.word	.Ltmp12-.Ltmp11         #   Call between .Ltmp11 and .Ltmp12
	.word	.Ltmp13-.Lfunc_begin2   #     jumps to .Ltmp13
	.byte	0                       #   On action: cleanup
	.word	.Ltmp14-.Lfunc_begin2   # >> Call Site 2 <<
	.word	.Ltmp15-.Ltmp14         #   Call between .Ltmp14 and .Ltmp15
	.word	.Ltmp16-.Lfunc_begin2   #     jumps to .Ltmp16
	.byte	0                       #   On action: cleanup
	.word	.Ltmp19-.Lfunc_begin2   # >> Call Site 3 <<
	.word	.Ltmp18-.Ltmp19         #   Call between .Ltmp19 and .Ltmp18
	.word	.Ltmp167-.Lfunc_begin2  #     jumps to .Ltmp167
	.byte	0                       #   On action: cleanup
	.word	.Ltmp21-.Lfunc_begin2   # >> Call Site 4 <<
	.word	.Ltmp22-.Ltmp21         #   Call between .Ltmp21 and .Ltmp22
	.word	.Ltmp23-.Lfunc_begin2   #     jumps to .Ltmp23
	.byte	0                       #   On action: cleanup
	.word	.Ltmp24-.Lfunc_begin2   # >> Call Site 5 <<
	.word	.Ltmp27-.Ltmp24         #   Call between .Ltmp24 and .Ltmp27
	.word	.Ltmp28-.Lfunc_begin2   #     jumps to .Ltmp28
	.byte	0                       #   On action: cleanup
	.word	.Ltmp29-.Lfunc_begin2   # >> Call Site 6 <<
	.word	.Ltmp30-.Ltmp29         #   Call between .Ltmp29 and .Ltmp30
	.word	.Ltmp31-.Lfunc_begin2   #     jumps to .Ltmp31
	.byte	0                       #   On action: cleanup
	.word	.Ltmp32-.Lfunc_begin2   # >> Call Site 7 <<
	.word	.Ltmp35-.Ltmp32         #   Call between .Ltmp32 and .Ltmp35
	.word	.Ltmp36-.Lfunc_begin2   #     jumps to .Ltmp36
	.byte	0                       #   On action: cleanup
	.word	.Ltmp37-.Lfunc_begin2   # >> Call Site 8 <<
	.word	.Ltmp40-.Ltmp37         #   Call between .Ltmp37 and .Ltmp40
	.word	.Ltmp167-.Lfunc_begin2  #     jumps to .Ltmp167
	.byte	0                       #   On action: cleanup
	.word	.Ltmp43-.Lfunc_begin2   # >> Call Site 9 <<
	.word	.Ltmp44-.Ltmp43         #   Call between .Ltmp43 and .Ltmp44
	.word	.Ltmp45-.Lfunc_begin2   #     jumps to .Ltmp45
	.byte	0                       #   On action: cleanup
	.word	.Ltmp46-.Lfunc_begin2   # >> Call Site 10 <<
	.word	.Ltmp49-.Ltmp46         #   Call between .Ltmp46 and .Ltmp49
	.word	.Ltmp50-.Lfunc_begin2   #     jumps to .Ltmp50
	.byte	0                       #   On action: cleanup
	.word	.Ltmp41-.Lfunc_begin2   # >> Call Site 11 <<
	.word	.Ltmp42-.Ltmp41         #   Call between .Ltmp41 and .Ltmp42
	.word	.Ltmp167-.Lfunc_begin2  #     jumps to .Ltmp167
	.byte	0                       #   On action: cleanup
	.word	.Ltmp51-.Lfunc_begin2   # >> Call Site 12 <<
	.word	.Ltmp52-.Ltmp51         #   Call between .Ltmp51 and .Ltmp52
	.word	.Ltmp53-.Lfunc_begin2   #     jumps to .Ltmp53
	.byte	0                       #   On action: cleanup
	.word	.Ltmp54-.Lfunc_begin2   # >> Call Site 13 <<
	.word	.Ltmp57-.Ltmp54         #   Call between .Ltmp54 and .Ltmp57
	.word	.Ltmp58-.Lfunc_begin2   #     jumps to .Ltmp58
	.byte	0                       #   On action: cleanup
	.word	.Ltmp59-.Lfunc_begin2   # >> Call Site 14 <<
	.word	.Ltmp60-.Ltmp59         #   Call between .Ltmp59 and .Ltmp60
	.word	.Ltmp61-.Lfunc_begin2   #     jumps to .Ltmp61
	.byte	0                       #   On action: cleanup
	.word	.Ltmp62-.Lfunc_begin2   # >> Call Site 15 <<
	.word	.Ltmp65-.Ltmp62         #   Call between .Ltmp62 and .Ltmp65
	.word	.Ltmp66-.Lfunc_begin2   #     jumps to .Ltmp66
	.byte	0                       #   On action: cleanup
	.word	.Ltmp67-.Lfunc_begin2   # >> Call Site 16 <<
	.word	.Ltmp68-.Ltmp67         #   Call between .Ltmp67 and .Ltmp68
	.word	.Ltmp69-.Lfunc_begin2   #     jumps to .Ltmp69
	.byte	0                       #   On action: cleanup
	.word	.Ltmp70-.Lfunc_begin2   # >> Call Site 17 <<
	.word	.Ltmp73-.Ltmp70         #   Call between .Ltmp70 and .Ltmp73
	.word	.Ltmp74-.Lfunc_begin2   #     jumps to .Ltmp74
	.byte	0                       #   On action: cleanup
	.word	.Ltmp75-.Lfunc_begin2   # >> Call Site 18 <<
	.word	.Ltmp76-.Ltmp75         #   Call between .Ltmp75 and .Ltmp76
	.word	.Ltmp77-.Lfunc_begin2   #     jumps to .Ltmp77
	.byte	0                       #   On action: cleanup
	.word	.Ltmp78-.Lfunc_begin2   # >> Call Site 19 <<
	.word	.Ltmp81-.Ltmp78         #   Call between .Ltmp78 and .Ltmp81
	.word	.Ltmp82-.Lfunc_begin2   #     jumps to .Ltmp82
	.byte	0                       #   On action: cleanup
	.word	.Ltmp83-.Lfunc_begin2   # >> Call Site 20 <<
	.word	.Ltmp84-.Ltmp83         #   Call between .Ltmp83 and .Ltmp84
	.word	.Ltmp85-.Lfunc_begin2   #     jumps to .Ltmp85
	.byte	0                       #   On action: cleanup
	.word	.Ltmp86-.Lfunc_begin2   # >> Call Site 21 <<
	.word	.Ltmp89-.Ltmp86         #   Call between .Ltmp86 and .Ltmp89
	.word	.Ltmp90-.Lfunc_begin2   #     jumps to .Ltmp90
	.byte	0                       #   On action: cleanup
	.word	.Ltmp91-.Lfunc_begin2   # >> Call Site 22 <<
	.word	.Ltmp92-.Ltmp91         #   Call between .Ltmp91 and .Ltmp92
	.word	.Ltmp93-.Lfunc_begin2   #     jumps to .Ltmp93
	.byte	0                       #   On action: cleanup
	.word	.Ltmp94-.Lfunc_begin2   # >> Call Site 23 <<
	.word	.Ltmp97-.Ltmp94         #   Call between .Ltmp94 and .Ltmp97
	.word	.Ltmp98-.Lfunc_begin2   #     jumps to .Ltmp98
	.byte	0                       #   On action: cleanup
	.word	.Ltmp99-.Lfunc_begin2   # >> Call Site 24 <<
	.word	.Ltmp100-.Ltmp99        #   Call between .Ltmp99 and .Ltmp100
	.word	.Ltmp101-.Lfunc_begin2  #     jumps to .Ltmp101
	.byte	0                       #   On action: cleanup
	.word	.Ltmp102-.Lfunc_begin2  # >> Call Site 25 <<
	.word	.Ltmp105-.Ltmp102       #   Call between .Ltmp102 and .Ltmp105
	.word	.Ltmp106-.Lfunc_begin2  #     jumps to .Ltmp106
	.byte	0                       #   On action: cleanup
	.word	.Ltmp107-.Lfunc_begin2  # >> Call Site 26 <<
	.word	.Ltmp108-.Ltmp107       #   Call between .Ltmp107 and .Ltmp108
	.word	.Ltmp109-.Lfunc_begin2  #     jumps to .Ltmp109
	.byte	0                       #   On action: cleanup
	.word	.Ltmp110-.Lfunc_begin2  # >> Call Site 27 <<
	.word	.Ltmp113-.Ltmp110       #   Call between .Ltmp110 and .Ltmp113
	.word	.Ltmp114-.Lfunc_begin2  #     jumps to .Ltmp114
	.byte	0                       #   On action: cleanup
	.word	.Ltmp115-.Lfunc_begin2  # >> Call Site 28 <<
	.word	.Ltmp116-.Ltmp115       #   Call between .Ltmp115 and .Ltmp116
	.word	.Ltmp117-.Lfunc_begin2  #     jumps to .Ltmp117
	.byte	0                       #   On action: cleanup
	.word	.Ltmp118-.Lfunc_begin2  # >> Call Site 29 <<
	.word	.Ltmp119-.Ltmp118       #   Call between .Ltmp118 and .Ltmp119
	.word	.Ltmp120-.Lfunc_begin2  #     jumps to .Ltmp120
	.byte	0                       #   On action: cleanup
	.word	.Ltmp121-.Lfunc_begin2  # >> Call Site 30 <<
	.word	.Ltmp122-.Ltmp121       #   Call between .Ltmp121 and .Ltmp122
	.word	.Ltmp123-.Lfunc_begin2  #     jumps to .Ltmp123
	.byte	0                       #   On action: cleanup
	.word	.Ltmp124-.Lfunc_begin2  # >> Call Site 31 <<
	.word	.Ltmp125-.Ltmp124       #   Call between .Ltmp124 and .Ltmp125
	.word	.Ltmp126-.Lfunc_begin2  #     jumps to .Ltmp126
	.byte	0                       #   On action: cleanup
	.word	.Ltmp127-.Lfunc_begin2  # >> Call Site 32 <<
	.word	.Ltmp130-.Ltmp127       #   Call between .Ltmp127 and .Ltmp130
	.word	.Ltmp167-.Lfunc_begin2  #     jumps to .Ltmp167
	.byte	0                       #   On action: cleanup
	.word	.Ltmp155-.Lfunc_begin2  # >> Call Site 33 <<
	.word	.Ltmp156-.Ltmp155       #   Call between .Ltmp155 and .Ltmp156
	.word	.Ltmp157-.Lfunc_begin2  #     jumps to .Ltmp157
	.byte	0                       #   On action: cleanup
	.word	.Ltmp158-.Lfunc_begin2  # >> Call Site 34 <<
	.word	.Ltmp161-.Ltmp158       #   Call between .Ltmp158 and .Ltmp161
	.word	.Ltmp162-.Lfunc_begin2  #     jumps to .Ltmp162
	.byte	0                       #   On action: cleanup
	.word	.Ltmp163-.Lfunc_begin2  # >> Call Site 35 <<
	.word	.Ltmp166-.Ltmp163       #   Call between .Ltmp163 and .Ltmp166
	.word	.Ltmp167-.Lfunc_begin2  #     jumps to .Ltmp167
	.byte	0                       #   On action: cleanup
	.word	.Ltmp131-.Lfunc_begin2  # >> Call Site 36 <<
	.word	.Ltmp132-.Ltmp131       #   Call between .Ltmp131 and .Ltmp132
	.word	.Ltmp133-.Lfunc_begin2  #     jumps to .Ltmp133
	.byte	0                       #   On action: cleanup
	.word	.Ltmp134-.Lfunc_begin2  # >> Call Site 37 <<
	.word	.Ltmp139-.Ltmp134       #   Call between .Ltmp134 and .Ltmp139
	.word	.Ltmp140-.Lfunc_begin2  #     jumps to .Ltmp140
	.byte	0                       #   On action: cleanup
	.word	.Ltmp141-.Lfunc_begin2  # >> Call Site 38 <<
	.word	.Ltmp142-.Ltmp141       #   Call between .Ltmp141 and .Ltmp142
	.word	.Ltmp143-.Lfunc_begin2  #     jumps to .Ltmp143
	.byte	0                       #   On action: cleanup
	.word	.Ltmp144-.Lfunc_begin2  # >> Call Site 39 <<
	.word	.Ltmp149-.Ltmp144       #   Call between .Ltmp144 and .Ltmp149
	.word	.Ltmp150-.Lfunc_begin2  #     jumps to .Ltmp150
	.byte	0                       #   On action: cleanup
	.word	.Ltmp151-.Lfunc_begin2  # >> Call Site 40 <<
	.word	.Ltmp154-.Ltmp151       #   Call between .Ltmp151 and .Ltmp154
	.word	.Ltmp167-.Lfunc_begin2  #     jumps to .Ltmp167
	.byte	0                       #   On action: cleanup
	.word	.Ltmp154-.Lfunc_begin2  # >> Call Site 41 <<
	.word	.Lfunc_end5-.Ltmp154    #   Call between .Ltmp154 and .Lfunc_end5
	.word	0                       #     has no landing pad
	.byte	0                       #   On action: cleanup
.Lcst_end2:
	.p2align	2
                                        # -- End function
	.section	.text._ZN5ImageC2Ev,"axG",@progbits,_ZN5ImageC2Ev,comdat
	.weak	_ZN5ImageC2Ev           # -- Begin function _ZN5ImageC2Ev
	.p2align	2
	.type	_ZN5ImageC2Ev,@function
_ZN5ImageC2Ev:                          # @_ZN5ImageC2Ev
# %bb.0:                                # %entry
	addi	sp, sp, -32
	sd	ra, 24(sp)
	sd	s0, 16(sp)
	sd	s1, 8(sp)
	addi	s0, sp, 32
	sd	a0, -32(s0)
	ld	s1, -32(s0)
	addi	a0, s1, 24
	call	_ZNSt6vectorIN3glm3vecILi3EdLNS0_9qualifierE0EEESaIS3_EEC2Ev
	addi	a0, s1, 64
	call	_ZNSt8functionIFN3glm3vecILi3EdLNS0_9qualifierE0EEERKS3_EEC2Ev
	ld	s1, 8(sp)
	ld	s0, 16(sp)
	ld	ra, 24(sp)
	addi	sp, sp, 32
	ret
.Lfunc_end6:
	.size	_ZN5ImageC2Ev, .Lfunc_end6-_ZN5ImageC2Ev
                                        # -- End function
	.section	.text._ZNSt10shared_ptrI10IntegratorEC2Ev,"axG",@progbits,_ZNSt10shared_ptrI10IntegratorEC2Ev,comdat
	.weak	_ZNSt10shared_ptrI10IntegratorEC2Ev # -- Begin function _ZNSt10shared_ptrI10IntegratorEC2Ev
	.p2align	2
	.type	_ZNSt10shared_ptrI10IntegratorEC2Ev,@function
_ZNSt10shared_ptrI10IntegratorEC2Ev:    # @_ZNSt10shared_ptrI10IntegratorEC2Ev
# %bb.0:                                # %entry
	addi	sp, sp, -32
	sd	ra, 24(sp)
	sd	s0, 16(sp)
	addi	s0, sp, 32
	sd	a0, -24(s0)
	ld	a0, -24(s0)
	call	_ZNSt12__shared_ptrI10IntegratorLN9__gnu_cxx12_Lock_policyE0EEC2Ev
	ld	s0, 16(sp)
	ld	ra, 24(sp)
	addi	sp, sp, 32
	ret
.Lfunc_end7:
	.size	_ZNSt10shared_ptrI10IntegratorEC2Ev, .Lfunc_end7-_ZNSt10shared_ptrI10IntegratorEC2Ev
                                        # -- End function
	.section	.text._ZNSt5dequeIdSaIdEEC2Ev,"axG",@progbits,_ZNSt5dequeIdSaIdEEC2Ev,comdat
	.weak	_ZNSt5dequeIdSaIdEEC2Ev # -- Begin function _ZNSt5dequeIdSaIdEEC2Ev
	.p2align	2
	.type	_ZNSt5dequeIdSaIdEEC2Ev,@function
_ZNSt5dequeIdSaIdEEC2Ev:                # @_ZNSt5dequeIdSaIdEEC2Ev
	.cfi_startproc
# %bb.0:                                # %entry
	addi	sp, sp, -32
	.cfi_def_cfa_offset 32
	sd	ra, 24(sp)
	sd	s0, 16(sp)
	.cfi_offset ra, -8
	.cfi_offset s0, -16
	addi	s0, sp, 32
	.cfi_def_cfa s0, 0
	sd	a0, -24(s0)
	ld	a0, -24(s0)
	call	_ZNSt11_Deque_baseIdSaIdEEC2Ev
	ld	s0, 16(sp)
	.cfi_def_cfa sp, 32
	ld	ra, 24(sp)
	.cfi_restore ra
	.cfi_restore s0
	addi	sp, sp, 32
	.cfi_def_cfa_offset 0
	ret
.Lfunc_end8:
	.size	_ZNSt5dequeIdSaIdEEC2Ev, .Lfunc_end8-_ZNSt5dequeIdSaIdEEC2Ev
	.cfi_endproc
                                        # -- End function
	.section	.text._ZSt11make_sharedI12PhotonMapperJRKN8nlohmann10basic_jsonISt3mapSt6vectorNSt7__cxx1112basic_stringIcSt11char_traitsIcESaIcEEEblmdSaNS1_14adl_serializerEEEEESt10shared_ptrIT_EDpOT0_,"axG",@progbits,_ZSt11make_sharedI12PhotonMapperJRKN8nlohmann10basic_jsonISt3mapSt6vectorNSt7__cxx1112basic_stringIcSt11char_traitsIcESaIcEEEblmdSaNS1_14adl_serializerEEEEESt10shared_ptrIT_EDpOT0_,comdat
	.weak	_ZSt11make_sharedI12PhotonMapperJRKN8nlohmann10basic_jsonISt3mapSt6vectorNSt7__cxx1112basic_stringIcSt11char_traitsIcESaIcEEEblmdSaNS1_14adl_serializerEEEEESt10shared_ptrIT_EDpOT0_ # -- Begin function _ZSt11make_sharedI12PhotonMapperJRKN8nlohmann10basic_jsonISt3mapSt6vectorNSt7__cxx1112basic_stringIcSt11char_traitsIcESaIcEEEblmdSaNS1_14adl_serializerEEEEESt10shared_ptrIT_EDpOT0_
	.p2align	2
	.type	_ZSt11make_sharedI12PhotonMapperJRKN8nlohmann10basic_jsonISt3mapSt6vectorNSt7__cxx1112basic_stringIcSt11char_traitsIcESaIcEEEblmdSaNS1_14adl_serializerEEEEESt10shared_ptrIT_EDpOT0_,@function
_ZSt11make_sharedI12PhotonMapperJRKN8nlohmann10basic_jsonISt3mapSt6vectorNSt7__cxx1112basic_stringIcSt11char_traitsIcESaIcEEEblmdSaNS1_14adl_serializerEEEEESt10shared_ptrIT_EDpOT0_: # @_ZSt11make_sharedI12PhotonMapperJRKN8nlohmann10basic_jsonISt3mapSt6vectorNSt7__cxx1112basic_stringIcSt11char_traitsIcESaIcEEEblmdSaNS1_14adl_serializerEEEEESt10shared_ptrIT_EDpOT0_
.Lfunc_begin3:
	.cfi_startproc
	.cfi_personality 155, DW.ref.__gxx_personality_v0
	.cfi_lsda 27, .Lexception3
# %bb.0:                                # %entry
	addi	sp, sp, -80
	.cfi_def_cfa_offset 80
	sd	ra, 72(sp)
	sd	s0, 64(sp)
	sd	s1, 56(sp)
	sd	s2, 48(sp)
	.cfi_offset ra, -8
	.cfi_offset s0, -16
	.cfi_offset s1, -24
	.cfi_offset s2, -32
	addi	s0, sp, 80
	.cfi_def_cfa s0, 0
	mv	s1, a0
	sd	s1, -40(s0)
	sd	a1, -48(s0)
	addi	s2, s0, -56
	mv	a0, s2
	call	_ZNSaI12PhotonMapperEC2Ev
	ld	a0, -48(s0)
	call	_ZSt7forwardIRKN8nlohmann10basic_jsonISt3mapSt6vectorNSt7__cxx1112basic_stringIcSt11char_traitsIcESaIcEEEblmdSaNS0_14adl_serializerEEEEOT_RNSt16remove_referenceISE_E4typeE
	mv	a2, a0
.Ltmp168:
	mv	a0, s1
	mv	a1, s2
	call	_ZSt15allocate_sharedI12PhotonMapperSaIS0_EJRKN8nlohmann10basic_jsonISt3mapSt6vectorNSt7__cxx1112basic_stringIcSt11char_traitsIcESaIcEEEblmdSaNS2_14adl_serializerEEEEESt10shared_ptrIT_ERKT0_DpOT1_
.Ltmp169:
	j	.LBB9_1
.LBB9_1:                                # %invoke.cont
	addi	a0, s0, -56
	call	_ZNSaI12PhotonMapperED2Ev
	ld	s2, 48(sp)
	ld	s1, 56(sp)
	ld	s0, 64(sp)
	.cfi_def_cfa sp, 80
	ld	ra, 72(sp)
	.cfi_restore ra
	.cfi_restore s0
	.cfi_restore s1
	.cfi_restore s2
	addi	sp, sp, 80
	.cfi_def_cfa_offset 0
	ret
.LBB9_2:                                # %lpad
.Ltmp170:
	sd	a0, -64(s0)
	sw	a1, -68(s0)
	addi	a0, s0, -56
	call	_ZNSaI12PhotonMapperED2Ev
	j	.LBB9_3
.LBB9_3:                                # %eh.resume
	ld	a0, -64(s0)
	call	_Unwind_Resume
.Lfunc_end9:
	.size	_ZSt11make_sharedI12PhotonMapperJRKN8nlohmann10basic_jsonISt3mapSt6vectorNSt7__cxx1112basic_stringIcSt11char_traitsIcESaIcEEEblmdSaNS1_14adl_serializerEEEEESt10shared_ptrIT_EDpOT0_, .Lfunc_end9-_ZSt11make_sharedI12PhotonMapperJRKN8nlohmann10basic_jsonISt3mapSt6vectorNSt7__cxx1112basic_stringIcSt11char_traitsIcESaIcEEEblmdSaNS1_14adl_serializerEEEEESt10shared_ptrIT_EDpOT0_
	.cfi_endproc
	.section	.gcc_except_table,"a",@progbits
	.p2align	2
GCC_except_table9:
.Lexception3:
	.byte	255                     # @LPStart Encoding = omit
	.byte	255                     # @TType Encoding = omit
	.byte	3                       # Call site Encoding = udata4
	.uleb128 .Lcst_end3-.Lcst_begin3
.Lcst_begin3:
	.word	.Ltmp168-.Lfunc_begin3  # >> Call Site 1 <<
	.word	.Ltmp169-.Ltmp168       #   Call between .Ltmp168 and .Ltmp169
	.word	.Ltmp170-.Lfunc_begin3  #     jumps to .Ltmp170
	.byte	0                       #   On action: cleanup
	.word	.Ltmp169-.Lfunc_begin3  # >> Call Site 2 <<
	.word	.Lfunc_end9-.Ltmp169    #   Call between .Ltmp169 and .Lfunc_end9
	.word	0                       #     has no landing pad
	.byte	0                       #   On action: cleanup
.Lcst_end3:
	.p2align	2
                                        # -- End function
	.section	.text._ZNSt10shared_ptrI10IntegratorEaSI12PhotonMapperEENSt9enable_ifIXsr13is_assignableIRSt12__shared_ptrIS0_LN9__gnu_cxx12_Lock_policyE0EES_IT_EEE5valueERS1_E4typeEOSB_,"axG",@progbits,_ZNSt10shared_ptrI10IntegratorEaSI12PhotonMapperEENSt9enable_ifIXsr13is_assignableIRSt12__shared_ptrIS0_LN9__gnu_cxx12_Lock_policyE0EES_IT_EEE5valueERS1_E4typeEOSB_,comdat
	.weak	_ZNSt10shared_ptrI10IntegratorEaSI12PhotonMapperEENSt9enable_ifIXsr13is_assignableIRSt12__shared_ptrIS0_LN9__gnu_cxx12_Lock_policyE0EES_IT_EEE5valueERS1_E4typeEOSB_ # -- Begin function _ZNSt10shared_ptrI10IntegratorEaSI12PhotonMapperEENSt9enable_ifIXsr13is_assignableIRSt12__shared_ptrIS0_LN9__gnu_cxx12_Lock_policyE0EES_IT_EEE5valueERS1_E4typeEOSB_
	.p2align	2
	.type	_ZNSt10shared_ptrI10IntegratorEaSI12PhotonMapperEENSt9enable_ifIXsr13is_assignableIRSt12__shared_ptrIS0_LN9__gnu_cxx12_Lock_policyE0EES_IT_EEE5valueERS1_E4typeEOSB_,@function
_ZNSt10shared_ptrI10IntegratorEaSI12PhotonMapperEENSt9enable_ifIXsr13is_assignableIRSt12__shared_ptrIS0_LN9__gnu_cxx12_Lock_policyE0EES_IT_EEE5valueERS1_E4typeEOSB_: # @_ZNSt10shared_ptrI10IntegratorEaSI12PhotonMapperEENSt9enable_ifIXsr13is_assignableIRSt12__shared_ptrIS0_LN9__gnu_cxx12_Lock_policyE0EES_IT_EEE5valueERS1_E4typeEOSB_
# %bb.0:                                # %entry
	addi	sp, sp, -48
	sd	ra, 40(sp)
	sd	s0, 32(sp)
	sd	s1, 24(sp)
	addi	s0, sp, 48
	sd	a0, -32(s0)
	sd	a1, -40(s0)
	ld	s1, -32(s0)
	ld	a0, -40(s0)
	call	_ZSt4moveIRSt10shared_ptrI12PhotonMapperEEONSt16remove_referenceIT_E4typeEOS5_
	mv	a1, a0
	mv	a0, s1
	call	_ZNSt12__shared_ptrI10IntegratorLN9__gnu_cxx12_Lock_policyE0EEaSI12PhotonMapperEENSt9enable_ifIXsr20__sp_compatible_withIPT_PS0_EE5valueERS3_E4typeEOS_IS7_LS2_0EE
	mv	a0, s1
	ld	s1, 24(sp)
	ld	s0, 32(sp)
	ld	ra, 40(sp)
	addi	sp, sp, 48
	ret
.Lfunc_end10:
	.size	_ZNSt10shared_ptrI10IntegratorEaSI12PhotonMapperEENSt9enable_ifIXsr13is_assignableIRSt12__shared_ptrIS0_LN9__gnu_cxx12_Lock_policyE0EES_IT_EEE5valueERS1_E4typeEOSB_, .Lfunc_end10-_ZNSt10shared_ptrI10IntegratorEaSI12PhotonMapperEENSt9enable_ifIXsr13is_assignableIRSt12__shared_ptrIS0_LN9__gnu_cxx12_Lock_policyE0EES_IT_EEE5valueERS1_E4typeEOSB_
                                        # -- End function
	.section	.text._ZNSt10shared_ptrI12PhotonMapperED2Ev,"axG",@progbits,_ZNSt10shared_ptrI12PhotonMapperED2Ev,comdat
	.weak	_ZNSt10shared_ptrI12PhotonMapperED2Ev # -- Begin function _ZNSt10shared_ptrI12PhotonMapperED2Ev
	.p2align	2
	.type	_ZNSt10shared_ptrI12PhotonMapperED2Ev,@function
_ZNSt10shared_ptrI12PhotonMapperED2Ev:  # @_ZNSt10shared_ptrI12PhotonMapperED2Ev
# %bb.0:                                # %entry
	addi	sp, sp, -32
	sd	ra, 24(sp)
	sd	s0, 16(sp)
	addi	s0, sp, 32
	sd	a0, -24(s0)
	ld	a0, -24(s0)
	call	_ZNSt12__shared_ptrI12PhotonMapperLN9__gnu_cxx12_Lock_policyE0EED2Ev
	ld	s0, 16(sp)
	ld	ra, 24(sp)
	addi	sp, sp, 32
	ret
.Lfunc_end11:
	.size	_ZNSt10shared_ptrI12PhotonMapperED2Ev, .Lfunc_end11-_ZNSt10shared_ptrI12PhotonMapperED2Ev
                                        # -- End function
	.section	.text._ZSt11make_sharedI10PathTracerJRKN8nlohmann10basic_jsonISt3mapSt6vectorNSt7__cxx1112basic_stringIcSt11char_traitsIcESaIcEEEblmdSaNS1_14adl_serializerEEEEESt10shared_ptrIT_EDpOT0_,"axG",@progbits,_ZSt11make_sharedI10PathTracerJRKN8nlohmann10basic_jsonISt3mapSt6vectorNSt7__cxx1112basic_stringIcSt11char_traitsIcESaIcEEEblmdSaNS1_14adl_serializerEEEEESt10shared_ptrIT_EDpOT0_,comdat
	.weak	_ZSt11make_sharedI10PathTracerJRKN8nlohmann10basic_jsonISt3mapSt6vectorNSt7__cxx1112basic_stringIcSt11char_traitsIcESaIcEEEblmdSaNS1_14adl_serializerEEEEESt10shared_ptrIT_EDpOT0_ # -- Begin function _ZSt11make_sharedI10PathTracerJRKN8nlohmann10basic_jsonISt3mapSt6vectorNSt7__cxx1112basic_stringIcSt11char_traitsIcESaIcEEEblmdSaNS1_14adl_serializerEEEEESt10shared_ptrIT_EDpOT0_
	.p2align	2
	.type	_ZSt11make_sharedI10PathTracerJRKN8nlohmann10basic_jsonISt3mapSt6vectorNSt7__cxx1112basic_stringIcSt11char_traitsIcESaIcEEEblmdSaNS1_14adl_serializerEEEEESt10shared_ptrIT_EDpOT0_,@function
_ZSt11make_sharedI10PathTracerJRKN8nlohmann10basic_jsonISt3mapSt6vectorNSt7__cxx1112basic_stringIcSt11char_traitsIcESaIcEEEblmdSaNS1_14adl_serializerEEEEESt10shared_ptrIT_EDpOT0_: # @_ZSt11make_sharedI10PathTracerJRKN8nlohmann10basic_jsonISt3mapSt6vectorNSt7__cxx1112basic_stringIcSt11char_traitsIcESaIcEEEblmdSaNS1_14adl_serializerEEEEESt10shared_ptrIT_EDpOT0_
.Lfunc_begin4:
	.cfi_startproc
	.cfi_personality 155, DW.ref.__gxx_personality_v0
	.cfi_lsda 27, .Lexception4
# %bb.0:                                # %entry
	addi	sp, sp, -80
	.cfi_def_cfa_offset 80
	sd	ra, 72(sp)
	sd	s0, 64(sp)
	sd	s1, 56(sp)
	sd	s2, 48(sp)
	.cfi_offset ra, -8
	.cfi_offset s0, -16
	.cfi_offset s1, -24
	.cfi_offset s2, -32
	addi	s0, sp, 80
	.cfi_def_cfa s0, 0
	mv	s1, a0
	sd	s1, -40(s0)
	sd	a1, -48(s0)
	addi	s2, s0, -56
	mv	a0, s2
	call	_ZNSaI10PathTracerEC2Ev
	ld	a0, -48(s0)
	call	_ZSt7forwardIRKN8nlohmann10basic_jsonISt3mapSt6vectorNSt7__cxx1112basic_stringIcSt11char_traitsIcESaIcEEEblmdSaNS0_14adl_serializerEEEEOT_RNSt16remove_referenceISE_E4typeE
	mv	a2, a0
.Ltmp171:
	mv	a0, s1
	mv	a1, s2
	call	_ZSt15allocate_sharedI10PathTracerSaIS0_EJRKN8nlohmann10basic_jsonISt3mapSt6vectorNSt7__cxx1112basic_stringIcSt11char_traitsIcESaIcEEEblmdSaNS2_14adl_serializerEEEEESt10shared_ptrIT_ERKT0_DpOT1_
.Ltmp172:
	j	.LBB12_1
.LBB12_1:                               # %invoke.cont
	addi	a0, s0, -56
	call	_ZNSaI10PathTracerED2Ev
	ld	s2, 48(sp)
	ld	s1, 56(sp)
	ld	s0, 64(sp)
	.cfi_def_cfa sp, 80
	ld	ra, 72(sp)
	.cfi_restore ra
	.cfi_restore s0
	.cfi_restore s1
	.cfi_restore s2
	addi	sp, sp, 80
	.cfi_def_cfa_offset 0
	ret
.LBB12_2:                               # %lpad
.Ltmp173:
	sd	a0, -64(s0)
	sw	a1, -68(s0)
	addi	a0, s0, -56
	call	_ZNSaI10PathTracerED2Ev
	j	.LBB12_3
.LBB12_3:                               # %eh.resume
	ld	a0, -64(s0)
	call	_Unwind_Resume
.Lfunc_end12:
	.size	_ZSt11make_sharedI10PathTracerJRKN8nlohmann10basic_jsonISt3mapSt6vectorNSt7__cxx1112basic_stringIcSt11char_traitsIcESaIcEEEblmdSaNS1_14adl_serializerEEEEESt10shared_ptrIT_EDpOT0_, .Lfunc_end12-_ZSt11make_sharedI10PathTracerJRKN8nlohmann10basic_jsonISt3mapSt6vectorNSt7__cxx1112basic_stringIcSt11char_traitsIcESaIcEEEblmdSaNS1_14adl_serializerEEEEESt10shared_ptrIT_EDpOT0_
	.cfi_endproc
	.section	.gcc_except_table,"a",@progbits
	.p2align	2
GCC_except_table12:
.Lexception4:
	.byte	255                     # @LPStart Encoding = omit
	.byte	255                     # @TType Encoding = omit
	.byte	3                       # Call site Encoding = udata4
	.uleb128 .Lcst_end4-.Lcst_begin4
.Lcst_begin4:
	.word	.Ltmp171-.Lfunc_begin4  # >> Call Site 1 <<
	.word	.Ltmp172-.Ltmp171       #   Call between .Ltmp171 and .Ltmp172
	.word	.Ltmp173-.Lfunc_begin4  #     jumps to .Ltmp173
	.byte	0                       #   On action: cleanup
	.word	.Ltmp172-.Lfunc_begin4  # >> Call Site 2 <<
	.word	.Lfunc_end12-.Ltmp172   #   Call between .Ltmp172 and .Lfunc_end12
	.word	0                       #     has no landing pad
	.byte	0                       #   On action: cleanup
.Lcst_end4:
	.p2align	2
                                        # -- End function
	.section	.text._ZNSt10shared_ptrI10IntegratorEaSI10PathTracerEENSt9enable_ifIXsr13is_assignableIRSt12__shared_ptrIS0_LN9__gnu_cxx12_Lock_policyE0EES_IT_EEE5valueERS1_E4typeEOSB_,"axG",@progbits,_ZNSt10shared_ptrI10IntegratorEaSI10PathTracerEENSt9enable_ifIXsr13is_assignableIRSt12__shared_ptrIS0_LN9__gnu_cxx12_Lock_policyE0EES_IT_EEE5valueERS1_E4typeEOSB_,comdat
	.weak	_ZNSt10shared_ptrI10IntegratorEaSI10PathTracerEENSt9enable_ifIXsr13is_assignableIRSt12__shared_ptrIS0_LN9__gnu_cxx12_Lock_policyE0EES_IT_EEE5valueERS1_E4typeEOSB_ # -- Begin function _ZNSt10shared_ptrI10IntegratorEaSI10PathTracerEENSt9enable_ifIXsr13is_assignableIRSt12__shared_ptrIS0_LN9__gnu_cxx12_Lock_policyE0EES_IT_EEE5valueERS1_E4typeEOSB_
	.p2align	2
	.type	_ZNSt10shared_ptrI10IntegratorEaSI10PathTracerEENSt9enable_ifIXsr13is_assignableIRSt12__shared_ptrIS0_LN9__gnu_cxx12_Lock_policyE0EES_IT_EEE5valueERS1_E4typeEOSB_,@function
_ZNSt10shared_ptrI10IntegratorEaSI10PathTracerEENSt9enable_ifIXsr13is_assignableIRSt12__shared_ptrIS0_LN9__gnu_cxx12_Lock_policyE0EES_IT_EEE5valueERS1_E4typeEOSB_: # @_ZNSt10shared_ptrI10IntegratorEaSI10PathTracerEENSt9enable_ifIXsr13is_assignableIRSt12__shared_ptrIS0_LN9__gnu_cxx12_Lock_policyE0EES_IT_EEE5valueERS1_E4typeEOSB_
# %bb.0:                                # %entry
	addi	sp, sp, -48
	sd	ra, 40(sp)
	sd	s0, 32(sp)
	sd	s1, 24(sp)
	addi	s0, sp, 48
	sd	a0, -32(s0)
	sd	a1, -40(s0)
	ld	s1, -32(s0)
	ld	a0, -40(s0)
	call	_ZSt4moveIRSt10shared_ptrI10PathTracerEEONSt16remove_referenceIT_E4typeEOS5_
	mv	a1, a0
	mv	a0, s1
	call	_ZNSt12__shared_ptrI10IntegratorLN9__gnu_cxx12_Lock_policyE0EEaSI10PathTracerEENSt9enable_ifIXsr20__sp_compatible_withIPT_PS0_EE5valueERS3_E4typeEOS_IS7_LS2_0EE
	mv	a0, s1
	ld	s1, 24(sp)
	ld	s0, 32(sp)
	ld	ra, 40(sp)
	addi	sp, sp, 48
	ret
.Lfunc_end13:
	.size	_ZNSt10shared_ptrI10IntegratorEaSI10PathTracerEENSt9enable_ifIXsr13is_assignableIRSt12__shared_ptrIS0_LN9__gnu_cxx12_Lock_policyE0EES_IT_EEE5valueERS1_E4typeEOSB_, .Lfunc_end13-_ZNSt10shared_ptrI10IntegratorEaSI10PathTracerEENSt9enable_ifIXsr13is_assignableIRSt12__shared_ptrIS0_LN9__gnu_cxx12_Lock_policyE0EES_IT_EEE5valueERS1_E4typeEOSB_
                                        # -- End function
	.section	.text._ZNSt10shared_ptrI10PathTracerED2Ev,"axG",@progbits,_ZNSt10shared_ptrI10PathTracerED2Ev,comdat
	.weak	_ZNSt10shared_ptrI10PathTracerED2Ev # -- Begin function _ZNSt10shared_ptrI10PathTracerED2Ev
	.p2align	2
	.type	_ZNSt10shared_ptrI10PathTracerED2Ev,@function
_ZNSt10shared_ptrI10PathTracerED2Ev:    # @_ZNSt10shared_ptrI10PathTracerED2Ev
# %bb.0:                                # %entry
	addi	sp, sp, -32
	sd	ra, 24(sp)
	sd	s0, 16(sp)
	addi	s0, sp, 32
	sd	a0, -24(s0)
	ld	a0, -24(s0)
	call	_ZNSt12__shared_ptrI10PathTracerLN9__gnu_cxx12_Lock_policyE0EED2Ev
	ld	s0, 16(sp)
	ld	ra, 24(sp)
	addi	sp, sp, 32
	ret
.Lfunc_end14:
	.size	_ZNSt10shared_ptrI10PathTracerED2Ev, .Lfunc_end14-_ZNSt10shared_ptrI10PathTracerED2Ev
                                        # -- End function
	.section	.text._ZNK8nlohmann10basic_jsonISt3mapSt6vectorNSt7__cxx1112basic_stringIcSt11char_traitsIcESaIcEEEblmdSaNS_14adl_serializerEE2atERKS8_,"axG",@progbits,_ZNK8nlohmann10basic_jsonISt3mapSt6vectorNSt7__cxx1112basic_stringIcSt11char_traitsIcESaIcEEEblmdSaNS_14adl_serializerEE2atERKS8_,comdat
	.weak	_ZNK8nlohmann10basic_jsonISt3mapSt6vectorNSt7__cxx1112basic_stringIcSt11char_traitsIcESaIcEEEblmdSaNS_14adl_serializerEE2atERKS8_ # -- Begin function _ZNK8nlohmann10basic_jsonISt3mapSt6vectorNSt7__cxx1112basic_stringIcSt11char_traitsIcESaIcEEEblmdSaNS_14adl_serializerEE2atERKS8_
	.p2align	2
	.type	_ZNK8nlohmann10basic_jsonISt3mapSt6vectorNSt7__cxx1112basic_stringIcSt11char_traitsIcESaIcEEEblmdSaNS_14adl_serializerEE2atERKS8_,@function
_ZNK8nlohmann10basic_jsonISt3mapSt6vectorNSt7__cxx1112basic_stringIcSt11char_traitsIcESaIcEEEblmdSaNS_14adl_serializerEE2atERKS8_: # @_ZNK8nlohmann10basic_jsonISt3mapSt6vectorNSt7__cxx1112basic_stringIcSt11char_traitsIcESaIcEEEblmdSaNS_14adl_serializerEE2atERKS8_
.Lfunc_begin5:
	.cfi_startproc
	.cfi_personality 155, DW.ref.__gxx_personality_v0
	.cfi_lsda 27, .Lexception5
# %bb.0:                                # %entry
	addi	sp, sp, -240
	.cfi_def_cfa_offset 240
	sd	ra, 232(sp)
	sd	s0, 224(sp)
	sd	s1, 216(sp)
	sd	s2, 208(sp)
	sd	s3, 200(sp)
	.cfi_offset ra, -8
	.cfi_offset s0, -16
	.cfi_offset s1, -24
	.cfi_offset s2, -32
	.cfi_offset s3, -40
	addi	s0, sp, 240
	.cfi_def_cfa s0, 0
	sd	a0, -48(s0)
	sd	a1, -56(s0)
	ld	s1, -48(s0)
	mv	a0, s1
	call	_ZNK8nlohmann10basic_jsonISt3mapSt6vectorNSt7__cxx1112basic_stringIcSt11char_traitsIcESaIcEEEblmdSaNS_14adl_serializerEE9is_objectEv
	beqz	a0, .LBB15_17
	j	.LBB15_1
.LBB15_1:                               # %if.then
	ld	a0, 8(s1)
	ld	a1, -56(s0)
.Ltmp185:
	call	_ZNSt3mapINSt7__cxx1112basic_stringIcSt11char_traitsIcESaIcEEEN8nlohmann10basic_jsonIS_St6vectorS5_blmdSaNS6_14adl_serializerEEESt4lessIvESaISt4pairIKS5_SA_EEE2atERSE_
.Ltmp186:
	j	.LBB15_2
.LBB15_2:                               # %invoke.cont
	ld	s3, 200(sp)
	ld	s2, 208(sp)
	ld	s1, 216(sp)
	ld	s0, 224(sp)
	.cfi_def_cfa sp, 240
	ld	ra, 232(sp)
	.cfi_restore ra
	.cfi_restore s0
	.cfi_restore s1
	.cfi_restore s2
	.cfi_restore s3
	addi	sp, sp, 240
	.cfi_def_cfa_offset 0
	ret
.LBB15_3:                               # %lpad
.Ltmp187:
	sd	a0, -64(s0)
	sw	a1, -68(s0)
	j	.LBB15_4
.LBB15_4:                               # %catch.dispatch
	lw	a0, -68(s0)
	addi	a1, zero, 1
	bne	a0, a1, .LBB15_28
	j	.LBB15_5
.LBB15_5:                               # %catch
	ld	a0, -64(s0)
	call	__cxa_begin_catch
	sd	a0, -80(s0)
	addi	a0, zero, 32
	call	__cxa_allocate_exception
	mv	s1, a0
	addi	a0, zero, 1
	sb	a0, -145(s0)
	ld	a2, -56(s0)
.Ltmp188:
	lui	a0, %hi(.L.str.25)
	addi	a1, a0, %lo(.L.str.25)
	addi	a0, s0, -144
	call	_ZStplIcSt11char_traitsIcESaIcEENSt7__cxx1112basic_stringIT_T0_T1_EEPKS5_RKS8_
.Ltmp189:
	j	.LBB15_6
.LBB15_6:                               # %invoke.cont6
.Ltmp191:
	lui	a0, %hi(.L.str.26)
	addi	a2, a0, %lo(.L.str.26)
	addi	a0, s0, -112
	addi	a1, s0, -144
	call	_ZStplIcSt11char_traitsIcESaIcEENSt7__cxx1112basic_stringIT_T0_T1_EEOS8_PKS5_
.Ltmp192:
	j	.LBB15_7
.LBB15_7:                               # %invoke.cont8
.Ltmp194:
	addi	a2, s0, -112
	mv	a0, s1
	addi	a1, zero, 403
	call	_ZN8nlohmann6detail12out_of_range6createEiRKNSt7__cxx1112basic_stringIcSt11char_traitsIcESaIcEEE
.Ltmp195:
	j	.LBB15_8
.LBB15_8:                               # %invoke.cont10
	sb	zero, -145(s0)
.Ltmp196:
	lui	a0, %hi(_ZTIN8nlohmann6detail12out_of_rangeE)
	addi	a1, a0, %lo(_ZTIN8nlohmann6detail12out_of_rangeE)
	lui	a0, %hi(_ZN8nlohmann6detail12out_of_rangeD2Ev)
	addi	a2, a0, %lo(_ZN8nlohmann6detail12out_of_rangeD2Ev)
	mv	a0, s1
	call	__cxa_throw
.Ltmp197:
	j	.LBB15_30
.LBB15_9:                               # %lpad5
.Ltmp190:
	sd	a0, -64(s0)
	sw	a1, -68(s0)
	j	.LBB15_13
.LBB15_10:                              # %lpad7
.Ltmp193:
	sd	a0, -64(s0)
	sw	a1, -68(s0)
	j	.LBB15_12
.LBB15_11:                              # %lpad9
.Ltmp198:
	sd	a0, -64(s0)
	sw	a1, -68(s0)
	addi	a0, s0, -112
	call	_ZNSt7__cxx1112basic_stringIcSt11char_traitsIcESaIcEED1Ev
	j	.LBB15_12
.LBB15_12:                              # %ehcleanup
	addi	a0, s0, -144
	call	_ZNSt7__cxx1112basic_stringIcSt11char_traitsIcESaIcEED1Ev
	j	.LBB15_13
.LBB15_13:                              # %ehcleanup11
	lbu	a0, -145(s0)
	beqz	a0, .LBB15_15
	j	.LBB15_14
.LBB15_14:                              # %cleanup.action
	mv	a0, s1
	call	__cxa_free_exception
	j	.LBB15_15
.LBB15_15:                              # %cleanup.done
.Ltmp199:
	call	__cxa_end_catch
.Ltmp200:
	j	.LBB15_16
.LBB15_16:                              # %invoke.cont13
	j	.LBB15_28
.LBB15_17:                              # %if.else
	addi	a0, zero, 32
	call	__cxa_allocate_exception
	mv	s2, a0
	addi	a0, zero, 1
	sb	a0, -225(s0)
	mv	a0, s1
	call	_ZNK8nlohmann10basic_jsonISt3mapSt6vectorNSt7__cxx1112basic_stringIcSt11char_traitsIcESaIcEEEblmdSaNS_14adl_serializerEE9type_nameEv
	mv	s1, a0
	addi	s3, s0, -224
	mv	a0, s3
	call	_ZNSaIcEC1Ev
.Ltmp174:
	addi	a0, s0, -216
	mv	a1, s1
	mv	a2, s3
	call	_ZNSt7__cxx1112basic_stringIcSt11char_traitsIcESaIcEEC2IS3_EEPKcRKS3_
.Ltmp175:
	j	.LBB15_18
.LBB15_18:                              # %invoke.cont20
.Ltmp177:
	lui	a0, %hi(.L.str.27)
	addi	a1, a0, %lo(.L.str.27)
	addi	a0, s0, -184
	addi	a2, s0, -216
	call	_ZStplIcSt11char_traitsIcESaIcEENSt7__cxx1112basic_stringIT_T0_T1_EEPKS5_OS8_
.Ltmp178:
	j	.LBB15_19
.LBB15_19:                              # %invoke.cont22
.Ltmp180:
	addi	a2, s0, -184
	mv	a0, s2
	addi	a1, zero, 304
	call	_ZN8nlohmann6detail10type_error6createEiRKNSt7__cxx1112basic_stringIcSt11char_traitsIcESaIcEEE
.Ltmp181:
	j	.LBB15_20
.LBB15_20:                              # %invoke.cont24
	sb	zero, -225(s0)
.Ltmp182:
	lui	a0, %hi(_ZTIN8nlohmann6detail10type_errorE)
	addi	a1, a0, %lo(_ZTIN8nlohmann6detail10type_errorE)
	lui	a0, %hi(_ZN8nlohmann6detail10type_errorD2Ev)
	addi	a2, a0, %lo(_ZN8nlohmann6detail10type_errorD2Ev)
	mv	a0, s2
	call	__cxa_throw
.Ltmp183:
	j	.LBB15_30
.LBB15_21:                              # %lpad19
.Ltmp176:
	sd	a0, -64(s0)
	sw	a1, -68(s0)
	j	.LBB15_25
.LBB15_22:                              # %lpad21
.Ltmp179:
	sd	a0, -64(s0)
	sw	a1, -68(s0)
	j	.LBB15_24
.LBB15_23:                              # %lpad23
.Ltmp184:
	sd	a0, -64(s0)
	sw	a1, -68(s0)
	addi	a0, s0, -184
	call	_ZNSt7__cxx1112basic_stringIcSt11char_traitsIcESaIcEED1Ev
	j	.LBB15_24
.LBB15_24:                              # %ehcleanup27
	addi	a0, s0, -216
	call	_ZNSt7__cxx1112basic_stringIcSt11char_traitsIcESaIcEED1Ev
	j	.LBB15_25
.LBB15_25:                              # %ehcleanup28
	addi	a0, s0, -224
	call	_ZNSaIcED1Ev
	lbu	a0, -225(s0)
	beqz	a0, .LBB15_27
	j	.LBB15_26
.LBB15_26:                              # %cleanup.action31
	mv	a0, s2
	call	__cxa_free_exception
	j	.LBB15_27
.LBB15_27:                              # %cleanup.done32
	j	.LBB15_28
.LBB15_28:                              # %eh.resume
	ld	a0, -64(s0)
	call	_Unwind_Resume
.LBB15_29:                              # %terminate.lpad
.Ltmp201:
	call	__clang_call_terminate
.LBB15_30:                              # %unreachable
.Lfunc_end15:
	.size	_ZNK8nlohmann10basic_jsonISt3mapSt6vectorNSt7__cxx1112basic_stringIcSt11char_traitsIcESaIcEEEblmdSaNS_14adl_serializerEE2atERKS8_, .Lfunc_end15-_ZNK8nlohmann10basic_jsonISt3mapSt6vectorNSt7__cxx1112basic_stringIcSt11char_traitsIcESaIcEEEblmdSaNS_14adl_serializerEE2atERKS8_
	.cfi_endproc
	.section	.gcc_except_table,"a",@progbits
	.p2align	2
GCC_except_table15:
.Lexception5:
	.byte	255                     # @LPStart Encoding = omit
	.byte	155                     # @TType Encoding = indirect pcrel sdata4
	.uleb128 .Lttbase0-.Lttbaseref0
.Lttbaseref0:
	.byte	3                       # Call site Encoding = udata4
	.uleb128 .Lcst_end5-.Lcst_begin5
.Lcst_begin5:
	.word	.Ltmp185-.Lfunc_begin5  # >> Call Site 1 <<
	.word	.Ltmp186-.Ltmp185       #   Call between .Ltmp185 and .Ltmp186
	.word	.Ltmp187-.Lfunc_begin5  #     jumps to .Ltmp187
	.byte	1                       #   On action: 1
	.word	.Ltmp186-.Lfunc_begin5  # >> Call Site 2 <<
	.word	.Ltmp188-.Ltmp186       #   Call between .Ltmp186 and .Ltmp188
	.word	0                       #     has no landing pad
	.byte	0                       #   On action: cleanup
	.word	.Ltmp188-.Lfunc_begin5  # >> Call Site 3 <<
	.word	.Ltmp189-.Ltmp188       #   Call between .Ltmp188 and .Ltmp189
	.word	.Ltmp190-.Lfunc_begin5  #     jumps to .Ltmp190
	.byte	0                       #   On action: cleanup
	.word	.Ltmp191-.Lfunc_begin5  # >> Call Site 4 <<
	.word	.Ltmp192-.Ltmp191       #   Call between .Ltmp191 and .Ltmp192
	.word	.Ltmp193-.Lfunc_begin5  #     jumps to .Ltmp193
	.byte	0                       #   On action: cleanup
	.word	.Ltmp194-.Lfunc_begin5  # >> Call Site 5 <<
	.word	.Ltmp197-.Ltmp194       #   Call between .Ltmp194 and .Ltmp197
	.word	.Ltmp198-.Lfunc_begin5  #     jumps to .Ltmp198
	.byte	0                       #   On action: cleanup
	.word	.Ltmp197-.Lfunc_begin5  # >> Call Site 6 <<
	.word	.Ltmp199-.Ltmp197       #   Call between .Ltmp197 and .Ltmp199
	.word	0                       #     has no landing pad
	.byte	0                       #   On action: cleanup
	.word	.Ltmp199-.Lfunc_begin5  # >> Call Site 7 <<
	.word	.Ltmp200-.Ltmp199       #   Call between .Ltmp199 and .Ltmp200
	.word	.Ltmp201-.Lfunc_begin5  #     jumps to .Ltmp201
	.byte	3                       #   On action: 2
	.word	.Ltmp200-.Lfunc_begin5  # >> Call Site 8 <<
	.word	.Ltmp174-.Ltmp200       #   Call between .Ltmp200 and .Ltmp174
	.word	0                       #     has no landing pad
	.byte	0                       #   On action: cleanup
	.word	.Ltmp174-.Lfunc_begin5  # >> Call Site 9 <<
	.word	.Ltmp175-.Ltmp174       #   Call between .Ltmp174 and .Ltmp175
	.word	.Ltmp176-.Lfunc_begin5  #     jumps to .Ltmp176
	.byte	0                       #   On action: cleanup
	.word	.Ltmp177-.Lfunc_begin5  # >> Call Site 10 <<
	.word	.Ltmp178-.Ltmp177       #   Call between .Ltmp177 and .Ltmp178
	.word	.Ltmp179-.Lfunc_begin5  #     jumps to .Ltmp179
	.byte	0                       #   On action: cleanup
	.word	.Ltmp180-.Lfunc_begin5  # >> Call Site 11 <<
	.word	.Ltmp183-.Ltmp180       #   Call between .Ltmp180 and .Ltmp183
	.word	.Ltmp184-.Lfunc_begin5  #     jumps to .Ltmp184
	.byte	0                       #   On action: cleanup
	.word	.Ltmp183-.Lfunc_begin5  # >> Call Site 12 <<
	.word	.Lfunc_end15-.Ltmp183   #   Call between .Ltmp183 and .Lfunc_end15
	.word	0                       #     has no landing pad
	.byte	0                       #   On action: cleanup
.Lcst_end5:
	.byte	1                       # >> Action Record 1 <<
                                        #   Catch TypeInfo 1
	.byte	0                       #   No further actions
	.byte	2                       # >> Action Record 2 <<
                                        #   Catch TypeInfo 2
	.byte	0                       #   No further actions
	.p2align	2
                                        # >> Catch TypeInfos <<
	.word	0                       # TypeInfo 2
.Ltmp202:                               # TypeInfo 1
	.word	.L_ZTISt12out_of_range.DW.stub-.Ltmp202
.Lttbase0:
	.p2align	2
                                        # -- End function
	.section	.text._ZNSt7__cxx1112basic_stringIcSt11char_traitsIcESaIcEEC2IS3_EEPKcRKS3_,"axG",@progbits,_ZNSt7__cxx1112basic_stringIcSt11char_traitsIcESaIcEEC2IS3_EEPKcRKS3_,comdat
	.weak	_ZNSt7__cxx1112basic_stringIcSt11char_traitsIcESaIcEEC2IS3_EEPKcRKS3_ # -- Begin function _ZNSt7__cxx1112basic_stringIcSt11char_traitsIcESaIcEEC2IS3_EEPKcRKS3_
	.p2align	2
	.type	_ZNSt7__cxx1112basic_stringIcSt11char_traitsIcESaIcEEC2IS3_EEPKcRKS3_,@function
_ZNSt7__cxx1112basic_stringIcSt11char_traitsIcESaIcEEC2IS3_EEPKcRKS3_: # @_ZNSt7__cxx1112basic_stringIcSt11char_traitsIcESaIcEEC2IS3_EEPKcRKS3_
.Lfunc_begin6:
	.cfi_startproc
	.cfi_personality 155, DW.ref.__gxx_personality_v0
	.cfi_lsda 27, .Lexception6
# %bb.0:                                # %entry
	addi	sp, sp, -80
	.cfi_def_cfa_offset 80
	sd	ra, 72(sp)
	sd	s0, 64(sp)
	sd	s1, 56(sp)
	sd	s2, 48(sp)
	sd	s3, 40(sp)
	.cfi_offset ra, -8
	.cfi_offset s0, -16
	.cfi_offset s1, -24
	.cfi_offset s2, -32
	.cfi_offset s3, -40
	addi	s0, sp, 80
	.cfi_def_cfa s0, 0
	sd	a0, -48(s0)
	sd	a1, -56(s0)
	sd	a2, -64(s0)
	ld	s1, -48(s0)
	mv	a0, s1
	call	_ZNSt7__cxx1112basic_stringIcSt11char_traitsIcESaIcEE13_M_local_dataEv
	mv	a1, a0
	ld	a2, -64(s0)
	mv	a0, s1
	call	_ZNSt7__cxx1112basic_stringIcSt11char_traitsIcESaIcEE12_Alloc_hiderC1EPcRKS3_
	ld	s2, -56(s0)
	beqz	s2, .LBB16_3
	j	.LBB16_1
.LBB16_1:                               # %cond.true
	ld	s3, -56(s0)
.Ltmp203:
	mv	a0, s3
	call	_ZNSt11char_traitsIcE6lengthEPKc
.Ltmp204:
	j	.LBB16_2
.LBB16_2:                               # %invoke.cont
	add	a2, s3, a0
	j	.LBB16_4
.LBB16_3:                               # %cond.false
	ld	a0, -56(s0)
	addi	a2, a0, -1
	j	.LBB16_4
.LBB16_4:                               # %cond.end
.Ltmp205:
	mv	a0, s1
	mv	a1, s2
	call	_ZNSt7__cxx1112basic_stringIcSt11char_traitsIcESaIcEE12_M_constructIPKcEEvT_S8_
.Ltmp206:
	j	.LBB16_5
.LBB16_5:                               # %invoke.cont4
	ld	s3, 40(sp)
	ld	s2, 48(sp)
	ld	s1, 56(sp)
	ld	s0, 64(sp)
	.cfi_def_cfa sp, 80
	ld	ra, 72(sp)
	.cfi_restore ra
	.cfi_restore s0
	.cfi_restore s1
	.cfi_restore s2
	.cfi_restore s3
	addi	sp, sp, 80
	.cfi_def_cfa_offset 0
	ret
.LBB16_6:                               # %lpad
.Ltmp207:
	sd	a0, -72(s0)
	sw	a1, -76(s0)
	mv	a0, s1
	call	_ZNSt7__cxx1112basic_stringIcSt11char_traitsIcESaIcEE12_Alloc_hiderD2Ev
	j	.LBB16_7
.LBB16_7:                               # %eh.resume
	ld	a0, -72(s0)
	call	_Unwind_Resume
.Lfunc_end16:
	.size	_ZNSt7__cxx1112basic_stringIcSt11char_traitsIcESaIcEEC2IS3_EEPKcRKS3_, .Lfunc_end16-_ZNSt7__cxx1112basic_stringIcSt11char_traitsIcESaIcEEC2IS3_EEPKcRKS3_
	.cfi_endproc
	.section	.gcc_except_table,"a",@progbits
	.p2align	2
GCC_except_table16:
.Lexception6:
	.byte	255                     # @LPStart Encoding = omit
	.byte	255                     # @TType Encoding = omit
	.byte	3                       # Call site Encoding = udata4
	.uleb128 .Lcst_end6-.Lcst_begin6
.Lcst_begin6:
	.word	.Lfunc_begin6-.Lfunc_begin6 # >> Call Site 1 <<
	.word	.Ltmp203-.Lfunc_begin6  #   Call between .Lfunc_begin6 and .Ltmp203
	.word	0                       #     has no landing pad
	.byte	0                       #   On action: cleanup
	.word	.Ltmp203-.Lfunc_begin6  # >> Call Site 2 <<
	.word	.Ltmp206-.Ltmp203       #   Call between .Ltmp203 and .Ltmp206
	.word	.Ltmp207-.Lfunc_begin6  #     jumps to .Ltmp207
	.byte	0                       #   On action: cleanup
	.word	.Ltmp206-.Lfunc_begin6  # >> Call Site 3 <<
	.word	.Lfunc_end16-.Ltmp206   #   Call between .Ltmp206 and .Lfunc_end16
	.word	0                       #     has no landing pad
	.byte	0                       #   On action: cleanup
.Lcst_end6:
	.p2align	2
                                        # -- End function
	.section	.text._ZNK8nlohmann10basic_jsonISt3mapSt6vectorNSt7__cxx1112basic_stringIcSt11char_traitsIcESaIcEEEblmdSaNS_14adl_serializerEE2atEm,"axG",@progbits,_ZNK8nlohmann10basic_jsonISt3mapSt6vectorNSt7__cxx1112basic_stringIcSt11char_traitsIcESaIcEEEblmdSaNS_14adl_serializerEE2atEm,comdat
	.weak	_ZNK8nlohmann10basic_jsonISt3mapSt6vectorNSt7__cxx1112basic_stringIcSt11char_traitsIcESaIcEEEblmdSaNS_14adl_serializerEE2atEm # -- Begin function _ZNK8nlohmann10basic_jsonISt3mapSt6vectorNSt7__cxx1112basic_stringIcSt11char_traitsIcESaIcEEEblmdSaNS_14adl_serializerEE2atEm
	.p2align	2
	.type	_ZNK8nlohmann10basic_jsonISt3mapSt6vectorNSt7__cxx1112basic_stringIcSt11char_traitsIcESaIcEEEblmdSaNS_14adl_serializerEE2atEm,@function
_ZNK8nlohmann10basic_jsonISt3mapSt6vectorNSt7__cxx1112basic_stringIcSt11char_traitsIcESaIcEEEblmdSaNS_14adl_serializerEE2atEm: # @_ZNK8nlohmann10basic_jsonISt3mapSt6vectorNSt7__cxx1112basic_stringIcSt11char_traitsIcESaIcEEEblmdSaNS_14adl_serializerEE2atEm
.Lfunc_begin7:
	.cfi_startproc
	.cfi_personality 155, DW.ref.__gxx_personality_v0
	.cfi_lsda 27, .Lexception7
# %bb.0:                                # %entry
	addi	sp, sp, -272
	.cfi_def_cfa_offset 272
	sd	ra, 264(sp)
	sd	s0, 256(sp)
	sd	s1, 248(sp)
	sd	s2, 240(sp)
	sd	s3, 232(sp)
	.cfi_offset ra, -8
	.cfi_offset s0, -16
	.cfi_offset s1, -24
	.cfi_offset s2, -32
	.cfi_offset s3, -40
	addi	s0, sp, 272
	.cfi_def_cfa s0, 0
	sd	a0, -48(s0)
	sd	a1, -56(s0)
	ld	s1, -48(s0)
	mv	a0, s1
	call	_ZNK8nlohmann10basic_jsonISt3mapSt6vectorNSt7__cxx1112basic_stringIcSt11char_traitsIcESaIcEEEblmdSaNS_14adl_serializerEE8is_arrayEv
	beqz	a0, .LBB17_20
	j	.LBB17_1
.LBB17_1:                               # %if.then
	ld	a0, 8(s1)
	ld	a1, -56(s0)
.Ltmp219:
	call	_ZNSt6vectorIN8nlohmann10basic_jsonISt3mapS_NSt7__cxx1112basic_stringIcSt11char_traitsIcESaIcEEEblmdSaNS0_14adl_serializerEEESaISA_EE2atEm
.Ltmp220:
	j	.LBB17_2
.LBB17_2:                               # %invoke.cont
	ld	s3, 232(sp)
	ld	s2, 240(sp)
	ld	s1, 248(sp)
	ld	s0, 256(sp)
	.cfi_def_cfa sp, 272
	ld	ra, 264(sp)
	.cfi_restore ra
	.cfi_restore s0
	.cfi_restore s1
	.cfi_restore s2
	.cfi_restore s3
	addi	sp, sp, 272
	.cfi_def_cfa_offset 0
	ret
.LBB17_3:                               # %lpad
.Ltmp221:
	sd	a0, -64(s0)
	sw	a1, -68(s0)
	j	.LBB17_4
.LBB17_4:                               # %catch.dispatch
	lw	a0, -68(s0)
	addi	a1, zero, 1
	bne	a0, a1, .LBB17_31
	j	.LBB17_5
.LBB17_5:                               # %catch
	ld	a0, -64(s0)
	call	__cxa_begin_catch
	sd	a0, -80(s0)
	addi	a0, zero, 32
	call	__cxa_allocate_exception
	mv	s1, a0
	addi	a0, zero, 1
	sb	a0, -177(s0)
	ld	a1, -56(s0)
.Ltmp222:
	addi	a0, s0, -176
	call	_ZNSt7__cxx119to_stringEm
.Ltmp223:
	j	.LBB17_6
.LBB17_6:                               # %invoke.cont7
.Ltmp225:
	lui	a0, %hi(.L.str.41)
	addi	a1, a0, %lo(.L.str.41)
	addi	a0, s0, -144
	addi	a2, s0, -176
	call	_ZStplIcSt11char_traitsIcESaIcEENSt7__cxx1112basic_stringIT_T0_T1_EEPKS5_OS8_
.Ltmp226:
	j	.LBB17_7
.LBB17_7:                               # %invoke.cont9
.Ltmp228:
	lui	a0, %hi(.L.str.42)
	addi	a2, a0, %lo(.L.str.42)
	addi	a0, s0, -112
	addi	a1, s0, -144
	call	_ZStplIcSt11char_traitsIcESaIcEENSt7__cxx1112basic_stringIT_T0_T1_EEOS8_PKS5_
.Ltmp229:
	j	.LBB17_8
.LBB17_8:                               # %invoke.cont11
.Ltmp231:
	addi	a2, s0, -112
	mv	a0, s1
	addi	a1, zero, 401
	call	_ZN8nlohmann6detail12out_of_range6createEiRKNSt7__cxx1112basic_stringIcSt11char_traitsIcESaIcEEE
.Ltmp232:
	j	.LBB17_9
.LBB17_9:                               # %invoke.cont13
	sb	zero, -177(s0)
.Ltmp233:
	lui	a0, %hi(_ZTIN8nlohmann6detail12out_of_rangeE)
	addi	a1, a0, %lo(_ZTIN8nlohmann6detail12out_of_rangeE)
	lui	a0, %hi(_ZN8nlohmann6detail12out_of_rangeD2Ev)
	addi	a2, a0, %lo(_ZN8nlohmann6detail12out_of_rangeD2Ev)
	mv	a0, s1
	call	__cxa_throw
.Ltmp234:
	j	.LBB17_33
.LBB17_10:                              # %lpad6
.Ltmp224:
	sd	a0, -64(s0)
	sw	a1, -68(s0)
	j	.LBB17_16
.LBB17_11:                              # %lpad8
.Ltmp227:
	sd	a0, -64(s0)
	sw	a1, -68(s0)
	j	.LBB17_15
.LBB17_12:                              # %lpad10
.Ltmp230:
	sd	a0, -64(s0)
	sw	a1, -68(s0)
	j	.LBB17_14
.LBB17_13:                              # %lpad12
.Ltmp235:
	sd	a0, -64(s0)
	sw	a1, -68(s0)
	addi	a0, s0, -112
	call	_ZNSt7__cxx1112basic_stringIcSt11char_traitsIcESaIcEED1Ev
	j	.LBB17_14
.LBB17_14:                              # %ehcleanup
	addi	a0, s0, -144
	call	_ZNSt7__cxx1112basic_stringIcSt11char_traitsIcESaIcEED1Ev
	j	.LBB17_15
.LBB17_15:                              # %ehcleanup14
	addi	a0, s0, -176
	call	_ZNSt7__cxx1112basic_stringIcSt11char_traitsIcESaIcEED1Ev
	j	.LBB17_16
.LBB17_16:                              # %ehcleanup15
	lbu	a0, -177(s0)
	beqz	a0, .LBB17_18
	j	.LBB17_17
.LBB17_17:                              # %cleanup.action
	mv	a0, s1
	call	__cxa_free_exception
	j	.LBB17_18
.LBB17_18:                              # %cleanup.done
.Ltmp236:
	call	__cxa_end_catch
.Ltmp237:
	j	.LBB17_19
.LBB17_19:                              # %invoke.cont17
	j	.LBB17_31
.LBB17_20:                              # %if.else
	addi	a0, zero, 32
	call	__cxa_allocate_exception
	mv	s2, a0
	addi	a0, zero, 1
	sb	a0, -257(s0)
	mv	a0, s1
	call	_ZNK8nlohmann10basic_jsonISt3mapSt6vectorNSt7__cxx1112basic_stringIcSt11char_traitsIcESaIcEEEblmdSaNS_14adl_serializerEE9type_nameEv
	mv	s1, a0
	addi	s3, s0, -256
	mv	a0, s3
	call	_ZNSaIcEC1Ev
.Ltmp208:
	addi	a0, s0, -248
	mv	a1, s1
	mv	a2, s3
	call	_ZNSt7__cxx1112basic_stringIcSt11char_traitsIcESaIcEEC2IS3_EEPKcRKS3_
.Ltmp209:
	j	.LBB17_21
.LBB17_21:                              # %invoke.cont24
.Ltmp211:
	lui	a0, %hi(.L.str.27)
	addi	a1, a0, %lo(.L.str.27)
	addi	a0, s0, -216
	addi	a2, s0, -248
	call	_ZStplIcSt11char_traitsIcESaIcEENSt7__cxx1112basic_stringIT_T0_T1_EEPKS5_OS8_
.Ltmp212:
	j	.LBB17_22
.LBB17_22:                              # %invoke.cont26
.Ltmp214:
	addi	a2, s0, -216
	mv	a0, s2
	addi	a1, zero, 304
	call	_ZN8nlohmann6detail10type_error6createEiRKNSt7__cxx1112basic_stringIcSt11char_traitsIcESaIcEEE
.Ltmp215:
	j	.LBB17_23
.LBB17_23:                              # %invoke.cont28
	sb	zero, -257(s0)
.Ltmp216:
	lui	a0, %hi(_ZTIN8nlohmann6detail10type_errorE)
	addi	a1, a0, %lo(_ZTIN8nlohmann6detail10type_errorE)
	lui	a0, %hi(_ZN8nlohmann6detail10type_errorD2Ev)
	addi	a2, a0, %lo(_ZN8nlohmann6detail10type_errorD2Ev)
	mv	a0, s2
	call	__cxa_throw
.Ltmp217:
	j	.LBB17_33
.LBB17_24:                              # %lpad23
.Ltmp210:
	sd	a0, -64(s0)
	sw	a1, -68(s0)
	j	.LBB17_28
.LBB17_25:                              # %lpad25
.Ltmp213:
	sd	a0, -64(s0)
	sw	a1, -68(s0)
	j	.LBB17_27
.LBB17_26:                              # %lpad27
.Ltmp218:
	sd	a0, -64(s0)
	sw	a1, -68(s0)
	addi	a0, s0, -216
	call	_ZNSt7__cxx1112basic_stringIcSt11char_traitsIcESaIcEED1Ev
	j	.LBB17_27
.LBB17_27:                              # %ehcleanup31
	addi	a0, s0, -248
	call	_ZNSt7__cxx1112basic_stringIcSt11char_traitsIcESaIcEED1Ev
	j	.LBB17_28
.LBB17_28:                              # %ehcleanup32
	addi	a0, s0, -256
	call	_ZNSaIcED1Ev
	lbu	a0, -257(s0)
	beqz	a0, .LBB17_30
	j	.LBB17_29
.LBB17_29:                              # %cleanup.action35
	mv	a0, s2
	call	__cxa_free_exception
	j	.LBB17_30
.LBB17_30:                              # %cleanup.done36
	j	.LBB17_31
.LBB17_31:                              # %eh.resume
	ld	a0, -64(s0)
	call	_Unwind_Resume
.LBB17_32:                              # %terminate.lpad
.Ltmp238:
	call	__clang_call_terminate
.LBB17_33:                              # %unreachable
.Lfunc_end17:
	.size	_ZNK8nlohmann10basic_jsonISt3mapSt6vectorNSt7__cxx1112basic_stringIcSt11char_traitsIcESaIcEEEblmdSaNS_14adl_serializerEE2atEm, .Lfunc_end17-_ZNK8nlohmann10basic_jsonISt3mapSt6vectorNSt7__cxx1112basic_stringIcSt11char_traitsIcESaIcEEEblmdSaNS_14adl_serializerEE2atEm
	.cfi_endproc
	.section	.gcc_except_table,"a",@progbits
	.p2align	2
GCC_except_table17:
.Lexception7:
	.byte	255                     # @LPStart Encoding = omit
	.byte	155                     # @TType Encoding = indirect pcrel sdata4
	.uleb128 .Lttbase1-.Lttbaseref1
.Lttbaseref1:
	.byte	3                       # Call site Encoding = udata4
	.uleb128 .Lcst_end7-.Lcst_begin7
.Lcst_begin7:
	.word	.Ltmp219-.Lfunc_begin7  # >> Call Site 1 <<
	.word	.Ltmp220-.Ltmp219       #   Call between .Ltmp219 and .Ltmp220
	.word	.Ltmp221-.Lfunc_begin7  #     jumps to .Ltmp221
	.byte	1                       #   On action: 1
	.word	.Ltmp220-.Lfunc_begin7  # >> Call Site 2 <<
	.word	.Ltmp222-.Ltmp220       #   Call between .Ltmp220 and .Ltmp222
	.word	0                       #     has no landing pad
	.byte	0                       #   On action: cleanup
	.word	.Ltmp222-.Lfunc_begin7  # >> Call Site 3 <<
	.word	.Ltmp223-.Ltmp222       #   Call between .Ltmp222 and .Ltmp223
	.word	.Ltmp224-.Lfunc_begin7  #     jumps to .Ltmp224
	.byte	0                       #   On action: cleanup
	.word	.Ltmp225-.Lfunc_begin7  # >> Call Site 4 <<
	.word	.Ltmp226-.Ltmp225       #   Call between .Ltmp225 and .Ltmp226
	.word	.Ltmp227-.Lfunc_begin7  #     jumps to .Ltmp227
	.byte	0                       #   On action: cleanup
	.word	.Ltmp228-.Lfunc_begin7  # >> Call Site 5 <<
	.word	.Ltmp229-.Ltmp228       #   Call between .Ltmp228 and .Ltmp229
	.word	.Ltmp230-.Lfunc_begin7  #     jumps to .Ltmp230
	.byte	0                       #   On action: cleanup
	.word	.Ltmp231-.Lfunc_begin7  # >> Call Site 6 <<
	.word	.Ltmp234-.Ltmp231       #   Call between .Ltmp231 and .Ltmp234
	.word	.Ltmp235-.Lfunc_begin7  #     jumps to .Ltmp235
	.byte	0                       #   On action: cleanup
	.word	.Ltmp234-.Lfunc_begin7  # >> Call Site 7 <<
	.word	.Ltmp236-.Ltmp234       #   Call between .Ltmp234 and .Ltmp236
	.word	0                       #     has no landing pad
	.byte	0                       #   On action: cleanup
	.word	.Ltmp236-.Lfunc_begin7  # >> Call Site 8 <<
	.word	.Ltmp237-.Ltmp236       #   Call between .Ltmp236 and .Ltmp237
	.word	.Ltmp238-.Lfunc_begin7  #     jumps to .Ltmp238
	.byte	3                       #   On action: 2
	.word	.Ltmp237-.Lfunc_begin7  # >> Call Site 9 <<
	.word	.Ltmp208-.Ltmp237       #   Call between .Ltmp237 and .Ltmp208
	.word	0                       #     has no landing pad
	.byte	0                       #   On action: cleanup
	.word	.Ltmp208-.Lfunc_begin7  # >> Call Site 10 <<
	.word	.Ltmp209-.Ltmp208       #   Call between .Ltmp208 and .Ltmp209
	.word	.Ltmp210-.Lfunc_begin7  #     jumps to .Ltmp210
	.byte	0                       #   On action: cleanup
	.word	.Ltmp211-.Lfunc_begin7  # >> Call Site 11 <<
	.word	.Ltmp212-.Ltmp211       #   Call between .Ltmp211 and .Ltmp212
	.word	.Ltmp213-.Lfunc_begin7  #     jumps to .Ltmp213
	.byte	0                       #   On action: cleanup
	.word	.Ltmp214-.Lfunc_begin7  # >> Call Site 12 <<
	.word	.Ltmp217-.Ltmp214       #   Call between .Ltmp214 and .Ltmp217
	.word	.Ltmp218-.Lfunc_begin7  #     jumps to .Ltmp218
	.byte	0                       #   On action: cleanup
	.word	.Ltmp217-.Lfunc_begin7  # >> Call Site 13 <<
	.word	.Lfunc_end17-.Ltmp217   #   Call between .Ltmp217 and .Lfunc_end17
	.word	0                       #     has no landing pad
	.byte	0                       #   On action: cleanup
.Lcst_end7:
	.byte	1                       # >> Action Record 1 <<
                                        #   Catch TypeInfo 1
	.byte	0                       #   No further actions
	.byte	2                       # >> Action Record 2 <<
                                        #   Catch TypeInfo 2
	.byte	0                       #   No further actions
	.p2align	2
                                        # >> Catch TypeInfos <<
	.word	0                       # TypeInfo 2
.Ltmp239:                               # TypeInfo 1
	.word	.L_ZTISt12out_of_range.DW.stub-.Ltmp239
.Lttbase1:
	.p2align	2
                                        # -- End function
	.section	.text._ZN5ImageaSEOS_,"axG",@progbits,_ZN5ImageaSEOS_,comdat
	.weak	_ZN5ImageaSEOS_         # -- Begin function _ZN5ImageaSEOS_
	.p2align	2
	.type	_ZN5ImageaSEOS_,@function
_ZN5ImageaSEOS_:                        # @_ZN5ImageaSEOS_
# %bb.0:                                # %entry
	addi	sp, sp, -48
	sd	ra, 40(sp)
	sd	s0, 32(sp)
	sd	s1, 24(sp)
	addi	s0, sp, 48
	sd	a0, -32(s0)
	sd	a1, -40(s0)
	ld	s1, -32(s0)
	ld	a0, -40(s0)
	ld	a1, 16(a0)
	sd	a1, 16(s1)
	ld	a1, 8(a0)
	sd	a1, 8(s1)
	ld	a0, 0(a0)
	sd	a0, 0(s1)
	addi	a0, s1, 24
	ld	a1, -40(s0)
	addi	a1, a1, 24
	call	_ZNSt6vectorIN3glm3vecILi3EdLNS0_9qualifierE0EEESaIS3_EEaSEOS5_
	ld	a0, -40(s0)
	ld	a1, 56(a0)
	sd	a1, 56(s1)
	ld	a0, 48(a0)
	sd	a0, 48(s1)
	addi	a0, s1, 64
	ld	a1, -40(s0)
	addi	a1, a1, 64
	call	_ZNSt8functionIFN3glm3vecILi3EdLNS0_9qualifierE0EEERKS3_EEaSEOS7_
	ld	a0, -40(s0)
	lbu	a0, 96(a0)
	andi	a0, a0, 1
	sb	a0, 96(s1)
	mv	a0, s1
	ld	s1, 24(sp)
	ld	s0, 32(sp)
	ld	ra, 40(sp)
	addi	sp, sp, 48
	ret
.Lfunc_end18:
	.size	_ZN5ImageaSEOS_, .Lfunc_end18-_ZN5ImageaSEOS_
                                        # -- End function
	.section	.text._ZN5ImageD2Ev,"axG",@progbits,_ZN5ImageD2Ev,comdat
	.weak	_ZN5ImageD2Ev           # -- Begin function _ZN5ImageD2Ev
	.p2align	2
	.type	_ZN5ImageD2Ev,@function
_ZN5ImageD2Ev:                          # @_ZN5ImageD2Ev
# %bb.0:                                # %entry
	addi	sp, sp, -32
	sd	ra, 24(sp)
	sd	s0, 16(sp)
	sd	s1, 8(sp)
	addi	s0, sp, 32
	sd	a0, -32(s0)
	ld	s1, -32(s0)
	addi	a0, s1, 64
	call	_ZNSt8functionIFN3glm3vecILi3EdLNS0_9qualifierE0EEERKS3_EED2Ev
	addi	a0, s1, 24
	call	_ZNSt6vectorIN3glm3vecILi3EdLNS0_9qualifierE0EEESaIS3_EED2Ev
	ld	s1, 8(sp)
	ld	s0, 16(sp)
	ld	ra, 24(sp)
	addi	sp, sp, 32
	ret
.Lfunc_end19:
	.size	_ZN5ImageD2Ev, .Lfunc_end19-_ZN5ImageD2Ev
                                        # -- End function
	.section	.text._ZNK8nlohmann10basic_jsonISt3mapSt6vectorNSt7__cxx1112basic_stringIcSt11char_traitsIcESaIcEEEblmdSaNS_14adl_serializerEE4findIRA5_KcEENS_6detail9iter_implIKSA_EEOT_,"axG",@progbits,_ZNK8nlohmann10basic_jsonISt3mapSt6vectorNSt7__cxx1112basic_stringIcSt11char_traitsIcESaIcEEEblmdSaNS_14adl_serializerEE4findIRA5_KcEENS_6detail9iter_implIKSA_EEOT_,comdat
	.weak	_ZNK8nlohmann10basic_jsonISt3mapSt6vectorNSt7__cxx1112basic_stringIcSt11char_traitsIcESaIcEEEblmdSaNS_14adl_serializerEE4findIRA5_KcEENS_6detail9iter_implIKSA_EEOT_ # -- Begin function _ZNK8nlohmann10basic_jsonISt3mapSt6vectorNSt7__cxx1112basic_stringIcSt11char_traitsIcESaIcEEEblmdSaNS_14adl_serializerEE4findIRA5_KcEENS_6detail9iter_implIKSA_EEOT_
	.p2align	2
	.type	_ZNK8nlohmann10basic_jsonISt3mapSt6vectorNSt7__cxx1112basic_stringIcSt11char_traitsIcESaIcEEEblmdSaNS_14adl_serializerEE4findIRA5_KcEENS_6detail9iter_implIKSA_EEOT_,@function
_ZNK8nlohmann10basic_jsonISt3mapSt6vectorNSt7__cxx1112basic_stringIcSt11char_traitsIcESaIcEEEblmdSaNS_14adl_serializerEE4findIRA5_KcEENS_6detail9iter_implIKSA_EEOT_: # @_ZNK8nlohmann10basic_jsonISt3mapSt6vectorNSt7__cxx1112basic_stringIcSt11char_traitsIcESaIcEEEblmdSaNS_14adl_serializerEE4findIRA5_KcEENS_6detail9iter_implIKSA_EEOT_
	.cfi_startproc
# %bb.0:                                # %entry
	addi	sp, sp, -64
	.cfi_def_cfa_offset 64
	sd	ra, 56(sp)
	sd	s0, 48(sp)
	sd	s1, 40(sp)
	sd	s2, 32(sp)
	.cfi_offset ra, -8
	.cfi_offset s0, -16
	.cfi_offset s1, -24
	.cfi_offset s2, -32
	addi	s0, sp, 64
	.cfi_def_cfa s0, 0
	mv	s2, a0
	sd	s2, -40(s0)
	sd	a1, -48(s0)
	sd	a2, -56(s0)
	ld	s1, -48(s0)
	mv	a0, s2
	mv	a1, s1
	call	_ZNK8nlohmann10basic_jsonISt3mapSt6vectorNSt7__cxx1112basic_stringIcSt11char_traitsIcESaIcEEEblmdSaNS_14adl_serializerEE4cendEv
	mv	a0, s1
	call	_ZNK8nlohmann10basic_jsonISt3mapSt6vectorNSt7__cxx1112basic_stringIcSt11char_traitsIcESaIcEEEblmdSaNS_14adl_serializerEE9is_objectEv
	beqz	a0, .LBB20_2
	j	.LBB20_1
.LBB20_1:                               # %if.then
	ld	s1, 8(s1)
	ld	a0, -56(s0)
	call	_ZSt7forwardIRA5_KcEOT_RNSt16remove_referenceIS3_E4typeE
	mv	a1, a0
	mv	a0, s1
	call	_ZNSt3mapINSt7__cxx1112basic_stringIcSt11char_traitsIcESaIcEEEN8nlohmann10basic_jsonIS_St6vectorS5_blmdSaNS6_14adl_serializerEEESt4lessIvESaISt4pairIKS5_SA_EEE4findIA5_cEEDTcldtdtdefpT4_M_t10_M_find_trfp_EERKT_
	sd	a0, -64(s0)
	ld	a0, -64(s0)
	sd	a0, 8(s2)
	j	.LBB20_2
.LBB20_2:                               # %if.end
	ld	s2, 32(sp)
	ld	s1, 40(sp)
	ld	s0, 48(sp)
	.cfi_def_cfa sp, 64
	ld	ra, 56(sp)
	.cfi_restore ra
	.cfi_restore s0
	.cfi_restore s1
	.cfi_restore s2
	addi	sp, sp, 64
	.cfi_def_cfa_offset 0
	ret
.Lfunc_end20:
	.size	_ZNK8nlohmann10basic_jsonISt3mapSt6vectorNSt7__cxx1112basic_stringIcSt11char_traitsIcESaIcEEEblmdSaNS_14adl_serializerEE4findIRA5_KcEENS_6detail9iter_implIKSA_EEOT_, .Lfunc_end20-_ZNK8nlohmann10basic_jsonISt3mapSt6vectorNSt7__cxx1112basic_stringIcSt11char_traitsIcESaIcEEEblmdSaNS_14adl_serializerEE4findIRA5_KcEENS_6detail9iter_implIKSA_EEOT_
	.cfi_endproc
                                        # -- End function
	.section	.text._ZNK8nlohmann6detail9iter_implIKNS_10basic_jsonISt3mapSt6vectorNSt7__cxx1112basic_stringIcSt11char_traitsIcESaIcEEEblmdSaNS_14adl_serializerEEEEneERKSE_,"axG",@progbits,_ZNK8nlohmann6detail9iter_implIKNS_10basic_jsonISt3mapSt6vectorNSt7__cxx1112basic_stringIcSt11char_traitsIcESaIcEEEblmdSaNS_14adl_serializerEEEEneERKSE_,comdat
	.weak	_ZNK8nlohmann6detail9iter_implIKNS_10basic_jsonISt3mapSt6vectorNSt7__cxx1112basic_stringIcSt11char_traitsIcESaIcEEEblmdSaNS_14adl_serializerEEEEneERKSE_ # -- Begin function _ZNK8nlohmann6detail9iter_implIKNS_10basic_jsonISt3mapSt6vectorNSt7__cxx1112basic_stringIcSt11char_traitsIcESaIcEEEblmdSaNS_14adl_serializerEEEEneERKSE_
	.p2align	2
	.type	_ZNK8nlohmann6detail9iter_implIKNS_10basic_jsonISt3mapSt6vectorNSt7__cxx1112basic_stringIcSt11char_traitsIcESaIcEEEblmdSaNS_14adl_serializerEEEEneERKSE_,@function
_ZNK8nlohmann6detail9iter_implIKNS_10basic_jsonISt3mapSt6vectorNSt7__cxx1112basic_stringIcSt11char_traitsIcESaIcEEEblmdSaNS_14adl_serializerEEEEneERKSE_: # @_ZNK8nlohmann6detail9iter_implIKNS_10basic_jsonISt3mapSt6vectorNSt7__cxx1112basic_stringIcSt11char_traitsIcESaIcEEEblmdSaNS_14adl_serializerEEEEneERKSE_
	.cfi_startproc
# %bb.0:                                # %entry
	addi	sp, sp, -32
	.cfi_def_cfa_offset 32
	sd	ra, 24(sp)
	sd	s0, 16(sp)
	.cfi_offset ra, -8
	.cfi_offset s0, -16
	addi	s0, sp, 32
	.cfi_def_cfa s0, 0
	sd	a0, -24(s0)
	sd	a1, -32(s0)
	ld	a0, -24(s0)
	ld	a1, -32(s0)
	call	_ZNK8nlohmann6detail9iter_implIKNS_10basic_jsonISt3mapSt6vectorNSt7__cxx1112basic_stringIcSt11char_traitsIcESaIcEEEblmdSaNS_14adl_serializerEEEEeqERKSE_
	xori	a0, a0, 1
	ld	s0, 16(sp)
	.cfi_def_cfa sp, 32
	ld	ra, 24(sp)
	.cfi_restore ra
	.cfi_restore s0
	addi	sp, sp, 32
	.cfi_def_cfa_offset 0
	ret
.Lfunc_end21:
	.size	_ZNK8nlohmann6detail9iter_implIKNS_10basic_jsonISt3mapSt6vectorNSt7__cxx1112basic_stringIcSt11char_traitsIcESaIcEEEblmdSaNS_14adl_serializerEEEEneERKSE_, .Lfunc_end21-_ZNK8nlohmann6detail9iter_implIKNS_10basic_jsonISt3mapSt6vectorNSt7__cxx1112basic_stringIcSt11char_traitsIcESaIcEEEblmdSaNS_14adl_serializerEEEEneERKSE_
	.cfi_endproc
                                        # -- End function
	.section	.text._ZNK8nlohmann10basic_jsonISt3mapSt6vectorNSt7__cxx1112basic_stringIcSt11char_traitsIcESaIcEEEblmdSaNS_14adl_serializerEE3endEv,"axG",@progbits,_ZNK8nlohmann10basic_jsonISt3mapSt6vectorNSt7__cxx1112basic_stringIcSt11char_traitsIcESaIcEEEblmdSaNS_14adl_serializerEE3endEv,comdat
	.weak	_ZNK8nlohmann10basic_jsonISt3mapSt6vectorNSt7__cxx1112basic_stringIcSt11char_traitsIcESaIcEEEblmdSaNS_14adl_serializerEE3endEv # -- Begin function _ZNK8nlohmann10basic_jsonISt3mapSt6vectorNSt7__cxx1112basic_stringIcSt11char_traitsIcESaIcEEEblmdSaNS_14adl_serializerEE3endEv
	.p2align	2
	.type	_ZNK8nlohmann10basic_jsonISt3mapSt6vectorNSt7__cxx1112basic_stringIcSt11char_traitsIcESaIcEEEblmdSaNS_14adl_serializerEE3endEv,@function
_ZNK8nlohmann10basic_jsonISt3mapSt6vectorNSt7__cxx1112basic_stringIcSt11char_traitsIcESaIcEEEblmdSaNS_14adl_serializerEE3endEv: # @_ZNK8nlohmann10basic_jsonISt3mapSt6vectorNSt7__cxx1112basic_stringIcSt11char_traitsIcESaIcEEEblmdSaNS_14adl_serializerEE3endEv
# %bb.0:                                # %entry
	addi	sp, sp, -32
	sd	ra, 24(sp)
	sd	s0, 16(sp)
	addi	s0, sp, 32
	sd	a0, -24(s0)
	sd	a1, -32(s0)
	ld	a1, -32(s0)
	call	_ZNK8nlohmann10basic_jsonISt3mapSt6vectorNSt7__cxx1112basic_stringIcSt11char_traitsIcESaIcEEEblmdSaNS_14adl_serializerEE4cendEv
	ld	s0, 16(sp)
	ld	ra, 24(sp)
	addi	sp, sp, 32
	ret
.Lfunc_end22:
	.size	_ZNK8nlohmann10basic_jsonISt3mapSt6vectorNSt7__cxx1112basic_stringIcSt11char_traitsIcESaIcEEEblmdSaNS_14adl_serializerEE3endEv, .Lfunc_end22-_ZNK8nlohmann10basic_jsonISt3mapSt6vectorNSt7__cxx1112basic_stringIcSt11char_traitsIcESaIcEEEblmdSaNS_14adl_serializerEE3endEv
                                        # -- End function
	.section	.text._ZN4FilmaSEOS_,"axG",@progbits,_ZN4FilmaSEOS_,comdat
	.weak	_ZN4FilmaSEOS_          # -- Begin function _ZN4FilmaSEOS_
	.p2align	2
	.type	_ZN4FilmaSEOS_,@function
_ZN4FilmaSEOS_:                         # @_ZN4FilmaSEOS_
# %bb.0:                                # %entry
	addi	sp, sp, -48
	sd	ra, 40(sp)
	sd	s0, 32(sp)
	sd	s1, 24(sp)
	addi	s0, sp, 48
	sd	a0, -32(s0)
	sd	a1, -40(s0)
	ld	s1, -32(s0)
	ld	a1, -40(s0)
	mv	a0, s1
	call	_ZNSt6vectorIN4Film5SplatESaIS1_EEaSEOS3_
	addi	a0, s1, 24
	ld	a1, -40(s0)
	addi	a1, a1, 24
	call	_ZNSt6vectorIdSaIdEEaSEOS1_
	ld	a0, -40(s0)
	ld	a1, 80(a0)
	sd	a1, 80(s1)
	ld	a1, 72(a0)
	sd	a1, 72(s1)
	ld	a1, 64(a0)
	sd	a1, 64(s1)
	ld	a1, 56(a0)
	sd	a1, 56(s1)
	ld	a0, 48(a0)
	sd	a0, 48(s1)
	addi	a0, s1, 88
	ld	a1, -40(s0)
	addi	a1, a1, 88
	call	_ZNSt8functionIFddEEaSEOS1_
	mv	a0, s1
	ld	s1, 24(sp)
	ld	s0, 32(sp)
	ld	ra, 40(sp)
	addi	sp, sp, 48
	ret
.Lfunc_end23:
	.size	_ZN4FilmaSEOS_, .Lfunc_end23-_ZN4FilmaSEOS_
                                        # -- End function
	.section	.text._ZN4FilmD2Ev,"axG",@progbits,_ZN4FilmD2Ev,comdat
	.weak	_ZN4FilmD2Ev            # -- Begin function _ZN4FilmD2Ev
	.p2align	2
	.type	_ZN4FilmD2Ev,@function
_ZN4FilmD2Ev:                           # @_ZN4FilmD2Ev
# %bb.0:                                # %entry
	addi	sp, sp, -32
	sd	ra, 24(sp)
	sd	s0, 16(sp)
	sd	s1, 8(sp)
	addi	s0, sp, 32
	sd	a0, -32(s0)
	ld	s1, -32(s0)
	addi	a0, s1, 88
	call	_ZNSt8functionIFddEED2Ev
	addi	a0, s1, 24
	call	_ZNSt6vectorIdSaIdEED2Ev
	mv	a0, s1
	call	_ZNSt6vectorIN4Film5SplatESaIS1_EED2Ev
	ld	s1, 8(sp)
	ld	s0, 16(sp)
	ld	ra, 24(sp)
	addi	sp, sp, 32
	ret
.Lfunc_end24:
	.size	_ZN4FilmD2Ev, .Lfunc_end24-_ZN4FilmD2Ev
                                        # -- End function
	.section	.text._ZNK8nlohmann10basic_jsonISt3mapSt6vectorNSt7__cxx1112basic_stringIcSt11char_traitsIcESaIcEEEblmdSaNS_14adl_serializerEEcvT_IN3glm3vecILi3EdLNSD_9qualifierE0EEELi0EEEv,"axG",@progbits,_ZNK8nlohmann10basic_jsonISt3mapSt6vectorNSt7__cxx1112basic_stringIcSt11char_traitsIcESaIcEEEblmdSaNS_14adl_serializerEEcvT_IN3glm3vecILi3EdLNSD_9qualifierE0EEELi0EEEv,comdat
	.weak	_ZNK8nlohmann10basic_jsonISt3mapSt6vectorNSt7__cxx1112basic_stringIcSt11char_traitsIcESaIcEEEblmdSaNS_14adl_serializerEEcvT_IN3glm3vecILi3EdLNSD_9qualifierE0EEELi0EEEv # -- Begin function _ZNK8nlohmann10basic_jsonISt3mapSt6vectorNSt7__cxx1112basic_stringIcSt11char_traitsIcESaIcEEEblmdSaNS_14adl_serializerEEcvT_IN3glm3vecILi3EdLNSD_9qualifierE0EEELi0EEEv
	.p2align	2
	.type	_ZNK8nlohmann10basic_jsonISt3mapSt6vectorNSt7__cxx1112basic_stringIcSt11char_traitsIcESaIcEEEblmdSaNS_14adl_serializerEEcvT_IN3glm3vecILi3EdLNSD_9qualifierE0EEELi0EEEv,@function
_ZNK8nlohmann10basic_jsonISt3mapSt6vectorNSt7__cxx1112basic_stringIcSt11char_traitsIcESaIcEEEblmdSaNS_14adl_serializerEEcvT_IN3glm3vecILi3EdLNSD_9qualifierE0EEELi0EEEv: # @_ZNK8nlohmann10basic_jsonISt3mapSt6vectorNSt7__cxx1112basic_stringIcSt11char_traitsIcESaIcEEEblmdSaNS_14adl_serializerEEcvT_IN3glm3vecILi3EdLNSD_9qualifierE0EEELi0EEEv
	.cfi_startproc
# %bb.0:                                # %entry
	addi	sp, sp, -32
	.cfi_def_cfa_offset 32
	sd	ra, 24(sp)
	sd	s0, 16(sp)
	.cfi_offset ra, -8
	.cfi_offset s0, -16
	addi	s0, sp, 32
	.cfi_def_cfa s0, 0
	sd	a0, -24(s0)
	sd	a1, -32(s0)
	ld	a1, -32(s0)
	call	_ZNK8nlohmann10basic_jsonISt3mapSt6vectorNSt7__cxx1112basic_stringIcSt11char_traitsIcESaIcEEEblmdSaNS_14adl_serializerEE3getIN3glm3vecILi3EdLNSC_9qualifierE0EEESF_Li0EEET0_v
	ld	s0, 16(sp)
	.cfi_def_cfa sp, 32
	ld	ra, 24(sp)
	.cfi_restore ra
	.cfi_restore s0
	addi	sp, sp, 32
	.cfi_def_cfa_offset 0
	ret
.Lfunc_end25:
	.size	_ZNK8nlohmann10basic_jsonISt3mapSt6vectorNSt7__cxx1112basic_stringIcSt11char_traitsIcESaIcEEEblmdSaNS_14adl_serializerEEcvT_IN3glm3vecILi3EdLNSD_9qualifierE0EEELi0EEEv, .Lfunc_end25-_ZNK8nlohmann10basic_jsonISt3mapSt6vectorNSt7__cxx1112basic_stringIcSt11char_traitsIcESaIcEEEblmdSaNS_14adl_serializerEEcvT_IN3glm3vecILi3EdLNSD_9qualifierE0EEELi0EEEv
	.cfi_endproc
                                        # -- End function
	.section	.text._ZNK8nlohmann10basic_jsonISt3mapSt6vectorNSt7__cxx1112basic_stringIcSt11char_traitsIcESaIcEEEblmdSaNS_14adl_serializerEE3getIddLi0EEET0_v,"axG",@progbits,_ZNK8nlohmann10basic_jsonISt3mapSt6vectorNSt7__cxx1112basic_stringIcSt11char_traitsIcESaIcEEEblmdSaNS_14adl_serializerEE3getIddLi0EEET0_v,comdat
	.weak	_ZNK8nlohmann10basic_jsonISt3mapSt6vectorNSt7__cxx1112basic_stringIcSt11char_traitsIcESaIcEEEblmdSaNS_14adl_serializerEE3getIddLi0EEET0_v # -- Begin function _ZNK8nlohmann10basic_jsonISt3mapSt6vectorNSt7__cxx1112basic_stringIcSt11char_traitsIcESaIcEEEblmdSaNS_14adl_serializerEE3getIddLi0EEET0_v
	.p2align	2
	.type	_ZNK8nlohmann10basic_jsonISt3mapSt6vectorNSt7__cxx1112basic_stringIcSt11char_traitsIcESaIcEEEblmdSaNS_14adl_serializerEE3getIddLi0EEET0_v,@function
_ZNK8nlohmann10basic_jsonISt3mapSt6vectorNSt7__cxx1112basic_stringIcSt11char_traitsIcESaIcEEEblmdSaNS_14adl_serializerEE3getIddLi0EEET0_v: # @_ZNK8nlohmann10basic_jsonISt3mapSt6vectorNSt7__cxx1112basic_stringIcSt11char_traitsIcESaIcEEEblmdSaNS_14adl_serializerEE3getIddLi0EEET0_v
	.cfi_startproc
# %bb.0:                                # %entry
	addi	sp, sp, -32
	.cfi_def_cfa_offset 32
	sd	ra, 24(sp)
	sd	s0, 16(sp)
	.cfi_offset ra, -8
	.cfi_offset s0, -16
	addi	s0, sp, 32
	.cfi_def_cfa s0, 0
	sd	a0, -24(s0)
	ld	a0, -24(s0)
	addi	a1, s0, -32
	call	_ZN8nlohmann14adl_serializerIdvE9from_jsonIRKNS_10basic_jsonISt3mapSt6vectorNSt7__cxx1112basic_stringIcSt11char_traitsIcESaIcEEEblmdSaS0_EEdEEDTcmclL_ZNS_12_GLOBAL__N_19from_jsonEEclsr3stdE7forwardIT_Efp_Efp0_Ecvv_EEOSG_RT0_
	ld	a0, -32(s0)
	ld	s0, 16(sp)
	.cfi_def_cfa sp, 32
	ld	ra, 24(sp)
	.cfi_restore ra
	.cfi_restore s0
	addi	sp, sp, 32
	.cfi_def_cfa_offset 0
	ret
.Lfunc_end26:
	.size	_ZNK8nlohmann10basic_jsonISt3mapSt6vectorNSt7__cxx1112basic_stringIcSt11char_traitsIcESaIcEEEblmdSaNS_14adl_serializerEE3getIddLi0EEET0_v, .Lfunc_end26-_ZNK8nlohmann10basic_jsonISt3mapSt6vectorNSt7__cxx1112basic_stringIcSt11char_traitsIcESaIcEEEblmdSaNS_14adl_serializerEE3getIddLi0EEET0_v
	.cfi_endproc
                                        # -- End function
	.section	.text._ZNK8nlohmann10basic_jsonISt3mapSt6vectorNSt7__cxx1112basic_stringIcSt11char_traitsIcESaIcEEEblmdSaNS_14adl_serializerEEcvT_ImLi0EEEv,"axG",@progbits,_ZNK8nlohmann10basic_jsonISt3mapSt6vectorNSt7__cxx1112basic_stringIcSt11char_traitsIcESaIcEEEblmdSaNS_14adl_serializerEEcvT_ImLi0EEEv,comdat
	.weak	_ZNK8nlohmann10basic_jsonISt3mapSt6vectorNSt7__cxx1112basic_stringIcSt11char_traitsIcESaIcEEEblmdSaNS_14adl_serializerEEcvT_ImLi0EEEv # -- Begin function _ZNK8nlohmann10basic_jsonISt3mapSt6vectorNSt7__cxx1112basic_stringIcSt11char_traitsIcESaIcEEEblmdSaNS_14adl_serializerEEcvT_ImLi0EEEv
	.p2align	2
	.type	_ZNK8nlohmann10basic_jsonISt3mapSt6vectorNSt7__cxx1112basic_stringIcSt11char_traitsIcESaIcEEEblmdSaNS_14adl_serializerEEcvT_ImLi0EEEv,@function
_ZNK8nlohmann10basic_jsonISt3mapSt6vectorNSt7__cxx1112basic_stringIcSt11char_traitsIcESaIcEEEblmdSaNS_14adl_serializerEEcvT_ImLi0EEEv: # @_ZNK8nlohmann10basic_jsonISt3mapSt6vectorNSt7__cxx1112basic_stringIcSt11char_traitsIcESaIcEEEblmdSaNS_14adl_serializerEEcvT_ImLi0EEEv
	.cfi_startproc
# %bb.0:                                # %entry
	addi	sp, sp, -32
	.cfi_def_cfa_offset 32
	sd	ra, 24(sp)
	sd	s0, 16(sp)
	.cfi_offset ra, -8
	.cfi_offset s0, -16
	addi	s0, sp, 32
	.cfi_def_cfa s0, 0
	sd	a0, -24(s0)
	ld	a0, -24(s0)
	call	_ZNK8nlohmann10basic_jsonISt3mapSt6vectorNSt7__cxx1112basic_stringIcSt11char_traitsIcESaIcEEEblmdSaNS_14adl_serializerEE3getImmLi0EEET0_v
	ld	s0, 16(sp)
	.cfi_def_cfa sp, 32
	ld	ra, 24(sp)
	.cfi_restore ra
	.cfi_restore s0
	addi	sp, sp, 32
	.cfi_def_cfa_offset 0
	ret
.Lfunc_end27:
	.size	_ZNK8nlohmann10basic_jsonISt3mapSt6vectorNSt7__cxx1112basic_stringIcSt11char_traitsIcESaIcEEEblmdSaNS_14adl_serializerEEcvT_ImLi0EEEv, .Lfunc_end27-_ZNK8nlohmann10basic_jsonISt3mapSt6vectorNSt7__cxx1112basic_stringIcSt11char_traitsIcESaIcEEEblmdSaNS_14adl_serializerEEcvT_ImLi0EEEv
	.cfi_endproc
                                        # -- End function
	.section	.text._ZNK8nlohmann10basic_jsonISt3mapSt6vectorNSt7__cxx1112basic_stringIcSt11char_traitsIcESaIcEEEblmdSaNS_14adl_serializerEEcvT_IdLi0EEEv,"axG",@progbits,_ZNK8nlohmann10basic_jsonISt3mapSt6vectorNSt7__cxx1112basic_stringIcSt11char_traitsIcESaIcEEEblmdSaNS_14adl_serializerEEcvT_IdLi0EEEv,comdat
	.weak	_ZNK8nlohmann10basic_jsonISt3mapSt6vectorNSt7__cxx1112basic_stringIcSt11char_traitsIcESaIcEEEblmdSaNS_14adl_serializerEEcvT_IdLi0EEEv # -- Begin function _ZNK8nlohmann10basic_jsonISt3mapSt6vectorNSt7__cxx1112basic_stringIcSt11char_traitsIcESaIcEEEblmdSaNS_14adl_serializerEEcvT_IdLi0EEEv
	.p2align	2
	.type	_ZNK8nlohmann10basic_jsonISt3mapSt6vectorNSt7__cxx1112basic_stringIcSt11char_traitsIcESaIcEEEblmdSaNS_14adl_serializerEEcvT_IdLi0EEEv,@function
_ZNK8nlohmann10basic_jsonISt3mapSt6vectorNSt7__cxx1112basic_stringIcSt11char_traitsIcESaIcEEEblmdSaNS_14adl_serializerEEcvT_IdLi0EEEv: # @_ZNK8nlohmann10basic_jsonISt3mapSt6vectorNSt7__cxx1112basic_stringIcSt11char_traitsIcESaIcEEEblmdSaNS_14adl_serializerEEcvT_IdLi0EEEv
	.cfi_startproc
# %bb.0:                                # %entry
	addi	sp, sp, -32
	.cfi_def_cfa_offset 32
	sd	ra, 24(sp)
	sd	s0, 16(sp)
	.cfi_offset ra, -8
	.cfi_offset s0, -16
	addi	s0, sp, 32
	.cfi_def_cfa s0, 0
	sd	a0, -24(s0)
	ld	a0, -24(s0)
	call	_ZNK8nlohmann10basic_jsonISt3mapSt6vectorNSt7__cxx1112basic_stringIcSt11char_traitsIcESaIcEEEblmdSaNS_14adl_serializerEE3getIddLi0EEET0_v
	ld	s0, 16(sp)
	.cfi_def_cfa sp, 32
	ld	ra, 24(sp)
	.cfi_restore ra
	.cfi_restore s0
	addi	sp, sp, 32
	.cfi_def_cfa_offset 0
	ret
.Lfunc_end28:
	.size	_ZNK8nlohmann10basic_jsonISt3mapSt6vectorNSt7__cxx1112basic_stringIcSt11char_traitsIcESaIcEEEblmdSaNS_14adl_serializerEEcvT_IdLi0EEEv, .Lfunc_end28-_ZNK8nlohmann10basic_jsonISt3mapSt6vectorNSt7__cxx1112basic_stringIcSt11char_traitsIcESaIcEEEblmdSaNS_14adl_serializerEEcvT_IdLi0EEEv
	.cfi_endproc
                                        # -- End function
	.section	.text._ZNK8nlohmann10basic_jsonISt3mapSt6vectorNSt7__cxx1112basic_stringIcSt11char_traitsIcESaIcEEEblmdSaNS_14adl_serializerEEcvT_IS8_Li0EEEv,"axG",@progbits,_ZNK8nlohmann10basic_jsonISt3mapSt6vectorNSt7__cxx1112basic_stringIcSt11char_traitsIcESaIcEEEblmdSaNS_14adl_serializerEEcvT_IS8_Li0EEEv,comdat
	.weak	_ZNK8nlohmann10basic_jsonISt3mapSt6vectorNSt7__cxx1112basic_stringIcSt11char_traitsIcESaIcEEEblmdSaNS_14adl_serializerEEcvT_IS8_Li0EEEv # -- Begin function _ZNK8nlohmann10basic_jsonISt3mapSt6vectorNSt7__cxx1112basic_stringIcSt11char_traitsIcESaIcEEEblmdSaNS_14adl_serializerEEcvT_IS8_Li0EEEv
	.p2align	2
	.type	_ZNK8nlohmann10basic_jsonISt3mapSt6vectorNSt7__cxx1112basic_stringIcSt11char_traitsIcESaIcEEEblmdSaNS_14adl_serializerEEcvT_IS8_Li0EEEv,@function
_ZNK8nlohmann10basic_jsonISt3mapSt6vectorNSt7__cxx1112basic_stringIcSt11char_traitsIcESaIcEEEblmdSaNS_14adl_serializerEEcvT_IS8_Li0EEEv: # @_ZNK8nlohmann10basic_jsonISt3mapSt6vectorNSt7__cxx1112basic_stringIcSt11char_traitsIcESaIcEEEblmdSaNS_14adl_serializerEEcvT_IS8_Li0EEEv
	.cfi_startproc
# %bb.0:                                # %entry
	addi	sp, sp, -32
	.cfi_def_cfa_offset 32
	sd	ra, 24(sp)
	sd	s0, 16(sp)
	.cfi_offset ra, -8
	.cfi_offset s0, -16
	addi	s0, sp, 32
	.cfi_def_cfa s0, 0
	sd	a0, -24(s0)
	sd	a1, -32(s0)
	ld	a1, -32(s0)
	call	_ZNK8nlohmann10basic_jsonISt3mapSt6vectorNSt7__cxx1112basic_stringIcSt11char_traitsIcESaIcEEEblmdSaNS_14adl_serializerEE3getIS8_S8_Li0EEET0_v
	ld	s0, 16(sp)
	.cfi_def_cfa sp, 32
	ld	ra, 24(sp)
	.cfi_restore ra
	.cfi_restore s0
	addi	sp, sp, 32
	.cfi_def_cfa_offset 0
	ret
.Lfunc_end29:
	.size	_ZNK8nlohmann10basic_jsonISt3mapSt6vectorNSt7__cxx1112basic_stringIcSt11char_traitsIcESaIcEEEblmdSaNS_14adl_serializerEEcvT_IS8_Li0EEEv, .Lfunc_end29-_ZNK8nlohmann10basic_jsonISt3mapSt6vectorNSt7__cxx1112basic_stringIcSt11char_traitsIcESaIcEEEblmdSaNS_14adl_serializerEEcvT_IS8_Li0EEEv
	.cfi_endproc
                                        # -- End function
	.section	.text._Z11getOptionalIdET_RKN8nlohmann10basic_jsonISt3mapSt6vectorNSt7__cxx1112basic_stringIcSt11char_traitsIcESaIcEEEblmdSaNS1_14adl_serializerEEESA_S0_,"axG",@progbits,_Z11getOptionalIdET_RKN8nlohmann10basic_jsonISt3mapSt6vectorNSt7__cxx1112basic_stringIcSt11char_traitsIcESaIcEEEblmdSaNS1_14adl_serializerEEESA_S0_,comdat
	.weak	_Z11getOptionalIdET_RKN8nlohmann10basic_jsonISt3mapSt6vectorNSt7__cxx1112basic_stringIcSt11char_traitsIcESaIcEEEblmdSaNS1_14adl_serializerEEESA_S0_ # -- Begin function _Z11getOptionalIdET_RKN8nlohmann10basic_jsonISt3mapSt6vectorNSt7__cxx1112basic_stringIcSt11char_traitsIcESaIcEEEblmdSaNS1_14adl_serializerEEESA_S0_
	.p2align	2
	.type	_Z11getOptionalIdET_RKN8nlohmann10basic_jsonISt3mapSt6vectorNSt7__cxx1112basic_stringIcSt11char_traitsIcESaIcEEEblmdSaNS1_14adl_serializerEEESA_S0_,@function
_Z11getOptionalIdET_RKN8nlohmann10basic_jsonISt3mapSt6vectorNSt7__cxx1112basic_stringIcSt11char_traitsIcESaIcEEEblmdSaNS1_14adl_serializerEEESA_S0_: # @_Z11getOptionalIdET_RKN8nlohmann10basic_jsonISt3mapSt6vectorNSt7__cxx1112basic_stringIcSt11char_traitsIcESaIcEEEblmdSaNS1_14adl_serializerEEESA_S0_
	.cfi_startproc
# %bb.0:                                # %entry
	addi	sp, sp, -128
	.cfi_def_cfa_offset 128
	sd	ra, 120(sp)
	sd	s0, 112(sp)
	sd	s1, 104(sp)
	sd	s2, 96(sp)
	sd	s3, 88(sp)
	.cfi_offset ra, -8
	.cfi_offset s0, -16
	.cfi_offset s1, -24
	.cfi_offset s2, -32
	.cfi_offset s3, -40
	addi	s0, sp, 128
	.cfi_def_cfa s0, 0
	mv	s3, a1
	fmv.d.x	ft0, a2
	sd	a0, -48(s0)
	sd	a2, -56(s0)
	fld	ft0, -56(s0)
	fsd	ft0, -64(s0)
	ld	a1, -48(s0)
	addi	s2, s0, -96
	mv	a0, s2
	mv	a2, s3
	call	_ZNK8nlohmann10basic_jsonISt3mapSt6vectorNSt7__cxx1112basic_stringIcSt11char_traitsIcESaIcEEEblmdSaNS_14adl_serializerEE4findIRS8_EENS_6detail9iter_implIKSA_EEOT_
	ld	a1, -48(s0)
	addi	s1, s0, -128
	mv	a0, s1
	call	_ZNK8nlohmann10basic_jsonISt3mapSt6vectorNSt7__cxx1112basic_stringIcSt11char_traitsIcESaIcEEEblmdSaNS_14adl_serializerEE3endEv
	mv	a0, s2
	mv	a1, s1
	call	_ZNK8nlohmann6detail9iter_implIKNS_10basic_jsonISt3mapSt6vectorNSt7__cxx1112basic_stringIcSt11char_traitsIcESaIcEEEblmdSaNS_14adl_serializerEEEEneERKSE_
	beqz	a0, .LBB30_2
	j	.LBB30_1
.LBB30_1:                               # %if.then
	ld	a0, -48(s0)
	mv	a1, s3
	call	_ZNK8nlohmann10basic_jsonISt3mapSt6vectorNSt7__cxx1112basic_stringIcSt11char_traitsIcESaIcEEEblmdSaNS_14adl_serializerEE2atERKS8_
	call	_ZNK8nlohmann10basic_jsonISt3mapSt6vectorNSt7__cxx1112basic_stringIcSt11char_traitsIcESaIcEEEblmdSaNS_14adl_serializerEE3getIddLi0EEET0_v
	sd	a0, -64(s0)
	j	.LBB30_2
.LBB30_2:                               # %if.end
	ld	a0, -64(s0)
	ld	s3, 88(sp)
	ld	s2, 96(sp)
	ld	s1, 104(sp)
	ld	s0, 112(sp)
	.cfi_def_cfa sp, 128
	ld	ra, 120(sp)
	.cfi_restore ra
	.cfi_restore s0
	.cfi_restore s1
	.cfi_restore s2
	.cfi_restore s3
	addi	sp, sp, 128
	.cfi_def_cfa_offset 0
	ret
.Lfunc_end30:
	.size	_Z11getOptionalIdET_RKN8nlohmann10basic_jsonISt3mapSt6vectorNSt7__cxx1112basic_stringIcSt11char_traitsIcESaIcEEEblmdSaNS1_14adl_serializerEEESA_S0_, .Lfunc_end30-_Z11getOptionalIdET_RKN8nlohmann10basic_jsonISt3mapSt6vectorNSt7__cxx1112basic_stringIcSt11char_traitsIcESaIcEEEblmdSaNS1_14adl_serializerEEESA_S0_
	.cfi_endproc
                                        # -- End function
	.section	.text._ZNK8nlohmann10basic_jsonISt3mapSt6vectorNSt7__cxx1112basic_stringIcSt11char_traitsIcESaIcEEEblmdSaNS_14adl_serializerEE4findIRA8_KcEENS_6detail9iter_implIKSA_EEOT_,"axG",@progbits,_ZNK8nlohmann10basic_jsonISt3mapSt6vectorNSt7__cxx1112basic_stringIcSt11char_traitsIcESaIcEEEblmdSaNS_14adl_serializerEE4findIRA8_KcEENS_6detail9iter_implIKSA_EEOT_,comdat
	.weak	_ZNK8nlohmann10basic_jsonISt3mapSt6vectorNSt7__cxx1112basic_stringIcSt11char_traitsIcESaIcEEEblmdSaNS_14adl_serializerEE4findIRA8_KcEENS_6detail9iter_implIKSA_EEOT_ # -- Begin function _ZNK8nlohmann10basic_jsonISt3mapSt6vectorNSt7__cxx1112basic_stringIcSt11char_traitsIcESaIcEEEblmdSaNS_14adl_serializerEE4findIRA8_KcEENS_6detail9iter_implIKSA_EEOT_
	.p2align	2
	.type	_ZNK8nlohmann10basic_jsonISt3mapSt6vectorNSt7__cxx1112basic_stringIcSt11char_traitsIcESaIcEEEblmdSaNS_14adl_serializerEE4findIRA8_KcEENS_6detail9iter_implIKSA_EEOT_,@function
_ZNK8nlohmann10basic_jsonISt3mapSt6vectorNSt7__cxx1112basic_stringIcSt11char_traitsIcESaIcEEEblmdSaNS_14adl_serializerEE4findIRA8_KcEENS_6detail9iter_implIKSA_EEOT_: # @_ZNK8nlohmann10basic_jsonISt3mapSt6vectorNSt7__cxx1112basic_stringIcSt11char_traitsIcESaIcEEEblmdSaNS_14adl_serializerEE4findIRA8_KcEENS_6detail9iter_implIKSA_EEOT_
	.cfi_startproc
# %bb.0:                                # %entry
	addi	sp, sp, -64
	.cfi_def_cfa_offset 64
	sd	ra, 56(sp)
	sd	s0, 48(sp)
	sd	s1, 40(sp)
	sd	s2, 32(sp)
	.cfi_offset ra, -8
	.cfi_offset s0, -16
	.cfi_offset s1, -24
	.cfi_offset s2, -32
	addi	s0, sp, 64
	.cfi_def_cfa s0, 0
	mv	s2, a0
	sd	s2, -40(s0)
	sd	a1, -48(s0)
	sd	a2, -56(s0)
	ld	s1, -48(s0)
	mv	a0, s2
	mv	a1, s1
	call	_ZNK8nlohmann10basic_jsonISt3mapSt6vectorNSt7__cxx1112basic_stringIcSt11char_traitsIcESaIcEEEblmdSaNS_14adl_serializerEE4cendEv
	mv	a0, s1
	call	_ZNK8nlohmann10basic_jsonISt3mapSt6vectorNSt7__cxx1112basic_stringIcSt11char_traitsIcESaIcEEEblmdSaNS_14adl_serializerEE9is_objectEv
	beqz	a0, .LBB31_2
	j	.LBB31_1
.LBB31_1:                               # %if.then
	ld	s1, 8(s1)
	ld	a0, -56(s0)
	call	_ZSt7forwardIRA8_KcEOT_RNSt16remove_referenceIS3_E4typeE
	mv	a1, a0
	mv	a0, s1
	call	_ZNSt3mapINSt7__cxx1112basic_stringIcSt11char_traitsIcESaIcEEEN8nlohmann10basic_jsonIS_St6vectorS5_blmdSaNS6_14adl_serializerEEESt4lessIvESaISt4pairIKS5_SA_EEE4findIA8_cEEDTcldtdtdefpT4_M_t10_M_find_trfp_EERKT_
	sd	a0, -64(s0)
	ld	a0, -64(s0)
	sd	a0, 8(s2)
	j	.LBB31_2
.LBB31_2:                               # %if.end
	ld	s2, 32(sp)
	ld	s1, 40(sp)
	ld	s0, 48(sp)
	.cfi_def_cfa sp, 64
	ld	ra, 56(sp)
	.cfi_restore ra
	.cfi_restore s0
	.cfi_restore s1
	.cfi_restore s2
	addi	sp, sp, 64
	.cfi_def_cfa_offset 0
	ret
.Lfunc_end31:
	.size	_ZNK8nlohmann10basic_jsonISt3mapSt6vectorNSt7__cxx1112basic_stringIcSt11char_traitsIcESaIcEEEblmdSaNS_14adl_serializerEE4findIRA8_KcEENS_6detail9iter_implIKSA_EEOT_, .Lfunc_end31-_ZNK8nlohmann10basic_jsonISt3mapSt6vectorNSt7__cxx1112basic_stringIcSt11char_traitsIcESaIcEEEblmdSaNS_14adl_serializerEE4findIRA8_KcEENS_6detail9iter_implIKSA_EEOT_
	.cfi_endproc
                                        # -- End function
	.section	.sdata,"aw",@progbits
	.p2align	3               # -- Begin function _ZN6Camera6lookAtERKN3glm3vecILi3EdLNS0_9qualifierE0EEE
.LCPI32_0:
	.quad	4472406533629990549     # double 1.0000000000000001E-9
	.text
	.globl	_ZN6Camera6lookAtERKN3glm3vecILi3EdLNS0_9qualifierE0EEE
	.p2align	2
	.type	_ZN6Camera6lookAtERKN3glm3vecILi3EdLNS0_9qualifierE0EEE,@function
_ZN6Camera6lookAtERKN3glm3vecILi3EdLNS0_9qualifierE0EEE: # @_ZN6Camera6lookAtERKN3glm3vecILi3EdLNS0_9qualifierE0EEE
	.cfi_startproc
# %bb.0:                                # %entry
	addi	sp, sp, -224
	.cfi_def_cfa_offset 224
	sd	ra, 216(sp)
	sd	s0, 208(sp)
	sd	s1, 200(sp)
	sd	s2, 192(sp)
	sd	s3, 184(sp)
	.cfi_offset ra, -8
	.cfi_offset s0, -16
	.cfi_offset s1, -24
	.cfi_offset s2, -32
	.cfi_offset s3, -40
	addi	s0, sp, 224
	.cfi_def_cfa s0, 0
	sd	a0, -48(s0)
	sd	a1, -56(s0)
	ld	s1, -48(s0)
	ld	a1, -56(s0)
	addi	a2, s1, 16
	addi	s2, s0, -104
	mv	a0, s2
	call	_ZN3glmmiIdLNS_9qualifierE0EEENS_3vecILi3ET_XT0_EEERKS4_S6_
	addi	a0, s0, -80
	mv	a1, s2
	call	_ZN3glm9normalizeILi3EdLNS_9qualifierE0EEENS_3vecIXT_ET0_XT1_EEERKS4_
	addi	s3, s1, 40
	ld	a0, -64(s0)
	sd	a0, 56(s1)
	ld	a0, -72(s0)
	sd	a0, 48(s1)
	ld	a0, -80(s0)
	sd	a0, 40(s1)
	addi	a0, zero, 1023
	slli	a2, a0, 52
	addi	s2, s0, -152
	mv	a0, s2
	mv	a1, zero
	mv	a3, zero
	call	_ZN3glm3vecILi3EdLNS_9qualifierE0EEC2Eddd
	addi	a0, s0, -128
	mv	a1, s2
	mv	a2, s3
	call	_ZN3glm5crossIdLNS_9qualifierE0EEENS_3vecILi3ET_XT0_EEERKS4_S6_
	addi	a0, s1, 64
	ld	a1, -112(s0)
	sd	a1, 80(s1)
	ld	a1, -120(s0)
	sd	a1, 72(s1)
	ld	a1, -128(s0)
	sd	a1, 64(s1)
	call	_ZN3glm6lengthILi3EdLNS_9qualifierE0EEET0_RKNS_3vecIXT_ES2_XT1_EEE
	fmv.d.x	ft0, a0
	lui	a0, %hi(.LCPI32_0)
	addi	a0, a0, %lo(.LCPI32_0)
	fld	ft1, 0(a0)
	flt.d	a0, ft0, ft1
	xori	a0, a0, 1
	bnez	a0, .LBB32_2
	j	.LBB32_1
.LBB32_1:                               # %cond.true
	addi	a0, zero, -1025
	slli	a1, a0, 52
	addi	a0, s0, -176
	mv	a2, zero
	mv	a3, zero
	call	_ZN3glm3vecILi3EdLNS_9qualifierE0EEC2Eddd
	j	.LBB32_3
.LBB32_2:                               # %cond.false
	addi	a1, s1, 64
	addi	a0, s0, -176
	call	_ZN3glm9normalizeILi3EdLNS_9qualifierE0EEENS_3vecIXT_ET0_XT1_EEERKS4_
	j	.LBB32_3
.LBB32_3:                               # %cond.end
	addi	a2, s1, 64
	ld	a0, -160(s0)
	sd	a0, 80(s1)
	ld	a0, -168(s0)
	sd	a0, 72(s1)
	ld	a0, -176(s0)
	sd	a0, 64(s1)
	addi	a1, s1, 40
	addi	s2, s0, -224
	mv	a0, s2
	call	_ZN3glm5crossIdLNS_9qualifierE0EEENS_3vecILi3ET_XT0_EEERKS4_S6_
	addi	a0, s0, -200
	mv	a1, s2
	call	_ZN3glm9normalizeILi3EdLNS_9qualifierE0EEENS_3vecIXT_ET0_XT1_EEERKS4_
	ld	a0, -184(s0)
	sd	a0, 104(s1)
	ld	a0, -192(s0)
	sd	a0, 96(s1)
	ld	a0, -200(s0)
	sd	a0, 88(s1)
	ld	s3, 184(sp)
	ld	s2, 192(sp)
	ld	s1, 200(sp)
	ld	s0, 208(sp)
	.cfi_def_cfa sp, 224
	ld	ra, 216(sp)
	.cfi_restore ra
	.cfi_restore s0
	.cfi_restore s1
	.cfi_restore s2
	.cfi_restore s3
	addi	sp, sp, 224
	.cfi_def_cfa_offset 0
	ret
.Lfunc_end32:
	.size	_ZN6Camera6lookAtERKN3glm3vecILi3EdLNS0_9qualifierE0EEE, .Lfunc_end32-_ZN6Camera6lookAtERKN3glm3vecILi3EdLNS0_9qualifierE0EEE
	.cfi_endproc
                                        # -- End function
	.section	.text._ZN3glm8distanceILi3EdLNS_9qualifierE0EEET0_RKNS_3vecIXT_ES2_XT1_EEES6_,"axG",@progbits,_ZN3glm8distanceILi3EdLNS_9qualifierE0EEET0_RKNS_3vecIXT_ES2_XT1_EEES6_,comdat
	.weak	_ZN3glm8distanceILi3EdLNS_9qualifierE0EEET0_RKNS_3vecIXT_ES2_XT1_EEES6_ # -- Begin function _ZN3glm8distanceILi3EdLNS_9qualifierE0EEET0_RKNS_3vecIXT_ES2_XT1_EEES6_
	.p2align	2
	.type	_ZN3glm8distanceILi3EdLNS_9qualifierE0EEET0_RKNS_3vecIXT_ES2_XT1_EEES6_,@function
_ZN3glm8distanceILi3EdLNS_9qualifierE0EEET0_RKNS_3vecIXT_ES2_XT1_EEES6_: # @_ZN3glm8distanceILi3EdLNS_9qualifierE0EEET0_RKNS_3vecIXT_ES2_XT1_EEES6_
	.cfi_startproc
# %bb.0:                                # %entry
	addi	sp, sp, -32
	.cfi_def_cfa_offset 32
	sd	ra, 24(sp)
	sd	s0, 16(sp)
	.cfi_offset ra, -8
	.cfi_offset s0, -16
	addi	s0, sp, 32
	.cfi_def_cfa s0, 0
	sd	a0, -24(s0)
	sd	a1, -32(s0)
	ld	a0, -24(s0)
	ld	a1, -32(s0)
	call	_ZN3glm6detail16compute_distanceILi3EdLNS_9qualifierE0ELb0EE4callERKNS_3vecILi3EdLS2_0EEES7_
	ld	s0, 16(sp)
	.cfi_def_cfa sp, 32
	ld	ra, 24(sp)
	.cfi_restore ra
	.cfi_restore s0
	addi	sp, sp, 32
	.cfi_def_cfa_offset 0
	ret
.Lfunc_end33:
	.size	_ZN3glm8distanceILi3EdLNS_9qualifierE0EEET0_RKNS_3vecIXT_ES2_XT1_EEES6_, .Lfunc_end33-_ZN3glm8distanceILi3EdLNS_9qualifierE0EEET0_RKNS_3vecIXT_ES2_XT1_EEES6_
	.cfi_endproc
                                        # -- End function
	.section	.text._ZN3glm9normalizeILi3EdLNS_9qualifierE0EEENS_3vecIXT_ET0_XT1_EEERKS4_,"axG",@progbits,_ZN3glm9normalizeILi3EdLNS_9qualifierE0EEENS_3vecIXT_ET0_XT1_EEERKS4_,comdat
	.weak	_ZN3glm9normalizeILi3EdLNS_9qualifierE0EEENS_3vecIXT_ET0_XT1_EEERKS4_ # -- Begin function _ZN3glm9normalizeILi3EdLNS_9qualifierE0EEENS_3vecIXT_ET0_XT1_EEERKS4_
	.p2align	2
	.type	_ZN3glm9normalizeILi3EdLNS_9qualifierE0EEENS_3vecIXT_ET0_XT1_EEERKS4_,@function
_ZN3glm9normalizeILi3EdLNS_9qualifierE0EEENS_3vecIXT_ET0_XT1_EEERKS4_: # @_ZN3glm9normalizeILi3EdLNS_9qualifierE0EEENS_3vecIXT_ET0_XT1_EEERKS4_
	.cfi_startproc
# %bb.0:                                # %entry
	addi	sp, sp, -32
	.cfi_def_cfa_offset 32
	sd	ra, 24(sp)
	sd	s0, 16(sp)
	.cfi_offset ra, -8
	.cfi_offset s0, -16
	addi	s0, sp, 32
	.cfi_def_cfa s0, 0
	sd	a0, -24(s0)
	sd	a1, -32(s0)
	ld	a1, -32(s0)
	call	_ZN3glm6detail17compute_normalizeILi3EdLNS_9qualifierE0ELb0EE4callERKNS_3vecILi3EdLS2_0EEE
	ld	s0, 16(sp)
	.cfi_def_cfa sp, 32
	ld	ra, 24(sp)
	.cfi_restore ra
	.cfi_restore s0
	addi	sp, sp, 32
	.cfi_def_cfa_offset 0
	ret
.Lfunc_end34:
	.size	_ZN3glm9normalizeILi3EdLNS_9qualifierE0EEENS_3vecIXT_ET0_XT1_EEERKS4_, .Lfunc_end34-_ZN3glm9normalizeILi3EdLNS_9qualifierE0EEENS_3vecIXT_ET0_XT1_EEERKS4_
	.cfi_endproc
                                        # -- End function
	.section	.text._ZNK8nlohmann10basic_jsonISt3mapSt6vectorNSt7__cxx1112basic_stringIcSt11char_traitsIcESaIcEEEblmdSaNS_14adl_serializerEE3getIN3glm3vecILi3EdLNSC_9qualifierE0EEESF_Li0EEET0_v,"axG",@progbits,_ZNK8nlohmann10basic_jsonISt3mapSt6vectorNSt7__cxx1112basic_stringIcSt11char_traitsIcESaIcEEEblmdSaNS_14adl_serializerEE3getIN3glm3vecILi3EdLNSC_9qualifierE0EEESF_Li0EEET0_v,comdat
	.weak	_ZNK8nlohmann10basic_jsonISt3mapSt6vectorNSt7__cxx1112basic_stringIcSt11char_traitsIcESaIcEEEblmdSaNS_14adl_serializerEE3getIN3glm3vecILi3EdLNSC_9qualifierE0EEESF_Li0EEET0_v # -- Begin function _ZNK8nlohmann10basic_jsonISt3mapSt6vectorNSt7__cxx1112basic_stringIcSt11char_traitsIcESaIcEEEblmdSaNS_14adl_serializerEE3getIN3glm3vecILi3EdLNSC_9qualifierE0EEESF_Li0EEET0_v
	.p2align	2
	.type	_ZNK8nlohmann10basic_jsonISt3mapSt6vectorNSt7__cxx1112basic_stringIcSt11char_traitsIcESaIcEEEblmdSaNS_14adl_serializerEE3getIN3glm3vecILi3EdLNSC_9qualifierE0EEESF_Li0EEET0_v,@function
_ZNK8nlohmann10basic_jsonISt3mapSt6vectorNSt7__cxx1112basic_stringIcSt11char_traitsIcESaIcEEEblmdSaNS_14adl_serializerEE3getIN3glm3vecILi3EdLNSC_9qualifierE0EEESF_Li0EEET0_v: # @_ZNK8nlohmann10basic_jsonISt3mapSt6vectorNSt7__cxx1112basic_stringIcSt11char_traitsIcESaIcEEEblmdSaNS_14adl_serializerEE3getIN3glm3vecILi3EdLNSC_9qualifierE0EEESF_Li0EEET0_v
	.cfi_startproc
# %bb.0:                                # %entry
	addi	sp, sp, -32
	.cfi_def_cfa_offset 32
	sd	ra, 24(sp)
	sd	s0, 16(sp)
	.cfi_offset ra, -8
	.cfi_offset s0, -16
	addi	s0, sp, 32
	.cfi_def_cfa s0, 0
	mv	a2, a0
	sd	a2, -24(s0)
	sd	a1, -32(s0)
	ld	a0, -32(s0)
	mv	a1, a2
	call	_ZN8nlohmann14adl_serializerIN3glm3vecILi3EdLNS1_9qualifierE0EEEvE9from_jsonIRKNS_10basic_jsonISt3mapSt6vectorNSt7__cxx1112basic_stringIcSt11char_traitsIcESaIcEEEblmdSaS0_EES4_EEDTcmclL_ZNS_12_GLOBAL__N_19from_jsonEEclsr3stdE7forwardIT_Efp_Efp0_Ecvv_EEOSK_RT0_
	ld	s0, 16(sp)
	.cfi_def_cfa sp, 32
	ld	ra, 24(sp)
	.cfi_restore ra
	.cfi_restore s0
	addi	sp, sp, 32
	.cfi_def_cfa_offset 0
	ret
.Lfunc_end35:
	.size	_ZNK8nlohmann10basic_jsonISt3mapSt6vectorNSt7__cxx1112basic_stringIcSt11char_traitsIcESaIcEEEblmdSaNS_14adl_serializerEE3getIN3glm3vecILi3EdLNSC_9qualifierE0EEESF_Li0EEET0_v, .Lfunc_end35-_ZNK8nlohmann10basic_jsonISt3mapSt6vectorNSt7__cxx1112basic_stringIcSt11char_traitsIcESaIcEEEblmdSaNS_14adl_serializerEE3getIN3glm3vecILi3EdLNSC_9qualifierE0EEESF_Li0EEET0_v
	.cfi_endproc
                                        # -- End function
	.section	.text._ZN3glm5crossIdLNS_9qualifierE0EEENS_3vecILi3ET_XT0_EEERKS4_S6_,"axG",@progbits,_ZN3glm5crossIdLNS_9qualifierE0EEENS_3vecILi3ET_XT0_EEERKS4_S6_,comdat
	.weak	_ZN3glm5crossIdLNS_9qualifierE0EEENS_3vecILi3ET_XT0_EEERKS4_S6_ # -- Begin function _ZN3glm5crossIdLNS_9qualifierE0EEENS_3vecILi3ET_XT0_EEERKS4_S6_
	.p2align	2
	.type	_ZN3glm5crossIdLNS_9qualifierE0EEENS_3vecILi3ET_XT0_EEERKS4_S6_,@function
_ZN3glm5crossIdLNS_9qualifierE0EEENS_3vecILi3ET_XT0_EEERKS4_S6_: # @_ZN3glm5crossIdLNS_9qualifierE0EEENS_3vecILi3ET_XT0_EEERKS4_S6_
	.cfi_startproc
# %bb.0:                                # %entry
	addi	sp, sp, -48
	.cfi_def_cfa_offset 48
	sd	ra, 40(sp)
	sd	s0, 32(sp)
	.cfi_offset ra, -8
	.cfi_offset s0, -16
	addi	s0, sp, 48
	.cfi_def_cfa s0, 0
	sd	a0, -24(s0)
	sd	a1, -32(s0)
	sd	a2, -40(s0)
	ld	a1, -32(s0)
	ld	a2, -40(s0)
	call	_ZN3glm6detail13compute_crossIdLNS_9qualifierE0ELb0EE4callERKNS_3vecILi3EdLS2_0EEES7_
	ld	s0, 32(sp)
	.cfi_def_cfa sp, 48
	ld	ra, 40(sp)
	.cfi_restore ra
	.cfi_restore s0
	addi	sp, sp, 48
	.cfi_def_cfa_offset 0
	ret
.Lfunc_end36:
	.size	_ZN3glm5crossIdLNS_9qualifierE0EEENS_3vecILi3ET_XT0_EEERKS4_S6_, .Lfunc_end36-_ZN3glm5crossIdLNS_9qualifierE0EEENS_3vecILi3ET_XT0_EEERKS4_S6_
	.cfi_endproc
                                        # -- End function
	.section	.text._ZNSt5dequeIdSaIdEED2Ev,"axG",@progbits,_ZNSt5dequeIdSaIdEED2Ev,comdat
	.weak	_ZNSt5dequeIdSaIdEED2Ev # -- Begin function _ZNSt5dequeIdSaIdEED2Ev
	.p2align	2
	.type	_ZNSt5dequeIdSaIdEED2Ev,@function
_ZNSt5dequeIdSaIdEED2Ev:                # @_ZNSt5dequeIdSaIdEED2Ev
.Lfunc_begin8:
	.cfi_startproc
	.cfi_personality 155, DW.ref.__gxx_personality_v0
	.cfi_lsda 27, .Lexception8
# %bb.0:                                # %entry
	addi	sp, sp, -128
	.cfi_def_cfa_offset 128
	sd	ra, 120(sp)
	sd	s0, 112(sp)
	sd	s1, 104(sp)
	sd	s2, 96(sp)
	sd	s3, 88(sp)
	.cfi_offset ra, -8
	.cfi_offset s0, -16
	.cfi_offset s1, -24
	.cfi_offset s2, -32
	.cfi_offset s3, -40
	addi	s0, sp, 128
	.cfi_def_cfa s0, 0
	sd	a0, -48(s0)
	ld	s1, -48(s0)
	addi	s2, s0, -80
	mv	a0, s2
	mv	a1, s1
	call	_ZNSt5dequeIdSaIdEE5beginEv
	addi	s3, s0, -112
	mv	a0, s3
	mv	a1, s1
	call	_ZNSt5dequeIdSaIdEE3endEv
	mv	a0, s1
	call	_ZNSt11_Deque_baseIdSaIdEE19_M_get_Tp_allocatorEv
	mv	a3, a0
.Ltmp240:
	mv	a0, s1
	mv	a1, s2
	mv	a2, s3
	call	_ZNSt5dequeIdSaIdEE15_M_destroy_dataESt15_Deque_iteratorIdRdPdES5_RKS0_
.Ltmp241:
	j	.LBB37_1
.LBB37_1:                               # %invoke.cont
	mv	a0, s1
	call	_ZNSt11_Deque_baseIdSaIdEED2Ev
	ld	s3, 88(sp)
	ld	s2, 96(sp)
	ld	s1, 104(sp)
	ld	s0, 112(sp)
	.cfi_def_cfa sp, 128
	ld	ra, 120(sp)
	.cfi_restore ra
	.cfi_restore s0
	.cfi_restore s1
	.cfi_restore s2
	.cfi_restore s3
	addi	sp, sp, 128
	.cfi_def_cfa_offset 0
	ret
.LBB37_2:                               # %lpad
.Ltmp242:
	sd	a0, -120(s0)
	sw	a1, -124(s0)
	mv	a0, s1
	call	_ZNSt11_Deque_baseIdSaIdEED2Ev
	j	.LBB37_3
.LBB37_3:                               # %terminate.handler
	ld	a0, -120(s0)
	call	__clang_call_terminate
.Lfunc_end37:
	.size	_ZNSt5dequeIdSaIdEED2Ev, .Lfunc_end37-_ZNSt5dequeIdSaIdEED2Ev
	.cfi_endproc
	.section	.gcc_except_table,"a",@progbits
	.p2align	2
GCC_except_table37:
.Lexception8:
	.byte	255                     # @LPStart Encoding = omit
	.byte	155                     # @TType Encoding = indirect pcrel sdata4
	.uleb128 .Lttbase2-.Lttbaseref2
.Lttbaseref2:
	.byte	3                       # Call site Encoding = udata4
	.uleb128 .Lcst_end8-.Lcst_begin8
.Lcst_begin8:
	.word	.Ltmp240-.Lfunc_begin8  # >> Call Site 1 <<
	.word	.Ltmp241-.Ltmp240       #   Call between .Ltmp240 and .Ltmp241
	.word	.Ltmp242-.Lfunc_begin8  #     jumps to .Ltmp242
	.byte	1                       #   On action: 1
.Lcst_end8:
	.byte	1                       # >> Action Record 1 <<
                                        #   Catch TypeInfo 1
	.byte	0                       #   No further actions
	.p2align	2
                                        # >> Catch TypeInfos <<
	.word	0                       # TypeInfo 1
.Lttbase2:
	.p2align	2
                                        # -- End function
	.section	.text._ZNSt10shared_ptrI10IntegratorED2Ev,"axG",@progbits,_ZNSt10shared_ptrI10IntegratorED2Ev,comdat
	.weak	_ZNSt10shared_ptrI10IntegratorED2Ev # -- Begin function _ZNSt10shared_ptrI10IntegratorED2Ev
	.p2align	2
	.type	_ZNSt10shared_ptrI10IntegratorED2Ev,@function
_ZNSt10shared_ptrI10IntegratorED2Ev:    # @_ZNSt10shared_ptrI10IntegratorED2Ev
# %bb.0:                                # %entry
	addi	sp, sp, -32
	sd	ra, 24(sp)
	sd	s0, 16(sp)
	addi	s0, sp, 32
	sd	a0, -24(s0)
	ld	a0, -24(s0)
	call	_ZNSt12__shared_ptrI10IntegratorLN9__gnu_cxx12_Lock_policyE0EED2Ev
	ld	s0, 16(sp)
	ld	ra, 24(sp)
	addi	sp, sp, 32
	ret
.Lfunc_end38:
	.size	_ZNSt10shared_ptrI10IntegratorED2Ev, .Lfunc_end38-_ZNSt10shared_ptrI10IntegratorED2Ev
                                        # -- End function
	.text
	.globl	_ZN6Camera11samplePixelEmmi # -- Begin function _ZN6Camera11samplePixelEmmi
	.p2align	2
	.type	_ZN6Camera11samplePixelEmmi,@function
_ZN6Camera11samplePixelEmmi:            # @_ZN6Camera11samplePixelEmmi
	.cfi_startproc
# %bb.0:                                # %entry
	addi	sp, sp, -1104
	.cfi_def_cfa_offset 1104
	sd	ra, 1096(sp)
	sd	s0, 1088(sp)
	sd	s1, 1080(sp)
	sd	s2, 1072(sp)
	sd	s3, 1064(sp)
	sd	s4, 1056(sp)
	sd	s5, 1048(sp)
	sd	s6, 1040(sp)
	.cfi_offset ra, -8
	.cfi_offset s0, -16
	.cfi_offset s1, -24
	.cfi_offset s2, -32
	.cfi_offset s3, -40
	.cfi_offset s4, -48
	.cfi_offset s5, -56
	.cfi_offset s6, -64
	addi	s0, sp, 1104
	.cfi_def_cfa s0, 0
	sd	a0, -80(s0)
	sd	a1, -88(s0)
	sd	a2, -96(s0)
	sw	a3, -100(s0)
	ld	s6, -80(s0)
	fld	ft0, 120(s6)
	ld	a0, 144(s6)
	fcvt.d.lu	ft1, a0
	fdiv.d	ft0, ft0, ft1
	fsd	ft0, -112(s0)
	ld	a1, 144(s6)
	ld	a2, 152(s6)
	addi	s1, s0, -144
	mv	a0, s1
	call	_ZN3glm3vecILi2EdLNS_9qualifierE0EEC2ImmEET_T0_
	addi	a0, zero, 511
	slli	a1, a0, 53
	mv	a0, s1
	call	_ZN3glmmlIdLNS_9qualifierE0EEENS_3vecILi2ET_XT0_EEERKS4_S3_
	sd	a1, -120(s0)
	sd	a0, -128(s0)
	ld	a0, -96(s0)
	ld	a1, 144(s6)
	mul	a0, a0, a1
	ld	a1, -88(s0)
	addw	a0, a0, a1
	call	_ZN7Sampler8initiateEj
	lw	a0, -100(s0)
	bnez	a0, .LBB39_2
	j	.LBB39_1
.LBB39_1:                               # %if.then
	sw	zero, -148(s0)
	ld	a0, 0(s6)
	sw	a0, -152(s0)
	j	.LBB39_6
.LBB39_2:                               # %if.else
	lw	a0, -100(s0)
	addi	a1, zero, 1
	bne	a0, a1, .LBB39_4
	j	.LBB39_3
.LBB39_3:                               # %if.then10
	ld	a0, 0(s6)
	sw	a0, -148(s0)
	ld	a0, 0(s6)
	ld	a1, 8(s6)
	add	a0, a0, a1
	addi	a0, a0, -1
	sw	a0, -152(s0)
	j	.LBB39_5
.LBB39_4:                               # %if.else16
	ld	a0, 0(s6)
	ld	a1, 8(s6)
	add	a0, a0, a1
	addi	a0, a0, -1
	sw	a0, -148(s0)
	ld	a0, 0(s6)
	ld	a1, 8(s6)
	add	a0, a0, a1
	sw	a0, -152(s0)
	j	.LBB39_5
.LBB39_5:                               # %if.end
	j	.LBB39_6
.LBB39_6:                               # %if.end26
	lw	a0, -148(s0)
	sw	a0, -156(s0)
	j	.LBB39_7
.LBB39_7:                               # %for.cond
                                        # =>This Inner Loop Header: Depth=1
	lw	a0, -156(s0)
	lw	a1, -152(s0)
	bge	a0, a1, .LBB39_20
	j	.LBB39_8
.LBB39_8:                               # %for.body
                                        #   in Loop: Header=BB39_7 Depth=1
	lw	a0, -156(s0)
	call	_ZN7Sampler8setIndexEj
	call	_ZN7Sampler3getILi0ELi2EEEDav
	sd	a1, -168(s0)
	sd	a0, -176(s0)
	ld	a0, -88(s0)
	fcvt.d.lu	ft0, a0
	fsd	ft0, -1096(s0)
	addi	s1, s0, -176
	mv	a0, s1
	mv	a1, zero
	call	_ZNSt5arrayIdLm2EEixEm
	fld	ft0, 0(a0)
	fld	ft1, -1096(s0)
	fadd.d	ft0, ft1, ft0
	fsd	ft0, -1080(s0)
	ld	a0, -96(s0)
	fcvt.d.lu	ft0, a0
	fsd	ft0, -1104(s0)
	mv	a0, s1
	addi	a1, zero, 1
	call	_ZNSt5arrayIdLm2EEixEm
	fld	ft0, 0(a0)
	fld	ft1, -1104(s0)
	fadd.d	ft0, ft1, ft0
	fld	ft1, -1080(s0)
	fmv.x.d	a1, ft1
	fmv.x.d	a2, ft0
	addi	s2, s0, -192
	mv	a0, s2
	call	_ZN3glm3vecILi2EdLNS_9qualifierE0EEC2Edd
	ld	s1, -112(s0)
	addi	a0, s0, -128
	mv	a1, s2
	call	_ZN3glmmiIdLNS_9qualifierE0EEENS_3vecILi2ET_XT0_EEERKS4_S6_
	sd	a1, -216(s0)
	sd	a0, -224(s0)
	addi	a1, s0, -224
	mv	a0, s1
	call	_ZN3glmmlIdLNS_9qualifierE0EEENS_3vecILi2ET_XT0_EEES3_RKS4_
	sd	a1, -200(s0)
	sd	a0, -208(s0)
	addi	a1, s6, 40
	ld	a2, 112(s6)
	addi	s2, s0, -320
	mv	a0, s2
	call	_ZN3glmmlIdLNS_9qualifierE0EEENS_3vecILi3ET_XT0_EEERKS4_S3_
	addi	a1, s6, 64
	ld	a2, -208(s0)
	addi	s1, s0, -344
	mv	a0, s1
	call	_ZN3glmmlIdLNS_9qualifierE0EEENS_3vecILi3ET_XT0_EEERKS4_S3_
	addi	s3, s0, -296
	mv	a0, s3
	mv	a1, s2
	mv	a2, s1
	call	_ZN3glmplIdLNS_9qualifierE0EEENS_3vecILi3ET_XT0_EEERKS4_S6_
	addi	a1, s6, 88
	ld	a2, -200(s0)
	addi	s2, s0, -368
	mv	a0, s2
	call	_ZN3glmmlIdLNS_9qualifierE0EEENS_3vecILi3ET_XT0_EEERKS4_S3_
	addi	s1, s0, -272
	mv	a0, s1
	mv	a1, s3
	mv	a2, s2
	call	_ZN3glmplIdLNS_9qualifierE0EEENS_3vecILi3ET_XT0_EEERKS4_S6_
	addi	s2, s0, -248
	mv	a0, s2
	mv	a1, s1
	call	_ZN3glm9normalizeILi3EdLNS_9qualifierE0EEENS_3vecIXT_ET0_XT1_EEERKS4_
	addi	s1, s6, 16
	addi	a0, s6, 416
	call	_ZNKSt19__shared_ptr_accessI10IntegratorLN9__gnu_cxx12_Lock_policyE0ELb0ELb0EEptEv
	ld	a3, 104(a0)
	addi	a0, s0, -472
	mv	a1, s1
	mv	a2, s2
	call	_ZN3RayC1ERKN3glm3vecILi3EdLNS0_9qualifierE0EEES5_d
	lbu	a0, 368(s6)
	andi	a0, a0, 1
	beqz	a0, .LBB39_10
	j	.LBB39_9
.LBB39_9:                               # %if.then46
                                        #   in Loop: Header=BB39_7 Depth=1
	call	_ZN7Sampler3getILi2ELi2EEEDav
	sd	a1, -480(s0)
	sd	a0, -488(s0)
	addi	s2, s0, -488
	mv	a0, s2
	mv	a1, zero
	call	_ZNSt5arrayIdLm2EEixEm
	ld	s1, 0(a0)
	mv	a0, s2
	addi	a1, zero, 1
	call	_ZNSt5arrayIdLm2EEixEm
	ld	a1, 0(a0)
	mv	a0, s1
	call	_ZN8Sampling11uniformDiskEdd
	sd	a1, -512(s0)
	sd	a0, -520(s0)
	ld	a1, 128(s6)
	addi	a0, s0, -520
	call	_ZN3glmmlIdLNS_9qualifierE0EEENS_3vecILi2ET_XT0_EEERKS4_S3_
	sd	a1, -496(s0)
	sd	a0, -504(s0)
	fld	ft0, 136(s6)
	fsd	ft0, -1088(s0)
	addi	s2, s0, -472
	addi	a0, s2, 24
	addi	a1, s6, 40
	call	_ZN3glm3dotILi3EdLNS_9qualifierE0EEET0_RKNS_3vecIXT_ES2_XT1_EEES6_
	fmv.d.x	ft0, a0
	fld	ft1, -1088(s0)
	fdiv.d	ft0, ft1, ft0
	fmv.x.d	a2, ft0
	addi	s3, s0, -544
	mv	a0, s3
	mv	a1, s2
	call	_ZNK3RayclEd
	addi	s1, s6, 16
	addi	a1, s6, 64
	ld	a2, -504(s0)
	addi	s4, s0, -616
	mv	a0, s4
	call	_ZN3glmmlIdLNS_9qualifierE0EEENS_3vecILi3ET_XT0_EEERKS4_S3_
	addi	s5, s0, -592
	mv	a0, s5
	mv	a1, s1
	mv	a2, s4
	call	_ZN3glmplIdLNS_9qualifierE0EEENS_3vecILi3ET_XT0_EEERKS4_S6_
	addi	a1, s6, 88
	ld	a2, -496(s0)
	addi	s1, s0, -640
	mv	a0, s1
	call	_ZN3glmmlIdLNS_9qualifierE0EEENS_3vecILi3ET_XT0_EEERKS4_S3_
	addi	s4, s0, -568
	mv	a0, s4
	mv	a1, s5
	mv	a2, s1
	call	_ZN3glmplIdLNS_9qualifierE0EEENS_3vecILi3ET_XT0_EEERKS4_S6_
	addi	s1, s0, -792
	mv	a0, s1
	mv	a1, s3
	mv	a2, s4
	call	_ZN3glmmiIdLNS_9qualifierE0EEENS_3vecILi3ET_XT0_EEERKS4_S6_
	addi	s3, s0, -768
	mv	a0, s3
	mv	a1, s1
	call	_ZN3glm9normalizeILi3EdLNS_9qualifierE0EEENS_3vecIXT_ET0_XT1_EEERKS4_
	addi	a0, s6, 416
	call	_ZNKSt19__shared_ptr_accessI10IntegratorLN9__gnu_cxx12_Lock_policyE0ELb0ELb0EEptEv
	ld	a3, 104(a0)
	addi	s1, s0, -744
	mv	a0, s1
	mv	a1, s4
	mv	a2, s3
	call	_ZN3RayC1ERKN3glm3vecILi3EdLNS0_9qualifierE0EEES5_d
	mv	a0, s2
	mv	a1, s1
	addi	a2, zero, 100
	call	memcpy
	j	.LBB39_10
.LBB39_10:                              # %if.end74
                                        #   in Loop: Header=BB39_7 Depth=1
	lw	a0, -100(s0)
	sgtz	s1, a0
	ld	a0, -96(s0)
	ld	a1, 144(s6)
	mul	a0, a0, a1
	ld	a1, -88(s0)
	add	a1, a0, a1
	lui	a0, %hi(no_edge)
	addi	a0, a0, %lo(no_edge)
	call	_ZNSt6vectorIbSaIbEEixEm
	sd	a1, -808(s0)
	sd	a0, -816(s0)
	addi	a0, s0, -816
	call	_ZNKSt14_Bit_referencecvbEv
	and	a0, s1, a0
	sb	a0, -793(s0)
	lbu	a0, -793(s0)
	andi	a0, a0, 1
	beqz	a0, .LBB39_15
	j	.LBB39_11
.LBB39_11:                              # %if.then87
                                        #   in Loop: Header=BB39_7 Depth=1
	.word 0b00000000001000010011000000001011
	j	.LBB39_12
.LBB39_12:                              # %if.then88
                                        #   in Loop: Header=BB39_7 Depth=1
	addi	s2, s6, 248
	addi	a0, s6, 416
	call	_ZNKSt19__shared_ptr_accessI10IntegratorLN9__gnu_cxx12_Lock_policyE0ELb0ELb0EEptEv
	mv	s1, a0
	addi	s3, s0, -944
	addi	a1, s0, -472
	mv	a0, s3
	addi	a2, zero, 104
	call	memcpy
	ld	a0, 0(s1)
	ld	a3, 16(a0)
	addi	s4, s0, -840
	mv	a0, s4
	mv	a1, s1
	mv	a2, s3
	jalr	a3
	addi	a1, s0, -192
	mv	a0, s2
	mv	a2, s4
	call	_ZN4Film7depositERKN3glm3vecILi2EdLNS0_9qualifierE0EEERKNS1_ILi3EdLS2_0EEE
	lui	a0, %hi(cnt_regular)
	lw	a1, %lo(cnt_regular)(a0)
	addi	a1, a1, 1
	sw	a1, %lo(cnt_regular)(a0)
	lui	a0, %hi(cnt_all)
	lw	a1, %lo(cnt_all)(a0)
	addi	a1, a1, 1
	sw	a1, %lo(cnt_all)(a0)
	j	.LBB39_14
.LBB39_13:                              # %if.else93
                                        #   in Loop: Header=BB39_7 Depth=1
	addi	s1, s6, 248
	ld	a0, -96(s0)
	ld	a1, 144(s6)
	mul	a0, a0, a1
	ld	a1, -88(s0)
	add	a1, a0, a1
	lui	a0, %hi(average_window)
	addi	a0, a0, %lo(average_window)
	call	_ZNSt6vectorIN3glm3vecILi3EdLNS0_9qualifierE0EEESaIS3_EEixEm
	mv	a2, a0
	addi	a1, s0, -192
	mv	a0, s1
	call	_ZN4Film7depositERKN3glm3vecILi2EdLNS0_9qualifierE0EEERKNS1_ILi3EdLS2_0EEE
	lui	a0, %hi(cnt_approx)
	lw	a1, %lo(cnt_approx)(a0)
	addi	a1, a1, 1
	sw	a1, %lo(cnt_approx)(a0)
	lui	a0, %hi(cnt_all)
	lw	a1, %lo(cnt_all)(a0)
	addi	a1, a1, 1
	sw	a1, %lo(cnt_all)(a0)
	j	.LBB39_14
.LBB39_14:                              # %if.end102
                                        #   in Loop: Header=BB39_7 Depth=1
	j	.LBB39_16
.LBB39_15:                              # %if.else103
                                        #   in Loop: Header=BB39_7 Depth=1
	addi	s2, s6, 248
	addi	a0, s6, 416
	call	_ZNKSt19__shared_ptr_accessI10IntegratorLN9__gnu_cxx12_Lock_policyE0ELb0ELb0EEptEv
	mv	s1, a0
	addi	s3, s0, -1072
	addi	a1, s0, -472
	mv	a0, s3
	addi	a2, zero, 104
	call	memcpy
	ld	a0, 0(s1)
	ld	a3, 16(a0)
	addi	s4, s0, -968
	mv	a0, s4
	mv	a1, s1
	mv	a2, s3
	jalr	a3
	addi	a1, s0, -192
	mv	a0, s2
	mv	a2, s4
	call	_ZN4Film7depositERKN3glm3vecILi2EdLNS0_9qualifierE0EEERKNS1_ILi3EdLS2_0EEE
	lui	a0, %hi(cnt_regular)
	lw	a1, %lo(cnt_regular)(a0)
	addi	a1, a1, 1
	sw	a1, %lo(cnt_regular)(a0)
	lui	a0, %hi(cnt_all)
	lw	a1, %lo(cnt_all)(a0)
	addi	a1, a1, 1
	sw	a1, %lo(cnt_all)(a0)
	j	.LBB39_16
.LBB39_16:                              # %if.end113
                                        #   in Loop: Header=BB39_7 Depth=1
	lui	a0, %hi(cnt_all)
	lw	a0, %lo(cnt_all)(a0)
	lui	a1, 1042678
	addiw	a1, a1, -983
	slli	a1, a1, 14
	addi	a1, a1, -655
	slli	a1, a1, 12
	addi	a1, a1, -1475
	slli	a1, a1, 12
	addi	a1, a1, 1803
	mulh	a1, a0, a1
	add	a1, a1, a0
	srli	a2, a1, 63
	srli	a1, a1, 6
	add	a1, a1, a2
	addi	a2, zero, 100
	mul	a1, a1, a2
	sub	a0, a0, a1
	slli	a0, a0, 32
	srli	a0, a0, 32
	bnez	a0, .LBB39_18
	j	.LBB39_17
.LBB39_17:                              # %if.then115
                                        #   in Loop: Header=BB39_7 Depth=1
	lui	a0, %hi(cnt_all)
	lw	a1, %lo(cnt_all)(a0)
	lui	a0, %hi(.L.str.17)
	addi	a0, a0, %lo(.L.str.17)
	call	printf
	j	.LBB39_18
.LBB39_18:                              # %if.end117
                                        #   in Loop: Header=BB39_7 Depth=1
	j	.LBB39_19
.LBB39_19:                              # %for.inc
                                        #   in Loop: Header=BB39_7 Depth=1
	lw	a0, -156(s0)
	addi	a0, a0, 1
	sw	a0, -156(s0)
	j	.LBB39_7
.LBB39_20:                              # %for.end
	ld	s6, 1040(sp)
	ld	s5, 1048(sp)
	ld	s4, 1056(sp)
	ld	s3, 1064(sp)
	ld	s2, 1072(sp)
	ld	s1, 1080(sp)
	ld	s0, 1088(sp)
	.cfi_def_cfa sp, 1104
	ld	ra, 1096(sp)
	.cfi_restore ra
	.cfi_restore s0
	.cfi_restore s1
	.cfi_restore s2
	.cfi_restore s3
	.cfi_restore s4
	.cfi_restore s5
	.cfi_restore s6
	addi	sp, sp, 1104
	.cfi_def_cfa_offset 0
	ret
.Lfunc_end39:
	.size	_ZN6Camera11samplePixelEmmi, .Lfunc_end39-_ZN6Camera11samplePixelEmmi
	.cfi_endproc
                                        # -- End function
	.section	.text._ZN3glmmlIdLNS_9qualifierE0EEENS_3vecILi2ET_XT0_EEERKS4_S3_,"axG",@progbits,_ZN3glmmlIdLNS_9qualifierE0EEENS_3vecILi2ET_XT0_EEERKS4_S3_,comdat
	.weak	_ZN3glmmlIdLNS_9qualifierE0EEENS_3vecILi2ET_XT0_EEERKS4_S3_ # -- Begin function _ZN3glmmlIdLNS_9qualifierE0EEENS_3vecILi2ET_XT0_EEERKS4_S3_
	.p2align	2
	.type	_ZN3glmmlIdLNS_9qualifierE0EEENS_3vecILi2ET_XT0_EEERKS4_S3_,@function
_ZN3glmmlIdLNS_9qualifierE0EEENS_3vecILi2ET_XT0_EEERKS4_S3_: # @_ZN3glmmlIdLNS_9qualifierE0EEENS_3vecILi2ET_XT0_EEERKS4_S3_
	.cfi_startproc
# %bb.0:                                # %entry
	addi	sp, sp, -48
	.cfi_def_cfa_offset 48
	sd	ra, 40(sp)
	sd	s0, 32(sp)
	.cfi_offset ra, -8
	.cfi_offset s0, -16
	addi	s0, sp, 48
	.cfi_def_cfa s0, 0
	fmv.d.x	ft0, a1
	sd	a0, -40(s0)
	sd	a1, -48(s0)
	ld	a0, -40(s0)
	fld	ft0, 0(a0)
	fld	ft1, -48(s0)
	fmul.d	ft0, ft0, ft1
	fld	ft2, 8(a0)
	fmul.d	ft1, ft2, ft1
	fmv.x.d	a1, ft0
	fmv.x.d	a2, ft1
	addi	a0, s0, -32
	call	_ZN3glm3vecILi2EdLNS_9qualifierE0EEC2Edd
	ld	a0, -32(s0)
	ld	a1, -24(s0)
	ld	s0, 32(sp)
	.cfi_def_cfa sp, 48
	ld	ra, 40(sp)
	.cfi_restore ra
	.cfi_restore s0
	addi	sp, sp, 48
	.cfi_def_cfa_offset 0
	ret
.Lfunc_end40:
	.size	_ZN3glmmlIdLNS_9qualifierE0EEENS_3vecILi2ET_XT0_EEERKS4_S3_, .Lfunc_end40-_ZN3glmmlIdLNS_9qualifierE0EEENS_3vecILi2ET_XT0_EEERKS4_S3_
	.cfi_endproc
                                        # -- End function
	.section	.text._ZN3glm3vecILi2EdLNS_9qualifierE0EEC2ImmEET_T0_,"axG",@progbits,_ZN3glm3vecILi2EdLNS_9qualifierE0EEC2ImmEET_T0_,comdat
	.weak	_ZN3glm3vecILi2EdLNS_9qualifierE0EEC2ImmEET_T0_ # -- Begin function _ZN3glm3vecILi2EdLNS_9qualifierE0EEC2ImmEET_T0_
	.p2align	2
	.type	_ZN3glm3vecILi2EdLNS_9qualifierE0EEC2ImmEET_T0_,@function
_ZN3glm3vecILi2EdLNS_9qualifierE0EEC2ImmEET_T0_: # @_ZN3glm3vecILi2EdLNS_9qualifierE0EEC2ImmEET_T0_
# %bb.0:                                # %entry
	addi	sp, sp, -48
	sd	ra, 40(sp)
	sd	s0, 32(sp)
	addi	s0, sp, 48
	sd	a0, -24(s0)
	sd	a1, -32(s0)
	sd	a2, -40(s0)
	ld	a0, -24(s0)
	ld	a1, -32(s0)
	fcvt.d.lu	ft0, a1
	fsd	ft0, 0(a0)
	ld	a1, -40(s0)
	fcvt.d.lu	ft0, a1
	fsd	ft0, 8(a0)
	ld	s0, 32(sp)
	ld	ra, 40(sp)
	addi	sp, sp, 48
	ret
.Lfunc_end41:
	.size	_ZN3glm3vecILi2EdLNS_9qualifierE0EEC2ImmEET_T0_, .Lfunc_end41-_ZN3glm3vecILi2EdLNS_9qualifierE0EEC2ImmEET_T0_
                                        # -- End function
	.section	.text._ZN7Sampler8initiateEj,"axG",@progbits,_ZN7Sampler8initiateEj,comdat
	.weak	_ZN7Sampler8initiateEj  # -- Begin function _ZN7Sampler8initiateEj
	.p2align	2
	.type	_ZN7Sampler8initiateEj,@function
_ZN7Sampler8initiateEj:                 # @_ZN7Sampler8initiateEj
	.cfi_startproc
# %bb.0:                                # %entry
	addi	sp, sp, -32
	.cfi_def_cfa_offset 32
	sd	ra, 24(sp)
	sd	s0, 16(sp)
	sd	s1, 8(sp)
	.cfi_offset ra, -8
	.cfi_offset s0, -16
	.cfi_offset s1, -24
	addi	s0, sp, 32
	.cfi_def_cfa s0, 0
	sw	a0, -28(s0)
	lui	a0, %hi(_ZN7Sampler11global_seedE)
	lw	s1, %lo(_ZN7Sampler11global_seedE)(a0)
	lw	a0, -28(s0)
	call	_ZN7Sampler4hashEj
	mv	a1, a0
	mv	a0, s1
	call	_ZN7Sampler11hashCombineEjj
	mv	s1, a0
	call	_ZTWN7Sampler9base_seedE
	sw	s1, 0(a0)
	ld	s1, 8(sp)
	ld	s0, 16(sp)
	.cfi_def_cfa sp, 32
	ld	ra, 24(sp)
	.cfi_restore ra
	.cfi_restore s0
	.cfi_restore s1
	addi	sp, sp, 32
	.cfi_def_cfa_offset 0
	ret
.Lfunc_end42:
	.size	_ZN7Sampler8initiateEj, .Lfunc_end42-_ZN7Sampler8initiateEj
	.cfi_endproc
                                        # -- End function
	.section	.text._ZN7Sampler8setIndexEj,"axG",@progbits,_ZN7Sampler8setIndexEj,comdat
	.weak	_ZN7Sampler8setIndexEj  # -- Begin function _ZN7Sampler8setIndexEj
	.p2align	2
	.type	_ZN7Sampler8setIndexEj,@function
_ZN7Sampler8setIndexEj:                 # @_ZN7Sampler8setIndexEj
	.cfi_startproc
# %bb.0:                                # %entry
	addi	sp, sp, -32
	.cfi_def_cfa_offset 32
	sd	ra, 24(sp)
	sd	s0, 16(sp)
	sd	s1, 8(sp)
	.cfi_offset ra, -8
	.cfi_offset s0, -16
	.cfi_offset s1, -24
	addi	s0, sp, 32
	.cfi_def_cfa s0, 0
	sw	a0, -28(s0)
	call	_ZTWN7Sampler8sequenceE
	sw	zero, 0(a0)
	call	_ZTWN7Sampler9base_seedE
	lw	s1, 0(a0)
	call	_ZTWN7Sampler4seedE
	sw	s1, 0(a0)
	lw	a0, -28(s0)
	call	_ZN5Sobol11reverseBitsEj
	mv	s1, a0
	call	_ZTWN7Sampler18bit_reversed_indexE
	sw	s1, 0(a0)
	lw	s1, -28(s0)
	call	_ZTWN7Sampler14shuffled_indexE
	sw	s1, 0(a0)
	ld	s1, 8(sp)
	ld	s0, 16(sp)
	.cfi_def_cfa sp, 32
	ld	ra, 24(sp)
	.cfi_restore ra
	.cfi_restore s0
	.cfi_restore s1
	addi	sp, sp, 32
	.cfi_def_cfa_offset 0
	ret
.Lfunc_end43:
	.size	_ZN7Sampler8setIndexEj, .Lfunc_end43-_ZN7Sampler8setIndexEj
	.cfi_endproc
                                        # -- End function
	.section	.text._ZN7Sampler3getILi0ELi2EEEDav,"axG",@progbits,_ZN7Sampler3getILi0ELi2EEEDav,comdat
	.weak	_ZN7Sampler3getILi0ELi2EEEDav # -- Begin function _ZN7Sampler3getILi0ELi2EEEDav
	.p2align	2
	.type	_ZN7Sampler3getILi0ELi2EEEDav,@function
_ZN7Sampler3getILi0ELi2EEEDav:          # @_ZN7Sampler3getILi0ELi2EEEDav
	.cfi_startproc
# %bb.0:                                # %entry
	addi	sp, sp, -64
	.cfi_def_cfa_offset 64
	sd	ra, 56(sp)
	sd	s0, 48(sp)
	.cfi_offset ra, -8
	.cfi_offset s0, -16
	addi	s0, sp, 64
	.cfi_def_cfa s0, 0
	addi	a0, s0, -48
	sd	a0, -56(s0)
	addi	a0, s0, -56
	call	_Z12unrolledLoopIiLi2EZN7Sampler3getILi0ELi2EEEDavEUlT_E_EvOT1_
	ld	a0, -40(s0)
	sd	a0, -24(s0)
	ld	a0, -48(s0)
	sd	a0, -32(s0)
	ld	a0, -32(s0)
	ld	a1, -24(s0)
	ld	s0, 48(sp)
	.cfi_def_cfa sp, 64
	ld	ra, 56(sp)
	.cfi_restore ra
	.cfi_restore s0
	addi	sp, sp, 64
	.cfi_def_cfa_offset 0
	ret
.Lfunc_end44:
	.size	_ZN7Sampler3getILi0ELi2EEEDav, .Lfunc_end44-_ZN7Sampler3getILi0ELi2EEEDav
	.cfi_endproc
                                        # -- End function
	.section	.text._ZNSt5arrayIdLm2EEixEm,"axG",@progbits,_ZNSt5arrayIdLm2EEixEm,comdat
	.weak	_ZNSt5arrayIdLm2EEixEm  # -- Begin function _ZNSt5arrayIdLm2EEixEm
	.p2align	2
	.type	_ZNSt5arrayIdLm2EEixEm,@function
_ZNSt5arrayIdLm2EEixEm:                 # @_ZNSt5arrayIdLm2EEixEm
# %bb.0:                                # %entry
	addi	sp, sp, -32
	sd	ra, 24(sp)
	sd	s0, 16(sp)
	addi	s0, sp, 32
	sd	a0, -24(s0)
	sd	a1, -32(s0)
	ld	a0, -24(s0)
	ld	a1, -32(s0)
	call	_ZNSt14__array_traitsIdLm2EE6_S_refERA2_Kdm
	ld	s0, 16(sp)
	ld	ra, 24(sp)
	addi	sp, sp, 32
	ret
.Lfunc_end45:
	.size	_ZNSt5arrayIdLm2EEixEm, .Lfunc_end45-_ZNSt5arrayIdLm2EEixEm
                                        # -- End function
	.section	.text._ZN3glm3vecILi2EdLNS_9qualifierE0EEC2Edd,"axG",@progbits,_ZN3glm3vecILi2EdLNS_9qualifierE0EEC2Edd,comdat
	.weak	_ZN3glm3vecILi2EdLNS_9qualifierE0EEC2Edd # -- Begin function _ZN3glm3vecILi2EdLNS_9qualifierE0EEC2Edd
	.p2align	2
	.type	_ZN3glm3vecILi2EdLNS_9qualifierE0EEC2Edd,@function
_ZN3glm3vecILi2EdLNS_9qualifierE0EEC2Edd: # @_ZN3glm3vecILi2EdLNS_9qualifierE0EEC2Edd
# %bb.0:                                # %entry
	addi	sp, sp, -48
	sd	ra, 40(sp)
	sd	s0, 32(sp)
	addi	s0, sp, 48
	fmv.d.x	ft0, a2
	fmv.d.x	ft0, a1
	sd	a0, -24(s0)
	sd	a1, -32(s0)
	sd	a2, -40(s0)
	ld	a0, -24(s0)
	fld	ft0, -32(s0)
	fsd	ft0, 0(a0)
	fld	ft0, -40(s0)
	fsd	ft0, 8(a0)
	ld	s0, 32(sp)
	ld	ra, 40(sp)
	addi	sp, sp, 48
	ret
.Lfunc_end46:
	.size	_ZN3glm3vecILi2EdLNS_9qualifierE0EEC2Edd, .Lfunc_end46-_ZN3glm3vecILi2EdLNS_9qualifierE0EEC2Edd
                                        # -- End function
	.section	.text._ZN3glmmlIdLNS_9qualifierE0EEENS_3vecILi2ET_XT0_EEES3_RKS4_,"axG",@progbits,_ZN3glmmlIdLNS_9qualifierE0EEENS_3vecILi2ET_XT0_EEES3_RKS4_,comdat
	.weak	_ZN3glmmlIdLNS_9qualifierE0EEENS_3vecILi2ET_XT0_EEES3_RKS4_ # -- Begin function _ZN3glmmlIdLNS_9qualifierE0EEENS_3vecILi2ET_XT0_EEES3_RKS4_
	.p2align	2
	.type	_ZN3glmmlIdLNS_9qualifierE0EEENS_3vecILi2ET_XT0_EEES3_RKS4_,@function
_ZN3glmmlIdLNS_9qualifierE0EEENS_3vecILi2ET_XT0_EEES3_RKS4_: # @_ZN3glmmlIdLNS_9qualifierE0EEENS_3vecILi2ET_XT0_EEES3_RKS4_
	.cfi_startproc
# %bb.0:                                # %entry
	addi	sp, sp, -48
	.cfi_def_cfa_offset 48
	sd	ra, 40(sp)
	sd	s0, 32(sp)
	.cfi_offset ra, -8
	.cfi_offset s0, -16
	addi	s0, sp, 48
	.cfi_def_cfa s0, 0
	fmv.d.x	ft0, a0
	sd	a0, -40(s0)
	sd	a1, -48(s0)
	fld	ft0, -40(s0)
	ld	a0, -48(s0)
	fld	ft1, 0(a0)
	fmul.d	ft1, ft0, ft1
	fld	ft2, 8(a0)
	fmul.d	ft0, ft0, ft2
	fmv.x.d	a1, ft1
	fmv.x.d	a2, ft0
	addi	a0, s0, -32
	call	_ZN3glm3vecILi2EdLNS_9qualifierE0EEC2Edd
	ld	a0, -32(s0)
	ld	a1, -24(s0)
	ld	s0, 32(sp)
	.cfi_def_cfa sp, 48
	ld	ra, 40(sp)
	.cfi_restore ra
	.cfi_restore s0
	addi	sp, sp, 48
	.cfi_def_cfa_offset 0
	ret
.Lfunc_end47:
	.size	_ZN3glmmlIdLNS_9qualifierE0EEENS_3vecILi2ET_XT0_EEES3_RKS4_, .Lfunc_end47-_ZN3glmmlIdLNS_9qualifierE0EEENS_3vecILi2ET_XT0_EEES3_RKS4_
	.cfi_endproc
                                        # -- End function
	.section	.text._ZN3glmmiIdLNS_9qualifierE0EEENS_3vecILi2ET_XT0_EEERKS4_S6_,"axG",@progbits,_ZN3glmmiIdLNS_9qualifierE0EEENS_3vecILi2ET_XT0_EEERKS4_S6_,comdat
	.weak	_ZN3glmmiIdLNS_9qualifierE0EEENS_3vecILi2ET_XT0_EEERKS4_S6_ # -- Begin function _ZN3glmmiIdLNS_9qualifierE0EEENS_3vecILi2ET_XT0_EEERKS4_S6_
	.p2align	2
	.type	_ZN3glmmiIdLNS_9qualifierE0EEENS_3vecILi2ET_XT0_EEERKS4_S6_,@function
_ZN3glmmiIdLNS_9qualifierE0EEENS_3vecILi2ET_XT0_EEERKS4_S6_: # @_ZN3glmmiIdLNS_9qualifierE0EEENS_3vecILi2ET_XT0_EEERKS4_S6_
	.cfi_startproc
# %bb.0:                                # %entry
	addi	sp, sp, -48
	.cfi_def_cfa_offset 48
	sd	ra, 40(sp)
	sd	s0, 32(sp)
	.cfi_offset ra, -8
	.cfi_offset s0, -16
	addi	s0, sp, 48
	.cfi_def_cfa s0, 0
	sd	a0, -40(s0)
	sd	a1, -48(s0)
	ld	a0, -40(s0)
	fld	ft0, 0(a0)
	ld	a1, -48(s0)
	fld	ft1, 0(a1)
	fsub.d	ft0, ft0, ft1
	fld	ft1, 8(a0)
	fld	ft2, 8(a1)
	fsub.d	ft1, ft1, ft2
	fmv.x.d	a1, ft0
	fmv.x.d	a2, ft1
	addi	a0, s0, -32
	call	_ZN3glm3vecILi2EdLNS_9qualifierE0EEC2Edd
	ld	a0, -32(s0)
	ld	a1, -24(s0)
	ld	s0, 32(sp)
	.cfi_def_cfa sp, 48
	ld	ra, 40(sp)
	.cfi_restore ra
	.cfi_restore s0
	addi	sp, sp, 48
	.cfi_def_cfa_offset 0
	ret
.Lfunc_end48:
	.size	_ZN3glmmiIdLNS_9qualifierE0EEENS_3vecILi2ET_XT0_EEERKS4_S6_, .Lfunc_end48-_ZN3glmmiIdLNS_9qualifierE0EEENS_3vecILi2ET_XT0_EEERKS4_S6_
	.cfi_endproc
                                        # -- End function
	.section	.text._ZN3glmplIdLNS_9qualifierE0EEENS_3vecILi3ET_XT0_EEERKS4_S6_,"axG",@progbits,_ZN3glmplIdLNS_9qualifierE0EEENS_3vecILi3ET_XT0_EEERKS4_S6_,comdat
	.weak	_ZN3glmplIdLNS_9qualifierE0EEENS_3vecILi3ET_XT0_EEERKS4_S6_ # -- Begin function _ZN3glmplIdLNS_9qualifierE0EEENS_3vecILi3ET_XT0_EEERKS4_S6_
	.p2align	2
	.type	_ZN3glmplIdLNS_9qualifierE0EEENS_3vecILi3ET_XT0_EEERKS4_S6_,@function
_ZN3glmplIdLNS_9qualifierE0EEENS_3vecILi3ET_XT0_EEERKS4_S6_: # @_ZN3glmplIdLNS_9qualifierE0EEENS_3vecILi3ET_XT0_EEERKS4_S6_
	.cfi_startproc
# %bb.0:                                # %entry
	addi	sp, sp, -48
	.cfi_def_cfa_offset 48
	sd	ra, 40(sp)
	sd	s0, 32(sp)
	.cfi_offset ra, -8
	.cfi_offset s0, -16
	addi	s0, sp, 48
	.cfi_def_cfa s0, 0
	sd	a0, -24(s0)
	sd	a1, -32(s0)
	sd	a2, -40(s0)
	ld	a1, -32(s0)
	fld	ft0, 0(a1)
	ld	a2, -40(s0)
	fld	ft1, 0(a2)
	fadd.d	ft0, ft0, ft1
	fld	ft1, 8(a1)
	fld	ft2, 8(a2)
	fadd.d	ft1, ft1, ft2
	fld	ft2, 16(a1)
	fld	ft3, 16(a2)
	fadd.d	ft2, ft2, ft3
	fmv.x.d	a1, ft0
	fmv.x.d	a2, ft1
	fmv.x.d	a3, ft2
	call	_ZN3glm3vecILi3EdLNS_9qualifierE0EEC2Eddd
	ld	s0, 32(sp)
	.cfi_def_cfa sp, 48
	ld	ra, 40(sp)
	.cfi_restore ra
	.cfi_restore s0
	addi	sp, sp, 48
	.cfi_def_cfa_offset 0
	ret
.Lfunc_end49:
	.size	_ZN3glmplIdLNS_9qualifierE0EEENS_3vecILi3ET_XT0_EEERKS4_S6_, .Lfunc_end49-_ZN3glmplIdLNS_9qualifierE0EEENS_3vecILi3ET_XT0_EEERKS4_S6_
	.cfi_endproc
                                        # -- End function
	.section	.text._ZN3glmmlIdLNS_9qualifierE0EEENS_3vecILi3ET_XT0_EEERKS4_S3_,"axG",@progbits,_ZN3glmmlIdLNS_9qualifierE0EEENS_3vecILi3ET_XT0_EEERKS4_S3_,comdat
	.weak	_ZN3glmmlIdLNS_9qualifierE0EEENS_3vecILi3ET_XT0_EEERKS4_S3_ # -- Begin function _ZN3glmmlIdLNS_9qualifierE0EEENS_3vecILi3ET_XT0_EEERKS4_S3_
	.p2align	2
	.type	_ZN3glmmlIdLNS_9qualifierE0EEENS_3vecILi3ET_XT0_EEERKS4_S3_,@function
_ZN3glmmlIdLNS_9qualifierE0EEENS_3vecILi3ET_XT0_EEERKS4_S3_: # @_ZN3glmmlIdLNS_9qualifierE0EEENS_3vecILi3ET_XT0_EEERKS4_S3_
	.cfi_startproc
# %bb.0:                                # %entry
	addi	sp, sp, -48
	.cfi_def_cfa_offset 48
	sd	ra, 40(sp)
	sd	s0, 32(sp)
	.cfi_offset ra, -8
	.cfi_offset s0, -16
	addi	s0, sp, 48
	.cfi_def_cfa s0, 0
	fmv.d.x	ft0, a2
	sd	a0, -24(s0)
	sd	a1, -32(s0)
	sd	a2, -40(s0)
	ld	a1, -32(s0)
	fld	ft0, 0(a1)
	fld	ft1, -40(s0)
	fmul.d	ft0, ft0, ft1
	fld	ft2, 8(a1)
	fmul.d	ft2, ft2, ft1
	fld	ft3, 16(a1)
	fmul.d	ft1, ft3, ft1
	fmv.x.d	a1, ft0
	fmv.x.d	a2, ft2
	fmv.x.d	a3, ft1
	call	_ZN3glm3vecILi3EdLNS_9qualifierE0EEC2Eddd
	ld	s0, 32(sp)
	.cfi_def_cfa sp, 48
	ld	ra, 40(sp)
	.cfi_restore ra
	.cfi_restore s0
	addi	sp, sp, 48
	.cfi_def_cfa_offset 0
	ret
.Lfunc_end50:
	.size	_ZN3glmmlIdLNS_9qualifierE0EEENS_3vecILi3ET_XT0_EEERKS4_S3_, .Lfunc_end50-_ZN3glmmlIdLNS_9qualifierE0EEENS_3vecILi3ET_XT0_EEERKS4_S3_
	.cfi_endproc
                                        # -- End function
	.section	.text._ZNKSt19__shared_ptr_accessI10IntegratorLN9__gnu_cxx12_Lock_policyE0ELb0ELb0EEptEv,"axG",@progbits,_ZNKSt19__shared_ptr_accessI10IntegratorLN9__gnu_cxx12_Lock_policyE0ELb0ELb0EEptEv,comdat
	.weak	_ZNKSt19__shared_ptr_accessI10IntegratorLN9__gnu_cxx12_Lock_policyE0ELb0ELb0EEptEv # -- Begin function _ZNKSt19__shared_ptr_accessI10IntegratorLN9__gnu_cxx12_Lock_policyE0ELb0ELb0EEptEv
	.p2align	2
	.type	_ZNKSt19__shared_ptr_accessI10IntegratorLN9__gnu_cxx12_Lock_policyE0ELb0ELb0EEptEv,@function
_ZNKSt19__shared_ptr_accessI10IntegratorLN9__gnu_cxx12_Lock_policyE0ELb0ELb0EEptEv: # @_ZNKSt19__shared_ptr_accessI10IntegratorLN9__gnu_cxx12_Lock_policyE0ELb0ELb0EEptEv
# %bb.0:                                # %entry
	addi	sp, sp, -32
	sd	ra, 24(sp)
	sd	s0, 16(sp)
	addi	s0, sp, 32
	sd	a0, -24(s0)
	ld	a0, -24(s0)
	call	_ZNKSt19__shared_ptr_accessI10IntegratorLN9__gnu_cxx12_Lock_policyE0ELb0ELb0EE6_M_getEv
	ld	s0, 16(sp)
	ld	ra, 24(sp)
	addi	sp, sp, 32
	ret
.Lfunc_end51:
	.size	_ZNKSt19__shared_ptr_accessI10IntegratorLN9__gnu_cxx12_Lock_policyE0ELb0ELb0EEptEv, .Lfunc_end51-_ZNKSt19__shared_ptr_accessI10IntegratorLN9__gnu_cxx12_Lock_policyE0ELb0ELb0EEptEv
                                        # -- End function
	.section	.text._ZN7Sampler3getILi2ELi2EEEDav,"axG",@progbits,_ZN7Sampler3getILi2ELi2EEEDav,comdat
	.weak	_ZN7Sampler3getILi2ELi2EEEDav # -- Begin function _ZN7Sampler3getILi2ELi2EEEDav
	.p2align	2
	.type	_ZN7Sampler3getILi2ELi2EEEDav,@function
_ZN7Sampler3getILi2ELi2EEEDav:          # @_ZN7Sampler3getILi2ELi2EEEDav
	.cfi_startproc
# %bb.0:                                # %entry
	addi	sp, sp, -64
	.cfi_def_cfa_offset 64
	sd	ra, 56(sp)
	sd	s0, 48(sp)
	.cfi_offset ra, -8
	.cfi_offset s0, -16
	addi	s0, sp, 64
	.cfi_def_cfa s0, 0
	addi	a0, s0, -48
	sd	a0, -56(s0)
	addi	a0, s0, -56
	call	_Z12unrolledLoopIiLi2EZN7Sampler3getILi2ELi2EEEDavEUlT_E_EvOT1_
	ld	a0, -40(s0)
	sd	a0, -24(s0)
	ld	a0, -48(s0)
	sd	a0, -32(s0)
	ld	a0, -32(s0)
	ld	a1, -24(s0)
	ld	s0, 48(sp)
	.cfi_def_cfa sp, 64
	ld	ra, 56(sp)
	.cfi_restore ra
	.cfi_restore s0
	addi	sp, sp, 64
	.cfi_def_cfa_offset 0
	ret
.Lfunc_end52:
	.size	_ZN7Sampler3getILi2ELi2EEEDav, .Lfunc_end52-_ZN7Sampler3getILi2ELi2EEEDav
	.cfi_endproc
                                        # -- End function
	.section	.sdata,"aw",@progbits
	.p2align	3               # -- Begin function _ZN8Sampling11uniformDiskEdd
.LCPI53_0:
	.quad	4618760256179416344     # double 6.2831853071795862
	.section	.text._ZN8Sampling11uniformDiskEdd,"axG",@progbits,_ZN8Sampling11uniformDiskEdd,comdat
	.weak	_ZN8Sampling11uniformDiskEdd
	.p2align	2
	.type	_ZN8Sampling11uniformDiskEdd,@function
_ZN8Sampling11uniformDiskEdd:           # @_ZN8Sampling11uniformDiskEdd
	.cfi_startproc
# %bb.0:                                # %entry
	addi	sp, sp, -96
	.cfi_def_cfa_offset 96
	sd	ra, 88(sp)
	sd	s0, 80(sp)
	sd	s1, 72(sp)
	sd	s2, 64(sp)
	.cfi_offset ra, -8
	.cfi_offset s0, -16
	.cfi_offset s1, -24
	.cfi_offset s2, -32
	addi	s0, sp, 96
	.cfi_def_cfa s0, 0
	fmv.d.x	ft0, a1
	fmv.d.x	ft0, a0
	sd	a0, -56(s0)
	sd	a1, -64(s0)
	fld	ft0, -64(s0)
	lui	a0, %hi(.LCPI53_0)
	addi	a0, a0, %lo(.LCPI53_0)
	fld	ft1, 0(a0)
	fmul.d	ft0, ft0, ft1
	fsd	ft0, -72(s0)
	ld	s1, -72(s0)
	mv	a0, s1
	call	cos
	mv	s2, a0
	mv	a0, s1
	call	sin
	mv	a2, a0
	addi	s1, s0, -88
	mv	a0, s1
	mv	a1, s2
	call	_ZN3glm3vecILi2EdLNS_9qualifierE0EEC2Edd
	fld	ft0, -56(s0)
	fsqrt.d	ft0, ft0
	fmv.x.d	a1, ft0
	mv	a0, s1
	call	_ZN3glmmlIdLNS_9qualifierE0EEENS_3vecILi2ET_XT0_EEERKS4_S3_
	sd	a1, -40(s0)
	sd	a0, -48(s0)
	ld	a0, -48(s0)
	ld	a1, -40(s0)
	ld	s2, 64(sp)
	ld	s1, 72(sp)
	ld	s0, 80(sp)
	.cfi_def_cfa sp, 96
	ld	ra, 88(sp)
	.cfi_restore ra
	.cfi_restore s0
	.cfi_restore s1
	.cfi_restore s2
	addi	sp, sp, 96
	.cfi_def_cfa_offset 0
	ret
.Lfunc_end53:
	.size	_ZN8Sampling11uniformDiskEdd, .Lfunc_end53-_ZN8Sampling11uniformDiskEdd
	.cfi_endproc
                                        # -- End function
	.section	.text._ZN3glm3dotILi3EdLNS_9qualifierE0EEET0_RKNS_3vecIXT_ES2_XT1_EEES6_,"axG",@progbits,_ZN3glm3dotILi3EdLNS_9qualifierE0EEET0_RKNS_3vecIXT_ES2_XT1_EEES6_,comdat
	.weak	_ZN3glm3dotILi3EdLNS_9qualifierE0EEET0_RKNS_3vecIXT_ES2_XT1_EEES6_ # -- Begin function _ZN3glm3dotILi3EdLNS_9qualifierE0EEET0_RKNS_3vecIXT_ES2_XT1_EEES6_
	.p2align	2
	.type	_ZN3glm3dotILi3EdLNS_9qualifierE0EEET0_RKNS_3vecIXT_ES2_XT1_EEES6_,@function
_ZN3glm3dotILi3EdLNS_9qualifierE0EEET0_RKNS_3vecIXT_ES2_XT1_EEES6_: # @_ZN3glm3dotILi3EdLNS_9qualifierE0EEET0_RKNS_3vecIXT_ES2_XT1_EEES6_
	.cfi_startproc
# %bb.0:                                # %entry
	addi	sp, sp, -32
	.cfi_def_cfa_offset 32
	sd	ra, 24(sp)
	sd	s0, 16(sp)
	.cfi_offset ra, -8
	.cfi_offset s0, -16
	addi	s0, sp, 32
	.cfi_def_cfa s0, 0
	sd	a0, -24(s0)
	sd	a1, -32(s0)
	ld	a0, -24(s0)
	ld	a1, -32(s0)
	call	_ZN3glm6detail11compute_dotINS_3vecILi3EdLNS_9qualifierE0EEEdLb0EE4callERKS4_S7_
	ld	s0, 16(sp)
	.cfi_def_cfa sp, 32
	ld	ra, 24(sp)
	.cfi_restore ra
	.cfi_restore s0
	addi	sp, sp, 32
	.cfi_def_cfa_offset 0
	ret
.Lfunc_end54:
	.size	_ZN3glm3dotILi3EdLNS_9qualifierE0EEET0_RKNS_3vecIXT_ES2_XT1_EEES6_, .Lfunc_end54-_ZN3glm3dotILi3EdLNS_9qualifierE0EEET0_RKNS_3vecIXT_ES2_XT1_EEES6_
	.cfi_endproc
                                        # -- End function
	.section	.text._ZN3glmmiIdLNS_9qualifierE0EEENS_3vecILi3ET_XT0_EEERKS4_S6_,"axG",@progbits,_ZN3glmmiIdLNS_9qualifierE0EEENS_3vecILi3ET_XT0_EEERKS4_S6_,comdat
	.weak	_ZN3glmmiIdLNS_9qualifierE0EEENS_3vecILi3ET_XT0_EEERKS4_S6_ # -- Begin function _ZN3glmmiIdLNS_9qualifierE0EEENS_3vecILi3ET_XT0_EEERKS4_S6_
	.p2align	2
	.type	_ZN3glmmiIdLNS_9qualifierE0EEENS_3vecILi3ET_XT0_EEERKS4_S6_,@function
_ZN3glmmiIdLNS_9qualifierE0EEENS_3vecILi3ET_XT0_EEERKS4_S6_: # @_ZN3glmmiIdLNS_9qualifierE0EEENS_3vecILi3ET_XT0_EEERKS4_S6_
	.cfi_startproc
# %bb.0:                                # %entry
	addi	sp, sp, -48
	.cfi_def_cfa_offset 48
	sd	ra, 40(sp)
	sd	s0, 32(sp)
	.cfi_offset ra, -8
	.cfi_offset s0, -16
	addi	s0, sp, 48
	.cfi_def_cfa s0, 0
	sd	a0, -24(s0)
	sd	a1, -32(s0)
	sd	a2, -40(s0)
	ld	a1, -32(s0)
	fld	ft0, 0(a1)
	ld	a2, -40(s0)
	fld	ft1, 0(a2)
	fsub.d	ft0, ft0, ft1
	fld	ft1, 8(a1)
	fld	ft2, 8(a2)
	fsub.d	ft1, ft1, ft2
	fld	ft2, 16(a1)
	fld	ft3, 16(a2)
	fsub.d	ft2, ft2, ft3
	fmv.x.d	a1, ft0
	fmv.x.d	a2, ft1
	fmv.x.d	a3, ft2
	call	_ZN3glm3vecILi3EdLNS_9qualifierE0EEC2Eddd
	ld	s0, 32(sp)
	.cfi_def_cfa sp, 48
	ld	ra, 40(sp)
	.cfi_restore ra
	.cfi_restore s0
	addi	sp, sp, 48
	.cfi_def_cfa_offset 0
	ret
.Lfunc_end55:
	.size	_ZN3glmmiIdLNS_9qualifierE0EEENS_3vecILi3ET_XT0_EEERKS4_S6_, .Lfunc_end55-_ZN3glmmiIdLNS_9qualifierE0EEENS_3vecILi3ET_XT0_EEERKS4_S6_
	.cfi_endproc
                                        # -- End function
	.section	.text._ZNSt6vectorIbSaIbEEixEm,"axG",@progbits,_ZNSt6vectorIbSaIbEEixEm,comdat
	.weak	_ZNSt6vectorIbSaIbEEixEm # -- Begin function _ZNSt6vectorIbSaIbEEixEm
	.p2align	2
	.type	_ZNSt6vectorIbSaIbEEixEm,@function
_ZNSt6vectorIbSaIbEEixEm:               # @_ZNSt6vectorIbSaIbEEixEm
	.cfi_startproc
# %bb.0:                                # %entry
	addi	sp, sp, -64
	.cfi_def_cfa_offset 64
	sd	ra, 56(sp)
	sd	s0, 48(sp)
	.cfi_offset ra, -8
	.cfi_offset s0, -16
	addi	s0, sp, 64
	.cfi_def_cfa s0, 0
	sd	a0, -40(s0)
	sd	a1, -48(s0)
	ld	a0, -40(s0)
	call	_ZNSt6vectorIbSaIbEE5beginEv
	sd	a1, -56(s0)
	sd	a0, -64(s0)
	ld	a1, -48(s0)
	addi	a0, s0, -64
	call	_ZNKSt13_Bit_iteratorixEl
	sd	a1, -24(s0)
	sd	a0, -32(s0)
	ld	a0, -32(s0)
	ld	a1, -24(s0)
	ld	s0, 48(sp)
	.cfi_def_cfa sp, 64
	ld	ra, 56(sp)
	.cfi_restore ra
	.cfi_restore s0
	addi	sp, sp, 64
	.cfi_def_cfa_offset 0
	ret
.Lfunc_end56:
	.size	_ZNSt6vectorIbSaIbEEixEm, .Lfunc_end56-_ZNSt6vectorIbSaIbEEixEm
	.cfi_endproc
                                        # -- End function
	.section	.text._ZNKSt14_Bit_referencecvbEv,"axG",@progbits,_ZNKSt14_Bit_referencecvbEv,comdat
	.weak	_ZNKSt14_Bit_referencecvbEv # -- Begin function _ZNKSt14_Bit_referencecvbEv
	.p2align	2
	.type	_ZNKSt14_Bit_referencecvbEv,@function
_ZNKSt14_Bit_referencecvbEv:            # @_ZNKSt14_Bit_referencecvbEv
# %bb.0:                                # %entry
	addi	sp, sp, -32
	sd	ra, 24(sp)
	sd	s0, 16(sp)
	addi	s0, sp, 32
	sd	a0, -24(s0)
	ld	a0, -24(s0)
	ld	a1, 0(a0)
	ld	a1, 0(a1)
	ld	a0, 8(a0)
	and	a0, a1, a0
	snez	a0, a0
	ld	s0, 16(sp)
	ld	ra, 24(sp)
	addi	sp, sp, 32
	ret
.Lfunc_end57:
	.size	_ZNKSt14_Bit_referencecvbEv, .Lfunc_end57-_ZNKSt14_Bit_referencecvbEv
                                        # -- End function
	.section	.text._ZNSt6vectorIN3glm3vecILi3EdLNS0_9qualifierE0EEESaIS3_EEixEm,"axG",@progbits,_ZNSt6vectorIN3glm3vecILi3EdLNS0_9qualifierE0EEESaIS3_EEixEm,comdat
	.weak	_ZNSt6vectorIN3glm3vecILi3EdLNS0_9qualifierE0EEESaIS3_EEixEm # -- Begin function _ZNSt6vectorIN3glm3vecILi3EdLNS0_9qualifierE0EEESaIS3_EEixEm
	.p2align	2
	.type	_ZNSt6vectorIN3glm3vecILi3EdLNS0_9qualifierE0EEESaIS3_EEixEm,@function
_ZNSt6vectorIN3glm3vecILi3EdLNS0_9qualifierE0EEESaIS3_EEixEm: # @_ZNSt6vectorIN3glm3vecILi3EdLNS0_9qualifierE0EEESaIS3_EEixEm
# %bb.0:                                # %entry
	addi	sp, sp, -32
	sd	ra, 24(sp)
	sd	s0, 16(sp)
	addi	s0, sp, 32
	sd	a0, -24(s0)
	sd	a1, -32(s0)
	ld	a0, -24(s0)
	ld	a0, 0(a0)
	ld	a1, -32(s0)
	addi	a2, zero, 24
	mul	a1, a1, a2
	add	a0, a0, a1
	ld	s0, 16(sp)
	ld	ra, 24(sp)
	addi	sp, sp, 32
	ret
.Lfunc_end58:
	.size	_ZNSt6vectorIN3glm3vecILi3EdLNS0_9qualifierE0EEESaIS3_EEixEm, .Lfunc_end58-_ZNSt6vectorIN3glm3vecILi3EdLNS0_9qualifierE0EEESaIS3_EEixEm
                                        # -- End function
	.text
	.globl	_ZN6Camera15init_for_approxEv # -- Begin function _ZN6Camera15init_for_approxEv
	.p2align	2
	.type	_ZN6Camera15init_for_approxEv,@function
_ZN6Camera15init_for_approxEv:          # @_ZN6Camera15init_for_approxEv
	.cfi_startproc
# %bb.0:                                # %entry
	addi	sp, sp, -144
	.cfi_def_cfa_offset 144
	sd	ra, 136(sp)
	sd	s0, 128(sp)
	sd	s1, 120(sp)
	sd	s2, 112(sp)
	sd	s3, 104(sp)
	.cfi_offset ra, -8
	.cfi_offset s0, -16
	.cfi_offset s1, -24
	.cfi_offset s2, -32
	.cfi_offset s3, -40
	addi	s0, sp, 144
	.cfi_def_cfa s0, 0
	sd	a0, -48(s0)
	ld	s3, -48(s0)
	ld	a0, 144(s3)
	lui	s2, %hi(width)
	sd	a0, %lo(width)(s2)
	ld	a0, 152(s3)
	lui	s1, %hi(height)
	sd	a0, %lo(height)(s1)
	ld	a0, %lo(width)(s2)
	ld	a1, %lo(height)(s1)
	mul	a1, a0, a1
	addi	a0, zero, 1
	sb	a0, -49(s0)
	lui	a0, %hi(no_edge)
	addi	a0, a0, %lo(no_edge)
	addi	a2, s0, -49
	call	_ZNSt6vectorIbSaIbEE6assignEmRKb
	ld	a0, %lo(width)(s2)
	ld	a1, %lo(height)(s1)
	mul	s1, a0, a1
	addi	s2, s0, -80
	mv	a0, s2
	mv	a1, zero
	call	_ZN3glm3vecILi3EdLNS_9qualifierE0EEC2Ed
	lui	a0, %hi(fig)
	addi	a0, a0, %lo(fig)
	mv	a1, s1
	mv	a2, s2
	call	_ZNSt6vectorIN3glm3vecILi3EdLNS0_9qualifierE0EEESaIS3_EE6assignEmRKS3_
	sd	zero, -88(s0)
	j	.LBB59_1
.LBB59_1:                               # %for.cond
                                        # =>This Loop Header: Depth=1
                                        #     Child Loop BB59_3 Depth 2
	ld	a0, -88(s0)
	lui	a1, %hi(height)
	ld	a1, %lo(height)(a1)
	bgeu	a0, a1, .LBB59_8
	j	.LBB59_2
.LBB59_2:                               # %for.body
                                        #   in Loop: Header=BB59_1 Depth=1
	sd	zero, -96(s0)
	j	.LBB59_3
.LBB59_3:                               # %for.cond5
                                        #   Parent Loop BB59_1 Depth=1
                                        # =>  This Inner Loop Header: Depth=2
	ld	a0, -96(s0)
	lui	a1, %hi(width)
	ld	a1, %lo(width)(a1)
	bgeu	a0, a1, .LBB59_6
	j	.LBB59_4
.LBB59_4:                               # %for.body7
                                        #   in Loop: Header=BB59_3 Depth=2
	addi	a1, s3, 248
	ld	a2, -96(s0)
	ld	a3, -88(s0)
	addi	a0, s0, -120
	call	_ZNK4Film4scanEmm
	ld	a0, -88(s0)
	lui	a1, %hi(width)
	ld	a1, %lo(width)(a1)
	mul	a0, a0, a1
	ld	a1, -96(s0)
	add	a1, a0, a1
	lui	a0, %hi(fig)
	addi	a0, a0, %lo(fig)
	call	_ZNSt6vectorIN3glm3vecILi3EdLNS0_9qualifierE0EEESaIS3_EEixEm
	ld	a1, -104(s0)
	sd	a1, 16(a0)
	ld	a1, -112(s0)
	sd	a1, 8(a0)
	ld	a1, -120(s0)
	sd	a1, 0(a0)
	j	.LBB59_5
.LBB59_5:                               # %for.inc
                                        #   in Loop: Header=BB59_3 Depth=2
	ld	a0, -96(s0)
	addi	a0, a0, 1
	sd	a0, -96(s0)
	j	.LBB59_3
.LBB59_6:                               # %for.end
                                        #   in Loop: Header=BB59_1 Depth=1
	j	.LBB59_7
.LBB59_7:                               # %for.inc10
                                        #   in Loop: Header=BB59_1 Depth=1
	ld	a0, -88(s0)
	addi	a0, a0, 1
	sd	a0, -88(s0)
	j	.LBB59_1
.LBB59_8:                               # %for.end12
	lui	a0, %hi(width)
	ld	a0, %lo(width)(a0)
	lui	a1, %hi(height)
	ld	a1, %lo(height)(a1)
	mul	s1, a0, a1
	addi	s2, s0, -144
	mv	a0, s2
	mv	a1, zero
	call	_ZN3glm3vecILi3EdLNS_9qualifierE0EEC2Ed
	lui	a0, %hi(average_window)
	addi	a0, a0, %lo(average_window)
	mv	a1, s1
	mv	a2, s2
	call	_ZNSt6vectorIN3glm3vecILi3EdLNS0_9qualifierE0EEESaIS3_EE6assignEmRKS3_
	ld	s3, 104(sp)
	ld	s2, 112(sp)
	ld	s1, 120(sp)
	ld	s0, 128(sp)
	.cfi_def_cfa sp, 144
	ld	ra, 136(sp)
	.cfi_restore ra
	.cfi_restore s0
	.cfi_restore s1
	.cfi_restore s2
	.cfi_restore s3
	addi	sp, sp, 144
	.cfi_def_cfa_offset 0
	ret
.Lfunc_end59:
	.size	_ZN6Camera15init_for_approxEv, .Lfunc_end59-_ZN6Camera15init_for_approxEv
	.cfi_endproc
                                        # -- End function
	.section	.text._ZNSt6vectorIbSaIbEE6assignEmRKb,"axG",@progbits,_ZNSt6vectorIbSaIbEE6assignEmRKb,comdat
	.weak	_ZNSt6vectorIbSaIbEE6assignEmRKb # -- Begin function _ZNSt6vectorIbSaIbEE6assignEmRKb
	.p2align	2
	.type	_ZNSt6vectorIbSaIbEE6assignEmRKb,@function
_ZNSt6vectorIbSaIbEE6assignEmRKb:       # @_ZNSt6vectorIbSaIbEE6assignEmRKb
	.cfi_startproc
# %bb.0:                                # %entry
	addi	sp, sp, -48
	.cfi_def_cfa_offset 48
	sd	ra, 40(sp)
	sd	s0, 32(sp)
	.cfi_offset ra, -8
	.cfi_offset s0, -16
	addi	s0, sp, 48
	.cfi_def_cfa s0, 0
	sd	a0, -24(s0)
	sd	a1, -32(s0)
	sd	a2, -40(s0)
	ld	a0, -24(s0)
	ld	a1, -32(s0)
	ld	a2, -40(s0)
	lbu	a2, 0(a2)
	andi	a2, a2, 1
	call	_ZNSt6vectorIbSaIbEE14_M_fill_assignEmb
	ld	s0, 32(sp)
	.cfi_def_cfa sp, 48
	ld	ra, 40(sp)
	.cfi_restore ra
	.cfi_restore s0
	addi	sp, sp, 48
	.cfi_def_cfa_offset 0
	ret
.Lfunc_end60:
	.size	_ZNSt6vectorIbSaIbEE6assignEmRKb, .Lfunc_end60-_ZNSt6vectorIbSaIbEE6assignEmRKb
	.cfi_endproc
                                        # -- End function
	.section	.text._ZNSt6vectorIN3glm3vecILi3EdLNS0_9qualifierE0EEESaIS3_EE6assignEmRKS3_,"axG",@progbits,_ZNSt6vectorIN3glm3vecILi3EdLNS0_9qualifierE0EEESaIS3_EE6assignEmRKS3_,comdat
	.weak	_ZNSt6vectorIN3glm3vecILi3EdLNS0_9qualifierE0EEESaIS3_EE6assignEmRKS3_ # -- Begin function _ZNSt6vectorIN3glm3vecILi3EdLNS0_9qualifierE0EEESaIS3_EE6assignEmRKS3_
	.p2align	2
	.type	_ZNSt6vectorIN3glm3vecILi3EdLNS0_9qualifierE0EEESaIS3_EE6assignEmRKS3_,@function
_ZNSt6vectorIN3glm3vecILi3EdLNS0_9qualifierE0EEESaIS3_EE6assignEmRKS3_: # @_ZNSt6vectorIN3glm3vecILi3EdLNS0_9qualifierE0EEESaIS3_EE6assignEmRKS3_
	.cfi_startproc
# %bb.0:                                # %entry
	addi	sp, sp, -48
	.cfi_def_cfa_offset 48
	sd	ra, 40(sp)
	sd	s0, 32(sp)
	.cfi_offset ra, -8
	.cfi_offset s0, -16
	addi	s0, sp, 48
	.cfi_def_cfa s0, 0
	sd	a0, -24(s0)
	sd	a1, -32(s0)
	sd	a2, -40(s0)
	ld	a0, -24(s0)
	ld	a1, -32(s0)
	ld	a2, -40(s0)
	call	_ZNSt6vectorIN3glm3vecILi3EdLNS0_9qualifierE0EEESaIS3_EE14_M_fill_assignEmRKS3_
	ld	s0, 32(sp)
	.cfi_def_cfa sp, 48
	ld	ra, 40(sp)
	.cfi_restore ra
	.cfi_restore s0
	addi	sp, sp, 48
	.cfi_def_cfa_offset 0
	ret
.Lfunc_end61:
	.size	_ZNSt6vectorIN3glm3vecILi3EdLNS0_9qualifierE0EEESaIS3_EE6assignEmRKS3_, .Lfunc_end61-_ZNSt6vectorIN3glm3vecILi3EdLNS0_9qualifierE0EEESaIS3_EE6assignEmRKS3_
	.cfi_endproc
                                        # -- End function
	.section	.text._ZN3glm3vecILi3EdLNS_9qualifierE0EEC2Ed,"axG",@progbits,_ZN3glm3vecILi3EdLNS_9qualifierE0EEC2Ed,comdat
	.weak	_ZN3glm3vecILi3EdLNS_9qualifierE0EEC2Ed # -- Begin function _ZN3glm3vecILi3EdLNS_9qualifierE0EEC2Ed
	.p2align	2
	.type	_ZN3glm3vecILi3EdLNS_9qualifierE0EEC2Ed,@function
_ZN3glm3vecILi3EdLNS_9qualifierE0EEC2Ed: # @_ZN3glm3vecILi3EdLNS_9qualifierE0EEC2Ed
# %bb.0:                                # %entry
	addi	sp, sp, -32
	sd	ra, 24(sp)
	sd	s0, 16(sp)
	addi	s0, sp, 32
	fmv.d.x	ft0, a1
	sd	a0, -24(s0)
	sd	a1, -32(s0)
	ld	a0, -24(s0)
	fld	ft0, -32(s0)
	fsd	ft0, 0(a0)
	fld	ft0, -32(s0)
	fsd	ft0, 8(a0)
	fld	ft0, -32(s0)
	fsd	ft0, 16(a0)
	ld	s0, 16(sp)
	ld	ra, 24(sp)
	addi	sp, sp, 32
	ret
.Lfunc_end62:
	.size	_ZN3glm3vecILi3EdLNS_9qualifierE0EEC2Ed, .Lfunc_end62-_ZN3glm3vecILi3EdLNS_9qualifierE0EEC2Ed
                                        # -- End function
	.text
	.globl	_ZN6Camera11sampleImageEv # -- Begin function _ZN6Camera11sampleImageEv
	.p2align	2
	.type	_ZN6Camera11sampleImageEv,@function
_ZN6Camera11sampleImageEv:              # @_ZN6Camera11sampleImageEv
	.cfi_startproc
# %bb.0:                                # %entry
	addi	sp, sp, -112
	.cfi_def_cfa_offset 112
	sd	ra, 104(sp)
	sd	s0, 96(sp)
	sd	s1, 88(sp)
	.cfi_offset ra, -8
	.cfi_offset s0, -16
	.cfi_offset s1, -24
	addi	s0, sp, 112
	.cfi_def_cfa s0, 0
	sd	a0, -32(s0)
	ld	s1, -32(s0)
	sd	zero, -40(s0)
	j	.LBB63_1
.LBB63_1:                               # %for.cond
                                        # =>This Loop Header: Depth=1
                                        #     Child Loop BB63_3 Depth 2
	ld	a0, -40(s0)
	ld	a1, 152(s1)
	bgeu	a0, a1, .LBB63_8
	j	.LBB63_2
.LBB63_2:                               # %for.body
                                        #   in Loop: Header=BB63_1 Depth=1
	sd	zero, -48(s0)
	j	.LBB63_3
.LBB63_3:                               # %for.cond2
                                        #   Parent Loop BB63_1 Depth=1
                                        # =>  This Inner Loop Header: Depth=2
	ld	a0, -48(s0)
	ld	a1, 144(s1)
	bgeu	a0, a1, .LBB63_6
	j	.LBB63_4
.LBB63_4:                               # %for.body5
                                        #   in Loop: Header=BB63_3 Depth=2
	ld	a1, -48(s0)
	ld	a2, -40(s0)
	mv	a0, s1
	mv	a3, zero
	call	_ZN6Camera11samplePixelEmmi
	j	.LBB63_5
.LBB63_5:                               # %for.inc
                                        #   in Loop: Header=BB63_3 Depth=2
	ld	a0, -48(s0)
	addi	a0, a0, 1
	sd	a0, -48(s0)
	j	.LBB63_3
.LBB63_6:                               # %for.end
                                        #   in Loop: Header=BB63_1 Depth=1
	j	.LBB63_7
.LBB63_7:                               # %for.inc6
                                        #   in Loop: Header=BB63_1 Depth=1
	ld	a0, -40(s0)
	addi	a0, a0, 1
	sd	a0, -40(s0)
	j	.LBB63_1
.LBB63_8:                               # %for.end8
	mv	a0, s1
	call	_ZN6Camera15init_for_approxEv
	lui	a0, %hi(edge_threshold)
	ld	a0, %lo(edge_threshold)(a0)
	call	_Z14edge_detectiond
	call	_Z19calc_average_windowv
	sd	zero, -56(s0)
	j	.LBB63_9
.LBB63_9:                               # %for.cond10
                                        # =>This Loop Header: Depth=1
                                        #     Child Loop BB63_11 Depth 2
	ld	a0, -56(s0)
	ld	a1, 152(s1)
	bgeu	a0, a1, .LBB63_16
	j	.LBB63_10
.LBB63_10:                              # %for.body14
                                        #   in Loop: Header=BB63_9 Depth=1
	sd	zero, -64(s0)
	j	.LBB63_11
.LBB63_11:                              # %for.cond16
                                        #   Parent Loop BB63_9 Depth=1
                                        # =>  This Inner Loop Header: Depth=2
	ld	a0, -64(s0)
	ld	a1, 144(s1)
	bgeu	a0, a1, .LBB63_14
	j	.LBB63_12
.LBB63_12:                              # %for.body20
                                        #   in Loop: Header=BB63_11 Depth=2
	ld	a1, -64(s0)
	ld	a2, -56(s0)
	mv	a0, s1
	addi	a3, zero, 1
	call	_ZN6Camera11samplePixelEmmi
	j	.LBB63_13
.LBB63_13:                              # %for.inc21
                                        #   in Loop: Header=BB63_11 Depth=2
	ld	a0, -64(s0)
	addi	a0, a0, 1
	sd	a0, -64(s0)
	j	.LBB63_11
.LBB63_14:                              # %for.end23
                                        #   in Loop: Header=BB63_9 Depth=1
	j	.LBB63_15
.LBB63_15:                              # %for.inc24
                                        #   in Loop: Header=BB63_9 Depth=1
	ld	a0, -56(s0)
	addi	a0, a0, 1
	sd	a0, -56(s0)
	j	.LBB63_9
.LBB63_16:                              # %for.end26
	#APP
	li a7, 0x10001
	ecall
	#NO_APP
	sd	zero, -72(s0)
	j	.LBB63_17
.LBB63_17:                              # %for.cond28
                                        # =>This Loop Header: Depth=1
                                        #     Child Loop BB63_19 Depth 2
	ld	a0, -72(s0)
	ld	a1, 152(s1)
	bgeu	a0, a1, .LBB63_24
	j	.LBB63_18
.LBB63_18:                              # %for.body32
                                        #   in Loop: Header=BB63_17 Depth=1
	sd	zero, -80(s0)
	j	.LBB63_19
.LBB63_19:                              # %for.cond34
                                        #   Parent Loop BB63_17 Depth=1
                                        # =>  This Inner Loop Header: Depth=2
	ld	a0, -80(s0)
	ld	a1, 144(s1)
	bgeu	a0, a1, .LBB63_22
	j	.LBB63_20
.LBB63_20:                              # %for.body38
                                        #   in Loop: Header=BB63_19 Depth=2
	ld	a1, -80(s0)
	ld	a2, -72(s0)
	mv	a0, s1
	addi	a3, zero, 2
	call	_ZN6Camera11samplePixelEmmi
	j	.LBB63_21
.LBB63_21:                              # %for.inc39
                                        #   in Loop: Header=BB63_19 Depth=2
	ld	a0, -80(s0)
	addi	a0, a0, 1
	sd	a0, -80(s0)
	j	.LBB63_19
.LBB63_22:                              # %for.end41
                                        #   in Loop: Header=BB63_17 Depth=1
	j	.LBB63_23
.LBB63_23:                              # %for.inc42
                                        #   in Loop: Header=BB63_17 Depth=1
	ld	a0, -72(s0)
	addi	a0, a0, 1
	sd	a0, -72(s0)
	j	.LBB63_17
.LBB63_24:                              # %for.end44
	lui	a0, %hi(cnt_regular)
	lw	a1, %lo(cnt_regular)(a0)
	lui	a0, %hi(cnt_approx)
	lw	a2, %lo(cnt_approx)(a0)
	lui	a0, %hi(.L.str.18)
	addi	a0, a0, %lo(.L.str.18)
	call	printf
	#APP
	li a7, 0x10001
	ecall
	#NO_APP
	sw	zero, -84(s0)
	j	.LBB63_25
.LBB63_25:                              # %for.cond46
                                        # =>This Loop Header: Depth=1
                                        #     Child Loop BB63_27 Depth 2
	lw	a0, -84(s0)
	ld	a1, 152(s1)
	bgeu	a0, a1, .LBB63_32
	j	.LBB63_26
.LBB63_26:                              # %for.body50
                                        #   in Loop: Header=BB63_25 Depth=1
	sw	zero, -88(s0)
	j	.LBB63_27
.LBB63_27:                              # %for.cond52
                                        #   Parent Loop BB63_25 Depth=1
                                        # =>  This Inner Loop Header: Depth=2
	lw	a0, -88(s0)
	ld	a1, 144(s1)
	bgeu	a0, a1, .LBB63_30
	j	.LBB63_28
.LBB63_28:                              # %for.body57
                                        #   in Loop: Header=BB63_27 Depth=2
	addi	a1, s1, 248
	lw	a2, -88(s0)
	lw	a3, -84(s0)
	addi	a0, s0, -112
	call	_ZNK4Film4scanEmm
	addi	a0, s1, 144
	lw	a1, -88(s0)
	lw	a2, -84(s0)
	call	_ZN5ImageclEmm
	ld	a1, -96(s0)
	sd	a1, 16(a0)
	ld	a1, -104(s0)
	sd	a1, 8(a0)
	ld	a1, -112(s0)
	sd	a1, 0(a0)
	j	.LBB63_29
.LBB63_29:                              # %for.inc64
                                        #   in Loop: Header=BB63_27 Depth=2
	lw	a0, -88(s0)
	addi	a0, a0, 1
	sw	a0, -88(s0)
	j	.LBB63_27
.LBB63_30:                              # %for.end66
                                        #   in Loop: Header=BB63_25 Depth=1
	j	.LBB63_31
.LBB63_31:                              # %for.inc67
                                        #   in Loop: Header=BB63_25 Depth=1
	lw	a0, -84(s0)
	addi	a0, a0, 1
	sw	a0, -84(s0)
	j	.LBB63_25
.LBB63_32:                              # %for.end69
	ld	s1, 88(sp)
	ld	s0, 96(sp)
	.cfi_def_cfa sp, 112
	ld	ra, 104(sp)
	.cfi_restore ra
	.cfi_restore s0
	.cfi_restore s1
	addi	sp, sp, 112
	.cfi_def_cfa_offset 0
	ret
.Lfunc_end63:
	.size	_ZN6Camera11sampleImageEv, .Lfunc_end63-_ZN6Camera11sampleImageEv
	.cfi_endproc
                                        # -- End function
	.section	.text._ZN3glm3vecILi3EdLNS_9qualifierE0EEC2Eddd,"axG",@progbits,_ZN3glm3vecILi3EdLNS_9qualifierE0EEC2Eddd,comdat
	.weak	_ZN3glm3vecILi3EdLNS_9qualifierE0EEC2Eddd # -- Begin function _ZN3glm3vecILi3EdLNS_9qualifierE0EEC2Eddd
	.p2align	2
	.type	_ZN3glm3vecILi3EdLNS_9qualifierE0EEC2Eddd,@function
_ZN3glm3vecILi3EdLNS_9qualifierE0EEC2Eddd: # @_ZN3glm3vecILi3EdLNS_9qualifierE0EEC2Eddd
# %bb.0:                                # %entry
	addi	sp, sp, -48
	sd	ra, 40(sp)
	sd	s0, 32(sp)
	addi	s0, sp, 48
	fmv.d.x	ft0, a3
	fmv.d.x	ft0, a2
	fmv.d.x	ft0, a1
	sd	a0, -24(s0)
	sd	a1, -32(s0)
	sd	a2, -40(s0)
	sd	a3, -48(s0)
	ld	a0, -24(s0)
	fld	ft0, -32(s0)
	fsd	ft0, 0(a0)
	fld	ft0, -40(s0)
	fsd	ft0, 8(a0)
	fld	ft0, -48(s0)
	fsd	ft0, 16(a0)
	ld	s0, 32(sp)
	ld	ra, 40(sp)
	addi	sp, sp, 48
	ret
.Lfunc_end64:
	.size	_ZN3glm3vecILi3EdLNS_9qualifierE0EEC2Eddd, .Lfunc_end64-_ZN3glm3vecILi3EdLNS_9qualifierE0EEC2Eddd
                                        # -- End function
	.section	.text._ZN3glm6lengthILi3EdLNS_9qualifierE0EEET0_RKNS_3vecIXT_ES2_XT1_EEE,"axG",@progbits,_ZN3glm6lengthILi3EdLNS_9qualifierE0EEET0_RKNS_3vecIXT_ES2_XT1_EEE,comdat
	.weak	_ZN3glm6lengthILi3EdLNS_9qualifierE0EEET0_RKNS_3vecIXT_ES2_XT1_EEE # -- Begin function _ZN3glm6lengthILi3EdLNS_9qualifierE0EEET0_RKNS_3vecIXT_ES2_XT1_EEE
	.p2align	2
	.type	_ZN3glm6lengthILi3EdLNS_9qualifierE0EEET0_RKNS_3vecIXT_ES2_XT1_EEE,@function
_ZN3glm6lengthILi3EdLNS_9qualifierE0EEET0_RKNS_3vecIXT_ES2_XT1_EEE: # @_ZN3glm6lengthILi3EdLNS_9qualifierE0EEET0_RKNS_3vecIXT_ES2_XT1_EEE
	.cfi_startproc
# %bb.0:                                # %entry
	addi	sp, sp, -32
	.cfi_def_cfa_offset 32
	sd	ra, 24(sp)
	sd	s0, 16(sp)
	.cfi_offset ra, -8
	.cfi_offset s0, -16
	addi	s0, sp, 32
	.cfi_def_cfa s0, 0
	sd	a0, -24(s0)
	ld	a0, -24(s0)
	call	_ZN3glm6detail14compute_lengthILi3EdLNS_9qualifierE0ELb0EE4callERKNS_3vecILi3EdLS2_0EEE
	ld	s0, 16(sp)
	.cfi_def_cfa sp, 32
	ld	ra, 24(sp)
	.cfi_restore ra
	.cfi_restore s0
	addi	sp, sp, 32
	.cfi_def_cfa_offset 0
	ret
.Lfunc_end65:
	.size	_ZN3glm6lengthILi3EdLNS_9qualifierE0EEET0_RKNS_3vecIXT_ES2_XT1_EEE, .Lfunc_end65-_ZN3glm6lengthILi3EdLNS_9qualifierE0EEET0_RKNS_3vecIXT_ES2_XT1_EEE
	.cfi_endproc
                                        # -- End function
	.text
	.globl	_ZN6Camera7captureEv    # -- Begin function _ZN6Camera7captureEv
	.p2align	2
	.type	_ZN6Camera7captureEv,@function
_ZN6Camera7captureEv:                   # @_ZN6Camera7captureEv
	.cfi_startproc
# %bb.0:                                # %entry
	addi	sp, sp, -48
	.cfi_def_cfa_offset 48
	sd	ra, 40(sp)
	sd	s0, 32(sp)
	sd	s1, 24(sp)
	sd	s2, 16(sp)
	.cfi_offset ra, -8
	.cfi_offset s0, -16
	.cfi_offset s1, -24
	.cfi_offset s2, -32
	addi	s0, sp, 48
	.cfi_def_cfa s0, 0
	sd	a0, -40(s0)
	ld	s1, -40(s0)
	lui	a0, %hi(.L.str.19)
	addi	s2, a0, %lo(.L.str.19)
	mv	a0, s2
	call	printf
	lui	a0, %hi(.L.str.20)
	addi	a0, a0, %lo(.L.str.20)
	call	printf
	mv	a0, s2
	call	printf
	ld	a1, 0(s1)
	ld	a2, 8(s1)
	lui	a0, %hi(.L.str.21)
	addi	a0, a0, %lo(.L.str.21)
	call	printf
	mv	a0, s1
	call	_ZN6Camera11sampleImageEv
	mv	a0, s1
	call	_ZNK6Camera9saveImageEv
	lui	a0, %hi(cnt_regular)
	lw	a1, %lo(cnt_regular)(a0)
	lui	a0, %hi(cnt_approx)
	lw	a2, %lo(cnt_approx)(a0)
	lui	a0, %hi(.L.str.22)
	addi	a0, a0, %lo(.L.str.22)
	call	printf
	ld	s2, 16(sp)
	ld	s1, 24(sp)
	ld	s0, 32(sp)
	.cfi_def_cfa sp, 48
	ld	ra, 40(sp)
	.cfi_restore ra
	.cfi_restore s0
	.cfi_restore s1
	.cfi_restore s2
	addi	sp, sp, 48
	.cfi_def_cfa_offset 0
	ret
.Lfunc_end66:
	.size	_ZN6Camera7captureEv, .Lfunc_end66-_ZN6Camera7captureEv
	.cfi_endproc
                                        # -- End function
	.section	.text._ZNK6Camera9saveImageEv,"axG",@progbits,_ZNK6Camera9saveImageEv,comdat
	.weak	_ZNK6Camera9saveImageEv # -- Begin function _ZNK6Camera9saveImageEv
	.p2align	2
	.type	_ZNK6Camera9saveImageEv,@function
_ZNK6Camera9saveImageEv:                # @_ZNK6Camera9saveImageEv
	.cfi_startproc
# %bb.0:                                # %entry
	addi	sp, sp, -32
	.cfi_def_cfa_offset 32
	sd	ra, 24(sp)
	sd	s0, 16(sp)
	.cfi_offset ra, -8
	.cfi_offset s0, -16
	addi	s0, sp, 32
	.cfi_def_cfa s0, 0
	sd	a0, -24(s0)
	ld	a1, -24(s0)
	addi	a0, a1, 144
	addi	a1, a1, 376
	call	_ZNK5Image4saveERKNSt7__cxx1112basic_stringIcSt11char_traitsIcESaIcEEE
	ld	s0, 16(sp)
	.cfi_def_cfa sp, 32
	ld	ra, 24(sp)
	.cfi_restore ra
	.cfi_restore s0
	addi	sp, sp, 32
	.cfi_def_cfa_offset 0
	ret
.Lfunc_end67:
	.size	_ZNK6Camera9saveImageEv, .Lfunc_end67-_ZNK6Camera9saveImageEv
	.cfi_endproc
                                        # -- End function
	.section	.text._ZNSt6vectorIN3glm3vecILi3EdLNS0_9qualifierE0EEESaIS3_EEC2Ev,"axG",@progbits,_ZNSt6vectorIN3glm3vecILi3EdLNS0_9qualifierE0EEESaIS3_EEC2Ev,comdat
	.weak	_ZNSt6vectorIN3glm3vecILi3EdLNS0_9qualifierE0EEESaIS3_EEC2Ev # -- Begin function _ZNSt6vectorIN3glm3vecILi3EdLNS0_9qualifierE0EEESaIS3_EEC2Ev
	.p2align	2
	.type	_ZNSt6vectorIN3glm3vecILi3EdLNS0_9qualifierE0EEESaIS3_EEC2Ev,@function
_ZNSt6vectorIN3glm3vecILi3EdLNS0_9qualifierE0EEESaIS3_EEC2Ev: # @_ZNSt6vectorIN3glm3vecILi3EdLNS0_9qualifierE0EEESaIS3_EEC2Ev
# %bb.0:                                # %entry
	addi	sp, sp, -32
	sd	ra, 24(sp)
	sd	s0, 16(sp)
	addi	s0, sp, 32
	sd	a0, -24(s0)
	ld	a0, -24(s0)
	call	_ZNSt12_Vector_baseIN3glm3vecILi3EdLNS0_9qualifierE0EEESaIS3_EEC2Ev
	ld	s0, 16(sp)
	ld	ra, 24(sp)
	addi	sp, sp, 32
	ret
.Lfunc_end68:
	.size	_ZNSt6vectorIN3glm3vecILi3EdLNS0_9qualifierE0EEESaIS3_EEC2Ev, .Lfunc_end68-_ZNSt6vectorIN3glm3vecILi3EdLNS0_9qualifierE0EEESaIS3_EEC2Ev
                                        # -- End function
	.section	.text._ZNSt8functionIFN3glm3vecILi3EdLNS0_9qualifierE0EEERKS3_EEC2Ev,"axG",@progbits,_ZNSt8functionIFN3glm3vecILi3EdLNS0_9qualifierE0EEERKS3_EEC2Ev,comdat
	.weak	_ZNSt8functionIFN3glm3vecILi3EdLNS0_9qualifierE0EEERKS3_EEC2Ev # -- Begin function _ZNSt8functionIFN3glm3vecILi3EdLNS0_9qualifierE0EEERKS3_EEC2Ev
	.p2align	2
	.type	_ZNSt8functionIFN3glm3vecILi3EdLNS0_9qualifierE0EEERKS3_EEC2Ev,@function
_ZNSt8functionIFN3glm3vecILi3EdLNS0_9qualifierE0EEERKS3_EEC2Ev: # @_ZNSt8functionIFN3glm3vecILi3EdLNS0_9qualifierE0EEERKS3_EEC2Ev
.Lfunc_begin9:
	.cfi_startproc
	.cfi_personality 155, DW.ref.__gxx_personality_v0
	.cfi_lsda 27, .Lexception9
# %bb.0:                                # %entry
	addi	sp, sp, -32
	.cfi_def_cfa_offset 32
	sd	ra, 24(sp)
	sd	s0, 16(sp)
	.cfi_offset ra, -8
	.cfi_offset s0, -16
	addi	s0, sp, 32
	.cfi_def_cfa s0, 0
	sd	a0, -24(s0)
	ld	a0, -24(s0)
.Ltmp243:
	call	_ZNSt14_Function_baseC2Ev
.Ltmp244:
	j	.LBB69_1
.LBB69_1:                               # %invoke.cont
	ld	s0, 16(sp)
	.cfi_def_cfa sp, 32
	ld	ra, 24(sp)
	.cfi_restore ra
	.cfi_restore s0
	addi	sp, sp, 32
	.cfi_def_cfa_offset 0
	ret
.LBB69_2:                               # %terminate.lpad
.Ltmp245:
	call	__clang_call_terminate
.Lfunc_end69:
	.size	_ZNSt8functionIFN3glm3vecILi3EdLNS0_9qualifierE0EEERKS3_EEC2Ev, .Lfunc_end69-_ZNSt8functionIFN3glm3vecILi3EdLNS0_9qualifierE0EEERKS3_EEC2Ev
	.cfi_endproc
	.section	.gcc_except_table,"a",@progbits
	.p2align	2
GCC_except_table69:
.Lexception9:
	.byte	255                     # @LPStart Encoding = omit
	.byte	155                     # @TType Encoding = indirect pcrel sdata4
	.uleb128 .Lttbase3-.Lttbaseref3
.Lttbaseref3:
	.byte	3                       # Call site Encoding = udata4
	.uleb128 .Lcst_end9-.Lcst_begin9
.Lcst_begin9:
	.word	.Ltmp243-.Lfunc_begin9  # >> Call Site 1 <<
	.word	.Ltmp244-.Ltmp243       #   Call between .Ltmp243 and .Ltmp244
	.word	.Ltmp245-.Lfunc_begin9  #     jumps to .Ltmp245
	.byte	1                       #   On action: 1
.Lcst_end9:
	.byte	1                       # >> Action Record 1 <<
                                        #   Catch TypeInfo 1
	.byte	0                       #   No further actions
	.p2align	2
                                        # >> Catch TypeInfos <<
	.word	0                       # TypeInfo 1
.Lttbase3:
	.p2align	2
                                        # -- End function
	.section	.text._ZNSt12_Vector_baseIN3glm3vecILi3EdLNS0_9qualifierE0EEESaIS3_EEC2Ev,"axG",@progbits,_ZNSt12_Vector_baseIN3glm3vecILi3EdLNS0_9qualifierE0EEESaIS3_EEC2Ev,comdat
	.weak	_ZNSt12_Vector_baseIN3glm3vecILi3EdLNS0_9qualifierE0EEESaIS3_EEC2Ev # -- Begin function _ZNSt12_Vector_baseIN3glm3vecILi3EdLNS0_9qualifierE0EEESaIS3_EEC2Ev
	.p2align	2
	.type	_ZNSt12_Vector_baseIN3glm3vecILi3EdLNS0_9qualifierE0EEESaIS3_EEC2Ev,@function
_ZNSt12_Vector_baseIN3glm3vecILi3EdLNS0_9qualifierE0EEESaIS3_EEC2Ev: # @_ZNSt12_Vector_baseIN3glm3vecILi3EdLNS0_9qualifierE0EEESaIS3_EEC2Ev
# %bb.0:                                # %entry
	addi	sp, sp, -32
	sd	ra, 24(sp)
	sd	s0, 16(sp)
	addi	s0, sp, 32
	sd	a0, -24(s0)
	ld	a0, -24(s0)
	call	_ZNSt12_Vector_baseIN3glm3vecILi3EdLNS0_9qualifierE0EEESaIS3_EE12_Vector_implC2Ev
	ld	s0, 16(sp)
	ld	ra, 24(sp)
	addi	sp, sp, 32
	ret
.Lfunc_end70:
	.size	_ZNSt12_Vector_baseIN3glm3vecILi3EdLNS0_9qualifierE0EEESaIS3_EEC2Ev, .Lfunc_end70-_ZNSt12_Vector_baseIN3glm3vecILi3EdLNS0_9qualifierE0EEESaIS3_EEC2Ev
                                        # -- End function
	.section	.text._ZNSt12_Vector_baseIN3glm3vecILi3EdLNS0_9qualifierE0EEESaIS3_EE12_Vector_implC2Ev,"axG",@progbits,_ZNSt12_Vector_baseIN3glm3vecILi3EdLNS0_9qualifierE0EEESaIS3_EE12_Vector_implC2Ev,comdat
	.weak	_ZNSt12_Vector_baseIN3glm3vecILi3EdLNS0_9qualifierE0EEESaIS3_EE12_Vector_implC2Ev # -- Begin function _ZNSt12_Vector_baseIN3glm3vecILi3EdLNS0_9qualifierE0EEESaIS3_EE12_Vector_implC2Ev
	.p2align	2
	.type	_ZNSt12_Vector_baseIN3glm3vecILi3EdLNS0_9qualifierE0EEESaIS3_EE12_Vector_implC2Ev,@function
_ZNSt12_Vector_baseIN3glm3vecILi3EdLNS0_9qualifierE0EEESaIS3_EE12_Vector_implC2Ev: # @_ZNSt12_Vector_baseIN3glm3vecILi3EdLNS0_9qualifierE0EEESaIS3_EE12_Vector_implC2Ev
# %bb.0:                                # %entry
	addi	sp, sp, -32
	sd	ra, 24(sp)
	sd	s0, 16(sp)
	sd	s1, 8(sp)
	addi	s0, sp, 32
	sd	a0, -32(s0)
	ld	s1, -32(s0)
	mv	a0, s1
	call	_ZNSaIN3glm3vecILi3EdLNS_9qualifierE0EEEEC2Ev
	mv	a0, s1
	call	_ZNSt12_Vector_baseIN3glm3vecILi3EdLNS0_9qualifierE0EEESaIS3_EE17_Vector_impl_dataC2Ev
	ld	s1, 8(sp)
	ld	s0, 16(sp)
	ld	ra, 24(sp)
	addi	sp, sp, 32
	ret
.Lfunc_end71:
	.size	_ZNSt12_Vector_baseIN3glm3vecILi3EdLNS0_9qualifierE0EEESaIS3_EE12_Vector_implC2Ev, .Lfunc_end71-_ZNSt12_Vector_baseIN3glm3vecILi3EdLNS0_9qualifierE0EEESaIS3_EE12_Vector_implC2Ev
                                        # -- End function
	.section	.text._ZNSaIN3glm3vecILi3EdLNS_9qualifierE0EEEEC2Ev,"axG",@progbits,_ZNSaIN3glm3vecILi3EdLNS_9qualifierE0EEEEC2Ev,comdat
	.weak	_ZNSaIN3glm3vecILi3EdLNS_9qualifierE0EEEEC2Ev # -- Begin function _ZNSaIN3glm3vecILi3EdLNS_9qualifierE0EEEEC2Ev
	.p2align	2
	.type	_ZNSaIN3glm3vecILi3EdLNS_9qualifierE0EEEEC2Ev,@function
_ZNSaIN3glm3vecILi3EdLNS_9qualifierE0EEEEC2Ev: # @_ZNSaIN3glm3vecILi3EdLNS_9qualifierE0EEEEC2Ev
# %bb.0:                                # %entry
	addi	sp, sp, -32
	sd	ra, 24(sp)
	sd	s0, 16(sp)
	addi	s0, sp, 32
	sd	a0, -24(s0)
	ld	a0, -24(s0)
	call	_ZN9__gnu_cxx13new_allocatorIN3glm3vecILi3EdLNS1_9qualifierE0EEEEC2Ev
	ld	s0, 16(sp)
	ld	ra, 24(sp)
	addi	sp, sp, 32
	ret
.Lfunc_end72:
	.size	_ZNSaIN3glm3vecILi3EdLNS_9qualifierE0EEEEC2Ev, .Lfunc_end72-_ZNSaIN3glm3vecILi3EdLNS_9qualifierE0EEEEC2Ev
                                        # -- End function
	.section	.text._ZN9__gnu_cxx13new_allocatorIN3glm3vecILi3EdLNS1_9qualifierE0EEEEC2Ev,"axG",@progbits,_ZN9__gnu_cxx13new_allocatorIN3glm3vecILi3EdLNS1_9qualifierE0EEEEC2Ev,comdat
	.weak	_ZN9__gnu_cxx13new_allocatorIN3glm3vecILi3EdLNS1_9qualifierE0EEEEC2Ev # -- Begin function _ZN9__gnu_cxx13new_allocatorIN3glm3vecILi3EdLNS1_9qualifierE0EEEEC2Ev
	.p2align	2
	.type	_ZN9__gnu_cxx13new_allocatorIN3glm3vecILi3EdLNS1_9qualifierE0EEEEC2Ev,@function
_ZN9__gnu_cxx13new_allocatorIN3glm3vecILi3EdLNS1_9qualifierE0EEEEC2Ev: # @_ZN9__gnu_cxx13new_allocatorIN3glm3vecILi3EdLNS1_9qualifierE0EEEEC2Ev
# %bb.0:                                # %entry
	addi	sp, sp, -32
	sd	ra, 24(sp)
	sd	s0, 16(sp)
	addi	s0, sp, 32
	sd	a0, -24(s0)
	ld	s0, 16(sp)
	ld	ra, 24(sp)
	addi	sp, sp, 32
	ret
.Lfunc_end73:
	.size	_ZN9__gnu_cxx13new_allocatorIN3glm3vecILi3EdLNS1_9qualifierE0EEEEC2Ev, .Lfunc_end73-_ZN9__gnu_cxx13new_allocatorIN3glm3vecILi3EdLNS1_9qualifierE0EEEEC2Ev
                                        # -- End function
	.section	.text._ZNSt14_Function_baseC2Ev,"axG",@progbits,_ZNSt14_Function_baseC2Ev,comdat
	.weak	_ZNSt14_Function_baseC2Ev # -- Begin function _ZNSt14_Function_baseC2Ev
	.p2align	2
	.type	_ZNSt14_Function_baseC2Ev,@function
_ZNSt14_Function_baseC2Ev:              # @_ZNSt14_Function_baseC2Ev
# %bb.0:                                # %entry
	addi	sp, sp, -32
	sd	ra, 24(sp)
	sd	s0, 16(sp)
	addi	s0, sp, 32
	sd	a0, -24(s0)
	ld	a0, -24(s0)
	sd	zero, 16(a0)
	ld	s0, 16(sp)
	ld	ra, 24(sp)
	addi	sp, sp, 32
	ret
.Lfunc_end74:
	.size	_ZNSt14_Function_baseC2Ev, .Lfunc_end74-_ZNSt14_Function_baseC2Ev
                                        # -- End function
	.section	.text.__clang_call_terminate,"axG",@progbits,__clang_call_terminate,comdat
	.hidden	__clang_call_terminate  # -- Begin function __clang_call_terminate
	.weak	__clang_call_terminate
	.p2align	2
	.type	__clang_call_terminate,@function
__clang_call_terminate:                 # @__clang_call_terminate
# %bb.0:
	addi	sp, sp, -16
	sd	ra, 8(sp)
	call	__cxa_begin_catch
	call	_ZSt9terminatev
.Lfunc_end75:
	.size	__clang_call_terminate, .Lfunc_end75-__clang_call_terminate
                                        # -- End function
	.section	.text._ZNSt12__shared_ptrI10IntegratorLN9__gnu_cxx12_Lock_policyE0EEC2Ev,"axG",@progbits,_ZNSt12__shared_ptrI10IntegratorLN9__gnu_cxx12_Lock_policyE0EEC2Ev,comdat
	.weak	_ZNSt12__shared_ptrI10IntegratorLN9__gnu_cxx12_Lock_policyE0EEC2Ev # -- Begin function _ZNSt12__shared_ptrI10IntegratorLN9__gnu_cxx12_Lock_policyE0EEC2Ev
	.p2align	2
	.type	_ZNSt12__shared_ptrI10IntegratorLN9__gnu_cxx12_Lock_policyE0EEC2Ev,@function
_ZNSt12__shared_ptrI10IntegratorLN9__gnu_cxx12_Lock_policyE0EEC2Ev: # @_ZNSt12__shared_ptrI10IntegratorLN9__gnu_cxx12_Lock_policyE0EEC2Ev
# %bb.0:                                # %entry
	addi	sp, sp, -32
	sd	ra, 24(sp)
	sd	s0, 16(sp)
	addi	s0, sp, 32
	sd	a0, -24(s0)
	ld	a0, -24(s0)
	sd	zero, 0(a0)
	addi	a0, a0, 8
	call	_ZNSt14__shared_countILN9__gnu_cxx12_Lock_policyE0EEC2Ev
	ld	s0, 16(sp)
	ld	ra, 24(sp)
	addi	sp, sp, 32
	ret
.Lfunc_end76:
	.size	_ZNSt12__shared_ptrI10IntegratorLN9__gnu_cxx12_Lock_policyE0EEC2Ev, .Lfunc_end76-_ZNSt12__shared_ptrI10IntegratorLN9__gnu_cxx12_Lock_policyE0EEC2Ev
                                        # -- End function
	.section	.text._ZNSt14__shared_countILN9__gnu_cxx12_Lock_policyE0EEC2Ev,"axG",@progbits,_ZNSt14__shared_countILN9__gnu_cxx12_Lock_policyE0EEC2Ev,comdat
	.weak	_ZNSt14__shared_countILN9__gnu_cxx12_Lock_policyE0EEC2Ev # -- Begin function _ZNSt14__shared_countILN9__gnu_cxx12_Lock_policyE0EEC2Ev
	.p2align	2
	.type	_ZNSt14__shared_countILN9__gnu_cxx12_Lock_policyE0EEC2Ev,@function
_ZNSt14__shared_countILN9__gnu_cxx12_Lock_policyE0EEC2Ev: # @_ZNSt14__shared_countILN9__gnu_cxx12_Lock_policyE0EEC2Ev
# %bb.0:                                # %entry
	addi	sp, sp, -32
	sd	ra, 24(sp)
	sd	s0, 16(sp)
	addi	s0, sp, 32
	sd	a0, -24(s0)
	ld	a0, -24(s0)
	sd	zero, 0(a0)
	ld	s0, 16(sp)
	ld	ra, 24(sp)
	addi	sp, sp, 32
	ret
.Lfunc_end77:
	.size	_ZNSt14__shared_countILN9__gnu_cxx12_Lock_policyE0EEC2Ev, .Lfunc_end77-_ZNSt14__shared_countILN9__gnu_cxx12_Lock_policyE0EEC2Ev
                                        # -- End function
	.section	.text._ZNSt11_Deque_baseIdSaIdEEC2Ev,"axG",@progbits,_ZNSt11_Deque_baseIdSaIdEEC2Ev,comdat
	.weak	_ZNSt11_Deque_baseIdSaIdEEC2Ev # -- Begin function _ZNSt11_Deque_baseIdSaIdEEC2Ev
	.p2align	2
	.type	_ZNSt11_Deque_baseIdSaIdEEC2Ev,@function
_ZNSt11_Deque_baseIdSaIdEEC2Ev:         # @_ZNSt11_Deque_baseIdSaIdEEC2Ev
.Lfunc_begin10:
	.cfi_startproc
	.cfi_personality 155, DW.ref.__gxx_personality_v0
	.cfi_lsda 27, .Lexception10
# %bb.0:                                # %entry
	addi	sp, sp, -48
	.cfi_def_cfa_offset 48
	sd	ra, 40(sp)
	sd	s0, 32(sp)
	sd	s1, 24(sp)
	.cfi_offset ra, -8
	.cfi_offset s0, -16
	.cfi_offset s1, -24
	addi	s0, sp, 48
	.cfi_def_cfa s0, 0
	sd	a0, -32(s0)
	ld	s1, -32(s0)
	mv	a0, s1
	call	_ZNSt11_Deque_baseIdSaIdEE11_Deque_implC2Ev
.Ltmp246:
	mv	a0, s1
	mv	a1, zero
	call	_ZNSt11_Deque_baseIdSaIdEE17_M_initialize_mapEm
.Ltmp247:
	j	.LBB78_1
.LBB78_1:                               # %invoke.cont
	ld	s1, 24(sp)
	ld	s0, 32(sp)
	.cfi_def_cfa sp, 48
	ld	ra, 40(sp)
	.cfi_restore ra
	.cfi_restore s0
	.cfi_restore s1
	addi	sp, sp, 48
	.cfi_def_cfa_offset 0
	ret
.LBB78_2:                               # %lpad
.Ltmp248:
	sd	a0, -40(s0)
	sw	a1, -44(s0)
	mv	a0, s1
	call	_ZNSt11_Deque_baseIdSaIdEE11_Deque_implD2Ev
	j	.LBB78_3
.LBB78_3:                               # %eh.resume
	ld	a0, -40(s0)
	call	_Unwind_Resume
.Lfunc_end78:
	.size	_ZNSt11_Deque_baseIdSaIdEEC2Ev, .Lfunc_end78-_ZNSt11_Deque_baseIdSaIdEEC2Ev
	.cfi_endproc
	.section	.gcc_except_table,"a",@progbits
	.p2align	2
GCC_except_table78:
.Lexception10:
	.byte	255                     # @LPStart Encoding = omit
	.byte	255                     # @TType Encoding = omit
	.byte	3                       # Call site Encoding = udata4
	.uleb128 .Lcst_end10-.Lcst_begin10
.Lcst_begin10:
	.word	.Ltmp246-.Lfunc_begin10 # >> Call Site 1 <<
	.word	.Ltmp247-.Ltmp246       #   Call between .Ltmp246 and .Ltmp247
	.word	.Ltmp248-.Lfunc_begin10 #     jumps to .Ltmp248
	.byte	0                       #   On action: cleanup
	.word	.Ltmp247-.Lfunc_begin10 # >> Call Site 2 <<
	.word	.Lfunc_end78-.Ltmp247   #   Call between .Ltmp247 and .Lfunc_end78
	.word	0                       #     has no landing pad
	.byte	0                       #   On action: cleanup
.Lcst_end10:
	.p2align	2
                                        # -- End function
	.section	.text._ZNSt11_Deque_baseIdSaIdEE11_Deque_implC2Ev,"axG",@progbits,_ZNSt11_Deque_baseIdSaIdEE11_Deque_implC2Ev,comdat
	.weak	_ZNSt11_Deque_baseIdSaIdEE11_Deque_implC2Ev # -- Begin function _ZNSt11_Deque_baseIdSaIdEE11_Deque_implC2Ev
	.p2align	2
	.type	_ZNSt11_Deque_baseIdSaIdEE11_Deque_implC2Ev,@function
_ZNSt11_Deque_baseIdSaIdEE11_Deque_implC2Ev: # @_ZNSt11_Deque_baseIdSaIdEE11_Deque_implC2Ev
# %bb.0:                                # %entry
	addi	sp, sp, -32
	sd	ra, 24(sp)
	sd	s0, 16(sp)
	sd	s1, 8(sp)
	addi	s0, sp, 32
	sd	a0, -32(s0)
	ld	s1, -32(s0)
	mv	a0, s1
	call	_ZNSaIdEC2Ev
	mv	a0, s1
	call	_ZNSt11_Deque_baseIdSaIdEE16_Deque_impl_dataC2Ev
	ld	s1, 8(sp)
	ld	s0, 16(sp)
	ld	ra, 24(sp)
	addi	sp, sp, 32
	ret
.Lfunc_end79:
	.size	_ZNSt11_Deque_baseIdSaIdEE11_Deque_implC2Ev, .Lfunc_end79-_ZNSt11_Deque_baseIdSaIdEE11_Deque_implC2Ev
                                        # -- End function
	.section	.text._ZNSt11_Deque_baseIdSaIdEE17_M_initialize_mapEm,"axG",@progbits,_ZNSt11_Deque_baseIdSaIdEE17_M_initialize_mapEm,comdat
	.weak	_ZNSt11_Deque_baseIdSaIdEE17_M_initialize_mapEm # -- Begin function _ZNSt11_Deque_baseIdSaIdEE17_M_initialize_mapEm
	.p2align	2
	.type	_ZNSt11_Deque_baseIdSaIdEE17_M_initialize_mapEm,@function
_ZNSt11_Deque_baseIdSaIdEE17_M_initialize_mapEm: # @_ZNSt11_Deque_baseIdSaIdEE17_M_initialize_mapEm
.Lfunc_begin11:
	.cfi_startproc
	.cfi_personality 155, DW.ref.__gxx_personality_v0
	.cfi_lsda 27, .Lexception11
# %bb.0:                                # %entry
	addi	sp, sp, -112
	.cfi_def_cfa_offset 112
	sd	ra, 104(sp)
	sd	s0, 96(sp)
	sd	s1, 88(sp)
	sd	s2, 80(sp)
	sd	s3, 72(sp)
	.cfi_offset ra, -8
	.cfi_offset s0, -16
	.cfi_offset s1, -24
	.cfi_offset s2, -32
	.cfi_offset s3, -40
	addi	s0, sp, 112
	.cfi_def_cfa s0, 0
	sd	a0, -48(s0)
	sd	a1, -56(s0)
	ld	s1, -48(s0)
	ld	s2, -56(s0)
	addi	s3, zero, 8
	addi	a0, zero, 8
	call	_ZSt16__deque_buf_sizem
	divu	a0, s2, a0
	addi	a0, a0, 1
	sd	a0, -64(s0)
	sd	s3, -72(s0)
	ld	a0, -64(s0)
	addi	a0, a0, 2
	sd	a0, -80(s0)
	addi	a0, s0, -72
	addi	a1, s0, -80
	call	_ZSt3maxImERKT_S2_S2_
	ld	a0, 0(a0)
	sd	a0, 8(s1)
	ld	a1, 8(s1)
	mv	a0, s1
	call	_ZNSt11_Deque_baseIdSaIdEE15_M_allocate_mapEm
	sd	a0, 0(s1)
	ld	a0, 0(s1)
	ld	a1, 8(s1)
	ld	a2, -64(s0)
	sub	a1, a1, a2
	slli	a1, a1, 2
	andi	a1, a1, -8
	add	a0, a0, a1
	sd	a0, -88(s0)
	ld	a0, -88(s0)
	ld	a1, -64(s0)
	slli	a1, a1, 3
	add	a0, a0, a1
	sd	a0, -96(s0)
	ld	a1, -88(s0)
	ld	a2, -96(s0)
.Ltmp249:
	mv	a0, s1
	call	_ZNSt11_Deque_baseIdSaIdEE15_M_create_nodesEPPdS3_
.Ltmp250:
	j	.LBB80_1
.LBB80_1:                               # %invoke.cont
	j	.LBB80_6
.LBB80_2:                               # %lpad
.Ltmp251:
	sd	a0, -104(s0)
	sw	a1, -108(s0)
	j	.LBB80_3
.LBB80_3:                               # %catch
	ld	a0, -104(s0)
	call	__cxa_begin_catch
	ld	a1, 0(s1)
	ld	a2, 8(s1)
	mv	a0, s1
	call	_ZNSt11_Deque_baseIdSaIdEE17_M_deallocate_mapEPPdm
	sd	zero, 0(s1)
	sd	zero, 8(s1)
.Ltmp252:
	call	__cxa_rethrow
.Ltmp253:
	j	.LBB80_9
.LBB80_4:                               # %lpad23
.Ltmp254:
	sd	a0, -104(s0)
	sw	a1, -108(s0)
.Ltmp255:
	call	__cxa_end_catch
.Ltmp256:
	j	.LBB80_5
.LBB80_5:                               # %invoke.cont24
	j	.LBB80_7
.LBB80_6:                               # %try.cont
	addi	a0, s1, 16
	ld	a1, -88(s0)
	call	_ZNSt15_Deque_iteratorIdRdPdE11_M_set_nodeEPS1_
	addi	a0, s1, 48
	ld	a1, -96(s0)
	addi	a1, a1, -8
	call	_ZNSt15_Deque_iteratorIdRdPdE11_M_set_nodeEPS1_
	ld	a0, 24(s1)
	sd	a0, 16(s1)
	ld	s2, 56(s1)
	ld	s3, -56(s0)
	addi	a0, zero, 8
	call	_ZSt16__deque_buf_sizem
	remu	a0, s3, a0
	slli	a0, a0, 3
	add	a0, s2, a0
	sd	a0, 48(s1)
	ld	s3, 72(sp)
	ld	s2, 80(sp)
	ld	s1, 88(sp)
	ld	s0, 96(sp)
	.cfi_def_cfa sp, 112
	ld	ra, 104(sp)
	.cfi_restore ra
	.cfi_restore s0
	.cfi_restore s1
	.cfi_restore s2
	.cfi_restore s3
	addi	sp, sp, 112
	.cfi_def_cfa_offset 0
	ret
.LBB80_7:                               # %eh.resume
	ld	a0, -104(s0)
	call	_Unwind_Resume
.LBB80_8:                               # %terminate.lpad
.Ltmp257:
	call	__clang_call_terminate
.LBB80_9:                               # %unreachable
.Lfunc_end80:
	.size	_ZNSt11_Deque_baseIdSaIdEE17_M_initialize_mapEm, .Lfunc_end80-_ZNSt11_Deque_baseIdSaIdEE17_M_initialize_mapEm
	.cfi_endproc
	.section	.gcc_except_table,"a",@progbits
	.p2align	2
GCC_except_table80:
.Lexception11:
	.byte	255                     # @LPStart Encoding = omit
	.byte	155                     # @TType Encoding = indirect pcrel sdata4
	.uleb128 .Lttbase4-.Lttbaseref4
.Lttbaseref4:
	.byte	3                       # Call site Encoding = udata4
	.uleb128 .Lcst_end11-.Lcst_begin11
.Lcst_begin11:
	.word	.Lfunc_begin11-.Lfunc_begin11 # >> Call Site 1 <<
	.word	.Ltmp249-.Lfunc_begin11 #   Call between .Lfunc_begin11 and .Ltmp249
	.word	0                       #     has no landing pad
	.byte	0                       #   On action: cleanup
	.word	.Ltmp249-.Lfunc_begin11 # >> Call Site 2 <<
	.word	.Ltmp250-.Ltmp249       #   Call between .Ltmp249 and .Ltmp250
	.word	.Ltmp251-.Lfunc_begin11 #     jumps to .Ltmp251
	.byte	1                       #   On action: 1
	.word	.Ltmp250-.Lfunc_begin11 # >> Call Site 3 <<
	.word	.Ltmp252-.Ltmp250       #   Call between .Ltmp250 and .Ltmp252
	.word	0                       #     has no landing pad
	.byte	0                       #   On action: cleanup
	.word	.Ltmp252-.Lfunc_begin11 # >> Call Site 4 <<
	.word	.Ltmp253-.Ltmp252       #   Call between .Ltmp252 and .Ltmp253
	.word	.Ltmp254-.Lfunc_begin11 #     jumps to .Ltmp254
	.byte	0                       #   On action: cleanup
	.word	.Ltmp255-.Lfunc_begin11 # >> Call Site 5 <<
	.word	.Ltmp256-.Ltmp255       #   Call between .Ltmp255 and .Ltmp256
	.word	.Ltmp257-.Lfunc_begin11 #     jumps to .Ltmp257
	.byte	1                       #   On action: 1
	.word	.Ltmp256-.Lfunc_begin11 # >> Call Site 6 <<
	.word	.Lfunc_end80-.Ltmp256   #   Call between .Ltmp256 and .Lfunc_end80
	.word	0                       #     has no landing pad
	.byte	0                       #   On action: cleanup
.Lcst_end11:
	.byte	1                       # >> Action Record 1 <<
                                        #   Catch TypeInfo 1
	.byte	0                       #   No further actions
	.p2align	2
                                        # >> Catch TypeInfos <<
	.word	0                       # TypeInfo 1
.Lttbase4:
	.p2align	2
                                        # -- End function
	.section	.text._ZNSt11_Deque_baseIdSaIdEE11_Deque_implD2Ev,"axG",@progbits,_ZNSt11_Deque_baseIdSaIdEE11_Deque_implD2Ev,comdat
	.weak	_ZNSt11_Deque_baseIdSaIdEE11_Deque_implD2Ev # -- Begin function _ZNSt11_Deque_baseIdSaIdEE11_Deque_implD2Ev
	.p2align	2
	.type	_ZNSt11_Deque_baseIdSaIdEE11_Deque_implD2Ev,@function
_ZNSt11_Deque_baseIdSaIdEE11_Deque_implD2Ev: # @_ZNSt11_Deque_baseIdSaIdEE11_Deque_implD2Ev
# %bb.0:                                # %entry
	addi	sp, sp, -32
	sd	ra, 24(sp)
	sd	s0, 16(sp)
	addi	s0, sp, 32
	sd	a0, -24(s0)
	ld	a0, -24(s0)
	call	_ZNSaIdED2Ev
	ld	s0, 16(sp)
	ld	ra, 24(sp)
	addi	sp, sp, 32
	ret
.Lfunc_end81:
	.size	_ZNSt11_Deque_baseIdSaIdEE11_Deque_implD2Ev, .Lfunc_end81-_ZNSt11_Deque_baseIdSaIdEE11_Deque_implD2Ev
                                        # -- End function
	.section	.text._ZNSaIdEC2Ev,"axG",@progbits,_ZNSaIdEC2Ev,comdat
	.weak	_ZNSaIdEC2Ev            # -- Begin function _ZNSaIdEC2Ev
	.p2align	2
	.type	_ZNSaIdEC2Ev,@function
_ZNSaIdEC2Ev:                           # @_ZNSaIdEC2Ev
# %bb.0:                                # %entry
	addi	sp, sp, -32
	sd	ra, 24(sp)
	sd	s0, 16(sp)
	addi	s0, sp, 32
	sd	a0, -24(s0)
	ld	a0, -24(s0)
	call	_ZN9__gnu_cxx13new_allocatorIdEC2Ev
	ld	s0, 16(sp)
	ld	ra, 24(sp)
	addi	sp, sp, 32
	ret
.Lfunc_end82:
	.size	_ZNSaIdEC2Ev, .Lfunc_end82-_ZNSaIdEC2Ev
                                        # -- End function
	.section	.text._ZNSt11_Deque_baseIdSaIdEE16_Deque_impl_dataC2Ev,"axG",@progbits,_ZNSt11_Deque_baseIdSaIdEE16_Deque_impl_dataC2Ev,comdat
	.weak	_ZNSt11_Deque_baseIdSaIdEE16_Deque_impl_dataC2Ev # -- Begin function _ZNSt11_Deque_baseIdSaIdEE16_Deque_impl_dataC2Ev
	.p2align	2
	.type	_ZNSt11_Deque_baseIdSaIdEE16_Deque_impl_dataC2Ev,@function
_ZNSt11_Deque_baseIdSaIdEE16_Deque_impl_dataC2Ev: # @_ZNSt11_Deque_baseIdSaIdEE16_Deque_impl_dataC2Ev
# %bb.0:                                # %entry
	addi	sp, sp, -32
	sd	ra, 24(sp)
	sd	s0, 16(sp)
	sd	s1, 8(sp)
	addi	s0, sp, 32
	sd	a0, -32(s0)
	ld	s1, -32(s0)
	sd	zero, 0(s1)
	sd	zero, 8(s1)
	addi	a0, s1, 16
	call	_ZNSt15_Deque_iteratorIdRdPdEC2Ev
	addi	a0, s1, 48
	call	_ZNSt15_Deque_iteratorIdRdPdEC2Ev
	ld	s1, 8(sp)
	ld	s0, 16(sp)
	ld	ra, 24(sp)
	addi	sp, sp, 32
	ret
.Lfunc_end83:
	.size	_ZNSt11_Deque_baseIdSaIdEE16_Deque_impl_dataC2Ev, .Lfunc_end83-_ZNSt11_Deque_baseIdSaIdEE16_Deque_impl_dataC2Ev
                                        # -- End function
	.section	.text._ZN9__gnu_cxx13new_allocatorIdEC2Ev,"axG",@progbits,_ZN9__gnu_cxx13new_allocatorIdEC2Ev,comdat
	.weak	_ZN9__gnu_cxx13new_allocatorIdEC2Ev # -- Begin function _ZN9__gnu_cxx13new_allocatorIdEC2Ev
	.p2align	2
	.type	_ZN9__gnu_cxx13new_allocatorIdEC2Ev,@function
_ZN9__gnu_cxx13new_allocatorIdEC2Ev:    # @_ZN9__gnu_cxx13new_allocatorIdEC2Ev
# %bb.0:                                # %entry
	addi	sp, sp, -32
	sd	ra, 24(sp)
	sd	s0, 16(sp)
	addi	s0, sp, 32
	sd	a0, -24(s0)
	ld	s0, 16(sp)
	ld	ra, 24(sp)
	addi	sp, sp, 32
	ret
.Lfunc_end84:
	.size	_ZN9__gnu_cxx13new_allocatorIdEC2Ev, .Lfunc_end84-_ZN9__gnu_cxx13new_allocatorIdEC2Ev
                                        # -- End function
	.section	.text._ZNSt15_Deque_iteratorIdRdPdEC2Ev,"axG",@progbits,_ZNSt15_Deque_iteratorIdRdPdEC2Ev,comdat
	.weak	_ZNSt15_Deque_iteratorIdRdPdEC2Ev # -- Begin function _ZNSt15_Deque_iteratorIdRdPdEC2Ev
	.p2align	2
	.type	_ZNSt15_Deque_iteratorIdRdPdEC2Ev,@function
_ZNSt15_Deque_iteratorIdRdPdEC2Ev:      # @_ZNSt15_Deque_iteratorIdRdPdEC2Ev
# %bb.0:                                # %entry
	addi	sp, sp, -32
	sd	ra, 24(sp)
	sd	s0, 16(sp)
	addi	s0, sp, 32
	sd	a0, -24(s0)
	ld	a0, -24(s0)
	sd	zero, 0(a0)
	sd	zero, 8(a0)
	sd	zero, 16(a0)
	sd	zero, 24(a0)
	ld	s0, 16(sp)
	ld	ra, 24(sp)
	addi	sp, sp, 32
	ret
.Lfunc_end85:
	.size	_ZNSt15_Deque_iteratorIdRdPdEC2Ev, .Lfunc_end85-_ZNSt15_Deque_iteratorIdRdPdEC2Ev
                                        # -- End function
	.section	.text._ZSt16__deque_buf_sizem,"axG",@progbits,_ZSt16__deque_buf_sizem,comdat
	.weak	_ZSt16__deque_buf_sizem # -- Begin function _ZSt16__deque_buf_sizem
	.p2align	2
	.type	_ZSt16__deque_buf_sizem,@function
_ZSt16__deque_buf_sizem:                # @_ZSt16__deque_buf_sizem
# %bb.0:                                # %entry
	addi	sp, sp, -32
	sd	ra, 24(sp)
	sd	s0, 16(sp)
	addi	s0, sp, 32
	sd	a0, -24(s0)
	ld	a0, -24(s0)
	addi	a1, zero, 511
	bltu	a1, a0, .LBB86_2
	j	.LBB86_1
.LBB86_1:                               # %cond.true
	ld	a0, -24(s0)
	addi	a1, zero, 512
	divu	a0, a1, a0
	j	.LBB86_3
.LBB86_2:                               # %cond.false
	addi	a0, zero, 1
	j	.LBB86_3
.LBB86_3:                               # %cond.end
	ld	s0, 16(sp)
	ld	ra, 24(sp)
	addi	sp, sp, 32
	ret
.Lfunc_end86:
	.size	_ZSt16__deque_buf_sizem, .Lfunc_end86-_ZSt16__deque_buf_sizem
                                        # -- End function
	.section	.text._ZSt3maxImERKT_S2_S2_,"axG",@progbits,_ZSt3maxImERKT_S2_S2_,comdat
	.weak	_ZSt3maxImERKT_S2_S2_   # -- Begin function _ZSt3maxImERKT_S2_S2_
	.p2align	2
	.type	_ZSt3maxImERKT_S2_S2_,@function
_ZSt3maxImERKT_S2_S2_:                  # @_ZSt3maxImERKT_S2_S2_
# %bb.0:                                # %entry
	addi	sp, sp, -48
	sd	ra, 40(sp)
	sd	s0, 32(sp)
	addi	s0, sp, 48
	sd	a0, -32(s0)
	sd	a1, -40(s0)
	ld	a0, -32(s0)
	ld	a0, 0(a0)
	ld	a1, -40(s0)
	ld	a1, 0(a1)
	bgeu	a0, a1, .LBB87_2
	j	.LBB87_1
.LBB87_1:                               # %if.then
	ld	a0, -40(s0)
	sd	a0, -24(s0)
	j	.LBB87_3
.LBB87_2:                               # %if.end
	ld	a0, -32(s0)
	sd	a0, -24(s0)
	j	.LBB87_3
.LBB87_3:                               # %return
	ld	a0, -24(s0)
	ld	s0, 32(sp)
	ld	ra, 40(sp)
	addi	sp, sp, 48
	ret
.Lfunc_end87:
	.size	_ZSt3maxImERKT_S2_S2_, .Lfunc_end87-_ZSt3maxImERKT_S2_S2_
                                        # -- End function
	.section	.text._ZNSt11_Deque_baseIdSaIdEE15_M_allocate_mapEm,"axG",@progbits,_ZNSt11_Deque_baseIdSaIdEE15_M_allocate_mapEm,comdat
	.weak	_ZNSt11_Deque_baseIdSaIdEE15_M_allocate_mapEm # -- Begin function _ZNSt11_Deque_baseIdSaIdEE15_M_allocate_mapEm
	.p2align	2
	.type	_ZNSt11_Deque_baseIdSaIdEE15_M_allocate_mapEm,@function
_ZNSt11_Deque_baseIdSaIdEE15_M_allocate_mapEm: # @_ZNSt11_Deque_baseIdSaIdEE15_M_allocate_mapEm
.Lfunc_begin12:
	.cfi_startproc
	.cfi_personality 155, DW.ref.__gxx_personality_v0
	.cfi_lsda 27, .Lexception12
# %bb.0:                                # %entry
	addi	sp, sp, -64
	.cfi_def_cfa_offset 64
	sd	ra, 56(sp)
	sd	s0, 48(sp)
	sd	s1, 40(sp)
	.cfi_offset ra, -8
	.cfi_offset s0, -16
	.cfi_offset s1, -24
	addi	s0, sp, 64
	.cfi_def_cfa s0, 0
	sd	a0, -32(s0)
	sd	a1, -40(s0)
	ld	a1, -32(s0)
	addi	s1, s0, -48
	mv	a0, s1
	call	_ZNKSt11_Deque_baseIdSaIdEE20_M_get_map_allocatorEv
	ld	a1, -40(s0)
.Ltmp258:
	mv	a0, s1
	call	_ZNSt16allocator_traitsISaIPdEE8allocateERS1_m
	mv	s1, a0
.Ltmp259:
	j	.LBB88_1
.LBB88_1:                               # %invoke.cont
	addi	a0, s0, -48
	call	_ZNSaIPdED2Ev
	mv	a0, s1
	ld	s1, 40(sp)
	ld	s0, 48(sp)
	.cfi_def_cfa sp, 64
	ld	ra, 56(sp)
	.cfi_restore ra
	.cfi_restore s0
	.cfi_restore s1
	addi	sp, sp, 64
	.cfi_def_cfa_offset 0
	ret
.LBB88_2:                               # %lpad
.Ltmp260:
	sd	a0, -56(s0)
	sw	a1, -60(s0)
	addi	a0, s0, -48
	call	_ZNSaIPdED2Ev
	j	.LBB88_3
.LBB88_3:                               # %eh.resume
	ld	a0, -56(s0)
	call	_Unwind_Resume
.Lfunc_end88:
	.size	_ZNSt11_Deque_baseIdSaIdEE15_M_allocate_mapEm, .Lfunc_end88-_ZNSt11_Deque_baseIdSaIdEE15_M_allocate_mapEm
	.cfi_endproc
	.section	.gcc_except_table,"a",@progbits
	.p2align	2
GCC_except_table88:
.Lexception12:
	.byte	255                     # @LPStart Encoding = omit
	.byte	255                     # @TType Encoding = omit
	.byte	3                       # Call site Encoding = udata4
	.uleb128 .Lcst_end12-.Lcst_begin12
.Lcst_begin12:
	.word	.Ltmp258-.Lfunc_begin12 # >> Call Site 1 <<
	.word	.Ltmp259-.Ltmp258       #   Call between .Ltmp258 and .Ltmp259
	.word	.Ltmp260-.Lfunc_begin12 #     jumps to .Ltmp260
	.byte	0                       #   On action: cleanup
	.word	.Ltmp259-.Lfunc_begin12 # >> Call Site 2 <<
	.word	.Lfunc_end88-.Ltmp259   #   Call between .Ltmp259 and .Lfunc_end88
	.word	0                       #     has no landing pad
	.byte	0                       #   On action: cleanup
.Lcst_end12:
	.p2align	2
                                        # -- End function
	.section	.text._ZNSt11_Deque_baseIdSaIdEE15_M_create_nodesEPPdS3_,"axG",@progbits,_ZNSt11_Deque_baseIdSaIdEE15_M_create_nodesEPPdS3_,comdat
	.weak	_ZNSt11_Deque_baseIdSaIdEE15_M_create_nodesEPPdS3_ # -- Begin function _ZNSt11_Deque_baseIdSaIdEE15_M_create_nodesEPPdS3_
	.p2align	2
	.type	_ZNSt11_Deque_baseIdSaIdEE15_M_create_nodesEPPdS3_,@function
_ZNSt11_Deque_baseIdSaIdEE15_M_create_nodesEPPdS3_: # @_ZNSt11_Deque_baseIdSaIdEE15_M_create_nodesEPPdS3_
.Lfunc_begin13:
	.cfi_startproc
	.cfi_personality 155, DW.ref.__gxx_personality_v0
	.cfi_lsda 27, .Lexception13
# %bb.0:                                # %entry
	addi	sp, sp, -80
	.cfi_def_cfa_offset 80
	sd	ra, 72(sp)
	sd	s0, 64(sp)
	sd	s1, 56(sp)
	.cfi_offset ra, -8
	.cfi_offset s0, -16
	.cfi_offset s1, -24
	addi	s0, sp, 80
	.cfi_def_cfa s0, 0
	sd	a0, -32(s0)
	sd	a1, -40(s0)
	sd	a2, -48(s0)
	ld	s1, -32(s0)
	ld	a0, -40(s0)
	sd	a0, -56(s0)
	j	.LBB89_1
.LBB89_1:                               # %for.cond
                                        # =>This Inner Loop Header: Depth=1
	ld	a0, -56(s0)
	ld	a1, -48(s0)
	bgeu	a0, a1, .LBB89_7
	j	.LBB89_2
.LBB89_2:                               # %for.body
                                        #   in Loop: Header=BB89_1 Depth=1
.Ltmp261:
	mv	a0, s1
	call	_ZNSt11_Deque_baseIdSaIdEE16_M_allocate_nodeEv
.Ltmp262:
	j	.LBB89_3
.LBB89_3:                               # %invoke.cont
                                        #   in Loop: Header=BB89_1 Depth=1
	ld	a1, -56(s0)
	sd	a0, 0(a1)
	j	.LBB89_4
.LBB89_4:                               # %for.inc
                                        #   in Loop: Header=BB89_1 Depth=1
	ld	a0, -56(s0)
	addi	a0, a0, 8
	sd	a0, -56(s0)
	j	.LBB89_1
.LBB89_5:                               # %lpad
.Ltmp263:
	sd	a0, -64(s0)
	sw	a1, -68(s0)
	j	.LBB89_6
.LBB89_6:                               # %catch
	ld	a0, -64(s0)
	call	__cxa_begin_catch
	ld	a1, -40(s0)
	ld	a2, -56(s0)
	mv	a0, s1
	call	_ZNSt11_Deque_baseIdSaIdEE16_M_destroy_nodesEPPdS3_
.Ltmp264:
	call	__cxa_rethrow
.Ltmp265:
	j	.LBB89_13
.LBB89_7:                               # %for.end
	j	.LBB89_10
.LBB89_8:                               # %lpad2
.Ltmp266:
	sd	a0, -64(s0)
	sw	a1, -68(s0)
.Ltmp267:
	call	__cxa_end_catch
.Ltmp268:
	j	.LBB89_9
.LBB89_9:                               # %invoke.cont3
	j	.LBB89_11
.LBB89_10:                              # %try.cont
	ld	s1, 56(sp)
	ld	s0, 64(sp)
	.cfi_def_cfa sp, 80
	ld	ra, 72(sp)
	.cfi_restore ra
	.cfi_restore s0
	.cfi_restore s1
	addi	sp, sp, 80
	.cfi_def_cfa_offset 0
	ret
.LBB89_11:                              # %eh.resume
	ld	a0, -64(s0)
	call	_Unwind_Resume
.LBB89_12:                              # %terminate.lpad
.Ltmp269:
	call	__clang_call_terminate
.LBB89_13:                              # %unreachable
.Lfunc_end89:
	.size	_ZNSt11_Deque_baseIdSaIdEE15_M_create_nodesEPPdS3_, .Lfunc_end89-_ZNSt11_Deque_baseIdSaIdEE15_M_create_nodesEPPdS3_
	.cfi_endproc
	.section	.gcc_except_table,"a",@progbits
	.p2align	2
GCC_except_table89:
.Lexception13:
	.byte	255                     # @LPStart Encoding = omit
	.byte	155                     # @TType Encoding = indirect pcrel sdata4
	.uleb128 .Lttbase5-.Lttbaseref5
.Lttbaseref5:
	.byte	3                       # Call site Encoding = udata4
	.uleb128 .Lcst_end13-.Lcst_begin13
.Lcst_begin13:
	.word	.Ltmp261-.Lfunc_begin13 # >> Call Site 1 <<
	.word	.Ltmp262-.Ltmp261       #   Call between .Ltmp261 and .Ltmp262
	.word	.Ltmp263-.Lfunc_begin13 #     jumps to .Ltmp263
	.byte	1                       #   On action: 1
	.word	.Ltmp262-.Lfunc_begin13 # >> Call Site 2 <<
	.word	.Ltmp264-.Ltmp262       #   Call between .Ltmp262 and .Ltmp264
	.word	0                       #     has no landing pad
	.byte	0                       #   On action: cleanup
	.word	.Ltmp264-.Lfunc_begin13 # >> Call Site 3 <<
	.word	.Ltmp265-.Ltmp264       #   Call between .Ltmp264 and .Ltmp265
	.word	.Ltmp266-.Lfunc_begin13 #     jumps to .Ltmp266
	.byte	0                       #   On action: cleanup
	.word	.Ltmp267-.Lfunc_begin13 # >> Call Site 4 <<
	.word	.Ltmp268-.Ltmp267       #   Call between .Ltmp267 and .Ltmp268
	.word	.Ltmp269-.Lfunc_begin13 #     jumps to .Ltmp269
	.byte	1                       #   On action: 1
	.word	.Ltmp268-.Lfunc_begin13 # >> Call Site 5 <<
	.word	.Lfunc_end89-.Ltmp268   #   Call between .Ltmp268 and .Lfunc_end89
	.word	0                       #     has no landing pad
	.byte	0                       #   On action: cleanup
.Lcst_end13:
	.byte	1                       # >> Action Record 1 <<
                                        #   Catch TypeInfo 1
	.byte	0                       #   No further actions
	.p2align	2
                                        # >> Catch TypeInfos <<
	.word	0                       # TypeInfo 1
.Lttbase5:
	.p2align	2
                                        # -- End function
	.section	.text._ZNSt11_Deque_baseIdSaIdEE17_M_deallocate_mapEPPdm,"axG",@progbits,_ZNSt11_Deque_baseIdSaIdEE17_M_deallocate_mapEPPdm,comdat
	.weak	_ZNSt11_Deque_baseIdSaIdEE17_M_deallocate_mapEPPdm # -- Begin function _ZNSt11_Deque_baseIdSaIdEE17_M_deallocate_mapEPPdm
	.p2align	2
	.type	_ZNSt11_Deque_baseIdSaIdEE17_M_deallocate_mapEPPdm,@function
_ZNSt11_Deque_baseIdSaIdEE17_M_deallocate_mapEPPdm: # @_ZNSt11_Deque_baseIdSaIdEE17_M_deallocate_mapEPPdm
.Lfunc_begin14:
	.cfi_startproc
	.cfi_personality 155, DW.ref.__gxx_personality_v0
	.cfi_lsda 27, .Lexception14
# %bb.0:                                # %entry
	addi	sp, sp, -80
	.cfi_def_cfa_offset 80
	sd	ra, 72(sp)
	sd	s0, 64(sp)
	sd	s1, 56(sp)
	.cfi_offset ra, -8
	.cfi_offset s0, -16
	.cfi_offset s1, -24
	addi	s0, sp, 80
	.cfi_def_cfa s0, 0
	sd	a0, -32(s0)
	sd	a1, -40(s0)
	sd	a2, -48(s0)
	ld	a1, -32(s0)
	addi	s1, s0, -56
	mv	a0, s1
	call	_ZNKSt11_Deque_baseIdSaIdEE20_M_get_map_allocatorEv
	ld	a1, -40(s0)
	ld	a2, -48(s0)
.Ltmp270:
	mv	a0, s1
	call	_ZNSt16allocator_traitsISaIPdEE10deallocateERS1_PS0_m
.Ltmp271:
	j	.LBB90_1
.LBB90_1:                               # %invoke.cont
	addi	a0, s0, -56
	call	_ZNSaIPdED2Ev
	ld	s1, 56(sp)
	ld	s0, 64(sp)
	.cfi_def_cfa sp, 80
	ld	ra, 72(sp)
	.cfi_restore ra
	.cfi_restore s0
	.cfi_restore s1
	addi	sp, sp, 80
	.cfi_def_cfa_offset 0
	ret
.LBB90_2:                               # %lpad
.Ltmp272:
	sd	a0, -64(s0)
	sw	a1, -68(s0)
	addi	a0, s0, -56
	call	_ZNSaIPdED2Ev
	j	.LBB90_3
.LBB90_3:                               # %terminate.handler
	ld	a0, -64(s0)
	call	__clang_call_terminate
.Lfunc_end90:
	.size	_ZNSt11_Deque_baseIdSaIdEE17_M_deallocate_mapEPPdm, .Lfunc_end90-_ZNSt11_Deque_baseIdSaIdEE17_M_deallocate_mapEPPdm
	.cfi_endproc
	.section	.gcc_except_table,"a",@progbits
	.p2align	2
GCC_except_table90:
.Lexception14:
	.byte	255                     # @LPStart Encoding = omit
	.byte	155                     # @TType Encoding = indirect pcrel sdata4
	.uleb128 .Lttbase6-.Lttbaseref6
.Lttbaseref6:
	.byte	3                       # Call site Encoding = udata4
	.uleb128 .Lcst_end14-.Lcst_begin14
.Lcst_begin14:
	.word	.Ltmp270-.Lfunc_begin14 # >> Call Site 1 <<
	.word	.Ltmp271-.Ltmp270       #   Call between .Ltmp270 and .Ltmp271
	.word	.Ltmp272-.Lfunc_begin14 #     jumps to .Ltmp272
	.byte	1                       #   On action: 1
.Lcst_end14:
	.byte	1                       # >> Action Record 1 <<
                                        #   Catch TypeInfo 1
	.byte	0                       #   No further actions
	.p2align	2
                                        # >> Catch TypeInfos <<
	.word	0                       # TypeInfo 1
.Lttbase6:
	.p2align	2
                                        # -- End function
	.section	.text._ZNSt15_Deque_iteratorIdRdPdE11_M_set_nodeEPS1_,"axG",@progbits,_ZNSt15_Deque_iteratorIdRdPdE11_M_set_nodeEPS1_,comdat
	.weak	_ZNSt15_Deque_iteratorIdRdPdE11_M_set_nodeEPS1_ # -- Begin function _ZNSt15_Deque_iteratorIdRdPdE11_M_set_nodeEPS1_
	.p2align	2
	.type	_ZNSt15_Deque_iteratorIdRdPdE11_M_set_nodeEPS1_,@function
_ZNSt15_Deque_iteratorIdRdPdE11_M_set_nodeEPS1_: # @_ZNSt15_Deque_iteratorIdRdPdE11_M_set_nodeEPS1_
# %bb.0:                                # %entry
	addi	sp, sp, -48
	sd	ra, 40(sp)
	sd	s0, 32(sp)
	sd	s1, 24(sp)
	sd	s2, 16(sp)
	addi	s0, sp, 48
	sd	a0, -40(s0)
	sd	a1, -48(s0)
	ld	s1, -40(s0)
	ld	a0, -48(s0)
	sd	a0, 24(s1)
	ld	a0, -48(s0)
	ld	a0, 0(a0)
	sd	a0, 8(s1)
	ld	s2, 8(s1)
	call	_ZNSt15_Deque_iteratorIdRdPdE14_S_buffer_sizeEv
	slli	a0, a0, 3
	add	a0, s2, a0
	sd	a0, 16(s1)
	ld	s2, 16(sp)
	ld	s1, 24(sp)
	ld	s0, 32(sp)
	ld	ra, 40(sp)
	addi	sp, sp, 48
	ret
.Lfunc_end91:
	.size	_ZNSt15_Deque_iteratorIdRdPdE11_M_set_nodeEPS1_, .Lfunc_end91-_ZNSt15_Deque_iteratorIdRdPdE11_M_set_nodeEPS1_
                                        # -- End function
	.section	.text._ZNKSt11_Deque_baseIdSaIdEE20_M_get_map_allocatorEv,"axG",@progbits,_ZNKSt11_Deque_baseIdSaIdEE20_M_get_map_allocatorEv,comdat
	.weak	_ZNKSt11_Deque_baseIdSaIdEE20_M_get_map_allocatorEv # -- Begin function _ZNKSt11_Deque_baseIdSaIdEE20_M_get_map_allocatorEv
	.p2align	2
	.type	_ZNKSt11_Deque_baseIdSaIdEE20_M_get_map_allocatorEv,@function
_ZNKSt11_Deque_baseIdSaIdEE20_M_get_map_allocatorEv: # @_ZNKSt11_Deque_baseIdSaIdEE20_M_get_map_allocatorEv
# %bb.0:                                # %entry
	addi	sp, sp, -48
	sd	ra, 40(sp)
	sd	s0, 32(sp)
	sd	s1, 24(sp)
	addi	s0, sp, 48
	mv	s1, a0
	sd	s1, -32(s0)
	sd	a1, -40(s0)
	ld	a0, -40(s0)
	call	_ZNKSt11_Deque_baseIdSaIdEE19_M_get_Tp_allocatorEv
	mv	a1, a0
	mv	a0, s1
	call	_ZNSaIPdEC2IdEERKSaIT_E
	ld	s1, 24(sp)
	ld	s0, 32(sp)
	ld	ra, 40(sp)
	addi	sp, sp, 48
	ret
.Lfunc_end92:
	.size	_ZNKSt11_Deque_baseIdSaIdEE20_M_get_map_allocatorEv, .Lfunc_end92-_ZNKSt11_Deque_baseIdSaIdEE20_M_get_map_allocatorEv
                                        # -- End function
	.section	.text._ZNSt16allocator_traitsISaIPdEE8allocateERS1_m,"axG",@progbits,_ZNSt16allocator_traitsISaIPdEE8allocateERS1_m,comdat
	.weak	_ZNSt16allocator_traitsISaIPdEE8allocateERS1_m # -- Begin function _ZNSt16allocator_traitsISaIPdEE8allocateERS1_m
	.p2align	2
	.type	_ZNSt16allocator_traitsISaIPdEE8allocateERS1_m,@function
_ZNSt16allocator_traitsISaIPdEE8allocateERS1_m: # @_ZNSt16allocator_traitsISaIPdEE8allocateERS1_m
	.cfi_startproc
# %bb.0:                                # %entry
	addi	sp, sp, -32
	.cfi_def_cfa_offset 32
	sd	ra, 24(sp)
	sd	s0, 16(sp)
	.cfi_offset ra, -8
	.cfi_offset s0, -16
	addi	s0, sp, 32
	.cfi_def_cfa s0, 0
	sd	a0, -24(s0)
	sd	a1, -32(s0)
	ld	a0, -24(s0)
	ld	a1, -32(s0)
	mv	a2, zero
	call	_ZN9__gnu_cxx13new_allocatorIPdE8allocateEmPKv
	ld	s0, 16(sp)
	.cfi_def_cfa sp, 32
	ld	ra, 24(sp)
	.cfi_restore ra
	.cfi_restore s0
	addi	sp, sp, 32
	.cfi_def_cfa_offset 0
	ret
.Lfunc_end93:
	.size	_ZNSt16allocator_traitsISaIPdEE8allocateERS1_m, .Lfunc_end93-_ZNSt16allocator_traitsISaIPdEE8allocateERS1_m
	.cfi_endproc
                                        # -- End function
	.section	.text._ZNSaIPdED2Ev,"axG",@progbits,_ZNSaIPdED2Ev,comdat
	.weak	_ZNSaIPdED2Ev           # -- Begin function _ZNSaIPdED2Ev
	.p2align	2
	.type	_ZNSaIPdED2Ev,@function
_ZNSaIPdED2Ev:                          # @_ZNSaIPdED2Ev
# %bb.0:                                # %entry
	addi	sp, sp, -32
	sd	ra, 24(sp)
	sd	s0, 16(sp)
	addi	s0, sp, 32
	sd	a0, -24(s0)
	ld	a0, -24(s0)
	call	_ZN9__gnu_cxx13new_allocatorIPdED2Ev
	ld	s0, 16(sp)
	ld	ra, 24(sp)
	addi	sp, sp, 32
	ret
.Lfunc_end94:
	.size	_ZNSaIPdED2Ev, .Lfunc_end94-_ZNSaIPdED2Ev
                                        # -- End function
	.section	.text._ZNKSt11_Deque_baseIdSaIdEE19_M_get_Tp_allocatorEv,"axG",@progbits,_ZNKSt11_Deque_baseIdSaIdEE19_M_get_Tp_allocatorEv,comdat
	.weak	_ZNKSt11_Deque_baseIdSaIdEE19_M_get_Tp_allocatorEv # -- Begin function _ZNKSt11_Deque_baseIdSaIdEE19_M_get_Tp_allocatorEv
	.p2align	2
	.type	_ZNKSt11_Deque_baseIdSaIdEE19_M_get_Tp_allocatorEv,@function
_ZNKSt11_Deque_baseIdSaIdEE19_M_get_Tp_allocatorEv: # @_ZNKSt11_Deque_baseIdSaIdEE19_M_get_Tp_allocatorEv
# %bb.0:                                # %entry
	addi	sp, sp, -32
	sd	ra, 24(sp)
	sd	s0, 16(sp)
	addi	s0, sp, 32
	sd	a0, -24(s0)
	ld	a0, -24(s0)
	ld	s0, 16(sp)
	ld	ra, 24(sp)
	addi	sp, sp, 32
	ret
.Lfunc_end95:
	.size	_ZNKSt11_Deque_baseIdSaIdEE19_M_get_Tp_allocatorEv, .Lfunc_end95-_ZNKSt11_Deque_baseIdSaIdEE19_M_get_Tp_allocatorEv
                                        # -- End function
	.section	.text._ZNSaIPdEC2IdEERKSaIT_E,"axG",@progbits,_ZNSaIPdEC2IdEERKSaIT_E,comdat
	.weak	_ZNSaIPdEC2IdEERKSaIT_E # -- Begin function _ZNSaIPdEC2IdEERKSaIT_E
	.p2align	2
	.type	_ZNSaIPdEC2IdEERKSaIT_E,@function
_ZNSaIPdEC2IdEERKSaIT_E:                # @_ZNSaIPdEC2IdEERKSaIT_E
# %bb.0:                                # %entry
	addi	sp, sp, -32
	sd	ra, 24(sp)
	sd	s0, 16(sp)
	addi	s0, sp, 32
	sd	a0, -24(s0)
	sd	a1, -32(s0)
	ld	a0, -24(s0)
	call	_ZN9__gnu_cxx13new_allocatorIPdEC2Ev
	ld	s0, 16(sp)
	ld	ra, 24(sp)
	addi	sp, sp, 32
	ret
.Lfunc_end96:
	.size	_ZNSaIPdEC2IdEERKSaIT_E, .Lfunc_end96-_ZNSaIPdEC2IdEERKSaIT_E
                                        # -- End function
	.section	.text._ZN9__gnu_cxx13new_allocatorIPdEC2Ev,"axG",@progbits,_ZN9__gnu_cxx13new_allocatorIPdEC2Ev,comdat
	.weak	_ZN9__gnu_cxx13new_allocatorIPdEC2Ev # -- Begin function _ZN9__gnu_cxx13new_allocatorIPdEC2Ev
	.p2align	2
	.type	_ZN9__gnu_cxx13new_allocatorIPdEC2Ev,@function
_ZN9__gnu_cxx13new_allocatorIPdEC2Ev:   # @_ZN9__gnu_cxx13new_allocatorIPdEC2Ev
# %bb.0:                                # %entry
	addi	sp, sp, -32
	sd	ra, 24(sp)
	sd	s0, 16(sp)
	addi	s0, sp, 32
	sd	a0, -24(s0)
	ld	s0, 16(sp)
	ld	ra, 24(sp)
	addi	sp, sp, 32
	ret
.Lfunc_end97:
	.size	_ZN9__gnu_cxx13new_allocatorIPdEC2Ev, .Lfunc_end97-_ZN9__gnu_cxx13new_allocatorIPdEC2Ev
                                        # -- End function
	.section	.text._ZN9__gnu_cxx13new_allocatorIPdE8allocateEmPKv,"axG",@progbits,_ZN9__gnu_cxx13new_allocatorIPdE8allocateEmPKv,comdat
	.weak	_ZN9__gnu_cxx13new_allocatorIPdE8allocateEmPKv # -- Begin function _ZN9__gnu_cxx13new_allocatorIPdE8allocateEmPKv
	.p2align	2
	.type	_ZN9__gnu_cxx13new_allocatorIPdE8allocateEmPKv,@function
_ZN9__gnu_cxx13new_allocatorIPdE8allocateEmPKv: # @_ZN9__gnu_cxx13new_allocatorIPdE8allocateEmPKv
	.cfi_startproc
# %bb.0:                                # %entry
	addi	sp, sp, -48
	.cfi_def_cfa_offset 48
	sd	ra, 40(sp)
	sd	s0, 32(sp)
	sd	s1, 24(sp)
	.cfi_offset ra, -8
	.cfi_offset s0, -16
	.cfi_offset s1, -24
	addi	s0, sp, 48
	.cfi_def_cfa s0, 0
	sd	a0, -32(s0)
	sd	a1, -40(s0)
	sd	a2, -48(s0)
	ld	a0, -32(s0)
	ld	s1, -40(s0)
	call	_ZNK9__gnu_cxx13new_allocatorIPdE11_M_max_sizeEv
	bgeu	a0, s1, .LBB98_4
	j	.LBB98_1
.LBB98_1:                               # %if.then
	ld	a0, -40(s0)
	srli	a0, a0, 61
	beqz	a0, .LBB98_3
	j	.LBB98_2
.LBB98_2:                               # %if.then3
	call	_ZSt28__throw_bad_array_new_lengthv
.LBB98_3:                               # %if.end
	call	_ZSt17__throw_bad_allocv
.LBB98_4:                               # %if.end4
	ld	a0, -40(s0)
	slli	a0, a0, 3
	call	_Znwm
	ld	s1, 24(sp)
	ld	s0, 32(sp)
	.cfi_def_cfa sp, 48
	ld	ra, 40(sp)
	.cfi_restore ra
	.cfi_restore s0
	.cfi_restore s1
	addi	sp, sp, 48
	.cfi_def_cfa_offset 0
	ret
.Lfunc_end98:
	.size	_ZN9__gnu_cxx13new_allocatorIPdE8allocateEmPKv, .Lfunc_end98-_ZN9__gnu_cxx13new_allocatorIPdE8allocateEmPKv
	.cfi_endproc
                                        # -- End function
	.section	.text._ZNK9__gnu_cxx13new_allocatorIPdE11_M_max_sizeEv,"axG",@progbits,_ZNK9__gnu_cxx13new_allocatorIPdE11_M_max_sizeEv,comdat
	.weak	_ZNK9__gnu_cxx13new_allocatorIPdE11_M_max_sizeEv # -- Begin function _ZNK9__gnu_cxx13new_allocatorIPdE11_M_max_sizeEv
	.p2align	2
	.type	_ZNK9__gnu_cxx13new_allocatorIPdE11_M_max_sizeEv,@function
_ZNK9__gnu_cxx13new_allocatorIPdE11_M_max_sizeEv: # @_ZNK9__gnu_cxx13new_allocatorIPdE11_M_max_sizeEv
# %bb.0:                                # %entry
	addi	sp, sp, -32
	sd	ra, 24(sp)
	sd	s0, 16(sp)
	addi	s0, sp, 32
	sd	a0, -24(s0)
	addi	a0, zero, 1
	slli	a0, a0, 60
	addi	a0, a0, -1
	ld	s0, 16(sp)
	ld	ra, 24(sp)
	addi	sp, sp, 32
	ret
.Lfunc_end99:
	.size	_ZNK9__gnu_cxx13new_allocatorIPdE11_M_max_sizeEv, .Lfunc_end99-_ZNK9__gnu_cxx13new_allocatorIPdE11_M_max_sizeEv
                                        # -- End function
	.section	.text._ZN9__gnu_cxx13new_allocatorIPdED2Ev,"axG",@progbits,_ZN9__gnu_cxx13new_allocatorIPdED2Ev,comdat
	.weak	_ZN9__gnu_cxx13new_allocatorIPdED2Ev # -- Begin function _ZN9__gnu_cxx13new_allocatorIPdED2Ev
	.p2align	2
	.type	_ZN9__gnu_cxx13new_allocatorIPdED2Ev,@function
_ZN9__gnu_cxx13new_allocatorIPdED2Ev:   # @_ZN9__gnu_cxx13new_allocatorIPdED2Ev
# %bb.0:                                # %entry
	addi	sp, sp, -32
	sd	ra, 24(sp)
	sd	s0, 16(sp)
	addi	s0, sp, 32
	sd	a0, -24(s0)
	ld	s0, 16(sp)
	ld	ra, 24(sp)
	addi	sp, sp, 32
	ret
.Lfunc_end100:
	.size	_ZN9__gnu_cxx13new_allocatorIPdED2Ev, .Lfunc_end100-_ZN9__gnu_cxx13new_allocatorIPdED2Ev
                                        # -- End function
	.section	.text._ZNSt11_Deque_baseIdSaIdEE16_M_allocate_nodeEv,"axG",@progbits,_ZNSt11_Deque_baseIdSaIdEE16_M_allocate_nodeEv,comdat
	.weak	_ZNSt11_Deque_baseIdSaIdEE16_M_allocate_nodeEv # -- Begin function _ZNSt11_Deque_baseIdSaIdEE16_M_allocate_nodeEv
	.p2align	2
	.type	_ZNSt11_Deque_baseIdSaIdEE16_M_allocate_nodeEv,@function
_ZNSt11_Deque_baseIdSaIdEE16_M_allocate_nodeEv: # @_ZNSt11_Deque_baseIdSaIdEE16_M_allocate_nodeEv
	.cfi_startproc
# %bb.0:                                # %entry
	addi	sp, sp, -32
	.cfi_def_cfa_offset 32
	sd	ra, 24(sp)
	sd	s0, 16(sp)
	sd	s1, 8(sp)
	.cfi_offset ra, -8
	.cfi_offset s0, -16
	.cfi_offset s1, -24
	addi	s0, sp, 32
	.cfi_def_cfa s0, 0
	sd	a0, -32(s0)
	ld	s1, -32(s0)
	addi	a0, zero, 8
	call	_ZSt16__deque_buf_sizem
	mv	a1, a0
	mv	a0, s1
	call	_ZNSt16allocator_traitsISaIdEE8allocateERS0_m
	ld	s1, 8(sp)
	ld	s0, 16(sp)
	.cfi_def_cfa sp, 32
	ld	ra, 24(sp)
	.cfi_restore ra
	.cfi_restore s0
	.cfi_restore s1
	addi	sp, sp, 32
	.cfi_def_cfa_offset 0
	ret
.Lfunc_end101:
	.size	_ZNSt11_Deque_baseIdSaIdEE16_M_allocate_nodeEv, .Lfunc_end101-_ZNSt11_Deque_baseIdSaIdEE16_M_allocate_nodeEv
	.cfi_endproc
                                        # -- End function
	.section	.text._ZNSt11_Deque_baseIdSaIdEE16_M_destroy_nodesEPPdS3_,"axG",@progbits,_ZNSt11_Deque_baseIdSaIdEE16_M_destroy_nodesEPPdS3_,comdat
	.weak	_ZNSt11_Deque_baseIdSaIdEE16_M_destroy_nodesEPPdS3_ # -- Begin function _ZNSt11_Deque_baseIdSaIdEE16_M_destroy_nodesEPPdS3_
	.p2align	2
	.type	_ZNSt11_Deque_baseIdSaIdEE16_M_destroy_nodesEPPdS3_,@function
_ZNSt11_Deque_baseIdSaIdEE16_M_destroy_nodesEPPdS3_: # @_ZNSt11_Deque_baseIdSaIdEE16_M_destroy_nodesEPPdS3_
# %bb.0:                                # %entry
	addi	sp, sp, -64
	sd	ra, 56(sp)
	sd	s0, 48(sp)
	sd	s1, 40(sp)
	addi	s0, sp, 64
	sd	a0, -32(s0)
	sd	a1, -40(s0)
	sd	a2, -48(s0)
	ld	s1, -32(s0)
	ld	a0, -40(s0)
	sd	a0, -56(s0)
	j	.LBB102_1
.LBB102_1:                              # %for.cond
                                        # =>This Inner Loop Header: Depth=1
	ld	a0, -56(s0)
	ld	a1, -48(s0)
	bgeu	a0, a1, .LBB102_4
	j	.LBB102_2
.LBB102_2:                              # %for.body
                                        #   in Loop: Header=BB102_1 Depth=1
	ld	a0, -56(s0)
	ld	a1, 0(a0)
	mv	a0, s1
	call	_ZNSt11_Deque_baseIdSaIdEE18_M_deallocate_nodeEPd
	j	.LBB102_3
.LBB102_3:                              # %for.inc
                                        #   in Loop: Header=BB102_1 Depth=1
	ld	a0, -56(s0)
	addi	a0, a0, 8
	sd	a0, -56(s0)
	j	.LBB102_1
.LBB102_4:                              # %for.end
	ld	s1, 40(sp)
	ld	s0, 48(sp)
	ld	ra, 56(sp)
	addi	sp, sp, 64
	ret
.Lfunc_end102:
	.size	_ZNSt11_Deque_baseIdSaIdEE16_M_destroy_nodesEPPdS3_, .Lfunc_end102-_ZNSt11_Deque_baseIdSaIdEE16_M_destroy_nodesEPPdS3_
                                        # -- End function
	.section	.text._ZNSt16allocator_traitsISaIdEE8allocateERS0_m,"axG",@progbits,_ZNSt16allocator_traitsISaIdEE8allocateERS0_m,comdat
	.weak	_ZNSt16allocator_traitsISaIdEE8allocateERS0_m # -- Begin function _ZNSt16allocator_traitsISaIdEE8allocateERS0_m
	.p2align	2
	.type	_ZNSt16allocator_traitsISaIdEE8allocateERS0_m,@function
_ZNSt16allocator_traitsISaIdEE8allocateERS0_m: # @_ZNSt16allocator_traitsISaIdEE8allocateERS0_m
	.cfi_startproc
# %bb.0:                                # %entry
	addi	sp, sp, -32
	.cfi_def_cfa_offset 32
	sd	ra, 24(sp)
	sd	s0, 16(sp)
	.cfi_offset ra, -8
	.cfi_offset s0, -16
	addi	s0, sp, 32
	.cfi_def_cfa s0, 0
	sd	a0, -24(s0)
	sd	a1, -32(s0)
	ld	a0, -24(s0)
	ld	a1, -32(s0)
	mv	a2, zero
	call	_ZN9__gnu_cxx13new_allocatorIdE8allocateEmPKv
	ld	s0, 16(sp)
	.cfi_def_cfa sp, 32
	ld	ra, 24(sp)
	.cfi_restore ra
	.cfi_restore s0
	addi	sp, sp, 32
	.cfi_def_cfa_offset 0
	ret
.Lfunc_end103:
	.size	_ZNSt16allocator_traitsISaIdEE8allocateERS0_m, .Lfunc_end103-_ZNSt16allocator_traitsISaIdEE8allocateERS0_m
	.cfi_endproc
                                        # -- End function
	.section	.text._ZN9__gnu_cxx13new_allocatorIdE8allocateEmPKv,"axG",@progbits,_ZN9__gnu_cxx13new_allocatorIdE8allocateEmPKv,comdat
	.weak	_ZN9__gnu_cxx13new_allocatorIdE8allocateEmPKv # -- Begin function _ZN9__gnu_cxx13new_allocatorIdE8allocateEmPKv
	.p2align	2
	.type	_ZN9__gnu_cxx13new_allocatorIdE8allocateEmPKv,@function
_ZN9__gnu_cxx13new_allocatorIdE8allocateEmPKv: # @_ZN9__gnu_cxx13new_allocatorIdE8allocateEmPKv
	.cfi_startproc
# %bb.0:                                # %entry
	addi	sp, sp, -48
	.cfi_def_cfa_offset 48
	sd	ra, 40(sp)
	sd	s0, 32(sp)
	sd	s1, 24(sp)
	.cfi_offset ra, -8
	.cfi_offset s0, -16
	.cfi_offset s1, -24
	addi	s0, sp, 48
	.cfi_def_cfa s0, 0
	sd	a0, -32(s0)
	sd	a1, -40(s0)
	sd	a2, -48(s0)
	ld	a0, -32(s0)
	ld	s1, -40(s0)
	call	_ZNK9__gnu_cxx13new_allocatorIdE11_M_max_sizeEv
	bgeu	a0, s1, .LBB104_4
	j	.LBB104_1
.LBB104_1:                              # %if.then
	ld	a0, -40(s0)
	srli	a0, a0, 61
	beqz	a0, .LBB104_3
	j	.LBB104_2
.LBB104_2:                              # %if.then3
	call	_ZSt28__throw_bad_array_new_lengthv
.LBB104_3:                              # %if.end
	call	_ZSt17__throw_bad_allocv
.LBB104_4:                              # %if.end4
	ld	a0, -40(s0)
	slli	a0, a0, 3
	call	_Znwm
	ld	s1, 24(sp)
	ld	s0, 32(sp)
	.cfi_def_cfa sp, 48
	ld	ra, 40(sp)
	.cfi_restore ra
	.cfi_restore s0
	.cfi_restore s1
	addi	sp, sp, 48
	.cfi_def_cfa_offset 0
	ret
.Lfunc_end104:
	.size	_ZN9__gnu_cxx13new_allocatorIdE8allocateEmPKv, .Lfunc_end104-_ZN9__gnu_cxx13new_allocatorIdE8allocateEmPKv
	.cfi_endproc
                                        # -- End function
	.section	.text._ZNK9__gnu_cxx13new_allocatorIdE11_M_max_sizeEv,"axG",@progbits,_ZNK9__gnu_cxx13new_allocatorIdE11_M_max_sizeEv,comdat
	.weak	_ZNK9__gnu_cxx13new_allocatorIdE11_M_max_sizeEv # -- Begin function _ZNK9__gnu_cxx13new_allocatorIdE11_M_max_sizeEv
	.p2align	2
	.type	_ZNK9__gnu_cxx13new_allocatorIdE11_M_max_sizeEv,@function
_ZNK9__gnu_cxx13new_allocatorIdE11_M_max_sizeEv: # @_ZNK9__gnu_cxx13new_allocatorIdE11_M_max_sizeEv
# %bb.0:                                # %entry
	addi	sp, sp, -32
	sd	ra, 24(sp)
	sd	s0, 16(sp)
	addi	s0, sp, 32
	sd	a0, -24(s0)
	addi	a0, zero, 1
	slli	a0, a0, 60
	addi	a0, a0, -1
	ld	s0, 16(sp)
	ld	ra, 24(sp)
	addi	sp, sp, 32
	ret
.Lfunc_end105:
	.size	_ZNK9__gnu_cxx13new_allocatorIdE11_M_max_sizeEv, .Lfunc_end105-_ZNK9__gnu_cxx13new_allocatorIdE11_M_max_sizeEv
                                        # -- End function
	.section	.text._ZNSt11_Deque_baseIdSaIdEE18_M_deallocate_nodeEPd,"axG",@progbits,_ZNSt11_Deque_baseIdSaIdEE18_M_deallocate_nodeEPd,comdat
	.weak	_ZNSt11_Deque_baseIdSaIdEE18_M_deallocate_nodeEPd # -- Begin function _ZNSt11_Deque_baseIdSaIdEE18_M_deallocate_nodeEPd
	.p2align	2
	.type	_ZNSt11_Deque_baseIdSaIdEE18_M_deallocate_nodeEPd,@function
_ZNSt11_Deque_baseIdSaIdEE18_M_deallocate_nodeEPd: # @_ZNSt11_Deque_baseIdSaIdEE18_M_deallocate_nodeEPd
.Lfunc_begin15:
	.cfi_startproc
	.cfi_personality 155, DW.ref.__gxx_personality_v0
	.cfi_lsda 27, .Lexception15
# %bb.0:                                # %entry
	addi	sp, sp, -48
	.cfi_def_cfa_offset 48
	sd	ra, 40(sp)
	sd	s0, 32(sp)
	sd	s1, 24(sp)
	sd	s2, 16(sp)
	.cfi_offset ra, -8
	.cfi_offset s0, -16
	.cfi_offset s1, -24
	.cfi_offset s2, -32
	addi	s0, sp, 48
	.cfi_def_cfa s0, 0
	sd	a0, -40(s0)
	sd	a1, -48(s0)
	ld	s1, -40(s0)
	ld	s2, -48(s0)
.Ltmp273:
	addi	a0, zero, 8
	call	_ZSt16__deque_buf_sizem
	mv	a2, a0
.Ltmp274:
	j	.LBB106_1
.LBB106_1:                              # %invoke.cont
.Ltmp275:
	mv	a0, s1
	mv	a1, s2
	call	_ZNSt16allocator_traitsISaIdEE10deallocateERS0_Pdm
.Ltmp276:
	j	.LBB106_2
.LBB106_2:                              # %invoke.cont2
	ld	s2, 16(sp)
	ld	s1, 24(sp)
	ld	s0, 32(sp)
	.cfi_def_cfa sp, 48
	ld	ra, 40(sp)
	.cfi_restore ra
	.cfi_restore s0
	.cfi_restore s1
	.cfi_restore s2
	addi	sp, sp, 48
	.cfi_def_cfa_offset 0
	ret
.LBB106_3:                              # %terminate.lpad
.Ltmp277:
	call	__clang_call_terminate
.Lfunc_end106:
	.size	_ZNSt11_Deque_baseIdSaIdEE18_M_deallocate_nodeEPd, .Lfunc_end106-_ZNSt11_Deque_baseIdSaIdEE18_M_deallocate_nodeEPd
	.cfi_endproc
	.section	.gcc_except_table,"a",@progbits
	.p2align	2
GCC_except_table106:
.Lexception15:
	.byte	255                     # @LPStart Encoding = omit
	.byte	155                     # @TType Encoding = indirect pcrel sdata4
	.uleb128 .Lttbase7-.Lttbaseref7
.Lttbaseref7:
	.byte	3                       # Call site Encoding = udata4
	.uleb128 .Lcst_end15-.Lcst_begin15
.Lcst_begin15:
	.word	.Ltmp273-.Lfunc_begin15 # >> Call Site 1 <<
	.word	.Ltmp276-.Ltmp273       #   Call between .Ltmp273 and .Ltmp276
	.word	.Ltmp277-.Lfunc_begin15 #     jumps to .Ltmp277
	.byte	1                       #   On action: 1
.Lcst_end15:
	.byte	1                       # >> Action Record 1 <<
                                        #   Catch TypeInfo 1
	.byte	0                       #   No further actions
	.p2align	2
                                        # >> Catch TypeInfos <<
	.word	0                       # TypeInfo 1
.Lttbase7:
	.p2align	2
                                        # -- End function
	.section	.text._ZNSt16allocator_traitsISaIdEE10deallocateERS0_Pdm,"axG",@progbits,_ZNSt16allocator_traitsISaIdEE10deallocateERS0_Pdm,comdat
	.weak	_ZNSt16allocator_traitsISaIdEE10deallocateERS0_Pdm # -- Begin function _ZNSt16allocator_traitsISaIdEE10deallocateERS0_Pdm
	.p2align	2
	.type	_ZNSt16allocator_traitsISaIdEE10deallocateERS0_Pdm,@function
_ZNSt16allocator_traitsISaIdEE10deallocateERS0_Pdm: # @_ZNSt16allocator_traitsISaIdEE10deallocateERS0_Pdm
	.cfi_startproc
# %bb.0:                                # %entry
	addi	sp, sp, -48
	.cfi_def_cfa_offset 48
	sd	ra, 40(sp)
	sd	s0, 32(sp)
	.cfi_offset ra, -8
	.cfi_offset s0, -16
	addi	s0, sp, 48
	.cfi_def_cfa s0, 0
	sd	a0, -24(s0)
	sd	a1, -32(s0)
	sd	a2, -40(s0)
	ld	a0, -24(s0)
	ld	a1, -32(s0)
	ld	a2, -40(s0)
	call	_ZN9__gnu_cxx13new_allocatorIdE10deallocateEPdm
	ld	s0, 32(sp)
	.cfi_def_cfa sp, 48
	ld	ra, 40(sp)
	.cfi_restore ra
	.cfi_restore s0
	addi	sp, sp, 48
	.cfi_def_cfa_offset 0
	ret
.Lfunc_end107:
	.size	_ZNSt16allocator_traitsISaIdEE10deallocateERS0_Pdm, .Lfunc_end107-_ZNSt16allocator_traitsISaIdEE10deallocateERS0_Pdm
	.cfi_endproc
                                        # -- End function
	.section	.text._ZN9__gnu_cxx13new_allocatorIdE10deallocateEPdm,"axG",@progbits,_ZN9__gnu_cxx13new_allocatorIdE10deallocateEPdm,comdat
	.weak	_ZN9__gnu_cxx13new_allocatorIdE10deallocateEPdm # -- Begin function _ZN9__gnu_cxx13new_allocatorIdE10deallocateEPdm
	.p2align	2
	.type	_ZN9__gnu_cxx13new_allocatorIdE10deallocateEPdm,@function
_ZN9__gnu_cxx13new_allocatorIdE10deallocateEPdm: # @_ZN9__gnu_cxx13new_allocatorIdE10deallocateEPdm
# %bb.0:                                # %entry
	addi	sp, sp, -48
	sd	ra, 40(sp)
	sd	s0, 32(sp)
	addi	s0, sp, 48
	sd	a0, -24(s0)
	sd	a1, -32(s0)
	sd	a2, -40(s0)
	ld	a0, -32(s0)
	call	_ZdlPv
	ld	s0, 32(sp)
	ld	ra, 40(sp)
	addi	sp, sp, 48
	ret
.Lfunc_end108:
	.size	_ZN9__gnu_cxx13new_allocatorIdE10deallocateEPdm, .Lfunc_end108-_ZN9__gnu_cxx13new_allocatorIdE10deallocateEPdm
                                        # -- End function
	.section	.text._ZNSt16allocator_traitsISaIPdEE10deallocateERS1_PS0_m,"axG",@progbits,_ZNSt16allocator_traitsISaIPdEE10deallocateERS1_PS0_m,comdat
	.weak	_ZNSt16allocator_traitsISaIPdEE10deallocateERS1_PS0_m # -- Begin function _ZNSt16allocator_traitsISaIPdEE10deallocateERS1_PS0_m
	.p2align	2
	.type	_ZNSt16allocator_traitsISaIPdEE10deallocateERS1_PS0_m,@function
_ZNSt16allocator_traitsISaIPdEE10deallocateERS1_PS0_m: # @_ZNSt16allocator_traitsISaIPdEE10deallocateERS1_PS0_m
	.cfi_startproc
# %bb.0:                                # %entry
	addi	sp, sp, -48
	.cfi_def_cfa_offset 48
	sd	ra, 40(sp)
	sd	s0, 32(sp)
	.cfi_offset ra, -8
	.cfi_offset s0, -16
	addi	s0, sp, 48
	.cfi_def_cfa s0, 0
	sd	a0, -24(s0)
	sd	a1, -32(s0)
	sd	a2, -40(s0)
	ld	a0, -24(s0)
	ld	a1, -32(s0)
	ld	a2, -40(s0)
	call	_ZN9__gnu_cxx13new_allocatorIPdE10deallocateEPS1_m
	ld	s0, 32(sp)
	.cfi_def_cfa sp, 48
	ld	ra, 40(sp)
	.cfi_restore ra
	.cfi_restore s0
	addi	sp, sp, 48
	.cfi_def_cfa_offset 0
	ret
.Lfunc_end109:
	.size	_ZNSt16allocator_traitsISaIPdEE10deallocateERS1_PS0_m, .Lfunc_end109-_ZNSt16allocator_traitsISaIPdEE10deallocateERS1_PS0_m
	.cfi_endproc
                                        # -- End function
	.section	.text._ZN9__gnu_cxx13new_allocatorIPdE10deallocateEPS1_m,"axG",@progbits,_ZN9__gnu_cxx13new_allocatorIPdE10deallocateEPS1_m,comdat
	.weak	_ZN9__gnu_cxx13new_allocatorIPdE10deallocateEPS1_m # -- Begin function _ZN9__gnu_cxx13new_allocatorIPdE10deallocateEPS1_m
	.p2align	2
	.type	_ZN9__gnu_cxx13new_allocatorIPdE10deallocateEPS1_m,@function
_ZN9__gnu_cxx13new_allocatorIPdE10deallocateEPS1_m: # @_ZN9__gnu_cxx13new_allocatorIPdE10deallocateEPS1_m
# %bb.0:                                # %entry
	addi	sp, sp, -48
	sd	ra, 40(sp)
	sd	s0, 32(sp)
	addi	s0, sp, 48
	sd	a0, -24(s0)
	sd	a1, -32(s0)
	sd	a2, -40(s0)
	ld	a0, -32(s0)
	call	_ZdlPv
	ld	s0, 32(sp)
	ld	ra, 40(sp)
	addi	sp, sp, 48
	ret
.Lfunc_end110:
	.size	_ZN9__gnu_cxx13new_allocatorIPdE10deallocateEPS1_m, .Lfunc_end110-_ZN9__gnu_cxx13new_allocatorIPdE10deallocateEPS1_m
                                        # -- End function
	.section	.text._ZNSt15_Deque_iteratorIdRdPdE14_S_buffer_sizeEv,"axG",@progbits,_ZNSt15_Deque_iteratorIdRdPdE14_S_buffer_sizeEv,comdat
	.weak	_ZNSt15_Deque_iteratorIdRdPdE14_S_buffer_sizeEv # -- Begin function _ZNSt15_Deque_iteratorIdRdPdE14_S_buffer_sizeEv
	.p2align	2
	.type	_ZNSt15_Deque_iteratorIdRdPdE14_S_buffer_sizeEv,@function
_ZNSt15_Deque_iteratorIdRdPdE14_S_buffer_sizeEv: # @_ZNSt15_Deque_iteratorIdRdPdE14_S_buffer_sizeEv
.Lfunc_begin16:
	.cfi_startproc
	.cfi_personality 155, DW.ref.__gxx_personality_v0
	.cfi_lsda 27, .Lexception16
# %bb.0:                                # %entry
	addi	sp, sp, -16
	.cfi_def_cfa_offset 16
	sd	ra, 8(sp)
	sd	s0, 0(sp)
	.cfi_offset ra, -8
	.cfi_offset s0, -16
	addi	s0, sp, 16
	.cfi_def_cfa s0, 0
.Ltmp278:
	addi	a0, zero, 8
	call	_ZSt16__deque_buf_sizem
.Ltmp279:
	j	.LBB111_1
.LBB111_1:                              # %invoke.cont
	ld	s0, 0(sp)
	.cfi_def_cfa sp, 16
	ld	ra, 8(sp)
	.cfi_restore ra
	.cfi_restore s0
	addi	sp, sp, 16
	.cfi_def_cfa_offset 0
	ret
.LBB111_2:                              # %terminate.lpad
.Ltmp280:
	call	__clang_call_terminate
.Lfunc_end111:
	.size	_ZNSt15_Deque_iteratorIdRdPdE14_S_buffer_sizeEv, .Lfunc_end111-_ZNSt15_Deque_iteratorIdRdPdE14_S_buffer_sizeEv
	.cfi_endproc
	.section	.gcc_except_table,"a",@progbits
	.p2align	2
GCC_except_table111:
.Lexception16:
	.byte	255                     # @LPStart Encoding = omit
	.byte	155                     # @TType Encoding = indirect pcrel sdata4
	.uleb128 .Lttbase8-.Lttbaseref8
.Lttbaseref8:
	.byte	3                       # Call site Encoding = udata4
	.uleb128 .Lcst_end16-.Lcst_begin16
.Lcst_begin16:
	.word	.Ltmp278-.Lfunc_begin16 # >> Call Site 1 <<
	.word	.Ltmp279-.Ltmp278       #   Call between .Ltmp278 and .Ltmp279
