	.text
	.file	"scene.cpp"
	.p2align	2               # -- Begin function __cxx_global_var_init
	.type	__cxx_global_var_init,@function
__cxx_global_var_init:                  # @__cxx_global_var_init
	.cfi_startproc
# %bb.0:                                # %entry
	lui	a0, 1
	addi	a0, a0, -1552
	sub	sp, sp, a0
	.cfi_def_cfa_offset 2544
	lui	a0, 1
	addi	a0, a0, -1560
	add	a0, sp, a0
	sd	ra, 0(a0)
	lui	a0, 1
	addi	a0, a0, -1568
	add	a0, sp, a0
	sd	s0, 0(a0)
	lui	a0, 1
	addi	a0, a0, -1576
	add	a0, sp, a0
	sd	s1, 0(a0)
	lui	a0, 1
	addi	a0, a0, -1584
	add	a0, sp, a0
	sd	s2, 0(a0)
	.cfi_offset ra, -8
	.cfi_offset s0, -16
	.cfi_offset s1, -24
	.cfi_offset s2, -32
	lui	a0, 1
	addi	a0, a0, -1552
	add	s0, sp, a0
	.cfi_def_cfa s0, 0
	lui	a0, %tprel_hi(_ZGVN6Random6engineE)
	add	s1, a0, tp, %tprel_add(_ZGVN6Random6engineE)
	lbu	a0, %tprel_lo(_ZGVN6Random6engineE)(s1)
	bnez	a0, .LBB0_2
# %bb.1:                                # %init.check
	lui	a0, 1048575
	addi	a0, a0, 1552
	add	a0, s0, a0
	mv	s2, a0
	mv	a0, s2
	call	_ZNSt13random_deviceC2Ev
	mv	a0, s2
	call	_ZNSt13random_deviceclEv
	lui	a1, %tprel_hi(_ZN6Random6engineE)
	add	a1, a1, tp, %tprel_add(_ZN6Random6engineE)
	addi	a2, a1, %tprel_lo(_ZN6Random6engineE)
	slli	a0, a0, 32
	srli	a1, a0, 32
	mv	a0, a2
	call	_ZNSt23mersenne_twister_engineImLm64ELm312ELm156ELm31ELm13043109905998158313ELm29ELm6148914691236517205ELm17ELm8202884508482404352ELm37ELm18444473444759240704ELm43ELm6364136223846793005EEC2Em
	addi	a0, s1, %tprel_lo(_ZGVN6Random6engineE)
	addi	a1, zero, 1
	sd	a1, 0(a0)
.LBB0_2:                                # %init.end
	lui	a0, 1
	addi	a0, a0, -1584
	add	a0, sp, a0
	ld	s2, 0(a0)
	lui	a0, 1
	addi	a0, a0, -1576
	add	a0, sp, a0
	ld	s1, 0(a0)
	lui	a0, 1
	addi	a0, a0, -1568
	add	a0, sp, a0
	ld	s0, 0(a0)
	.cfi_def_cfa sp, 2544
	lui	a0, 1
	addi	a0, a0, -1560
	add	a0, sp, a0
	ld	ra, 0(a0)
	.cfi_restore ra
	.cfi_restore s0
	.cfi_restore s1
	.cfi_restore s2
	lui	a0, 1
	addi	a0, a0, -1552
	add	sp, sp, a0
	.cfi_def_cfa_offset 0
	ret
.Lfunc_end0:
	.size	__cxx_global_var_init, .Lfunc_end0-__cxx_global_var_init
	.cfi_endproc
                                        # -- End function
	.section	.text._ZNSt13random_deviceC2Ev,"axG",@progbits,_ZNSt13random_deviceC2Ev,comdat
	.weak	_ZNSt13random_deviceC2Ev # -- Begin function _ZNSt13random_deviceC2Ev
	.p2align	2
	.type	_ZNSt13random_deviceC2Ev,@function
_ZNSt13random_deviceC2Ev:               # @_ZNSt13random_deviceC2Ev
.Lfunc_begin0:
	.cfi_startproc
	.cfi_personality 155, DW.ref.__gxx_personality_v0
	.cfi_lsda 27, .Lexception0
# %bb.0:                                # %entry
	addi	sp, sp, -96
	.cfi_def_cfa_offset 96
	sd	ra, 88(sp)
	sd	s0, 80(sp)
	sd	s1, 72(sp)
	sd	s2, 64(sp)
	.cfi_offset ra, -8
	.cfi_offset s0, -16
	.cfi_offset s1, -24
	.cfi_offset s2, -32
	addi	s0, sp, 96
	.cfi_def_cfa s0, 0
	sd	a0, -40(s0)
	ld	s2, -40(s0)
	addi	s1, s0, -80
	mv	a0, s1
	call	_ZNSaIcEC1Ev
.Ltmp0:
	lui	a0, %hi(.L.str.4)
	addi	a1, a0, %lo(.L.str.4)
	addi	a0, s0, -72
	mv	a2, s1
	call	_ZNSt7__cxx1112basic_stringIcSt11char_traitsIcESaIcEEC2IS3_EEPKcRKS3_
.Ltmp1:
	j	.LBB1_1
.LBB1_1:                                # %invoke.cont
.Ltmp3:
	addi	a1, s0, -72
	mv	a0, s2
	call	_ZNSt13random_device7_M_initERKNSt7__cxx1112basic_stringIcSt11char_traitsIcESaIcEEE
.Ltmp4:
	j	.LBB1_2
.LBB1_2:                                # %invoke.cont4
	addi	a0, s0, -72
	call	_ZNSt7__cxx1112basic_stringIcSt11char_traitsIcESaIcEED1Ev
	addi	a0, s0, -80
	call	_ZNSaIcED1Ev
	ld	s2, 64(sp)
	ld	s1, 72(sp)
	ld	s0, 80(sp)
	.cfi_def_cfa sp, 96
	ld	ra, 88(sp)
	.cfi_restore ra
	.cfi_restore s0
	.cfi_restore s1
	.cfi_restore s2
	addi	sp, sp, 96
	.cfi_def_cfa_offset 0
	ret
.LBB1_3:                                # %lpad
.Ltmp2:
	sd	a0, -88(s0)
	sw	a1, -92(s0)
	j	.LBB1_5
.LBB1_4:                                # %lpad3
.Ltmp5:
	sd	a0, -88(s0)
	sw	a1, -92(s0)
	addi	a0, s0, -72
	call	_ZNSt7__cxx1112basic_stringIcSt11char_traitsIcESaIcEED1Ev
	j	.LBB1_5
.LBB1_5:                                # %ehcleanup
	addi	a0, s0, -80
	call	_ZNSaIcED1Ev
	j	.LBB1_6
.LBB1_6:                                # %eh.resume
	ld	a0, -88(s0)
	call	_Unwind_Resume
.Lfunc_end1:
	.size	_ZNSt13random_deviceC2Ev, .Lfunc_end1-_ZNSt13random_deviceC2Ev
	.cfi_endproc
	.section	.gcc_except_table,"a",@progbits
	.p2align	2
GCC_except_table1:
.Lexception0:
	.byte	255                     # @LPStart Encoding = omit
	.byte	255                     # @TType Encoding = omit
	.byte	3                       # Call site Encoding = udata4
	.uleb128 .Lcst_end0-.Lcst_begin0
.Lcst_begin0:
	.word	.Ltmp0-.Lfunc_begin0    # >> Call Site 1 <<
	.word	.Ltmp1-.Ltmp0           #   Call between .Ltmp0 and .Ltmp1
	.word	.Ltmp2-.Lfunc_begin0    #     jumps to .Ltmp2
	.byte	0                       #   On action: cleanup
	.word	.Ltmp3-.Lfunc_begin0    # >> Call Site 2 <<
	.word	.Ltmp4-.Ltmp3           #   Call between .Ltmp3 and .Ltmp4
	.word	.Ltmp5-.Lfunc_begin0    #     jumps to .Ltmp5
	.byte	0                       #   On action: cleanup
	.word	.Ltmp4-.Lfunc_begin0    # >> Call Site 3 <<
	.word	.Lfunc_end1-.Ltmp4      #   Call between .Ltmp4 and .Lfunc_end1
	.word	0                       #     has no landing pad
	.byte	0                       #   On action: cleanup
.Lcst_end0:
	.p2align	2
                                        # -- End function
	.section	.text._ZNSt13random_deviceclEv,"axG",@progbits,_ZNSt13random_deviceclEv,comdat
	.weak	_ZNSt13random_deviceclEv # -- Begin function _ZNSt13random_deviceclEv
	.p2align	2
	.type	_ZNSt13random_deviceclEv,@function
_ZNSt13random_deviceclEv:               # @_ZNSt13random_deviceclEv
	.cfi_startproc
# %bb.0:                                # %entry
	addi	sp, sp, -32
	.cfi_def_cfa_offset 32
	sd	ra, 24(sp)
	sd	s0, 16(sp)
	.cfi_offset ra, -8
	.cfi_offset s0, -16
	addi	s0, sp, 32
	.cfi_def_cfa s0, 0
	sd	a0, -24(s0)
	ld	a0, -24(s0)
	call	_ZNSt13random_device9_M_getvalEv
	ld	s0, 16(sp)
	.cfi_def_cfa sp, 32
	ld	ra, 24(sp)
	.cfi_restore ra
	.cfi_restore s0
	addi	sp, sp, 32
	.cfi_def_cfa_offset 0
	ret
.Lfunc_end2:
	.size	_ZNSt13random_deviceclEv, .Lfunc_end2-_ZNSt13random_deviceclEv
	.cfi_endproc
                                        # -- End function
	.section	.text._ZNSt23mersenne_twister_engineImLm64ELm312ELm156ELm31ELm13043109905998158313ELm29ELm6148914691236517205ELm17ELm8202884508482404352ELm37ELm18444473444759240704ELm43ELm6364136223846793005EEC2Em,"axG",@progbits,_ZNSt23mersenne_twister_engineImLm64ELm312ELm156ELm31ELm13043109905998158313ELm29ELm6148914691236517205ELm17ELm8202884508482404352ELm37ELm18444473444759240704ELm43ELm6364136223846793005EEC2Em,comdat
	.weak	_ZNSt23mersenne_twister_engineImLm64ELm312ELm156ELm31ELm13043109905998158313ELm29ELm6148914691236517205ELm17ELm8202884508482404352ELm37ELm18444473444759240704ELm43ELm6364136223846793005EEC2Em # -- Begin function _ZNSt23mersenne_twister_engineImLm64ELm312ELm156ELm31ELm13043109905998158313ELm29ELm6148914691236517205ELm17ELm8202884508482404352ELm37ELm18444473444759240704ELm43ELm6364136223846793005EEC2Em
	.p2align	2
	.type	_ZNSt23mersenne_twister_engineImLm64ELm312ELm156ELm31ELm13043109905998158313ELm29ELm6148914691236517205ELm17ELm8202884508482404352ELm37ELm18444473444759240704ELm43ELm6364136223846793005EEC2Em,@function
_ZNSt23mersenne_twister_engineImLm64ELm312ELm156ELm31ELm13043109905998158313ELm29ELm6148914691236517205ELm17ELm8202884508482404352ELm37ELm18444473444759240704ELm43ELm6364136223846793005EEC2Em: # @_ZNSt23mersenne_twister_engineImLm64ELm312ELm156ELm31ELm13043109905998158313ELm29ELm6148914691236517205ELm17ELm8202884508482404352ELm37ELm18444473444759240704ELm43ELm6364136223846793005EEC2Em
	.cfi_startproc
# %bb.0:                                # %entry
	addi	sp, sp, -32
	.cfi_def_cfa_offset 32
	sd	ra, 24(sp)
	sd	s0, 16(sp)
	.cfi_offset ra, -8
	.cfi_offset s0, -16
	addi	s0, sp, 32
	.cfi_def_cfa s0, 0
	sd	a0, -24(s0)
	sd	a1, -32(s0)
	ld	a0, -24(s0)
	ld	a1, -32(s0)
	call	_ZNSt23mersenne_twister_engineImLm64ELm312ELm156ELm31ELm13043109905998158313ELm29ELm6148914691236517205ELm17ELm8202884508482404352ELm37ELm18444473444759240704ELm43ELm6364136223846793005EE4seedEm
	ld	s0, 16(sp)
	.cfi_def_cfa sp, 32
	ld	ra, 24(sp)
	.cfi_restore ra
	.cfi_restore s0
	addi	sp, sp, 32
	.cfi_def_cfa_offset 0
	ret
.Lfunc_end3:
	.size	_ZNSt23mersenne_twister_engineImLm64ELm312ELm156ELm31ELm13043109905998158313ELm29ELm6148914691236517205ELm17ELm8202884508482404352ELm37ELm18444473444759240704ELm43ELm6364136223846793005EEC2Em, .Lfunc_end3-_ZNSt23mersenne_twister_engineImLm64ELm312ELm156ELm31ELm13043109905998158313ELm29ELm6148914691236517205ELm17ELm8202884508482404352ELm37ELm18444473444759240704ELm43ELm6364136223846793005EEC2Em
	.cfi_endproc
                                        # -- End function
	.section	.sdata,"aw",@progbits
	.p2align	3               # -- Begin function _ZN5SceneC2ERKN8nlohmann10basic_jsonISt3mapSt6vectorNSt7__cxx1112basic_stringIcSt11char_traitsIcESaIcEEEblmdSaNS0_14adl_serializerEEE
.LCPI4_0:
	.quad	4472406533629990549     # double 1.0000000000000001E-9
	.text
	.globl	_ZN5SceneC2ERKN8nlohmann10basic_jsonISt3mapSt6vectorNSt7__cxx1112basic_stringIcSt11char_traitsIcESaIcEEEblmdSaNS0_14adl_serializerEEE
	.p2align	2
	.type	_ZN5SceneC2ERKN8nlohmann10basic_jsonISt3mapSt6vectorNSt7__cxx1112basic_stringIcSt11char_traitsIcESaIcEEEblmdSaNS0_14adl_serializerEEE,@function
_ZN5SceneC2ERKN8nlohmann10basic_jsonISt3mapSt6vectorNSt7__cxx1112basic_stringIcSt11char_traitsIcESaIcEEEblmdSaNS0_14adl_serializerEEE: # @_ZN5SceneC2ERKN8nlohmann10basic_jsonISt3mapSt6vectorNSt7__cxx1112basic_stringIcSt11char_traitsIcESaIcEEEblmdSaNS0_14adl_serializerEEE
.Lfunc_begin1:
	.cfi_startproc
	.cfi_personality 155, DW.ref.__gxx_personality_v0
	.cfi_lsda 27, .Lexception1
# %bb.0:                                # %entry
	lui	a2, 1
	addi	a2, a2, -1232
	sub	sp, sp, a2
	.cfi_def_cfa_offset 2864
	lui	a2, 1
	addi	a2, a2, -1240
	add	a2, sp, a2
	sd	ra, 0(a2)
	lui	a2, 1
	addi	a2, a2, -1248
	add	a2, sp, a2
	sd	s0, 0(a2)
	lui	a2, 1
	addi	a2, a2, -1256
	add	a2, sp, a2
	sd	s1, 0(a2)
	lui	a2, 1
	addi	a2, a2, -1264
	add	a2, sp, a2
	sd	s2, 0(a2)
	lui	a2, 1
	addi	a2, a2, -1272
	add	a2, sp, a2
	sd	s3, 0(a2)
	lui	a2, 1
	addi	a2, a2, -1280
	add	a2, sp, a2
	sd	s4, 0(a2)
	lui	a2, 1
	addi	a2, a2, -1288
	add	a2, sp, a2
	sd	s5, 0(a2)
	lui	a2, 1
	addi	a2, a2, -1296
	add	a2, sp, a2
	sd	s6, 0(a2)
	lui	a2, 1
	addi	a2, a2, -1304
	add	a2, sp, a2
	sd	s7, 0(a2)
	lui	a2, 1
	addi	a2, a2, -1312
	add	a2, sp, a2
	sd	s8, 0(a2)
	lui	a2, 1
	addi	a2, a2, -1320
	add	a2, sp, a2
	sd	s9, 0(a2)
	lui	a2, 1
	addi	a2, a2, -1328
	add	a2, sp, a2
	sd	s10, 0(a2)
	.cfi_offset ra, -8
	.cfi_offset s0, -16
	.cfi_offset s1, -24
	.cfi_offset s2, -32
	.cfi_offset s3, -40
	.cfi_offset s4, -48
	.cfi_offset s5, -56
	.cfi_offset s6, -64
	.cfi_offset s7, -72
	.cfi_offset s8, -80
	.cfi_offset s9, -88
	.cfi_offset s10, -96
	lui	a2, 1
	addi	a2, a2, -1232
	add	s0, sp, a2
	.cfi_def_cfa s0, 0
	sd	a0, -112(s0)
	sd	a1, -120(s0)
	ld	s10, -112(s0)
	mv	a0, s10
	call	_ZNSt6vectorISt10shared_ptrIN7Surface4BaseEESaIS3_EEC2Ev
	addi	s2, s10, 24
	mv	a0, s2
	call	_ZNSt6vectorISt10shared_ptrIN7Surface4BaseEESaIS3_EEC2Ev
	addi	s3, s10, 48
	mv	a0, s3
	call	_ZNSt6vectorIdSaIdEEC2Ev
	addi	s4, s10, 72
	mv	a0, s4
	call	_ZNSt10shared_ptrI3BVHEC2Ev
	addi	a0, s10, 96
.Ltmp6:
	call	_ZN11BoundingBoxC2Ev
.Ltmp7:
	j	.LBB4_1
.LBB4_1:                                # %invoke.cont
	ld	s5, -120(s0)
	addi	s1, s0, -232
	mv	a0, s1
	call	_ZNSaIcEC1Ev
.Ltmp9:
	lui	a0, %hi(.L.str)
	addi	a1, a0, %lo(.L.str)
	addi	a0, s0, -224
	mv	a2, s1
	call	_ZNSt7__cxx1112basic_stringIcSt11char_traitsIcESaIcEEC2IS3_EEPKcRKS3_
.Ltmp10:
	j	.LBB4_2
.LBB4_2:                                # %invoke.cont4
.Ltmp12:
	addi	a1, s0, -224
	mv	a0, s5
	call	_ZNK8nlohmann10basic_jsonISt3mapSt6vectorNSt7__cxx1112basic_stringIcSt11char_traitsIcESaIcEEEblmdSaNS_14adl_serializerEE2atERKS8_
	mv	a1, a0
.Ltmp13:
	j	.LBB4_3
.LBB4_3:                                # %invoke.cont6
.Ltmp14:
	addi	a0, s0, -192
	call	_ZNK8nlohmann10basic_jsonISt3mapSt6vectorNSt7__cxx1112basic_stringIcSt11char_traitsIcESaIcEEEblmdSaNS_14adl_serializerEEcvT_ISt13unordered_mapIS8_St10shared_ptrI8MaterialESt4hashIS8_ESt8equal_toIS8_ESaISt4pairIKS8_SG_EEELi0EEEv
.Ltmp15:
	j	.LBB4_4
.LBB4_4:                                # %invoke.cont7
	addi	a0, s0, -224
	call	_ZNSt7__cxx1112basic_stringIcSt11char_traitsIcESaIcEED1Ev
	addi	a0, s0, -232
	call	_ZNSaIcED1Ev
	ld	s5, -120(s0)
	addi	s1, s0, -328
	mv	a0, s1
	call	_ZNSaIcEC1Ev
.Ltmp17:
	lui	a0, %hi(.L.str.1)
	addi	a1, a0, %lo(.L.str.1)
	addi	a0, s0, -320
	mv	a2, s1
	call	_ZNSt7__cxx1112basic_stringIcSt11char_traitsIcESaIcEEC2IS3_EEPKcRKS3_
.Ltmp18:
	j	.LBB4_5
.LBB4_5:                                # %invoke.cont10
	sd	zero, -336(s0)
	sd	zero, -344(s0)
	sd	zero, -352(s0)
	sd	zero, -360(s0)
	sd	zero, -368(s0)
	sd	zero, -376(s0)
	sd	zero, -384(s0)
	addi	s1, s0, -384
	mv	a0, s1
	call	_ZNSt13unordered_mapINSt7__cxx1112basic_stringIcSt11char_traitsIcESaIcEEESt6vectorIN3glm3vecILi3EdLNS7_9qualifierE0EEESaISA_EESt4hashIS5_ESt8equal_toIS5_ESaISt4pairIKS5_SC_EEEC2Ev
.Ltmp20:
	addi	a0, s0, -288
	addi	a2, s0, -320
	mv	a1, s5
	mv	a3, s1
	call	_Z11getOptionalISt13unordered_mapINSt7__cxx1112basic_stringIcSt11char_traitsIcESaIcEEESt6vectorIN3glm3vecILi3EdLNS8_9qualifierE0EEESaISB_EESt4hashIS6_ESt8equal_toIS6_ESaISt4pairIKS6_SD_EEEET_RKN8nlohmann10basic_jsonISt3mapS7_S6_blmdSaNSO_14adl_serializerEEES6_SN_
.Ltmp21:
	j	.LBB4_6
.LBB4_6:                                # %invoke.cont13
	addi	a0, s0, -384
	call	_ZNSt13unordered_mapINSt7__cxx1112basic_stringIcSt11char_traitsIcESaIcEEESt6vectorIN3glm3vecILi3EdLNS7_9qualifierE0EEESaISA_EESt4hashIS5_ESt8equal_toIS5_ESaISt4pairIKS5_SC_EEED2Ev
	addi	a0, s0, -320
	call	_ZNSt7__cxx1112basic_stringIcSt11char_traitsIcESaIcEED1Ev
	addi	a0, s0, -328
	call	_ZNSaIcED1Ev
	ld	s5, -120(s0)
	addi	s1, s0, -424
	mv	a0, s1
	call	_ZNSaIcEC1Ev
.Ltmp23:
	lui	a0, %hi(.L.str.2)
	addi	a1, a0, %lo(.L.str.2)
	addi	a0, s0, -416
	mv	a2, s1
	call	_ZNSt7__cxx1112basic_stringIcSt11char_traitsIcESaIcEEC2IS3_EEPKcRKS3_
.Ltmp24:
	j	.LBB4_7
.LBB4_7:                                # %invoke.cont20
.Ltmp26:
	addi	a0, zero, 1023
	slli	a2, a0, 52
	addi	a1, s0, -416
	mv	a0, s5
	call	_Z11getOptionalIdET_RKN8nlohmann10basic_jsonISt3mapSt6vectorNSt7__cxx1112basic_stringIcSt11char_traitsIcESaIcEEEblmdSaNS1_14adl_serializerEEESA_S0_
	fmv.d.x	ft0, a0
.Ltmp27:
	j	.LBB4_8
.LBB4_8:                                # %invoke.cont22
	fsd	ft0, 88(s10)
	addi	a0, s0, -416
	call	_ZNSt7__cxx1112basic_stringIcSt11char_traitsIcESaIcEED1Ev
	addi	a0, s0, -424
	call	_ZNSaIcED1Ev
	ld	s5, -120(s0)
	addi	s1, s0, -472
	mv	a0, s1
	call	_ZNSaIcEC1Ev
.Ltmp29:
	lui	a0, %hi(.L.str.3)
	addi	a1, a0, %lo(.L.str.3)
	addi	a0, s0, -464
	mv	a2, s1
	call	_ZNSt7__cxx1112basic_stringIcSt11char_traitsIcESaIcEEC2IS3_EEPKcRKS3_
.Ltmp30:
	j	.LBB4_9
.LBB4_9:                                # %invoke.cont29
.Ltmp32:
	addi	a1, s0, -464
	mv	a0, s5
	call	_ZNK8nlohmann10basic_jsonISt3mapSt6vectorNSt7__cxx1112basic_stringIcSt11char_traitsIcESaIcEEEblmdSaNS_14adl_serializerEE2atERKS8_
	mv	s1, a0
.Ltmp33:
	j	.LBB4_10
.LBB4_10:                               # %invoke.cont31
	addi	a0, s0, -464
	call	_ZNSt7__cxx1112basic_stringIcSt11char_traitsIcESaIcEED1Ev
	addi	a0, s0, -472
	call	_ZNSaIcED1Ev
	sd	s1, -432(s0)
	ld	a1, -432(s0)
	addi	a0, s0, -504
	call	_ZNK8nlohmann10basic_jsonISt3mapSt6vectorNSt7__cxx1112basic_stringIcSt11char_traitsIcESaIcEEEblmdSaNS_14adl_serializerEE5beginEv
	ld	a1, -432(s0)
	addi	a0, s0, -536
	call	_ZNK8nlohmann10basic_jsonISt3mapSt6vectorNSt7__cxx1112basic_stringIcSt11char_traitsIcESaIcEEEblmdSaNS_14adl_serializerEE3endEv
	j	.LBB4_11
.LBB4_11:                               # %for.cond
                                        # =>This Loop Header: Depth=1
                                        #     Child Loop BB4_138 Depth 2
                                        #     Child Loop BB4_154 Depth 2
.Ltmp35:
	addi	a0, s0, -504
	addi	a1, s0, -536
	call	_ZNK8nlohmann6detail9iter_implIKNS_10basic_jsonISt3mapSt6vectorNSt7__cxx1112basic_stringIcSt11char_traitsIcESaIcEEEblmdSaNS_14adl_serializerEEEEneERKSE_
.Ltmp36:
	j	.LBB4_12
.LBB4_12:                               # %invoke.cont36
                                        #   in Loop: Header=BB4_11 Depth=1
	andi	a0, a0, 1
	bnez	a0, .LBB4_13
	j	.LBB4_262
.LBB4_13:                               # %for.body
                                        #   in Loop: Header=BB4_11 Depth=1
.Ltmp56:
	addi	a0, s0, -504
	call	_ZNK8nlohmann6detail9iter_implIKNS_10basic_jsonISt3mapSt6vectorNSt7__cxx1112basic_stringIcSt11char_traitsIcESaIcEEEblmdSaNS_14adl_serializerEEEEdeEv
.Ltmp57:
	j	.LBB4_14
.LBB4_14:                               # %invoke.cont38
                                        #   in Loop: Header=BB4_11 Depth=1
	sd	a0, -544(s0)
	addi	s1, s0, -584
	mv	a0, s1
	call	_ZNSaIcEC1Ev
.Ltmp58:
	lui	a0, %hi(.L.str.4)
	addi	a1, a0, %lo(.L.str.4)
	addi	a0, s0, -576
	mv	a2, s1
	call	_ZNSt7__cxx1112basic_stringIcSt11char_traitsIcESaIcEEC2IS3_EEPKcRKS3_
.Ltmp59:
	j	.LBB4_15
.LBB4_15:                               # %invoke.cont42
                                        #   in Loop: Header=BB4_11 Depth=1
	addi	a0, s0, -584
	call	_ZNSaIcED1Ev
	ld	a1, -544(s0)
.Ltmp61:
	lui	a0, %hi(.L.str.5)
	addi	a2, a0, %lo(.L.str.5)
	addi	a0, s0, -616
	call	_ZNK8nlohmann10basic_jsonISt3mapSt6vectorNSt7__cxx1112basic_stringIcSt11char_traitsIcESaIcEEEblmdSaNS_14adl_serializerEE4findIRA9_KcEENS_6detail9iter_implIKSA_EEOT_
.Ltmp62:
	j	.LBB4_16
.LBB4_16:                               # %invoke.cont46
                                        #   in Loop: Header=BB4_11 Depth=1
	ld	a1, -544(s0)
	addi	s1, s0, -648
	mv	a0, s1
	call	_ZNK8nlohmann10basic_jsonISt3mapSt6vectorNSt7__cxx1112basic_stringIcSt11char_traitsIcESaIcEEEblmdSaNS_14adl_serializerEE3endEv
.Ltmp63:
	addi	a0, s0, -616
	mv	a1, s1
	call	_ZNK8nlohmann6detail9iter_implIKNS_10basic_jsonISt3mapSt6vectorNSt7__cxx1112basic_stringIcSt11char_traitsIcESaIcEEEblmdSaNS_14adl_serializerEEEEneERKSE_
.Ltmp64:
	j	.LBB4_17
.LBB4_17:                               # %invoke.cont48
                                        #   in Loop: Header=BB4_11 Depth=1
	andi	a0, a0, 1
	beqz	a0, .LBB4_43
	j	.LBB4_18
.LBB4_18:                               # %if.then
                                        #   in Loop: Header=BB4_11 Depth=1
	ld	s1, -544(s0)
	addi	s5, s0, -720
	mv	a0, s5
	call	_ZNSaIcEC1Ev
.Ltmp65:
	lui	a0, %hi(.L.str.5)
	addi	a1, a0, %lo(.L.str.5)
	addi	a0, s0, -712
	mv	a2, s5
	call	_ZNSt7__cxx1112basic_stringIcSt11char_traitsIcESaIcEEC2IS3_EEPKcRKS3_
.Ltmp66:
	j	.LBB4_19
.LBB4_19:                               # %invoke.cont54
                                        #   in Loop: Header=BB4_11 Depth=1
.Ltmp68:
	addi	a1, s0, -712
	mv	a0, s1
	call	_ZNK8nlohmann10basic_jsonISt3mapSt6vectorNSt7__cxx1112basic_stringIcSt11char_traitsIcESaIcEEEblmdSaNS_14adl_serializerEE2atERKS8_
	mv	a1, a0
.Ltmp69:
	j	.LBB4_20
.LBB4_20:                               # %invoke.cont56
                                        #   in Loop: Header=BB4_11 Depth=1
.Ltmp70:
	addi	a0, s0, -680
	call	_ZNK8nlohmann10basic_jsonISt3mapSt6vectorNSt7__cxx1112basic_stringIcSt11char_traitsIcESaIcEEEblmdSaNS_14adl_serializerEEcvT_IS8_Li0EEEv
.Ltmp71:
	j	.LBB4_21
.LBB4_21:                               # %invoke.cont58
                                        #   in Loop: Header=BB4_11 Depth=1
	addi	a0, s0, -576
	addi	s1, s0, -680
	mv	a1, s1
	call	_ZNSt7__cxx1112basic_stringIcSt11char_traitsIcESaIcEEaSEOS4_
	mv	a0, s1
	call	_ZNSt7__cxx1112basic_stringIcSt11char_traitsIcESaIcEED1Ev
	addi	a0, s0, -712
	call	_ZNSt7__cxx1112basic_stringIcSt11char_traitsIcESaIcEED1Ev
	addi	a0, s0, -720
	call	_ZNSaIcED1Ev
	j	.LBB4_43
.LBB4_22:                               # %lpad
.Ltmp8:
	sd	a0, -128(s0)
	sw	a1, -132(s0)
	j	.LBB4_278
.LBB4_23:                               # %lpad3
.Ltmp11:
	sd	a0, -128(s0)
	sw	a1, -132(s0)
	j	.LBB4_25
.LBB4_24:                               # %lpad5
.Ltmp16:
	sd	a0, -128(s0)
	sw	a1, -132(s0)
	addi	a0, s0, -224
	call	_ZNSt7__cxx1112basic_stringIcSt11char_traitsIcESaIcEED1Ev
	j	.LBB4_25
.LBB4_25:                               # %ehcleanup
	addi	a0, s0, -232
	call	_ZNSaIcED1Ev
	j	.LBB4_278
.LBB4_26:                               # %lpad9
.Ltmp19:
	sd	a0, -128(s0)
	sw	a1, -132(s0)
	j	.LBB4_28
.LBB4_27:                               # %lpad12
.Ltmp22:
	sd	a0, -128(s0)
	sw	a1, -132(s0)
	addi	a0, s0, -384
	call	_ZNSt13unordered_mapINSt7__cxx1112basic_stringIcSt11char_traitsIcESaIcEEESt6vectorIN3glm3vecILi3EdLNS7_9qualifierE0EEESaISA_EESt4hashIS5_ESt8equal_toIS5_ESaISt4pairIKS5_SC_EEED2Ev
	addi	a0, s0, -320
	call	_ZNSt7__cxx1112basic_stringIcSt11char_traitsIcESaIcEED1Ev
	j	.LBB4_28
.LBB4_28:                               # %ehcleanup16
	addi	a0, s0, -328
	call	_ZNSaIcED1Ev
	j	.LBB4_277
.LBB4_29:                               # %lpad19
.Ltmp25:
	sd	a0, -128(s0)
	sw	a1, -132(s0)
	j	.LBB4_31
.LBB4_30:                               # %lpad21
.Ltmp28:
	sd	a0, -128(s0)
	sw	a1, -132(s0)
	addi	a0, s0, -416
	call	_ZNSt7__cxx1112basic_stringIcSt11char_traitsIcESaIcEED1Ev
	j	.LBB4_31
.LBB4_31:                               # %ehcleanup25
	addi	a0, s0, -424
	call	_ZNSaIcED1Ev
	j	.LBB4_276
.LBB4_32:                               # %lpad28
.Ltmp31:
	sd	a0, -128(s0)
	sw	a1, -132(s0)
	j	.LBB4_34
.LBB4_33:                               # %lpad30
.Ltmp34:
	sd	a0, -128(s0)
	sw	a1, -132(s0)
	addi	a0, s0, -464
	call	_ZNSt7__cxx1112basic_stringIcSt11char_traitsIcESaIcEED1Ev
	j	.LBB4_34
.LBB4_34:                               # %ehcleanup34
	addi	a0, s0, -472
	call	_ZNSaIcED1Ev
	j	.LBB4_276
.LBB4_35:                               # %lpad35.loopexit
.Ltmp235:
	j	.LBB4_37
.LBB4_36:                               # %lpad35.loopexit.split-lp
.Ltmp55:
	j	.LBB4_37
.LBB4_37:                               # %lpad35
	sd	a0, -128(s0)
	sw	a1, -132(s0)
	j	.LBB4_276
.LBB4_38:                               # %lpad41
.Ltmp60:
	sd	a0, -128(s0)
	sw	a1, -132(s0)
	addi	a0, s0, -584
	call	_ZNSaIcED1Ev
	j	.LBB4_276
.LBB4_39:                               # %lpad45
.Ltmp75:
	sd	a0, -128(s0)
	sw	a1, -132(s0)
	j	.LBB4_261
.LBB4_40:                               # %lpad53
.Ltmp67:
	sd	a0, -128(s0)
	sw	a1, -132(s0)
	j	.LBB4_42
.LBB4_41:                               # %lpad55
.Ltmp72:
	sd	a0, -128(s0)
	sw	a1, -132(s0)
	addi	a0, s0, -712
	call	_ZNSt7__cxx1112basic_stringIcSt11char_traitsIcESaIcEED1Ev
	j	.LBB4_42
.LBB4_42:                               # %ehcleanup61
	addi	a0, s0, -720
	call	_ZNSaIcED1Ev
	j	.LBB4_261
.LBB4_43:                               # %if.end
                                        #   in Loop: Header=BB4_11 Depth=1
.Ltmp73:
	addi	a0, s0, -192
	addi	a1, s0, -576
	call	_ZNSt13unordered_mapINSt7__cxx1112basic_stringIcSt11char_traitsIcESaIcEEESt10shared_ptrI8MaterialESt4hashIS5_ESt8equal_toIS5_ESaISt4pairIKS5_S8_EEE2atERSE_
.Ltmp74:
	j	.LBB4_44
.LBB4_44:                               # %invoke.cont62
                                        #   in Loop: Header=BB4_11 Depth=1
	sd	a0, -728(s0)
	addi	a0, s0, -736
	call	_ZNSt10unique_ptrI9TransformSt14default_deleteIS0_EEC2IS2_vEEv
	ld	a1, -544(s0)
.Ltmp76:
	lui	a0, %hi(.L.str.6)
	addi	a2, a0, %lo(.L.str.6)
	addi	a0, s0, -768
	call	_ZNK8nlohmann10basic_jsonISt3mapSt6vectorNSt7__cxx1112basic_stringIcSt11char_traitsIcESaIcEEEblmdSaNS_14adl_serializerEE4findIRA9_KcEENS_6detail9iter_implIKSA_EEOT_
.Ltmp77:
	j	.LBB4_45
.LBB4_45:                               # %invoke.cont66
                                        #   in Loop: Header=BB4_11 Depth=1
	ld	a1, -544(s0)
	addi	s1, s0, -800
	mv	a0, s1
	call	_ZNK8nlohmann10basic_jsonISt3mapSt6vectorNSt7__cxx1112basic_stringIcSt11char_traitsIcESaIcEEEblmdSaNS_14adl_serializerEE3endEv
.Ltmp78:
	addi	a0, s0, -768
	mv	a1, s1
	call	_ZNK8nlohmann6detail9iter_implIKNS_10basic_jsonISt3mapSt6vectorNSt7__cxx1112basic_stringIcSt11char_traitsIcESaIcEEEblmdSaNS_14adl_serializerEEEEneERKSE_
	mv	a1, a0
.Ltmp79:
	j	.LBB4_46
.LBB4_46:                               # %invoke.cont68
                                        #   in Loop: Header=BB4_11 Depth=1
	addi	a0, zero, 1
	andi	a1, a1, 1
	bnez	a1, .LBB4_53
	j	.LBB4_47
.LBB4_47:                               # %lor.lhs.false
                                        #   in Loop: Header=BB4_11 Depth=1
	ld	a1, -544(s0)
.Ltmp80:
	lui	a0, %hi(.L.str.7)
	addi	a2, a0, %lo(.L.str.7)
	addi	a0, s0, -832
	call	_ZNK8nlohmann10basic_jsonISt3mapSt6vectorNSt7__cxx1112basic_stringIcSt11char_traitsIcESaIcEEEblmdSaNS_14adl_serializerEE4findIRA6_KcEENS_6detail9iter_implIKSA_EEOT_
.Ltmp81:
	j	.LBB4_48
.LBB4_48:                               # %invoke.cont71
                                        #   in Loop: Header=BB4_11 Depth=1
	ld	a1, -544(s0)
	addi	s1, s0, -864
	mv	a0, s1
	call	_ZNK8nlohmann10basic_jsonISt3mapSt6vectorNSt7__cxx1112basic_stringIcSt11char_traitsIcESaIcEEEblmdSaNS_14adl_serializerEE3endEv
.Ltmp82:
	addi	a0, s0, -832
	mv	a1, s1
	call	_ZNK8nlohmann6detail9iter_implIKNS_10basic_jsonISt3mapSt6vectorNSt7__cxx1112basic_stringIcSt11char_traitsIcESaIcEEEblmdSaNS_14adl_serializerEEEEneERKSE_
	mv	a1, a0
.Ltmp83:
	j	.LBB4_49
.LBB4_49:                               # %invoke.cont73
                                        #   in Loop: Header=BB4_11 Depth=1
	addi	a0, zero, 1
	andi	a1, a1, 1
	bnez	a1, .LBB4_53
	j	.LBB4_50
.LBB4_50:                               # %lor.rhs
                                        #   in Loop: Header=BB4_11 Depth=1
	ld	a1, -544(s0)
.Ltmp84:
	lui	a0, %hi(.L.str.8)
	addi	a2, a0, %lo(.L.str.8)
	addi	a0, s0, -896
	call	_ZNK8nlohmann10basic_jsonISt3mapSt6vectorNSt7__cxx1112basic_stringIcSt11char_traitsIcESaIcEEEblmdSaNS_14adl_serializerEE4findIRA9_KcEENS_6detail9iter_implIKSA_EEOT_
.Ltmp85:
	j	.LBB4_51
.LBB4_51:                               # %invoke.cont76
                                        #   in Loop: Header=BB4_11 Depth=1
	ld	a1, -544(s0)
	addi	s1, s0, -928
	mv	a0, s1
	call	_ZNK8nlohmann10basic_jsonISt3mapSt6vectorNSt7__cxx1112basic_stringIcSt11char_traitsIcESaIcEEEblmdSaNS_14adl_serializerEE3endEv
.Ltmp86:
	addi	a0, s0, -896
	mv	a1, s1
	call	_ZNK8nlohmann6detail9iter_implIKNS_10basic_jsonISt3mapSt6vectorNSt7__cxx1112basic_stringIcSt11char_traitsIcESaIcEEEblmdSaNS_14adl_serializerEEEEneERKSE_
.Ltmp87:
	j	.LBB4_52
.LBB4_52:                               # %invoke.cont78
                                        #   in Loop: Header=BB4_11 Depth=1
	j	.LBB4_53
.LBB4_53:                               # %lor.end
                                        #   in Loop: Header=BB4_11 Depth=1
	andi	a0, a0, 1
	beqz	a0, .LBB4_78
	j	.LBB4_54
.LBB4_54:                               # %if.then80
                                        #   in Loop: Header=BB4_11 Depth=1
	ld	s5, -544(s0)
	addi	s1, s0, -1000
	mv	a0, s1
	call	_ZNSaIcEC1Ev
.Ltmp89:
	lui	a0, %hi(.L.str.6)
	addi	a1, a0, %lo(.L.str.6)
	addi	a0, s0, -992
	mv	a2, s1
	call	_ZNSt7__cxx1112basic_stringIcSt11char_traitsIcESaIcEEC2IS3_EEPKcRKS3_
.Ltmp90:
	j	.LBB4_55
.LBB4_55:                               # %invoke.cont86
                                        #   in Loop: Header=BB4_11 Depth=1
.Ltmp92:
	addi	a0, s0, -1024
	mv	a1, zero
	call	_ZN3glm3vecILi3EdLNS_9qualifierE0EEC2Ed
.Ltmp93:
	j	.LBB4_56
.LBB4_56:                               # %invoke.cont89
                                        #   in Loop: Header=BB4_11 Depth=1
.Ltmp94:
	addi	a0, s0, -960
	addi	a2, s0, -992
	addi	a3, s0, -1024
	mv	a1, s5
	call	_Z11getOptionalIN3glm3vecILi3EdLNS0_9qualifierE0EEEET_RKN8nlohmann10basic_jsonISt3mapSt6vectorNSt7__cxx1112basic_stringIcSt11char_traitsIcESaIcEEEblmdSaNS5_14adl_serializerEEESE_S4_
.Ltmp95:
	j	.LBB4_57
.LBB4_57:                               # %invoke.cont90
                                        #   in Loop: Header=BB4_11 Depth=1
	ld	s5, -544(s0)
	addi	s1, s0, -1088
	mv	a0, s1
	call	_ZNSaIcEC1Ev
.Ltmp97:
	lui	a0, %hi(.L.str.7)
	addi	a1, a0, %lo(.L.str.7)
	addi	a0, s0, -1080
	mv	a2, s1
	call	_ZNSt7__cxx1112basic_stringIcSt11char_traitsIcESaIcEEC2IS3_EEPKcRKS3_
.Ltmp98:
	j	.LBB4_58
.LBB4_58:                               # %invoke.cont95
                                        #   in Loop: Header=BB4_11 Depth=1
.Ltmp100:
	addi	a0, zero, 1023
	slli	a1, a0, 52
	addi	a0, s0, -1112
	call	_ZN3glm3vecILi3EdLNS_9qualifierE0EEC2Ed
.Ltmp101:
	j	.LBB4_59
.LBB4_59:                               # %invoke.cont98
                                        #   in Loop: Header=BB4_11 Depth=1
.Ltmp102:
	addi	a0, s0, -1048
	addi	a2, s0, -1080
	addi	a3, s0, -1112
	mv	a1, s5
	call	_Z11getOptionalIN3glm3vecILi3EdLNS0_9qualifierE0EEEET_RKN8nlohmann10basic_jsonISt3mapSt6vectorNSt7__cxx1112basic_stringIcSt11char_traitsIcESaIcEEEblmdSaNS5_14adl_serializerEEESE_S4_
.Ltmp103:
	j	.LBB4_60
.LBB4_60:                               # %invoke.cont99
                                        #   in Loop: Header=BB4_11 Depth=1
	ld	s5, -544(s0)
	addi	s1, s0, -1200
	mv	a0, s1
	call	_ZNSaIcEC1Ev
.Ltmp105:
	lui	a0, %hi(.L.str.8)
	addi	a1, a0, %lo(.L.str.8)
	addi	a0, s0, -1192
	mv	a2, s1
	call	_ZNSt7__cxx1112basic_stringIcSt11char_traitsIcESaIcEEC2IS3_EEPKcRKS3_
.Ltmp106:
	j	.LBB4_61
.LBB4_61:                               # %invoke.cont105
                                        #   in Loop: Header=BB4_11 Depth=1
.Ltmp108:
	addi	a0, s0, -1224
	mv	a1, zero
	call	_ZN3glm3vecILi3EdLNS_9qualifierE0EEC2Ed
.Ltmp109:
	j	.LBB4_62
.LBB4_62:                               # %invoke.cont108
                                        #   in Loop: Header=BB4_11 Depth=1
.Ltmp110:
	addi	a0, s0, -1160
	addi	a2, s0, -1192
	addi	a3, s0, -1224
	mv	a1, s5
	call	_Z11getOptionalIN3glm3vecILi3EdLNS0_9qualifierE0EEEET_RKN8nlohmann10basic_jsonISt3mapSt6vectorNSt7__cxx1112basic_stringIcSt11char_traitsIcESaIcEEEblmdSaNS5_14adl_serializerEEESE_S4_
.Ltmp111:
	j	.LBB4_63
.LBB4_63:                               # %invoke.cont109
                                        #   in Loop: Header=BB4_11 Depth=1
.Ltmp112:
	addi	a0, s0, -1136
	addi	a1, s0, -1160
	call	_ZN3glm7radiansILi3EdLNS_9qualifierE0EEENS_3vecIXT_ET0_XT1_EEERKS4_
.Ltmp113:
	j	.LBB4_64
.LBB4_64:                               # %invoke.cont110
                                        #   in Loop: Header=BB4_11 Depth=1
.Ltmp114:
	addi	a0, s0, -936
	addi	a1, s0, -960
	addi	a2, s0, -1048
	addi	a3, s0, -1136
	call	_ZSt11make_uniqueI9TransformJN3glm3vecILi3EdLNS1_9qualifierE0EEES4_S4_EENSt9_MakeUniqIT_E15__single_objectEDpOT0_
.Ltmp115:
	j	.LBB4_65
.LBB4_65:                               # %invoke.cont111
                                        #   in Loop: Header=BB4_11 Depth=1
	addi	a0, s0, -736
	addi	s1, s0, -936
	mv	a1, s1
	call	_ZNSt10unique_ptrI9TransformSt14default_deleteIS0_EEaSEOS3_
	mv	a0, s1
	call	_ZNSt10unique_ptrI9TransformSt14default_deleteIS0_EED2Ev
	addi	a0, s0, -1192
	call	_ZNSt7__cxx1112basic_stringIcSt11char_traitsIcESaIcEED1Ev
	addi	a0, s0, -1200
	call	_ZNSaIcED1Ev
	addi	a0, s0, -1080
	call	_ZNSt7__cxx1112basic_stringIcSt11char_traitsIcESaIcEED1Ev
	addi	a0, s0, -1088
	call	_ZNSaIcED1Ev
	addi	a0, s0, -992
	call	_ZNSt7__cxx1112basic_stringIcSt11char_traitsIcESaIcEED1Ev
	addi	a0, s0, -1000
	call	_ZNSaIcED1Ev
	j	.LBB4_78
.LBB4_66:                               # %lpad65
.Ltmp88:
	sd	a0, -128(s0)
	sw	a1, -132(s0)
	j	.LBB4_260
.LBB4_67:                               # %lpad85
.Ltmp91:
	sd	a0, -128(s0)
	sw	a1, -132(s0)
	j	.LBB4_77
.LBB4_68:                               # %lpad88
.Ltmp96:
	sd	a0, -128(s0)
	sw	a1, -132(s0)
	j	.LBB4_76
.LBB4_69:                               # %lpad94
.Ltmp99:
	sd	a0, -128(s0)
	sw	a1, -132(s0)
	j	.LBB4_75
.LBB4_70:                               # %lpad97
.Ltmp104:
	sd	a0, -128(s0)
	sw	a1, -132(s0)
	j	.LBB4_74
.LBB4_71:                               # %lpad104
.Ltmp107:
	sd	a0, -128(s0)
	sw	a1, -132(s0)
	j	.LBB4_73
.LBB4_72:                               # %lpad107
.Ltmp116:
	sd	a0, -128(s0)
	sw	a1, -132(s0)
	addi	a0, s0, -1192
	call	_ZNSt7__cxx1112basic_stringIcSt11char_traitsIcESaIcEED1Ev
	j	.LBB4_73
.LBB4_73:                               # %ehcleanup114
	addi	a0, s0, -1200
	call	_ZNSaIcED1Ev
	j	.LBB4_74
.LBB4_74:                               # %ehcleanup115
	addi	a0, s0, -1080
	call	_ZNSt7__cxx1112basic_stringIcSt11char_traitsIcESaIcEED1Ev
	j	.LBB4_75
.LBB4_75:                               # %ehcleanup116
	addi	a0, s0, -1088
	call	_ZNSaIcED1Ev
	j	.LBB4_76
.LBB4_76:                               # %ehcleanup117
	addi	a0, s0, -992
	call	_ZNSt7__cxx1112basic_stringIcSt11char_traitsIcESaIcEED1Ev
	j	.LBB4_77
.LBB4_77:                               # %ehcleanup118
	addi	a0, s0, -1000
	call	_ZNSaIcED1Ev
	j	.LBB4_260
.LBB4_78:                               # %if.end119
                                        #   in Loop: Header=BB4_11 Depth=1
	ld	s1, -544(s0)
	addi	s5, s0, -1296
	mv	a0, s5
	call	_ZNSaIcEC1Ev
.Ltmp117:
	lui	a0, %hi(.L.str.9)
	addi	a1, a0, %lo(.L.str.9)
	addi	a0, s0, -1288
	mv	a2, s5
	call	_ZNSt7__cxx1112basic_stringIcSt11char_traitsIcESaIcEEC2IS3_EEPKcRKS3_
.Ltmp118:
	j	.LBB4_79
.LBB4_79:                               # %invoke.cont123
                                        #   in Loop: Header=BB4_11 Depth=1
.Ltmp120:
	addi	a1, s0, -1288
	mv	a0, s1
	call	_ZNK8nlohmann10basic_jsonISt3mapSt6vectorNSt7__cxx1112basic_stringIcSt11char_traitsIcESaIcEEEblmdSaNS_14adl_serializerEE2atERKS8_
	mv	a1, a0
.Ltmp121:
	j	.LBB4_80
.LBB4_80:                               # %invoke.cont125
                                        #   in Loop: Header=BB4_11 Depth=1
.Ltmp122:
	addi	a0, s0, -1256
	call	_ZNK8nlohmann10basic_jsonISt3mapSt6vectorNSt7__cxx1112basic_stringIcSt11char_traitsIcESaIcEEEblmdSaNS_14adl_serializerEEcvT_IS8_Li0EEEv
.Ltmp123:
	j	.LBB4_81
.LBB4_81:                               # %invoke.cont127
                                        #   in Loop: Header=BB4_11 Depth=1
	addi	a0, s0, -1288
	call	_ZNSt7__cxx1112basic_stringIcSt11char_traitsIcESaIcEED1Ev
	addi	a0, s0, -1296
	call	_ZNSaIcED1Ev
.Ltmp125:
	lui	a0, %hi(.L.str.10)
	addi	a1, a0, %lo(.L.str.10)
	addi	a0, s0, -1256
	call	_ZSteqIcSt11char_traitsIcESaIcEEbRKNSt7__cxx1112basic_stringIT_T0_T1_EEPKS5_
.Ltmp126:
	j	.LBB4_82
.LBB4_82:                               # %invoke.cont131
                                        #   in Loop: Header=BB4_11 Depth=1
	andi	a0, a0, 1
	beqz	a0, .LBB4_209
	j	.LBB4_83
.LBB4_83:                               # %if.then133
                                        #   in Loop: Header=BB4_11 Depth=1
	addi	a0, s0, -1320
	call	_ZNSt6vectorIN3glm3vecILi3EdLNS0_9qualifierE0EEESaIS3_EEC2Ev
	addi	a0, s0, -1344
	call	_ZNSt6vectorIN3glm3vecILi3EdLNS0_9qualifierE0EEESaIS3_EEC2Ev
	addi	a0, s0, -1368
	call	_ZNSt6vectorIS_ImSaImEESaIS1_EEC2Ev
	addi	a0, s0, -1392
	call	_ZNSt6vectorIS_ImSaImEESaIS1_EEC2Ev
	addi	a0, s0, -1416
	call	_ZNSt6vectorIS_ImSaImEESaIS1_EEC2Ev
	ld	a1, -544(s0)
.Ltmp178:
	lui	a0, %hi(.L.str.11)
	addi	a2, a0, %lo(.L.str.11)
	addi	a0, s0, -1448
	call	_ZNK8nlohmann10basic_jsonISt3mapSt6vectorNSt7__cxx1112basic_stringIcSt11char_traitsIcESaIcEEEblmdSaNS_14adl_serializerEE4findIRA5_KcEENS_6detail9iter_implIKSA_EEOT_
.Ltmp179:
	j	.LBB4_84
.LBB4_84:                               # %invoke.cont136
                                        #   in Loop: Header=BB4_11 Depth=1
	ld	a1, -544(s0)
	addi	s1, s0, -1480
	mv	a0, s1
	call	_ZNK8nlohmann10basic_jsonISt3mapSt6vectorNSt7__cxx1112basic_stringIcSt11char_traitsIcESaIcEEEblmdSaNS_14adl_serializerEE3endEv
.Ltmp180:
	addi	a0, s0, -1448
	mv	a1, s1
	call	_ZNK8nlohmann6detail9iter_implIKNS_10basic_jsonISt3mapSt6vectorNSt7__cxx1112basic_stringIcSt11char_traitsIcESaIcEEEblmdSaNS_14adl_serializerEEEEneERKSE_
.Ltmp181:
	j	.LBB4_85
.LBB4_85:                               # %invoke.cont138
                                        #   in Loop: Header=BB4_11 Depth=1
	andi	a0, a0, 1
	beqz	a0, .LBB4_108
	j	.LBB4_86
.LBB4_86:                               # %if.then140
                                        #   in Loop: Header=BB4_11 Depth=1
	ld	s1, -544(s0)
	addi	s5, s0, -1632
	mv	a0, s5
	call	_ZNSaIcEC1Ev
.Ltmp203:
	lui	a0, %hi(.L.str.11)
	addi	a1, a0, %lo(.L.str.11)
	addi	a0, s0, -1624
	mv	a2, s5
	call	_ZNSt7__cxx1112basic_stringIcSt11char_traitsIcESaIcEEC2IS3_EEPKcRKS3_
.Ltmp204:
	j	.LBB4_87
.LBB4_87:                               # %invoke.cont146
                                        #   in Loop: Header=BB4_11 Depth=1
.Ltmp206:
	addi	a1, s0, -1624
	mv	a0, s1
	call	_ZNK8nlohmann10basic_jsonISt3mapSt6vectorNSt7__cxx1112basic_stringIcSt11char_traitsIcESaIcEEEblmdSaNS_14adl_serializerEE2atERKS8_
	mv	a1, a0
.Ltmp207:
	j	.LBB4_88
.LBB4_88:                               # %invoke.cont148
                                        #   in Loop: Header=BB4_11 Depth=1
.Ltmp208:
	addi	a0, s0, -1592
	call	_ZNK8nlohmann10basic_jsonISt3mapSt6vectorNSt7__cxx1112basic_stringIcSt11char_traitsIcESaIcEEEblmdSaNS_14adl_serializerEE3getIS8_S8_Li0EEET0_v
.Ltmp209:
	j	.LBB4_89
.LBB4_89:                               # %invoke.cont150
                                        #   in Loop: Header=BB4_11 Depth=1
.Ltmp211:
	addi	a0, s0, -1560
	addi	a1, s0, -1592
	addi	a2, zero, 2
	call	_ZNSt10filesystem7__cxx114pathC2EONSt7__cxx1112basic_stringIcSt11char_traitsIcESaIcEEENS1_6formatE
.Ltmp212:
	j	.LBB4_90
.LBB4_90:                               # %invoke.cont152
                                        #   in Loop: Header=BB4_11 Depth=1
.Ltmp214:
	lui	a0, %hi(_ZN5Scene4pathB5cxx11E)
	addi	a1, a0, %lo(_ZN5Scene4pathB5cxx11E)
	addi	a0, s0, -1520
	addi	a2, s0, -1560
	call	_ZNSt10filesystem7__cxx11dvERKNS0_4pathES3_
.Ltmp215:
	j	.LBB4_91
.LBB4_91:                               # %invoke.cont154
                                        #   in Loop: Header=BB4_11 Depth=1
	addi	a0, s0, -1560
	call	_ZNSt10filesystem7__cxx114pathD2Ev
	addi	a0, s0, -1592
	call	_ZNSt7__cxx1112basic_stringIcSt11char_traitsIcESaIcEED1Ev
	addi	a0, s0, -1624
	call	_ZNSt7__cxx1112basic_stringIcSt11char_traitsIcESaIcEED1Ev
	addi	a0, s0, -1632
	call	_ZNSaIcED1Ev
.Ltmp217:
	addi	a1, s0, -1520
	addi	a2, s0, -1320
	addi	a3, s0, -1344
	addi	a4, s0, -1368
	addi	a5, s0, -1392
	addi	a6, s0, -1416
	mv	a0, s10
	call	_ZNK5Scene8parseOBJERKNSt10filesystem7__cxx114pathERSt6vectorIN3glm3vecILi3EdLNS6_9qualifierE0EEESaIS9_EESC_RS5_IS5_ImSaImEESaISE_EESH_SH_
.Ltmp218:
	j	.LBB4_92
.LBB4_92:                               # %invoke.cont160
                                        #   in Loop: Header=BB4_11 Depth=1
	addi	a0, s0, -1520
	call	_ZNSt10filesystem7__cxx114pathD2Ev
	j	.LBB4_125
.LBB4_93:                               # %lpad122
.Ltmp119:
	sd	a0, -128(s0)
	sw	a1, -132(s0)
	j	.LBB4_95
.LBB4_94:                               # %lpad124
.Ltmp124:
	sd	a0, -128(s0)
	sw	a1, -132(s0)
	addi	a0, s0, -1288
	call	_ZNSt7__cxx1112basic_stringIcSt11char_traitsIcESaIcEED1Ev
	j	.LBB4_95
.LBB4_95:                               # %ehcleanup129
	addi	a0, s0, -1296
	call	_ZNSaIcED1Ev
	j	.LBB4_260
.LBB4_96:                               # %lpad130
.Ltmp177:
	sd	a0, -128(s0)
	sw	a1, -132(s0)
	j	.LBB4_259
.LBB4_97:                               # %lpad135.loopexit
.Ltmp321:
	j	.LBB4_99
.LBB4_98:                               # %lpad135.loopexit.split-lp
.Ltmp232:
	j	.LBB4_99
.LBB4_99:                               # %lpad135
	sd	a0, -128(s0)
	sw	a1, -132(s0)
	j	.LBB4_208
.LBB4_100:                              # %lpad145
.Ltmp205:
	sd	a0, -128(s0)
	sw	a1, -132(s0)
	j	.LBB4_106
.LBB4_101:                              # %lpad147
.Ltmp210:
	sd	a0, -128(s0)
	sw	a1, -132(s0)
	j	.LBB4_105
.LBB4_102:                              # %lpad151
.Ltmp213:
	sd	a0, -128(s0)
	sw	a1, -132(s0)
	j	.LBB4_104
.LBB4_103:                              # %lpad153
.Ltmp216:
	sd	a0, -128(s0)
	sw	a1, -132(s0)
	addi	a0, s0, -1560
	call	_ZNSt10filesystem7__cxx114pathD2Ev
	j	.LBB4_104
.LBB4_104:                              # %ehcleanup156
	addi	a0, s0, -1592
	call	_ZNSt7__cxx1112basic_stringIcSt11char_traitsIcESaIcEED1Ev
	j	.LBB4_105
.LBB4_105:                              # %ehcleanup157
	addi	a0, s0, -1624
	call	_ZNSt7__cxx1112basic_stringIcSt11char_traitsIcESaIcEED1Ev
	j	.LBB4_106
.LBB4_106:                              # %ehcleanup158
	addi	a0, s0, -1632
	call	_ZNSaIcED1Ev
	j	.LBB4_208
.LBB4_107:                              # %lpad159
.Ltmp219:
	sd	a0, -128(s0)
	sw	a1, -132(s0)
	addi	a0, s0, -1520
	call	_ZNSt10filesystem7__cxx114pathD2Ev
	j	.LBB4_208
.LBB4_108:                              # %if.else
                                        #   in Loop: Header=BB4_11 Depth=1
	ld	s1, -544(s0)
	addi	s5, s0, -1704
	mv	a0, s5
	call	_ZNSaIcEC1Ev
.Ltmp182:
	lui	a0, %hi(.L.str.12)
	addi	a1, a0, %lo(.L.str.12)
	addi	a0, s0, -1696
	mv	a2, s5
	call	_ZNSt7__cxx1112basic_stringIcSt11char_traitsIcESaIcEEC2IS3_EEPKcRKS3_
.Ltmp183:
	j	.LBB4_109
.LBB4_109:                              # %invoke.cont166
                                        #   in Loop: Header=BB4_11 Depth=1
.Ltmp185:
	addi	a1, s0, -1696
	mv	a0, s1
	call	_ZNK8nlohmann10basic_jsonISt3mapSt6vectorNSt7__cxx1112basic_stringIcSt11char_traitsIcESaIcEEEblmdSaNS_14adl_serializerEE2atERKS8_
	mv	a1, a0
.Ltmp186:
	j	.LBB4_110
.LBB4_110:                              # %invoke.cont168
                                        #   in Loop: Header=BB4_11 Depth=1
.Ltmp187:
	addi	a0, s0, -1664
	call	_ZNK8nlohmann10basic_jsonISt3mapSt6vectorNSt7__cxx1112basic_stringIcSt11char_traitsIcESaIcEEEblmdSaNS_14adl_serializerEEcvT_IS8_Li0EEEv
.Ltmp188:
	j	.LBB4_111
.LBB4_111:                              # %invoke.cont170
                                        #   in Loop: Header=BB4_11 Depth=1
.Ltmp190:
	addi	a0, s0, -288
	addi	a1, s0, -1664
	call	_ZNSt13unordered_mapINSt7__cxx1112basic_stringIcSt11char_traitsIcESaIcEEESt6vectorIN3glm3vecILi3EdLNS7_9qualifierE0EEESaISA_EESt4hashIS5_ESt8equal_toIS5_ESaISt4pairIKS5_SC_EEE2atERSI_
	mv	a1, a0
.Ltmp191:
	j	.LBB4_112
.LBB4_112:                              # %invoke.cont172
                                        #   in Loop: Header=BB4_11 Depth=1
.Ltmp192:
	addi	a0, s0, -1320
	call	_ZNSt6vectorIN3glm3vecILi3EdLNS0_9qualifierE0EEESaIS3_EEaSERKS5_
.Ltmp193:
	j	.LBB4_113
.LBB4_113:                              # %invoke.cont174
                                        #   in Loop: Header=BB4_11 Depth=1
	addi	a0, s0, -1664
	call	_ZNSt7__cxx1112basic_stringIcSt11char_traitsIcESaIcEED1Ev
	addi	a0, s0, -1696
	call	_ZNSt7__cxx1112basic_stringIcSt11char_traitsIcESaIcEED1Ev
	addi	a0, s0, -1704
	call	_ZNSaIcED1Ev
	ld	s1, -544(s0)
	addi	s5, s0, -1768
	mv	a0, s5
	call	_ZNSaIcEC1Ev
.Ltmp195:
	lui	a0, %hi(.L.str.13)
	addi	a1, a0, %lo(.L.str.13)
	addi	a0, s0, -1760
	mv	a2, s5
	call	_ZNSt7__cxx1112basic_stringIcSt11char_traitsIcESaIcEEC2IS3_EEPKcRKS3_
.Ltmp196:
	j	.LBB4_114
.LBB4_114:                              # %invoke.cont183
                                        #   in Loop: Header=BB4_11 Depth=1
.Ltmp198:
	addi	a1, s0, -1760
	mv	a0, s1
	call	_ZNK8nlohmann10basic_jsonISt3mapSt6vectorNSt7__cxx1112basic_stringIcSt11char_traitsIcESaIcEEEblmdSaNS_14adl_serializerEE2atERKS8_
	mv	a1, a0
.Ltmp199:
	j	.LBB4_115
.LBB4_115:                              # %invoke.cont185
                                        #   in Loop: Header=BB4_11 Depth=1
.Ltmp200:
	addi	a0, s0, -1728
	call	_ZNK8nlohmann10basic_jsonISt3mapSt6vectorNSt7__cxx1112basic_stringIcSt11char_traitsIcESaIcEEEblmdSaNS_14adl_serializerEE3getIS2_IS2_ImSaImEESaISD_EESF_Li0EEET0_v
.Ltmp201:
	j	.LBB4_116
.LBB4_116:                              # %invoke.cont187
                                        #   in Loop: Header=BB4_11 Depth=1
	addi	a0, s0, -1368
	addi	s1, s0, -1728
	mv	a1, s1
	call	_ZNSt6vectorIS_ImSaImEESaIS1_EEaSEOS3_
	mv	a0, s1
	call	_ZNSt6vectorIS_ImSaImEESaIS1_EED2Ev
	addi	a0, s0, -1760
	call	_ZNSt7__cxx1112basic_stringIcSt11char_traitsIcESaIcEED1Ev
	addi	a0, s0, -1768
	call	_ZNSaIcED1Ev
	j	.LBB4_125
.LBB4_117:                              # %lpad165
.Ltmp184:
	sd	a0, -128(s0)
	sw	a1, -132(s0)
	j	.LBB4_121
.LBB4_118:                              # %lpad167
.Ltmp189:
	sd	a0, -128(s0)
	sw	a1, -132(s0)
	j	.LBB4_120
.LBB4_119:                              # %lpad171
.Ltmp194:
	sd	a0, -128(s0)
	sw	a1, -132(s0)
	addi	a0, s0, -1664
	call	_ZNSt7__cxx1112basic_stringIcSt11char_traitsIcESaIcEED1Ev
	j	.LBB4_120
.LBB4_120:                              # %ehcleanup177
	addi	a0, s0, -1696
	call	_ZNSt7__cxx1112basic_stringIcSt11char_traitsIcESaIcEED1Ev
	j	.LBB4_121
.LBB4_121:                              # %ehcleanup178
	addi	a0, s0, -1704
	call	_ZNSaIcED1Ev
	j	.LBB4_208
.LBB4_122:                              # %lpad182
.Ltmp197:
	sd	a0, -128(s0)
	sw	a1, -132(s0)
	j	.LBB4_124
.LBB4_123:                              # %lpad184
.Ltmp202:
	sd	a0, -128(s0)
	sw	a1, -132(s0)
	addi	a0, s0, -1760
	call	_ZNSt7__cxx1112basic_stringIcSt11char_traitsIcESaIcEED1Ev
	j	.LBB4_124
.LBB4_124:                              # %ehcleanup190
	addi	a0, s0, -1768
	call	_ZNSaIcED1Ev
	j	.LBB4_208
.LBB4_125:                              # %if.end191
                                        #   in Loop: Header=BB4_11 Depth=1
	ld	s5, -544(s0)
	addi	s1, s0, -1816
	mv	a0, s1
	call	_ZNSaIcEC1Ev
.Ltmp220:
	lui	a0, %hi(.L.str.14)
	addi	a1, a0, %lo(.L.str.14)
	addi	a0, s0, -1808
	mv	a2, s1
	call	_ZNSt7__cxx1112basic_stringIcSt11char_traitsIcESaIcEEC2IS3_EEPKcRKS3_
.Ltmp221:
	j	.LBB4_126
.LBB4_126:                              # %invoke.cont195
                                        #   in Loop: Header=BB4_11 Depth=1
.Ltmp223:
	addi	a1, s0, -1808
	mv	a0, s5
	mv	a2, zero
	call	_Z11getOptionalIbET_RKN8nlohmann10basic_jsonISt3mapSt6vectorNSt7__cxx1112basic_stringIcSt11char_traitsIcESaIcEEEblmdSaNS1_14adl_serializerEEESA_S0_
	mv	s1, a0
.Ltmp224:
	j	.LBB4_127
.LBB4_127:                              # %invoke.cont197
                                        #   in Loop: Header=BB4_11 Depth=1
	addi	a0, s0, -1808
	call	_ZNSt7__cxx1112basic_stringIcSt11char_traitsIcESaIcEED1Ev
	addi	a0, s0, -1816
	call	_ZNSaIcED1Ev
	andi	a0, s1, 1
	sb	a0, -1769(s0)
	lbu	a0, -1769(s0)
	andi	a0, a0, 1
	beqz	a0, .LBB4_135
	j	.LBB4_128
.LBB4_128:                              # %land.lhs.true
                                        #   in Loop: Header=BB4_11 Depth=1
	addi	a0, s0, -1344
	call	_ZNKSt6vectorIN3glm3vecILi3EdLNS0_9qualifierE0EEESaIS3_EE5emptyEv
	beqz	a0, .LBB4_135
	j	.LBB4_129
.LBB4_129:                              # %if.then202
                                        #   in Loop: Header=BB4_11 Depth=1
.Ltmp226:
	addi	a1, s0, -1344
	addi	a2, s0, -1320
	addi	a3, s0, -1368
	mv	a0, s10
	call	_ZNK5Scene21generateVertexNormalsERSt6vectorIN3glm3vecILi3EdLNS1_9qualifierE0EEESaIS4_EERKS6_RKS0_IS0_ImSaImEESaISB_EE
.Ltmp227:
	j	.LBB4_130
.LBB4_130:                              # %invoke.cont203
                                        #   in Loop: Header=BB4_11 Depth=1
.Ltmp228:
	addi	a0, s0, -1416
	addi	a1, s0, -1368
	call	_ZNSt6vectorIS_ImSaImEESaIS1_EEaSERKS3_
.Ltmp229:
	j	.LBB4_131
.LBB4_131:                              # %invoke.cont204
                                        #   in Loop: Header=BB4_11 Depth=1
	j	.LBB4_135
.LBB4_132:                              # %lpad194
.Ltmp222:
	sd	a0, -128(s0)
	sw	a1, -132(s0)
	j	.LBB4_134
.LBB4_133:                              # %lpad196
.Ltmp225:
	sd	a0, -128(s0)
	sw	a1, -132(s0)
	addi	a0, s0, -1808
	call	_ZNSt7__cxx1112basic_stringIcSt11char_traitsIcESaIcEED1Ev
	j	.LBB4_134
.LBB4_134:                              # %ehcleanup200
	addi	a0, s0, -1816
	call	_ZNSaIcED1Ev
	j	.LBB4_208
.LBB4_135:                              # %if.end206
                                        #   in Loop: Header=BB4_11 Depth=1
	ld	a0, -728(s0)
	call	_ZNKSt19__shared_ptr_accessI8MaterialLN9__gnu_cxx12_Lock_policyE0ELb0ELb0EEptEv
	addi	a0, a0, 72
.Ltmp230:
	call	_ZN3glm7compMaxILi3EdLNS_9qualifierE0EEET0_RKNS_3vecIXT_ES2_XT1_EEE
.Ltmp231:
	fmv.d.x	ft0, a0
	j	.LBB4_136
.LBB4_136:                              # %invoke.cont208
                                        #   in Loop: Header=BB4_11 Depth=1
	lui	a0, %hi(.LCPI4_0)
	addi	a0, a0, %lo(.LCPI4_0)
	fld	ft1, 0(a0)
	flt.d	a0, ft1, ft0
	sb	a0, -1817(s0)
	sd	zero, -1832(s0)
	lbu	a0, -1817(s0)
	andi	a0, a0, 1
	beqz	a0, .LBB4_153
	j	.LBB4_137
.LBB4_137:                              # %if.then212
                                        #   in Loop: Header=BB4_11 Depth=1
	addi	a0, s0, -1368
	sd	a0, -1840(s0)
	ld	a0, -1840(s0)
	call	_ZNSt6vectorIS_ImSaImEESaIS1_EE5beginEv
	sd	a0, -1848(s0)
	ld	a0, -1840(s0)
	call	_ZNSt6vectorIS_ImSaImEESaIS1_EE3endEv
	sd	a0, -1856(s0)
	j	.LBB4_138
.LBB4_138:                              # %for.cond217
                                        #   Parent Loop BB4_11 Depth=1
                                        # =>  This Inner Loop Header: Depth=2
	addi	a0, s0, -1848
	addi	a1, s0, -1856
	call	_ZN9__gnu_cxxneIPSt6vectorImSaImEES1_IS3_SaIS3_EEEEbRKNS_17__normal_iteratorIT_T0_EESC_
	beqz	a0, .LBB4_152
	j	.LBB4_139
.LBB4_139:                              # %for.body219
                                        #   in Loop: Header=BB4_138 Depth=2
	addi	a0, s0, -1848
	call	_ZNK9__gnu_cxx17__normal_iteratorIPSt6vectorImSaImEES1_IS3_SaIS3_EEEdeEv
	sd	a0, -1864(s0)
	ld	a0, -1864(s0)
.Ltmp309:
	mv	a1, zero
	call	_ZNKSt6vectorImSaImEE2atEm
.Ltmp310:
	j	.LBB4_140
.LBB4_140:                              # %invoke.cont222
                                        #   in Loop: Header=BB4_138 Depth=2
	ld	a1, 0(a0)
.Ltmp311:
	addi	a0, s0, -1320
	call	_ZNSt6vectorIN3glm3vecILi3EdLNS0_9qualifierE0EEESaIS3_EE2atEm
	mv	s5, a0
.Ltmp312:
	j	.LBB4_141
.LBB4_141:                              # %invoke.cont224
                                        #   in Loop: Header=BB4_138 Depth=2
	ld	a0, -1864(s0)
.Ltmp313:
	addi	a1, zero, 1
	call	_ZNKSt6vectorImSaImEE2atEm
.Ltmp314:
	j	.LBB4_142
.LBB4_142:                              # %invoke.cont226
                                        #   in Loop: Header=BB4_138 Depth=2
	ld	a1, 0(a0)
.Ltmp315:
	addi	a0, s0, -1320
	call	_ZNSt6vectorIN3glm3vecILi3EdLNS0_9qualifierE0EEESaIS3_EE2atEm
	mv	s6, a0
.Ltmp316:
	j	.LBB4_143
.LBB4_143:                              # %invoke.cont228
                                        #   in Loop: Header=BB4_138 Depth=2
	ld	a0, -1864(s0)
.Ltmp317:
	addi	a1, zero, 2
	call	_ZNKSt6vectorImSaImEE2atEm
.Ltmp318:
	j	.LBB4_144
.LBB4_144:                              # %invoke.cont230
                                        #   in Loop: Header=BB4_138 Depth=2
	ld	a1, 0(a0)
.Ltmp319:
	addi	a0, s0, -1320
	call	_ZNSt6vectorIN3glm3vecILi3EdLNS0_9qualifierE0EEESaIS3_EE2atEm
	mv	s1, a0
.Ltmp320:
	j	.LBB4_145
.LBB4_145:                              # %invoke.cont232
                                        #   in Loop: Header=BB4_138 Depth=2
	lui	a0, 1048575
	addi	a0, a0, 1984
	add	a0, s0, a0
	mv	s7, a0
	mv	a0, s7
	mv	a1, zero
	call	_ZNSt10shared_ptrI8MaterialEC2EDn
.Ltmp322:
	lui	a0, 1048575
	addi	a0, a0, 2000
	add	a0, s0, a0
	mv	a0, a0
	mv	a1, s5
	mv	a2, s6
	mv	a3, s1
	mv	a4, s7
	call	_ZN7Surface8TriangleC1ERKN3glm3vecILi3EdLNS1_9qualifierE0EEES6_S6_St10shared_ptrI8MaterialE
.Ltmp323:
	j	.LBB4_146
.LBB4_146:                              # %invoke.cont236
                                        #   in Loop: Header=BB4_138 Depth=2
.Ltmp325:
	lui	a0, 1048575
	addi	a0, a0, 2000
	add	a0, s0, a0
	mv	a0, a0
	call	_ZNK7Surface4Base4areaEv
.Ltmp326:
	fmv.d.x	ft0, a0
	j	.LBB4_147
.LBB4_147:                              # %invoke.cont238
                                        #   in Loop: Header=BB4_138 Depth=2
	fld	ft1, -1832(s0)
	fadd.d	ft0, ft1, ft0
	fsd	ft0, -1832(s0)
	lui	a0, 1048575
	addi	a0, a0, 2000
	add	a0, s0, a0
	mv	a0, a0
	call	_ZN7Surface8TriangleD2Ev
	lui	a0, 1048575
	addi	a0, a0, 1984
	add	a0, s0, a0
	mv	a0, a0
	call	_ZNSt10shared_ptrI8MaterialED2Ev
	j	.LBB4_148
.LBB4_148:                              # %for.inc
                                        #   in Loop: Header=BB4_138 Depth=2
	addi	a0, s0, -1848
	call	_ZN9__gnu_cxx17__normal_iteratorIPSt6vectorImSaImEES1_IS3_SaIS3_EEEppEv
	j	.LBB4_138
.LBB4_149:                              # %lpad235
.Ltmp324:
	sd	a0, -128(s0)
	sw	a1, -132(s0)
	j	.LBB4_151
.LBB4_150:                              # %lpad237
.Ltmp327:
	sd	a0, -128(s0)
	sw	a1, -132(s0)
	lui	a0, 1048575
	addi	a0, a0, 2000
	add	a0, s0, a0
	mv	a0, a0
	call	_ZN7Surface8TriangleD2Ev
	j	.LBB4_151
.LBB4_151:                              # %ehcleanup241
	lui	a0, 1048575
	addi	a0, a0, 1984
	add	a0, s0, a0
	mv	a0, a0
	call	_ZNSt10shared_ptrI8MaterialED2Ev
	j	.LBB4_208
.LBB4_152:                              # %for.end
                                        #   in Loop: Header=BB4_11 Depth=1
	j	.LBB4_153
.LBB4_153:                              # %if.end243
                                        #   in Loop: Header=BB4_11 Depth=1
	lui	a0, 1048575
	addi	a0, a0, 1976
	add	a0, s0, a0
	sd	zero, 0(a0)
	j	.LBB4_154
.LBB4_154:                              # %for.cond244
                                        #   Parent Loop BB4_11 Depth=1
                                        # =>  This Inner Loop Header: Depth=2
	lui	a0, 1048575
	addi	a0, a0, 1976
	add	a0, s0, a0
	ld	s1, 0(a0)
	addi	a0, s0, -1368
	call	_ZNKSt6vectorIS_ImSaImEESaIS1_EE4sizeEv
	bgeu	s1, a0, .LBB4_207
	j	.LBB4_155
.LBB4_155:                              # %for.body247
                                        #   in Loop: Header=BB4_154 Depth=2
	lui	a0, 1048575
	addi	a0, a0, 1976
	add	a0, s0, a0
	ld	a1, 0(a0)
	addi	a0, s0, -1368
	call	_ZNSt6vectorIS_ImSaImEESaIS1_EEixEm
	lui	a1, 1048575
	addi	a1, a1, 1968
	add	a1, s0, a1
	sd	a0, 0(a1)
	lui	a0, 1048575
	addi	a0, a0, 1952
	add	a0, s0, a0
	mv	a0, a0
	call	_ZNSt10shared_ptrI8MaterialEC2Ev
	lbu	a0, -1817(s0)
	andi	a0, a0, 1
	beqz	a0, .LBB4_172
	j	.LBB4_156
.LBB4_156:                              # %land.lhs.true251
                                        #   in Loop: Header=BB4_154 Depth=2
	fld	ft0, -1832(s0)
	lui	a0, %hi(.LCPI4_0)
	addi	a0, a0, %lo(.LCPI4_0)
	fld	ft1, 0(a0)
	flt.d	a0, ft1, ft0
	xori	a0, a0, 1
	bnez	a0, .LBB4_172
	j	.LBB4_157
.LBB4_157:                              # %if.then253
                                        #   in Loop: Header=BB4_154 Depth=2
	lui	a0, 1048575
	addi	a0, a0, 1968
	add	a0, s0, a0
	ld	a0, 0(a0)
.Ltmp236:
	mv	a1, zero
	call	_ZNKSt6vectorImSaImEE2atEm
.Ltmp237:
	j	.LBB4_158
.LBB4_158:                              # %invoke.cont256
                                        #   in Loop: Header=BB4_154 Depth=2
	ld	a1, 0(a0)
.Ltmp238:
	addi	a0, s0, -1320
	call	_ZNSt6vectorIN3glm3vecILi3EdLNS0_9qualifierE0EEESaIS3_EE2atEm
	mv	s5, a0
.Ltmp239:
	j	.LBB4_159
.LBB4_159:                              # %invoke.cont258
                                        #   in Loop: Header=BB4_154 Depth=2
	lui	a0, 1048575
	addi	a0, a0, 1968
	add	a0, s0, a0
	ld	a0, 0(a0)
.Ltmp240:
	addi	a1, zero, 1
	call	_ZNKSt6vectorImSaImEE2atEm
.Ltmp241:
	j	.LBB4_160
.LBB4_160:                              # %invoke.cont260
                                        #   in Loop: Header=BB4_154 Depth=2
	ld	a1, 0(a0)
.Ltmp242:
	addi	a0, s0, -1320
	call	_ZNSt6vectorIN3glm3vecILi3EdLNS0_9qualifierE0EEESaIS3_EE2atEm
	mv	s6, a0
.Ltmp243:
	j	.LBB4_161
.LBB4_161:                              # %invoke.cont262
                                        #   in Loop: Header=BB4_154 Depth=2
	lui	a0, 1048575
	addi	a0, a0, 1968
	add	a0, s0, a0
	ld	a0, 0(a0)
.Ltmp244:
	addi	a1, zero, 2
	call	_ZNKSt6vectorImSaImEE2atEm
.Ltmp245:
	j	.LBB4_162
.LBB4_162:                              # %invoke.cont264
                                        #   in Loop: Header=BB4_154 Depth=2
	ld	a1, 0(a0)
.Ltmp246:
	addi	a0, s0, -1320
	call	_ZNSt6vectorIN3glm3vecILi3EdLNS0_9qualifierE0EEESaIS3_EE2atEm
	mv	s1, a0
.Ltmp247:
	j	.LBB4_163
.LBB4_163:                              # %invoke.cont266
                                        #   in Loop: Header=BB4_154 Depth=2
	lui	a0, 1048575
	addi	a0, a0, 1696
	add	a0, s0, a0
	mv	s7, a0
	mv	a0, s7
	mv	a1, zero
	call	_ZNSt10shared_ptrI8MaterialEC2EDn
.Ltmp248:
	lui	a0, 1048575
	addi	a0, a0, 1712
	add	a0, s0, a0
	mv	a0, a0
	mv	a1, s5
	mv	a2, s6
	mv	a3, s1
	mv	a4, s7
	call	_ZN7Surface8TriangleC1ERKN3glm3vecILi3EdLNS1_9qualifierE0EEES6_S6_St10shared_ptrI8MaterialE
.Ltmp249:
	j	.LBB4_164
.LBB4_164:                              # %invoke.cont270
                                        #   in Loop: Header=BB4_154 Depth=2
.Ltmp251:
	lui	a0, 1048575
	addi	a0, a0, 1712
	add	a0, s0, a0
	mv	a0, a0
	call	_ZNK7Surface4Base4areaEv
.Ltmp252:
	fmv.d.x	ft0, a0
	lui	a2, 1048575
	addi	a2, a2, 1240
	add	a2, s0, a2
	fsd	ft0, 0(a2)
	j	.LBB4_165
.LBB4_165:                              # %invoke.cont272
                                        #   in Loop: Header=BB4_154 Depth=2
	lui	a0, 1048575
	addi	a0, a0, 1712
	add	a0, s0, a0
	mv	a0, a0
	call	_ZN7Surface8TriangleD2Ev
	lui	a0, 1048575
	addi	a0, a0, 1696
	add	a0, s0, a0
	mv	a0, a0
	call	_ZNSt10shared_ptrI8MaterialED2Ev
	lui	a0, 1048575
	addi	a0, a0, 1240
	add	a0, s0, a0
	fld	ft0, 0(a0)
	lui	a0, 1048575
	addi	a0, a0, 1944
	add	a0, s0, a0
	fsd	ft0, 0(a0)
	ld	a0, -728(s0)
	call	_ZNKSt19__shared_ptr_accessI8MaterialLN9__gnu_cxx12_Lock_policyE0ELb0ELb0EEdeEv
	mv	a1, a0
.Ltmp254:
	lui	a0, 1048575
	addi	a0, a0, 1680
	add	a0, s0, a0
	mv	a0, a0
	call	_ZSt11make_sharedI8MaterialJRS0_EESt10shared_ptrIT_EDpOT0_
.Ltmp255:
	j	.LBB4_166
.LBB4_166:                              # %invoke.cont278
                                        #   in Loop: Header=BB4_154 Depth=2
	lui	a0, 1048575
	addi	a0, a0, 1952
	add	a0, s0, a0
	mv	s5, a0
	lui	a0, 1048575
	addi	a0, a0, 1680
	add	a0, s0, a0
	mv	s1, a0
	mv	a0, s5
	mv	a1, s1
	call	_ZNSt10shared_ptrI8MaterialEaSEOS1_
	mv	a0, s1
	call	_ZNSt10shared_ptrI8MaterialED2Ev
	lui	a0, 1048575
	addi	a0, a0, 1944
	add	a0, s0, a0
	fld	ft0, 0(a0)
	fld	ft1, -1832(s0)
	fdiv.d	ft0, ft0, ft1
	lui	a0, 1048575
	addi	a0, a0, 1232
	add	a0, s0, a0
	fsd	ft0, 0(a0)
	mv	a0, s5
	call	_ZNKSt19__shared_ptr_accessI8MaterialLN9__gnu_cxx12_Lock_policyE0ELb0ELb0EEptEv
	addi	a0, a0, 72
	lui	a1, 1048575
	addi	a1, a1, 1232
	add	a1, s0, a1
	fld	ft0, 0(a1)
	fmv.x.d	a1, ft0
.Ltmp256:
	call	_ZN3glm3vecILi3EdLNS_9qualifierE0EEmLIdEERS2_T_
.Ltmp257:
	j	.LBB4_167
.LBB4_167:                              # %invoke.cont282
                                        #   in Loop: Header=BB4_154 Depth=2
	j	.LBB4_173
.LBB4_168:                              # %lpad255
.Ltmp308:
	sd	a0, -128(s0)
	sw	a1, -132(s0)
	j	.LBB4_206
.LBB4_169:                              # %lpad269
.Ltmp250:
	sd	a0, -128(s0)
	sw	a1, -132(s0)
	j	.LBB4_171
.LBB4_170:                              # %lpad271
.Ltmp253:
	sd	a0, -128(s0)
	sw	a1, -132(s0)
	lui	a0, 1048575
	addi	a0, a0, 1712
	add	a0, s0, a0
	mv	a0, a0
	call	_ZN7Surface8TriangleD2Ev
	j	.LBB4_171
.LBB4_171:                              # %ehcleanup275
	lui	a0, 1048575
	addi	a0, a0, 1696
	add	a0, s0, a0
	mv	a0, a0
	call	_ZNSt10shared_ptrI8MaterialED2Ev
	j	.LBB4_206
.LBB4_172:                              # %if.else284
                                        #   in Loop: Header=BB4_154 Depth=2
	ld	a1, -728(s0)
	lui	a0, 1048575
	addi	a0, a0, 1952
	add	a0, s0, a0
	mv	a0, a0
	call	_ZNSt10shared_ptrI8MaterialEaSERKS1_
	j	.LBB4_173
.LBB4_173:                              # %if.end286
                                        #   in Loop: Header=BB4_154 Depth=2
	lbu	a0, -1769(s0)
	andi	a0, a0, 1
	beqz	a0, .LBB4_190
	j	.LBB4_174
.LBB4_174:                              # %if.then288
                                        #   in Loop: Header=BB4_154 Depth=2
	lui	a0, 1048575
	addi	a0, a0, 1976
	add	a0, s0, a0
	ld	a1, 0(a0)
	addi	a0, s0, -1416
	call	_ZNSt6vectorIS_ImSaImEESaIS1_EEixEm
	lui	a1, 1048575
	addi	a1, a1, 1672
	add	a1, s0, a1
	sd	a0, 0(a1)
	lui	a0, 1048575
	addi	a0, a0, 1968
	add	a0, s0, a0
	ld	a0, 0(a0)
.Ltmp275:
	mv	a1, zero
	call	_ZNKSt6vectorImSaImEE2atEm
.Ltmp276:
	j	.LBB4_175
.LBB4_175:                              # %invoke.cont293
                                        #   in Loop: Header=BB4_154 Depth=2
	ld	a1, 0(a0)
.Ltmp277:
	addi	a0, s0, -1320
	call	_ZNSt6vectorIN3glm3vecILi3EdLNS0_9qualifierE0EEESaIS3_EE2atEm
	mv	s5, a0
.Ltmp278:
	j	.LBB4_176
.LBB4_176:                              # %invoke.cont295
                                        #   in Loop: Header=BB4_154 Depth=2
	lui	a0, 1048575
	addi	a0, a0, 1968
	add	a0, s0, a0
	ld	a0, 0(a0)
.Ltmp279:
	addi	a1, zero, 1
	call	_ZNKSt6vectorImSaImEE2atEm
.Ltmp280:
	j	.LBB4_177
.LBB4_177:                              # %invoke.cont297
                                        #   in Loop: Header=BB4_154 Depth=2
	ld	a1, 0(a0)
.Ltmp281:
	addi	a0, s0, -1320
	call	_ZNSt6vectorIN3glm3vecILi3EdLNS0_9qualifierE0EEESaIS3_EE2atEm
	mv	s6, a0
.Ltmp282:
	j	.LBB4_178
.LBB4_178:                              # %invoke.cont299
                                        #   in Loop: Header=BB4_154 Depth=2
	lui	a0, 1048575
	addi	a0, a0, 1968
	add	a0, s0, a0
	ld	a0, 0(a0)
.Ltmp283:
	addi	a1, zero, 2
	call	_ZNKSt6vectorImSaImEE2atEm
.Ltmp284:
	j	.LBB4_179
.LBB4_179:                              # %invoke.cont301
                                        #   in Loop: Header=BB4_154 Depth=2
	ld	a1, 0(a0)
.Ltmp285:
	addi	a0, s0, -1320
	call	_ZNSt6vectorIN3glm3vecILi3EdLNS0_9qualifierE0EEESaIS3_EE2atEm
	mv	s7, a0
.Ltmp286:
	j	.LBB4_180
.LBB4_180:                              # %invoke.cont303
                                        #   in Loop: Header=BB4_154 Depth=2
	lui	a0, 1048575
	addi	a0, a0, 1672
	add	a0, s0, a0
	ld	a0, 0(a0)
.Ltmp287:
	mv	a1, zero
	call	_ZNKSt6vectorImSaImEE2atEm
.Ltmp288:
	j	.LBB4_181
.LBB4_181:                              # %invoke.cont305
                                        #   in Loop: Header=BB4_154 Depth=2
	ld	a1, 0(a0)
.Ltmp289:
	addi	a0, s0, -1344
	call	_ZNSt6vectorIN3glm3vecILi3EdLNS0_9qualifierE0EEESaIS3_EE2atEm
	mv	s8, a0
.Ltmp290:
	j	.LBB4_182
.LBB4_182:                              # %invoke.cont307
                                        #   in Loop: Header=BB4_154 Depth=2
	lui	a0, 1048575
	addi	a0, a0, 1672
	add	a0, s0, a0
	ld	a0, 0(a0)
.Ltmp291:
	addi	a1, zero, 1
	call	_ZNKSt6vectorImSaImEE2atEm
.Ltmp292:
	j	.LBB4_183
.LBB4_183:                              # %invoke.cont309
                                        #   in Loop: Header=BB4_154 Depth=2
	ld	a1, 0(a0)
.Ltmp293:
	addi	a0, s0, -1344
	call	_ZNSt6vectorIN3glm3vecILi3EdLNS0_9qualifierE0EEESaIS3_EE2atEm
	mv	s9, a0
.Ltmp294:
	j	.LBB4_184
.LBB4_184:                              # %invoke.cont311
                                        #   in Loop: Header=BB4_154 Depth=2
	lui	a0, 1048575
	addi	a0, a0, 1672
	add	a0, s0, a0
	ld	a0, 0(a0)
.Ltmp295:
	addi	a1, zero, 2
	call	_ZNKSt6vectorImSaImEE2atEm
.Ltmp296:
	j	.LBB4_185
.LBB4_185:                              # %invoke.cont313
                                        #   in Loop: Header=BB4_154 Depth=2
	ld	a1, 0(a0)
.Ltmp297:
	addi	a0, s0, -1344
	call	_ZNSt6vectorIN3glm3vecILi3EdLNS0_9qualifierE0EEESaIS3_EE2atEm
	mv	a6, a0
.Ltmp298:
	j	.LBB4_186
.LBB4_186:                              # %invoke.cont315
                                        #   in Loop: Header=BB4_154 Depth=2
.Ltmp299:
	lui	a0, 1048575
	addi	a0, a0, 1640
	add	a0, s0, a0
	mv	a0, a0
	lui	a1, 1048575
	addi	a1, a1, 1952
	add	a1, s0, a1
	mv	a7, a1
	mv	a1, s5
	mv	a2, s6
	mv	a3, s7
	mv	a4, s8
	mv	a5, s9
	call	_ZSt11make_sharedIN7Surface8TriangleEJRN3glm3vecILi3EdLNS2_9qualifierE0EEES6_S6_S6_S6_S6_RSt10shared_ptrI8MaterialEEES7_IT_EDpOT0_
.Ltmp300:
	j	.LBB4_187
.LBB4_187:                              # %invoke.cont317
                                        #   in Loop: Header=BB4_154 Depth=2
	lui	a0, 1048575
	addi	a0, a0, 1656
	add	a0, s0, a0
	mv	s1, a0
	lui	a0, 1048575
	addi	a0, a0, 1640
	add	a0, s0, a0
	mv	a1, a0
	mv	a0, s1
	call	_ZNSt10shared_ptrIN7Surface4BaseEEC2INS0_8TriangleEvEEOS_IT_E
.Ltmp301:
	mv	a0, s10
	mv	a1, s1
	call	_ZNSt6vectorISt10shared_ptrIN7Surface4BaseEESaIS3_EE9push_backEOS3_
.Ltmp302:
	j	.LBB4_188
.LBB4_188:                              # %invoke.cont319
                                        #   in Loop: Header=BB4_154 Depth=2
	lui	a0, 1048575
	addi	a0, a0, 1656
	add	a0, s0, a0
	mv	a0, a0
	call	_ZNSt10shared_ptrIN7Surface4BaseEED2Ev
	lui	a0, 1048575
	addi	a0, a0, 1640
	add	a0, s0, a0
	mv	a0, a0
	call	_ZNSt10shared_ptrIN7Surface8TriangleEED2Ev
	j	.LBB4_200
.LBB4_189:                              # %lpad318
.Ltmp303:
	sd	a0, -128(s0)
	sw	a1, -132(s0)
	lui	a0, 1048575
	addi	a0, a0, 1656
	add	a0, s0, a0
	mv	a0, a0
	call	_ZNSt10shared_ptrIN7Surface4BaseEED2Ev
	lui	a0, 1048575
	addi	a0, a0, 1640
	add	a0, s0, a0
	mv	a0, a0
	call	_ZNSt10shared_ptrIN7Surface8TriangleEED2Ev
	j	.LBB4_206
.LBB4_190:                              # %if.else322
                                        #   in Loop: Header=BB4_154 Depth=2
	lui	a0, 1048575
	addi	a0, a0, 1968
	add	a0, s0, a0
	ld	a0, 0(a0)
.Ltmp258:
	mv	a1, zero
	call	_ZNKSt6vectorImSaImEE2atEm
.Ltmp259:
	j	.LBB4_191
.LBB4_191:                              # %invoke.cont326
                                        #   in Loop: Header=BB4_154 Depth=2
	ld	a1, 0(a0)
.Ltmp260:
	addi	a0, s0, -1320
	call	_ZNSt6vectorIN3glm3vecILi3EdLNS0_9qualifierE0EEESaIS3_EE2atEm
	mv	s5, a0
.Ltmp261:
	j	.LBB4_192
.LBB4_192:                              # %invoke.cont328
                                        #   in Loop: Header=BB4_154 Depth=2
	lui	a0, 1048575
	addi	a0, a0, 1968
	add	a0, s0, a0
	ld	a0, 0(a0)
.Ltmp262:
	addi	a1, zero, 1
	call	_ZNKSt6vectorImSaImEE2atEm
.Ltmp263:
	j	.LBB4_193
.LBB4_193:                              # %invoke.cont330
                                        #   in Loop: Header=BB4_154 Depth=2
	ld	a1, 0(a0)
.Ltmp264:
	addi	a0, s0, -1320
	call	_ZNSt6vectorIN3glm3vecILi3EdLNS0_9qualifierE0EEESaIS3_EE2atEm
	mv	s6, a0
.Ltmp265:
	j	.LBB4_194
.LBB4_194:                              # %invoke.cont332
                                        #   in Loop: Header=BB4_154 Depth=2
	lui	a0, 1048575
	addi	a0, a0, 1968
	add	a0, s0, a0
	ld	a0, 0(a0)
.Ltmp266:
	addi	a1, zero, 2
	call	_ZNKSt6vectorImSaImEE2atEm
.Ltmp267:
	j	.LBB4_195
.LBB4_195:                              # %invoke.cont334
                                        #   in Loop: Header=BB4_154 Depth=2
	ld	a1, 0(a0)
.Ltmp268:
	addi	a0, s0, -1320
	call	_ZNSt6vectorIN3glm3vecILi3EdLNS0_9qualifierE0EEESaIS3_EE2atEm
	mv	a3, a0
.Ltmp269:
	j	.LBB4_196
.LBB4_196:                              # %invoke.cont336
                                        #   in Loop: Header=BB4_154 Depth=2
.Ltmp270:
	lui	a0, 1048575
	addi	a0, a0, 1608
	add	a0, s0, a0
	mv	a0, a0
	lui	a1, 1048575
	addi	a1, a1, 1952
	add	a1, s0, a1
	mv	a4, a1
	mv	a1, s5
	mv	a2, s6
	call	_ZSt11make_sharedIN7Surface8TriangleEJRN3glm3vecILi3EdLNS2_9qualifierE0EEES6_S6_RSt10shared_ptrI8MaterialEEES7_IT_EDpOT0_
.Ltmp271:
	j	.LBB4_197
.LBB4_197:                              # %invoke.cont338
                                        #   in Loop: Header=BB4_154 Depth=2
	lui	a0, 1048575
	addi	a0, a0, 1624
	add	a0, s0, a0
	mv	s1, a0
	lui	a0, 1048575
	addi	a0, a0, 1608
	add	a0, s0, a0
	mv	a1, a0
	mv	a0, s1
	call	_ZNSt10shared_ptrIN7Surface4BaseEEC2INS0_8TriangleEvEEOS_IT_E
.Ltmp272:
	mv	a0, s10
	mv	a1, s1
	call	_ZNSt6vectorISt10shared_ptrIN7Surface4BaseEESaIS3_EE9push_backEOS3_
.Ltmp273:
	j	.LBB4_198
.LBB4_198:                              # %invoke.cont340
                                        #   in Loop: Header=BB4_154 Depth=2
	lui	a0, 1048575
	addi	a0, a0, 1624
	add	a0, s0, a0
	mv	a0, a0
	call	_ZNSt10shared_ptrIN7Surface4BaseEED2Ev
	lui	a0, 1048575
	addi	a0, a0, 1608
	add	a0, s0, a0
	mv	a0, a0
	call	_ZNSt10shared_ptrIN7Surface8TriangleEED2Ev
	j	.LBB4_200
.LBB4_199:                              # %lpad339
.Ltmp274:
	sd	a0, -128(s0)
	sw	a1, -132(s0)
	lui	a0, 1048575
	addi	a0, a0, 1624
	add	a0, s0, a0
	mv	a0, a0
	call	_ZNSt10shared_ptrIN7Surface4BaseEED2Ev
	lui	a0, 1048575
	addi	a0, a0, 1608
	add	a0, s0, a0
	mv	a0, a0
	call	_ZNSt10shared_ptrIN7Surface8TriangleEED2Ev
	j	.LBB4_206
.LBB4_200:                              # %if.end343
                                        #   in Loop: Header=BB4_154 Depth=2
	addi	a0, s0, -736
	call	_ZNKSt10unique_ptrI9TransformSt14default_deleteIS0_EEcvbEv
	beqz	a0, .LBB4_204
	j	.LBB4_201
.LBB4_201:                              # %if.then345
                                        #   in Loop: Header=BB4_154 Depth=2
	mv	a0, s10
	call	_ZNSt6vectorISt10shared_ptrIN7Surface4BaseEESaIS3_EE4backEv
	call	_ZNKSt19__shared_ptr_accessIN7Surface4BaseELN9__gnu_cxx12_Lock_policyE0ELb0ELb0EEptEv
	mv	s1, a0
.Ltmp304:
	addi	a0, s0, -736
	call	_ZNKSt10unique_ptrI9TransformSt14default_deleteIS0_EEdeEv
	mv	a1, a0
.Ltmp305:
	j	.LBB4_202
.LBB4_202:                              # %invoke.cont349
                                        #   in Loop: Header=BB4_154 Depth=2
	ld	a0, 0(s1)
	ld	a2, 40(a0)
.Ltmp306:
	mv	a0, s1
	jalr	a2
.Ltmp307:
	j	.LBB4_203
.LBB4_203:                              # %invoke.cont351
                                        #   in Loop: Header=BB4_154 Depth=2
	j	.LBB4_204
.LBB4_204:                              # %if.end352
                                        #   in Loop: Header=BB4_154 Depth=2
	lui	a0, 1048575
	addi	a0, a0, 1952
	add	a0, s0, a0
	mv	a0, a0
	call	_ZNSt10shared_ptrI8MaterialED2Ev
	j	.LBB4_205
.LBB4_205:                              # %for.inc354
                                        #   in Loop: Header=BB4_154 Depth=2
	lui	a0, 1048575
	addi	a0, a0, 1976
	add	a0, s0, a0
	ld	a0, 0(a0)
	addi	a0, a0, 1
	lui	a1, 1048575
	addi	a1, a1, 1976
	add	a1, s0, a1
	sd	a0, 0(a1)
	j	.LBB4_154
.LBB4_206:                              # %ehcleanup353
	lui	a0, 1048575
	addi	a0, a0, 1952
	add	a0, s0, a0
	mv	a0, a0
	call	_ZNSt10shared_ptrI8MaterialED2Ev
	j	.LBB4_208
.LBB4_207:                              # %for.end355
                                        #   in Loop: Header=BB4_11 Depth=1
	addi	a0, s0, -1416
	call	_ZNSt6vectorIS_ImSaImEESaIS1_EED2Ev
	addi	a0, s0, -1392
	call	_ZNSt6vectorIS_ImSaImEESaIS1_EED2Ev
	addi	a0, s0, -1368
	call	_ZNSt6vectorIS_ImSaImEESaIS1_EED2Ev
	addi	a0, s0, -1344
	call	_ZNSt6vectorIN3glm3vecILi3EdLNS0_9qualifierE0EEESaIS3_EED2Ev
	addi	a0, s0, -1320
	call	_ZNSt6vectorIN3glm3vecILi3EdLNS0_9qualifierE0EEESaIS3_EED2Ev
	j	.LBB4_256
.LBB4_208:                              # %ehcleanup356
	addi	a0, s0, -1416
	call	_ZNSt6vectorIS_ImSaImEESaIS1_EED2Ev
	addi	a0, s0, -1392
	call	_ZNSt6vectorIS_ImSaImEESaIS1_EED2Ev
	addi	a0, s0, -1368
	call	_ZNSt6vectorIS_ImSaImEESaIS1_EED2Ev
	addi	a0, s0, -1344
	call	_ZNSt6vectorIN3glm3vecILi3EdLNS0_9qualifierE0EEESaIS3_EED2Ev
	addi	a0, s0, -1320
	call	_ZNSt6vectorIN3glm3vecILi3EdLNS0_9qualifierE0EEESaIS3_EED2Ev
	j	.LBB4_259
.LBB4_209:                              # %if.else361
                                        #   in Loop: Header=BB4_11 Depth=1
.Ltmp127:
	lui	a0, %hi(.L.str.15)
	addi	a1, a0, %lo(.L.str.15)
	addi	a0, s0, -1256
	call	_ZSteqIcSt11char_traitsIcESaIcEEbRKNSt7__cxx1112basic_stringIT_T0_T1_EEPKS5_
.Ltmp128:
	j	.LBB4_210
.LBB4_210:                              # %invoke.cont362
                                        #   in Loop: Header=BB4_11 Depth=1
	andi	a0, a0, 1
	beqz	a0, .LBB4_223
	j	.LBB4_211
.LBB4_211:                              # %if.then364
                                        #   in Loop: Header=BB4_11 Depth=1
	ld	s1, -544(s0)
	lui	a0, 1048575
	addi	a0, a0, 1560
	add	a0, s0, a0
	mv	s5, a0
	mv	a0, s5
	call	_ZNSaIcEC1Ev
.Ltmp156:
	lui	a0, %hi(.L.str.1)
	addi	a1, a0, %lo(.L.str.1)
	lui	a0, 1048575
	addi	a0, a0, 1568
	add	a0, s0, a0
	mv	a0, a0
	mv	a2, s5
	call	_ZNSt7__cxx1112basic_stringIcSt11char_traitsIcESaIcEEC2IS3_EEPKcRKS3_
.Ltmp157:
	j	.LBB4_212
.LBB4_212:                              # %invoke.cont369
                                        #   in Loop: Header=BB4_11 Depth=1
.Ltmp159:
	lui	a0, 1048575
	addi	a0, a0, 1568
	add	a0, s0, a0
	mv	a1, a0
	mv	a0, s1
	call	_ZNK8nlohmann10basic_jsonISt3mapSt6vectorNSt7__cxx1112basic_stringIcSt11char_traitsIcESaIcEEEblmdSaNS_14adl_serializerEE2atERKS8_
	mv	s1, a0
.Ltmp160:
	j	.LBB4_213
.LBB4_213:                              # %invoke.cont371
                                        #   in Loop: Header=BB4_11 Depth=1
	lui	a0, 1048575
	addi	a0, a0, 1568
	add	a0, s0, a0
	mv	a0, a0
	call	_ZNSt7__cxx1112basic_stringIcSt11char_traitsIcESaIcEED1Ev
	lui	a0, 1048575
	addi	a0, a0, 1560
	add	a0, s0, a0
	mv	a0, a0
	call	_ZNSaIcED1Ev
	lui	a0, 1048575
	addi	a0, a0, 1600
	add	a0, s0, a0
	sd	s1, 0(a0)
	lui	a0, 1048575
	addi	a0, a0, 1600
	add	a0, s0, a0
	ld	a0, 0(a0)
.Ltmp162:
	mv	a1, zero
	call	_ZNK8nlohmann10basic_jsonISt3mapSt6vectorNSt7__cxx1112basic_stringIcSt11char_traitsIcESaIcEEEblmdSaNS_14adl_serializerEE2atEm
	mv	s5, a0
.Ltmp163:
	j	.LBB4_214
.LBB4_214:                              # %invoke.cont378
                                        #   in Loop: Header=BB4_11 Depth=1
	lui	a0, 1048575
	addi	a0, a0, 1600
	add	a0, s0, a0
	ld	a0, 0(a0)
.Ltmp164:
	addi	a1, zero, 1
	call	_ZNK8nlohmann10basic_jsonISt3mapSt6vectorNSt7__cxx1112basic_stringIcSt11char_traitsIcESaIcEEEblmdSaNS_14adl_serializerEE2atEm
	mv	s6, a0
.Ltmp165:
	j	.LBB4_215
.LBB4_215:                              # %invoke.cont380
                                        #   in Loop: Header=BB4_11 Depth=1
	lui	a0, 1048575
	addi	a0, a0, 1600
	add	a0, s0, a0
	ld	a0, 0(a0)
.Ltmp166:
	addi	a1, zero, 2
	call	_ZNK8nlohmann10basic_jsonISt3mapSt6vectorNSt7__cxx1112basic_stringIcSt11char_traitsIcESaIcEEEblmdSaNS_14adl_serializerEE2atEm
	mv	a3, a0
.Ltmp167:
	j	.LBB4_216
.LBB4_216:                              # %invoke.cont382
                                        #   in Loop: Header=BB4_11 Depth=1
	ld	a4, -728(s0)
.Ltmp168:
	lui	a0, 1048575
	addi	a0, a0, 1528
	add	a0, s0, a0
	mv	a0, a0
	mv	a1, s5
	mv	a2, s6
	call	_ZSt11make_sharedIN7Surface8TriangleEJRKN8nlohmann10basic_jsonISt3mapSt6vectorNSt7__cxx1112basic_stringIcSt11char_traitsIcESaIcEEEblmdSaNS2_14adl_serializerEEESF_SF_RSt10shared_ptrI8MaterialEEESG_IT_EDpOT0_
.Ltmp169:
	j	.LBB4_217
.LBB4_217:                              # %invoke.cont384
                                        #   in Loop: Header=BB4_11 Depth=1
	lui	a0, 1048575
	addi	a0, a0, 1544
	add	a0, s0, a0
	mv	s1, a0
	lui	a0, 1048575
	addi	a0, a0, 1528
	add	a0, s0, a0
	mv	a1, a0
	mv	a0, s1
	call	_ZNSt10shared_ptrIN7Surface4BaseEEC2INS0_8TriangleEvEEOS_IT_E
.Ltmp170:
	mv	a0, s10
	mv	a1, s1
	call	_ZNSt6vectorISt10shared_ptrIN7Surface4BaseEESaIS3_EE9push_backEOS3_
.Ltmp171:
	j	.LBB4_218
.LBB4_218:                              # %invoke.cont386
                                        #   in Loop: Header=BB4_11 Depth=1
	lui	a0, 1048575
	addi	a0, a0, 1544
	add	a0, s0, a0
	mv	a0, a0
	call	_ZNSt10shared_ptrIN7Surface4BaseEED2Ev
	lui	a0, 1048575
	addi	a0, a0, 1528
	add	a0, s0, a0
	mv	a0, a0
	call	_ZNSt10shared_ptrIN7Surface8TriangleEED2Ev
	j	.LBB4_250
.LBB4_219:                              # %lpad368
.Ltmp158:
	sd	a0, -128(s0)
	sw	a1, -132(s0)
	j	.LBB4_221
.LBB4_220:                              # %lpad370
.Ltmp161:
	sd	a0, -128(s0)
	sw	a1, -132(s0)
	lui	a0, 1048575
	addi	a0, a0, 1568
	add	a0, s0, a0
	mv	a0, a0
	call	_ZNSt7__cxx1112basic_stringIcSt11char_traitsIcESaIcEED1Ev
	j	.LBB4_221
.LBB4_221:                              # %ehcleanup374
	lui	a0, 1048575
	addi	a0, a0, 1560
	add	a0, s0, a0
	mv	a0, a0
	call	_ZNSaIcED1Ev
	j	.LBB4_259
.LBB4_222:                              # %lpad385
.Ltmp172:
	sd	a0, -128(s0)
	sw	a1, -132(s0)
	lui	a0, 1048575
	addi	a0, a0, 1544
	add	a0, s0, a0
	mv	a0, a0
	call	_ZNSt10shared_ptrIN7Surface4BaseEED2Ev
	lui	a0, 1048575
	addi	a0, a0, 1528
	add	a0, s0, a0
	mv	a0, a0
	call	_ZNSt10shared_ptrIN7Surface8TriangleEED2Ev
	j	.LBB4_259
.LBB4_223:                              # %if.else389
                                        #   in Loop: Header=BB4_11 Depth=1
.Ltmp129:
	lui	a0, %hi(.L.str.16)
	addi	a1, a0, %lo(.L.str.16)
	addi	a0, s0, -1256
	call	_ZSteqIcSt11char_traitsIcESaIcEEbRKNSt7__cxx1112basic_stringIT_T0_T1_EEPKS5_
.Ltmp130:
	j	.LBB4_224
.LBB4_224:                              # %invoke.cont390
                                        #   in Loop: Header=BB4_11 Depth=1
	andi	a0, a0, 1
	beqz	a0, .LBB4_235
	j	.LBB4_225
.LBB4_225:                              # %if.then392
                                        #   in Loop: Header=BB4_11 Depth=1
	ld	s1, -544(s0)
	lui	a0, 1048575
	addi	a0, a0, 1456
	add	a0, s0, a0
	mv	s5, a0
	mv	a0, s5
	call	_ZNSaIcEC1Ev
.Ltmp145:
	lui	a0, %hi(.L.str.17)
	addi	a1, a0, %lo(.L.str.17)
	lui	a0, 1048575
	addi	a0, a0, 1464
	add	a0, s0, a0
	mv	a0, a0
	mv	a2, s5
	call	_ZNSt7__cxx1112basic_stringIcSt11char_traitsIcESaIcEEC2IS3_EEPKcRKS3_
.Ltmp146:
	j	.LBB4_226
.LBB4_226:                              # %invoke.cont399
                                        #   in Loop: Header=BB4_11 Depth=1
.Ltmp148:
	lui	a0, 1048575
	addi	a0, a0, 1464
	add	a0, s0, a0
	mv	a1, a0
	mv	a0, s1
	call	_ZNK8nlohmann10basic_jsonISt3mapSt6vectorNSt7__cxx1112basic_stringIcSt11char_traitsIcESaIcEEEblmdSaNS_14adl_serializerEE2atERKS8_
	mv	a1, a0
.Ltmp149:
	j	.LBB4_227
.LBB4_227:                              # %invoke.cont401
                                        #   in Loop: Header=BB4_11 Depth=1
	ld	a2, -728(s0)
.Ltmp150:
	lui	a0, 1048575
	addi	a0, a0, 1496
	add	a0, s0, a0
	mv	a0, a0
	call	_ZSt11make_sharedIN7Surface6SphereEJRKN8nlohmann10basic_jsonISt3mapSt6vectorNSt7__cxx1112basic_stringIcSt11char_traitsIcESaIcEEEblmdSaNS2_14adl_serializerEEERSt10shared_ptrI8MaterialEEESG_IT_EDpOT0_
.Ltmp151:
	j	.LBB4_228
.LBB4_228:                              # %invoke.cont403
                                        #   in Loop: Header=BB4_11 Depth=1
	lui	a0, 1048575
	addi	a0, a0, 1512
	add	a0, s0, a0
	mv	s1, a0
	lui	a0, 1048575
	addi	a0, a0, 1496
	add	a0, s0, a0
	mv	a1, a0
	mv	a0, s1
	call	_ZNSt10shared_ptrIN7Surface4BaseEEC2INS0_6SphereEvEEOS_IT_E
.Ltmp153:
	mv	a0, s10
	mv	a1, s1
	call	_ZNSt6vectorISt10shared_ptrIN7Surface4BaseEESaIS3_EE9push_backEOS3_
.Ltmp154:
	j	.LBB4_229
.LBB4_229:                              # %invoke.cont405
                                        #   in Loop: Header=BB4_11 Depth=1
	lui	a0, 1048575
	addi	a0, a0, 1512
	add	a0, s0, a0
	mv	a0, a0
	call	_ZNSt10shared_ptrIN7Surface4BaseEED2Ev
	lui	a0, 1048575
	addi	a0, a0, 1496
	add	a0, s0, a0
	mv	a0, a0
	call	_ZNSt10shared_ptrIN7Surface6SphereEED2Ev
	lui	a0, 1048575
	addi	a0, a0, 1464
	add	a0, s0, a0
	mv	a0, a0
	call	_ZNSt7__cxx1112basic_stringIcSt11char_traitsIcESaIcEED1Ev
	lui	a0, 1048575
	addi	a0, a0, 1456
	add	a0, s0, a0
	mv	a0, a0
	call	_ZNSaIcED1Ev
	j	.LBB4_249
.LBB4_230:                              # %lpad398
.Ltmp147:
	sd	a0, -128(s0)
	sw	a1, -132(s0)
	j	.LBB4_234
.LBB4_231:                              # %lpad400
.Ltmp152:
	sd	a0, -128(s0)
	sw	a1, -132(s0)
	j	.LBB4_233
.LBB4_232:                              # %lpad404
.Ltmp155:
	sd	a0, -128(s0)
	sw	a1, -132(s0)
	lui	a0, 1048575
	addi	a0, a0, 1512
	add	a0, s0, a0
	mv	a0, a0
	call	_ZNSt10shared_ptrIN7Surface4BaseEED2Ev
	lui	a0, 1048575
	addi	a0, a0, 1496
	add	a0, s0, a0
	mv	a0, a0
	call	_ZNSt10shared_ptrIN7Surface6SphereEED2Ev
	j	.LBB4_233
.LBB4_233:                              # %ehcleanup408
	lui	a0, 1048575
	addi	a0, a0, 1464
	add	a0, s0, a0
	mv	a0, a0
	call	_ZNSt7__cxx1112basic_stringIcSt11char_traitsIcESaIcEED1Ev
	j	.LBB4_234
.LBB4_234:                              # %ehcleanup409
	lui	a0, 1048575
	addi	a0, a0, 1456
	add	a0, s0, a0
	mv	a0, a0
	call	_ZNSaIcED1Ev
	j	.LBB4_259
.LBB4_235:                              # %if.else410
                                        #   in Loop: Header=BB4_11 Depth=1
.Ltmp131:
	lui	a0, %hi(.L.str.18)
	addi	a1, a0, %lo(.L.str.18)
	addi	a0, s0, -1256
	call	_ZSteqIcSt11char_traitsIcESaIcEEbRKNSt7__cxx1112basic_stringIT_T0_T1_EEPKS5_
.Ltmp132:
	j	.LBB4_236
.LBB4_236:                              # %invoke.cont411
                                        #   in Loop: Header=BB4_11 Depth=1
	andi	a0, a0, 1
	beqz	a0, .LBB4_248
	j	.LBB4_237
.LBB4_237:                              # %if.then413
                                        #   in Loop: Header=BB4_11 Depth=1
	ld	a1, -728(s0)
	lui	a0, 1048575
	addi	a0, a0, 1440
	add	a0, s0, a0
	mv	a0, a0
	call	_ZNSt10shared_ptrI8MaterialEC2ERKS1_
	ld	a0, -728(s0)
	call	_ZNKSt19__shared_ptr_accessI8MaterialLN9__gnu_cxx12_Lock_policyE0ELb0ELb0EEptEv
	addi	a0, a0, 72
.Ltmp133:
	call	_ZN3glm7compMaxILi3EdLNS_9qualifierE0EEET0_RKNS_3vecIXT_ES2_XT1_EEE
.Ltmp134:
	fmv.d.x	ft0, a0
	j	.LBB4_238
.LBB4_238:                              # %invoke.cont418
                                        #   in Loop: Header=BB4_11 Depth=1
	lui	a0, %hi(.LCPI4_0)
	addi	a0, a0, %lo(.LCPI4_0)
	fld	ft1, 0(a0)
	flt.d	a0, ft1, ft0
	xori	a0, a0, 1
	bnez	a0, .LBB4_243
	j	.LBB4_239
.LBB4_239:                              # %if.then421
                                        #   in Loop: Header=BB4_11 Depth=1
	ld	a0, -728(s0)
	call	_ZNKSt19__shared_ptr_accessI8MaterialLN9__gnu_cxx12_Lock_policyE0ELb0ELb0EEdeEv
	mv	a1, a0
.Ltmp135:
	lui	a0, 1048575
	addi	a0, a0, 1424
	add	a0, s0, a0
	mv	a0, a0
	call	_ZSt11make_sharedI8MaterialJRS0_EESt10shared_ptrIT_EDpOT0_
.Ltmp136:
	j	.LBB4_240
.LBB4_240:                              # %invoke.cont424
                                        #   in Loop: Header=BB4_11 Depth=1
	lui	a0, 1048575
	addi	a0, a0, 1440
	add	a0, s0, a0
	mv	a0, a0
	lui	a1, 1048575
	addi	a1, a1, 1424
	add	a1, s0, a1
	mv	s1, a1
	mv	a1, s1
	call	_ZNSt10shared_ptrI8MaterialEaSEOS1_
	mv	a0, s1
	call	_ZNSt10shared_ptrI8MaterialED2Ev
.Ltmp137:
	lui	a0, 1048575
	addi	a0, a0, 1400
	add	a0, s0, a0
	mv	a0, a0
	mv	a1, zero
	call	_ZN3glm3vecILi3EdLNS_9qualifierE0EEC2Ed
.Ltmp138:
	j	.LBB4_241
.LBB4_241:                              # %invoke.cont427
                                        #   in Loop: Header=BB4_11 Depth=1
	lui	a0, 1048575
	addi	a0, a0, 1440
	add	a0, s0, a0
	mv	a0, a0
	call	_ZNKSt19__shared_ptr_accessI8MaterialLN9__gnu_cxx12_Lock_policyE0ELb0ELb0EEptEv
	lui	a1, 1048575
	addi	a1, a1, 1416
	add	a1, s0, a1
	ld	a1, 0(a1)
	sd	a1, 88(a0)
	lui	a1, 1048575
	addi	a1, a1, 1408
	add	a1, s0, a1
	ld	a1, 0(a1)
	sd	a1, 80(a0)
	lui	a1, 1048575
	addi	a1, a1, 1400
	add	a1, s0, a1
	ld	a1, 0(a1)
	sd	a1, 72(a0)
	j	.LBB4_243
.LBB4_242:                              # %lpad417
.Ltmp141:
	sd	a0, -128(s0)
	sw	a1, -132(s0)
	j	.LBB4_247
.LBB4_243:                              # %if.end430
                                        #   in Loop: Header=BB4_11 Depth=1
	ld	a1, -544(s0)
.Ltmp139:
	lui	a0, 1048575
	addi	a0, a0, 1368
	add	a0, s0, a0
	mv	a0, a0
	lui	a2, 1048575
	addi	a2, a2, 1440
	add	a2, s0, a2
	mv	a2, a2
	call	_ZSt11make_sharedIN7Surface7QuadricEJRKN8nlohmann10basic_jsonISt3mapSt6vectorNSt7__cxx1112basic_stringIcSt11char_traitsIcESaIcEEEblmdSaNS2_14adl_serializerEEERSt10shared_ptrI8MaterialEEESG_IT_EDpOT0_
.Ltmp140:
	j	.LBB4_244
.LBB4_244:                              # %invoke.cont434
                                        #   in Loop: Header=BB4_11 Depth=1
	lui	a0, 1048575
	addi	a0, a0, 1384
	add	a0, s0, a0
	mv	s1, a0
	lui	a0, 1048575
	addi	a0, a0, 1368
	add	a0, s0, a0
	mv	a1, a0
	mv	a0, s1
	call	_ZNSt10shared_ptrIN7Surface4BaseEEC2INS0_7QuadricEvEEOS_IT_E
.Ltmp142:
	mv	a0, s10
	mv	a1, s1
	call	_ZNSt6vectorISt10shared_ptrIN7Surface4BaseEESaIS3_EE9push_backEOS3_
.Ltmp143:
	j	.LBB4_245
.LBB4_245:                              # %invoke.cont436
                                        #   in Loop: Header=BB4_11 Depth=1
	lui	a0, 1048575
	addi	a0, a0, 1384
	add	a0, s0, a0
	mv	a0, a0
	call	_ZNSt10shared_ptrIN7Surface4BaseEED2Ev
	lui	a0, 1048575
	addi	a0, a0, 1368
	add	a0, s0, a0
	mv	a0, a0
	call	_ZNSt10shared_ptrIN7Surface7QuadricEED2Ev
	lui	a0, 1048575
	addi	a0, a0, 1440
	add	a0, s0, a0
	mv	a0, a0
	call	_ZNSt10shared_ptrI8MaterialED2Ev
	j	.LBB4_248
.LBB4_246:                              # %lpad435
.Ltmp144:
	sd	a0, -128(s0)
	sw	a1, -132(s0)
	lui	a0, 1048575
	addi	a0, a0, 1384
	add	a0, s0, a0
	mv	a0, a0
	call	_ZNSt10shared_ptrIN7Surface4BaseEED2Ev
	lui	a0, 1048575
	addi	a0, a0, 1368
	add	a0, s0, a0
	mv	a0, a0
	call	_ZNSt10shared_ptrIN7Surface7QuadricEED2Ev
	j	.LBB4_247
.LBB4_247:                              # %ehcleanup439
	lui	a0, 1048575
	addi	a0, a0, 1440
	add	a0, s0, a0
	mv	a0, a0
	call	_ZNSt10shared_ptrI8MaterialED2Ev
	j	.LBB4_259
.LBB4_248:                              # %if.end440
                                        #   in Loop: Header=BB4_11 Depth=1
	j	.LBB4_249
.LBB4_249:                              # %if.end441
                                        #   in Loop: Header=BB4_11 Depth=1
	j	.LBB4_250
.LBB4_250:                              # %if.end442
                                        #   in Loop: Header=BB4_11 Depth=1
	addi	a0, s0, -736
	call	_ZNKSt10unique_ptrI9TransformSt14default_deleteIS0_EEcvbEv
	beqz	a0, .LBB4_255
	j	.LBB4_251
.LBB4_251:                              # %land.lhs.true444
                                        #   in Loop: Header=BB4_11 Depth=1
	mv	a0, s10
	call	_ZNKSt6vectorISt10shared_ptrIN7Surface4BaseEESaIS3_EE5emptyEv
	bnez	a0, .LBB4_255
	j	.LBB4_252
.LBB4_252:                              # %if.then447
                                        #   in Loop: Header=BB4_11 Depth=1
	mv	a0, s10
	call	_ZNSt6vectorISt10shared_ptrIN7Surface4BaseEESaIS3_EE4backEv
	call	_ZNKSt19__shared_ptr_accessIN7Surface4BaseELN9__gnu_cxx12_Lock_policyE0ELb0ELb0EEptEv
	mv	s1, a0
.Ltmp173:
	addi	a0, s0, -736
	call	_ZNKSt10unique_ptrI9TransformSt14default_deleteIS0_EEdeEv
	mv	a1, a0
.Ltmp174:
	j	.LBB4_253
.LBB4_253:                              # %invoke.cont451
                                        #   in Loop: Header=BB4_11 Depth=1
	ld	a0, 0(s1)
	ld	a2, 40(a0)
.Ltmp175:
	mv	a0, s1
	jalr	a2
.Ltmp176:
	j	.LBB4_254
.LBB4_254:                              # %invoke.cont455
                                        #   in Loop: Header=BB4_11 Depth=1
	j	.LBB4_255
.LBB4_255:                              # %if.end456
                                        #   in Loop: Header=BB4_11 Depth=1
	j	.LBB4_256
.LBB4_256:                              # %if.end457
                                        #   in Loop: Header=BB4_11 Depth=1
	addi	a0, s0, -1256
	call	_ZNSt7__cxx1112basic_stringIcSt11char_traitsIcESaIcEED1Ev
	addi	a0, s0, -736
	call	_ZNSt10unique_ptrI9TransformSt14default_deleteIS0_EED2Ev
	addi	a0, s0, -576
	call	_ZNSt7__cxx1112basic_stringIcSt11char_traitsIcESaIcEED1Ev
	j	.LBB4_257
.LBB4_257:                              # %for.inc461
                                        #   in Loop: Header=BB4_11 Depth=1
.Ltmp233:
	addi	a0, s0, -504
	call	_ZN8nlohmann6detail9iter_implIKNS_10basic_jsonISt3mapSt6vectorNSt7__cxx1112basic_stringIcSt11char_traitsIcESaIcEEEblmdSaNS_14adl_serializerEEEEppEv
.Ltmp234:
	j	.LBB4_258
.LBB4_258:                              # %invoke.cont462
                                        #   in Loop: Header=BB4_11 Depth=1
	j	.LBB4_11
.LBB4_259:                              # %ehcleanup458
	addi	a0, s0, -1256
	call	_ZNSt7__cxx1112basic_stringIcSt11char_traitsIcESaIcEED1Ev
	j	.LBB4_260
.LBB4_260:                              # %ehcleanup459
	addi	a0, s0, -736
	call	_ZNSt10unique_ptrI9TransformSt14default_deleteIS0_EED2Ev
	j	.LBB4_261
.LBB4_261:                              # %ehcleanup460
	addi	a0, s0, -576
	call	_ZNSt7__cxx1112basic_stringIcSt11char_traitsIcESaIcEED1Ev
	j	.LBB4_276
.LBB4_262:                              # %for.end464
.Ltmp37:
	mv	a0, s10
	call	_ZN5Scene18computeBoundingBoxEv
.Ltmp38:
	j	.LBB4_263
.LBB4_263:                              # %invoke.cont465
	mv	a0, s10
	call	_ZNKSt6vectorISt10shared_ptrIN7Surface4BaseEESaIS3_EE4sizeEv
	mv	a1, a0
.Ltmp39:
	lui	a0, %hi(.L.str.19)
	addi	a0, a0, %lo(.L.str.19)
	call	printf
.Ltmp40:
	j	.LBB4_264
.LBB4_264:                              # %invoke.cont468
	ld	a1, -120(s0)
.Ltmp41:
	lui	a0, %hi(.L.str.20)
	addi	a2, a0, %lo(.L.str.20)
	lui	a0, 1048575
	addi	a0, a0, 1336
	add	a0, s0, a0
	mv	a0, a0
	call	_ZNK8nlohmann10basic_jsonISt3mapSt6vectorNSt7__cxx1112basic_stringIcSt11char_traitsIcESaIcEEEblmdSaNS_14adl_serializerEE4findIRA4_KcEENS_6detail9iter_implIKSA_EEOT_
.Ltmp42:
	j	.LBB4_265
.LBB4_265:                              # %invoke.cont471
	ld	a1, -120(s0)
	lui	a0, 1048575
	addi	a0, a0, 1304
	add	a0, s0, a0
	mv	s1, a0
	mv	a0, s1
	call	_ZNK8nlohmann10basic_jsonISt3mapSt6vectorNSt7__cxx1112basic_stringIcSt11char_traitsIcESaIcEEEblmdSaNS_14adl_serializerEE3endEv
.Ltmp43:
	lui	a0, 1048575
	addi	a0, a0, 1336
	add	a0, s0, a0
	mv	a0, a0
	mv	a1, s1
	call	_ZNK8nlohmann6detail9iter_implIKNS_10basic_jsonISt3mapSt6vectorNSt7__cxx1112basic_stringIcSt11char_traitsIcESaIcEEEblmdSaNS_14adl_serializerEEEEneERKSE_
.Ltmp44:
	j	.LBB4_266
.LBB4_266:                              # %invoke.cont473
	andi	a0, a0, 1
	beqz	a0, .LBB4_274
	j	.LBB4_267
.LBB4_267:                              # %if.then475
	addi	s5, s10, 96
	ld	s6, -120(s0)
	lui	a0, 1048575
	addi	a0, a0, 1248
	add	a0, s0, a0
	mv	s1, a0
	mv	a0, s1
	call	_ZNSaIcEC1Ev
.Ltmp45:
	lui	a0, %hi(.L.str.20)
	addi	a1, a0, %lo(.L.str.20)
	lui	a0, 1048575
	addi	a0, a0, 1256
	add	a0, s0, a0
	mv	a0, a0
	mv	a2, s1
	call	_ZNSt7__cxx1112basic_stringIcSt11char_traitsIcESaIcEEC2IS3_EEPKcRKS3_
.Ltmp46:
	j	.LBB4_268
.LBB4_268:                              # %invoke.cont482
.Ltmp48:
	lui	a0, 1048575
	addi	a0, a0, 1256
	add	a0, s0, a0
	mv	a1, a0
	mv	a0, s6
	call	_ZNK8nlohmann10basic_jsonISt3mapSt6vectorNSt7__cxx1112basic_stringIcSt11char_traitsIcESaIcEEEblmdSaNS_14adl_serializerEE2atERKS8_
	mv	a3, a0
.Ltmp49:
	j	.LBB4_269
.LBB4_269:                              # %invoke.cont484
.Ltmp50:
	lui	a0, 1048575
	addi	a0, a0, 1288
	add	a0, s0, a0
	mv	a0, a0
	mv	a1, s5
	mv	a2, s10
	call	_ZSt11make_sharedI3BVHJR11BoundingBoxRSt6vectorISt10shared_ptrIN7Surface4BaseEESaIS7_EERKN8nlohmann10basic_jsonISt3mapS3_NSt7__cxx1112basic_stringIcSt11char_traitsIcESaIcEEEblmdSaNSB_14adl_serializerEEEEES4_IT_EDpOT0_
.Ltmp51:
	j	.LBB4_270
.LBB4_270:                              # %invoke.cont486
	addi	a0, s10, 72
	lui	a1, 1048575
	addi	a1, a1, 1288
	add	a1, s0, a1
	mv	s1, a1
	mv	a1, s1
	call	_ZNSt10shared_ptrI3BVHEaSEOS1_
	mv	a0, s1
	call	_ZNSt10shared_ptrI3BVHED2Ev
	lui	a0, 1048575
	addi	a0, a0, 1256
	add	a0, s0, a0
	mv	a0, a0
	call	_ZNSt7__cxx1112basic_stringIcSt11char_traitsIcESaIcEED1Ev
	lui	a0, 1048575
	addi	a0, a0, 1248
	add	a0, s0, a0
	mv	a0, a0
	call	_ZNSaIcED1Ev
	j	.LBB4_274
.LBB4_271:                              # %lpad481
.Ltmp47:
	sd	a0, -128(s0)
	sw	a1, -132(s0)
	j	.LBB4_273
.LBB4_272:                              # %lpad483
.Ltmp52:
	sd	a0, -128(s0)
	sw	a1, -132(s0)
	lui	a0, 1048575
	addi	a0, a0, 1256
	add	a0, s0, a0
	mv	a0, a0
	call	_ZNSt7__cxx1112basic_stringIcSt11char_traitsIcESaIcEED1Ev
	j	.LBB4_273
.LBB4_273:                              # %ehcleanup490
	lui	a0, 1048575
	addi	a0, a0, 1248
	add	a0, s0, a0
	mv	a0, a0
	call	_ZNSaIcED1Ev
	j	.LBB4_276
.LBB4_274:                              # %if.end491
.Ltmp53:
	mv	a0, s10
	call	_ZN5Scene17generateEmissivesEv
.Ltmp54:
	j	.LBB4_275
.LBB4_275:                              # %invoke.cont492
	addi	a0, s0, -288
	call	_ZNSt13unordered_mapINSt7__cxx1112basic_stringIcSt11char_traitsIcESaIcEEESt6vectorIN3glm3vecILi3EdLNS7_9qualifierE0EEESaISA_EESt4hashIS5_ESt8equal_toIS5_ESaISt4pairIKS5_SC_EEED2Ev
	addi	a0, s0, -192
	call	_ZNSt13unordered_mapINSt7__cxx1112basic_stringIcSt11char_traitsIcESaIcEEESt10shared_ptrI8MaterialESt4hashIS5_ESt8equal_toIS5_ESaISt4pairIKS5_S8_EEED2Ev
	lui	a0, 1
	addi	a0, a0, -1328
	add	a0, sp, a0
	ld	s10, 0(a0)
	lui	a0, 1
	addi	a0, a0, -1320
	add	a0, sp, a0
	ld	s9, 0(a0)
	lui	a0, 1
	addi	a0, a0, -1312
	add	a0, sp, a0
	ld	s8, 0(a0)
	lui	a0, 1
	addi	a0, a0, -1304
	add	a0, sp, a0
	ld	s7, 0(a0)
	lui	a0, 1
	addi	a0, a0, -1296
	add	a0, sp, a0
	ld	s6, 0(a0)
	lui	a0, 1
	addi	a0, a0, -1288
	add	a0, sp, a0
	ld	s5, 0(a0)
	lui	a0, 1
	addi	a0, a0, -1280
	add	a0, sp, a0
	ld	s4, 0(a0)
	lui	a0, 1
	addi	a0, a0, -1272
	add	a0, sp, a0
	ld	s3, 0(a0)
	lui	a0, 1
	addi	a0, a0, -1264
	add	a0, sp, a0
	ld	s2, 0(a0)
	lui	a0, 1
	addi	a0, a0, -1256
	add	a0, sp, a0
	ld	s1, 0(a0)
	lui	a0, 1
	addi	a0, a0, -1248
	add	a0, sp, a0
	ld	s0, 0(a0)
	.cfi_def_cfa sp, 2864
	lui	a0, 1
	addi	a0, a0, -1240
	add	a0, sp, a0
	ld	ra, 0(a0)
	.cfi_restore ra
	.cfi_restore s0
	.cfi_restore s1
	.cfi_restore s2
	.cfi_restore s3
	.cfi_restore s4
	.cfi_restore s5
	.cfi_restore s6
	.cfi_restore s7
	.cfi_restore s8
	.cfi_restore s9
	.cfi_restore s10
	lui	a0, 1
	addi	a0, a0, -1232
	add	sp, sp, a0
	.cfi_def_cfa_offset 0
	ret
.LBB4_276:                              # %ehcleanup493
	addi	a0, s0, -288
	call	_ZNSt13unordered_mapINSt7__cxx1112basic_stringIcSt11char_traitsIcESaIcEEESt6vectorIN3glm3vecILi3EdLNS7_9qualifierE0EEESaISA_EESt4hashIS5_ESt8equal_toIS5_ESaISt4pairIKS5_SC_EEED2Ev
	j	.LBB4_277
.LBB4_277:                              # %ehcleanup494
	addi	a0, s0, -192
	call	_ZNSt13unordered_mapINSt7__cxx1112basic_stringIcSt11char_traitsIcESaIcEEESt10shared_ptrI8MaterialESt4hashIS5_ESt8equal_toIS5_ESaISt4pairIKS5_S8_EEED2Ev
	j	.LBB4_278
.LBB4_278:                              # %ehcleanup495
	mv	a0, s4
	call	_ZNSt10shared_ptrI3BVHED2Ev
	mv	a0, s3
	call	_ZNSt6vectorIdSaIdEED2Ev
	mv	a0, s2
	call	_ZNSt6vectorISt10shared_ptrIN7Surface4BaseEESaIS3_EED2Ev
	mv	a0, s10
	call	_ZNSt6vectorISt10shared_ptrIN7Surface4BaseEESaIS3_EED2Ev
	j	.LBB4_279
.LBB4_279:                              # %eh.resume
	ld	a0, -128(s0)
	call	_Unwind_Resume
.Lfunc_end4:
	.size	_ZN5SceneC2ERKN8nlohmann10basic_jsonISt3mapSt6vectorNSt7__cxx1112basic_stringIcSt11char_traitsIcESaIcEEEblmdSaNS0_14adl_serializerEEE, .Lfunc_end4-_ZN5SceneC2ERKN8nlohmann10basic_jsonISt3mapSt6vectorNSt7__cxx1112basic_stringIcSt11char_traitsIcESaIcEEEblmdSaNS0_14adl_serializerEEE
	.cfi_endproc
	.section	.gcc_except_table,"a",@progbits
	.p2align	2
GCC_except_table4:
.Lexception1:
	.byte	255                     # @LPStart Encoding = omit
	.byte	255                     # @TType Encoding = omit
	.byte	3                       # Call site Encoding = udata4
	.uleb128 .Lcst_end1-.Lcst_begin1
.Lcst_begin1:
	.word	.Ltmp6-.Lfunc_begin1    # >> Call Site 1 <<
	.word	.Ltmp7-.Ltmp6           #   Call between .Ltmp6 and .Ltmp7
	.word	.Ltmp8-.Lfunc_begin1    #     jumps to .Ltmp8
	.byte	0                       #   On action: cleanup
	.word	.Ltmp9-.Lfunc_begin1    # >> Call Site 2 <<
	.word	.Ltmp10-.Ltmp9          #   Call between .Ltmp9 and .Ltmp10
	.word	.Ltmp11-.Lfunc_begin1   #     jumps to .Ltmp11
	.byte	0                       #   On action: cleanup
	.word	.Ltmp12-.Lfunc_begin1   # >> Call Site 3 <<
	.word	.Ltmp15-.Ltmp12         #   Call between .Ltmp12 and .Ltmp15
	.word	.Ltmp16-.Lfunc_begin1   #     jumps to .Ltmp16
	.byte	0                       #   On action: cleanup
	.word	.Ltmp17-.Lfunc_begin1   # >> Call Site 4 <<
	.word	.Ltmp18-.Ltmp17         #   Call between .Ltmp17 and .Ltmp18
	.word	.Ltmp19-.Lfunc_begin1   #     jumps to .Ltmp19
	.byte	0                       #   On action: cleanup
	.word	.Ltmp20-.Lfunc_begin1   # >> Call Site 5 <<
	.word	.Ltmp21-.Ltmp20         #   Call between .Ltmp20 and .Ltmp21
	.word	.Ltmp22-.Lfunc_begin1   #     jumps to .Ltmp22
	.byte	0                       #   On action: cleanup
	.word	.Ltmp23-.Lfunc_begin1   # >> Call Site 6 <<
	.word	.Ltmp24-.Ltmp23         #   Call between .Ltmp23 and .Ltmp24
	.word	.Ltmp25-.Lfunc_begin1   #     jumps to .Ltmp25
	.byte	0                       #   On action: cleanup
	.word	.Ltmp26-.Lfunc_begin1   # >> Call Site 7 <<
	.word	.Ltmp27-.Ltmp26         #   Call between .Ltmp26 and .Ltmp27
	.word	.Ltmp28-.Lfunc_begin1   #     jumps to .Ltmp28
	.byte	0                       #   On action: cleanup
	.word	.Ltmp29-.Lfunc_begin1   # >> Call Site 8 <<
	.word	.Ltmp30-.Ltmp29         #   Call between .Ltmp29 and .Ltmp30
	.word	.Ltmp31-.Lfunc_begin1   #     jumps to .Ltmp31
	.byte	0                       #   On action: cleanup
	.word	.Ltmp32-.Lfunc_begin1   # >> Call Site 9 <<
	.word	.Ltmp33-.Ltmp32         #   Call between .Ltmp32 and .Ltmp33
	.word	.Ltmp34-.Lfunc_begin1   #     jumps to .Ltmp34
	.byte	0                       #   On action: cleanup
	.word	.Ltmp35-.Lfunc_begin1   # >> Call Site 10 <<
	.word	.Ltmp57-.Ltmp35         #   Call between .Ltmp35 and .Ltmp57
	.word	.Ltmp235-.Lfunc_begin1  #     jumps to .Ltmp235
	.byte	0                       #   On action: cleanup
	.word	.Ltmp58-.Lfunc_begin1   # >> Call Site 11 <<
	.word	.Ltmp59-.Ltmp58         #   Call between .Ltmp58 and .Ltmp59
	.word	.Ltmp60-.Lfunc_begin1   #     jumps to .Ltmp60
	.byte	0                       #   On action: cleanup
	.word	.Ltmp61-.Lfunc_begin1   # >> Call Site 12 <<
	.word	.Ltmp64-.Ltmp61         #   Call between .Ltmp61 and .Ltmp64
	.word	.Ltmp75-.Lfunc_begin1   #     jumps to .Ltmp75
	.byte	0                       #   On action: cleanup
	.word	.Ltmp65-.Lfunc_begin1   # >> Call Site 13 <<
	.word	.Ltmp66-.Ltmp65         #   Call between .Ltmp65 and .Ltmp66
	.word	.Ltmp67-.Lfunc_begin1   #     jumps to .Ltmp67
	.byte	0                       #   On action: cleanup
	.word	.Ltmp68-.Lfunc_begin1   # >> Call Site 14 <<
	.word	.Ltmp71-.Ltmp68         #   Call between .Ltmp68 and .Ltmp71
	.word	.Ltmp72-.Lfunc_begin1   #     jumps to .Ltmp72
	.byte	0                       #   On action: cleanup
	.word	.Ltmp73-.Lfunc_begin1   # >> Call Site 15 <<
	.word	.Ltmp74-.Ltmp73         #   Call between .Ltmp73 and .Ltmp74
	.word	.Ltmp75-.Lfunc_begin1   #     jumps to .Ltmp75
	.byte	0                       #   On action: cleanup
	.word	.Ltmp76-.Lfunc_begin1   # >> Call Site 16 <<
	.word	.Ltmp87-.Ltmp76         #   Call between .Ltmp76 and .Ltmp87
	.word	.Ltmp88-.Lfunc_begin1   #     jumps to .Ltmp88
	.byte	0                       #   On action: cleanup
	.word	.Ltmp89-.Lfunc_begin1   # >> Call Site 17 <<
	.word	.Ltmp90-.Ltmp89         #   Call between .Ltmp89 and .Ltmp90
	.word	.Ltmp91-.Lfunc_begin1   #     jumps to .Ltmp91
	.byte	0                       #   On action: cleanup
	.word	.Ltmp92-.Lfunc_begin1   # >> Call Site 18 <<
	.word	.Ltmp95-.Ltmp92         #   Call between .Ltmp92 and .Ltmp95
	.word	.Ltmp96-.Lfunc_begin1   #     jumps to .Ltmp96
	.byte	0                       #   On action: cleanup
	.word	.Ltmp97-.Lfunc_begin1   # >> Call Site 19 <<
	.word	.Ltmp98-.Ltmp97         #   Call between .Ltmp97 and .Ltmp98
	.word	.Ltmp99-.Lfunc_begin1   #     jumps to .Ltmp99
	.byte	0                       #   On action: cleanup
	.word	.Ltmp100-.Lfunc_begin1  # >> Call Site 20 <<
	.word	.Ltmp103-.Ltmp100       #   Call between .Ltmp100 and .Ltmp103
	.word	.Ltmp104-.Lfunc_begin1  #     jumps to .Ltmp104
	.byte	0                       #   On action: cleanup
	.word	.Ltmp105-.Lfunc_begin1  # >> Call Site 21 <<
	.word	.Ltmp106-.Ltmp105       #   Call between .Ltmp105 and .Ltmp106
	.word	.Ltmp107-.Lfunc_begin1  #     jumps to .Ltmp107
	.byte	0                       #   On action: cleanup
	.word	.Ltmp108-.Lfunc_begin1  # >> Call Site 22 <<
	.word	.Ltmp115-.Ltmp108       #   Call between .Ltmp108 and .Ltmp115
	.word	.Ltmp116-.Lfunc_begin1  #     jumps to .Ltmp116
	.byte	0                       #   On action: cleanup
	.word	.Ltmp117-.Lfunc_begin1  # >> Call Site 23 <<
	.word	.Ltmp118-.Ltmp117       #   Call between .Ltmp117 and .Ltmp118
	.word	.Ltmp119-.Lfunc_begin1  #     jumps to .Ltmp119
	.byte	0                       #   On action: cleanup
	.word	.Ltmp120-.Lfunc_begin1  # >> Call Site 24 <<
	.word	.Ltmp123-.Ltmp120       #   Call between .Ltmp120 and .Ltmp123
	.word	.Ltmp124-.Lfunc_begin1  #     jumps to .Ltmp124
	.byte	0                       #   On action: cleanup
	.word	.Ltmp125-.Lfunc_begin1  # >> Call Site 25 <<
	.word	.Ltmp126-.Ltmp125       #   Call between .Ltmp125 and .Ltmp126
	.word	.Ltmp177-.Lfunc_begin1  #     jumps to .Ltmp177
	.byte	0                       #   On action: cleanup
	.word	.Ltmp178-.Lfunc_begin1  # >> Call Site 26 <<
	.word	.Ltmp181-.Ltmp178       #   Call between .Ltmp178 and .Ltmp181
	.word	.Ltmp232-.Lfunc_begin1  #     jumps to .Ltmp232
	.byte	0                       #   On action: cleanup
	.word	.Ltmp203-.Lfunc_begin1  # >> Call Site 27 <<
	.word	.Ltmp204-.Ltmp203       #   Call between .Ltmp203 and .Ltmp204
	.word	.Ltmp205-.Lfunc_begin1  #     jumps to .Ltmp205
	.byte	0                       #   On action: cleanup
	.word	.Ltmp206-.Lfunc_begin1  # >> Call Site 28 <<
	.word	.Ltmp209-.Ltmp206       #   Call between .Ltmp206 and .Ltmp209
	.word	.Ltmp210-.Lfunc_begin1  #     jumps to .Ltmp210
	.byte	0                       #   On action: cleanup
	.word	.Ltmp211-.Lfunc_begin1  # >> Call Site 29 <<
	.word	.Ltmp212-.Ltmp211       #   Call between .Ltmp211 and .Ltmp212
	.word	.Ltmp213-.Lfunc_begin1  #     jumps to .Ltmp213
	.byte	0                       #   On action: cleanup
	.word	.Ltmp214-.Lfunc_begin1  # >> Call Site 30 <<
	.word	.Ltmp215-.Ltmp214       #   Call between .Ltmp214 and .Ltmp215
	.word	.Ltmp216-.Lfunc_begin1  #     jumps to .Ltmp216
	.byte	0                       #   On action: cleanup
	.word	.Ltmp217-.Lfunc_begin1  # >> Call Site 31 <<
	.word	.Ltmp218-.Ltmp217       #   Call between .Ltmp217 and .Ltmp218
	.word	.Ltmp219-.Lfunc_begin1  #     jumps to .Ltmp219
	.byte	0                       #   On action: cleanup
	.word	.Ltmp182-.Lfunc_begin1  # >> Call Site 32 <<
	.word	.Ltmp183-.Ltmp182       #   Call between .Ltmp182 and .Ltmp183
	.word	.Ltmp184-.Lfunc_begin1  #     jumps to .Ltmp184
	.byte	0                       #   On action: cleanup
	.word	.Ltmp185-.Lfunc_begin1  # >> Call Site 33 <<
	.word	.Ltmp188-.Ltmp185       #   Call between .Ltmp185 and .Ltmp188
	.word	.Ltmp189-.Lfunc_begin1  #     jumps to .Ltmp189
	.byte	0                       #   On action: cleanup
	.word	.Ltmp190-.Lfunc_begin1  # >> Call Site 34 <<
	.word	.Ltmp193-.Ltmp190       #   Call between .Ltmp190 and .Ltmp193
	.word	.Ltmp194-.Lfunc_begin1  #     jumps to .Ltmp194
	.byte	0                       #   On action: cleanup
	.word	.Ltmp195-.Lfunc_begin1  # >> Call Site 35 <<
	.word	.Ltmp196-.Ltmp195       #   Call between .Ltmp195 and .Ltmp196
	.word	.Ltmp197-.Lfunc_begin1  #     jumps to .Ltmp197
	.byte	0                       #   On action: cleanup
	.word	.Ltmp198-.Lfunc_begin1  # >> Call Site 36 <<
	.word	.Ltmp201-.Ltmp198       #   Call between .Ltmp198 and .Ltmp201
	.word	.Ltmp202-.Lfunc_begin1  #     jumps to .Ltmp202
	.byte	0                       #   On action: cleanup
	.word	.Ltmp220-.Lfunc_begin1  # >> Call Site 37 <<
	.word	.Ltmp221-.Ltmp220       #   Call between .Ltmp220 and .Ltmp221
	.word	.Ltmp222-.Lfunc_begin1  #     jumps to .Ltmp222
	.byte	0                       #   On action: cleanup
	.word	.Ltmp223-.Lfunc_begin1  # >> Call Site 38 <<
	.word	.Ltmp224-.Ltmp223       #   Call between .Ltmp223 and .Ltmp224
	.word	.Ltmp225-.Lfunc_begin1  #     jumps to .Ltmp225
	.byte	0                       #   On action: cleanup
	.word	.Ltmp226-.Lfunc_begin1  # >> Call Site 39 <<
	.word	.Ltmp231-.Ltmp226       #   Call between .Ltmp226 and .Ltmp231
	.word	.Ltmp232-.Lfunc_begin1  #     jumps to .Ltmp232
	.byte	0                       #   On action: cleanup
	.word	.Ltmp309-.Lfunc_begin1  # >> Call Site 40 <<
	.word	.Ltmp320-.Ltmp309       #   Call between .Ltmp309 and .Ltmp320
	.word	.Ltmp321-.Lfunc_begin1  #     jumps to .Ltmp321
	.byte	0                       #   On action: cleanup
	.word	.Ltmp322-.Lfunc_begin1  # >> Call Site 41 <<
	.word	.Ltmp323-.Ltmp322       #   Call between .Ltmp322 and .Ltmp323
	.word	.Ltmp324-.Lfunc_begin1  #     jumps to .Ltmp324
	.byte	0                       #   On action: cleanup
	.word	.Ltmp325-.Lfunc_begin1  # >> Call Site 42 <<
	.word	.Ltmp326-.Ltmp325       #   Call between .Ltmp325 and .Ltmp326
	.word	.Ltmp327-.Lfunc_begin1  #     jumps to .Ltmp327
	.byte	0                       #   On action: cleanup
	.word	.Ltmp236-.Lfunc_begin1  # >> Call Site 43 <<
	.word	.Ltmp247-.Ltmp236       #   Call between .Ltmp236 and .Ltmp247
	.word	.Ltmp308-.Lfunc_begin1  #     jumps to .Ltmp308
	.byte	0                       #   On action: cleanup
	.word	.Ltmp248-.Lfunc_begin1  # >> Call Site 44 <<
	.word	.Ltmp249-.Ltmp248       #   Call between .Ltmp248 and .Ltmp249
	.word	.Ltmp250-.Lfunc_begin1  #     jumps to .Ltmp250
	.byte	0                       #   On action: cleanup
	.word	.Ltmp251-.Lfunc_begin1  # >> Call Site 45 <<
	.word	.Ltmp252-.Ltmp251       #   Call between .Ltmp251 and .Ltmp252
	.word	.Ltmp253-.Lfunc_begin1  #     jumps to .Ltmp253
	.byte	0                       #   On action: cleanup
	.word	.Ltmp254-.Lfunc_begin1  # >> Call Site 46 <<
	.word	.Ltmp300-.Ltmp254       #   Call between .Ltmp254 and .Ltmp300
	.word	.Ltmp308-.Lfunc_begin1  #     jumps to .Ltmp308
	.byte	0                       #   On action: cleanup
	.word	.Ltmp301-.Lfunc_begin1  # >> Call Site 47 <<
	.word	.Ltmp302-.Ltmp301       #   Call between .Ltmp301 and .Ltmp302
	.word	.Ltmp303-.Lfunc_begin1  #     jumps to .Ltmp303
	.byte	0                       #   On action: cleanup
	.word	.Ltmp258-.Lfunc_begin1  # >> Call Site 48 <<
	.word	.Ltmp271-.Ltmp258       #   Call between .Ltmp258 and .Ltmp271
	.word	.Ltmp308-.Lfunc_begin1  #     jumps to .Ltmp308
	.byte	0                       #   On action: cleanup
	.word	.Ltmp272-.Lfunc_begin1  # >> Call Site 49 <<
	.word	.Ltmp273-.Ltmp272       #   Call between .Ltmp272 and .Ltmp273
	.word	.Ltmp274-.Lfunc_begin1  #     jumps to .Ltmp274
	.byte	0                       #   On action: cleanup
	.word	.Ltmp304-.Lfunc_begin1  # >> Call Site 50 <<
	.word	.Ltmp307-.Ltmp304       #   Call between .Ltmp304 and .Ltmp307
	.word	.Ltmp308-.Lfunc_begin1  #     jumps to .Ltmp308
	.byte	0                       #   On action: cleanup
	.word	.Ltmp127-.Lfunc_begin1  # >> Call Site 51 <<
	.word	.Ltmp128-.Ltmp127       #   Call between .Ltmp127 and .Ltmp128
	.word	.Ltmp177-.Lfunc_begin1  #     jumps to .Ltmp177
	.byte	0                       #   On action: cleanup
	.word	.Ltmp156-.Lfunc_begin1  # >> Call Site 52 <<
	.word	.Ltmp157-.Ltmp156       #   Call between .Ltmp156 and .Ltmp157
	.word	.Ltmp158-.Lfunc_begin1  #     jumps to .Ltmp158
	.byte	0                       #   On action: cleanup
	.word	.Ltmp159-.Lfunc_begin1  # >> Call Site 53 <<
	.word	.Ltmp160-.Ltmp159       #   Call between .Ltmp159 and .Ltmp160
	.word	.Ltmp161-.Lfunc_begin1  #     jumps to .Ltmp161
	.byte	0                       #   On action: cleanup
	.word	.Ltmp162-.Lfunc_begin1  # >> Call Site 54 <<
	.word	.Ltmp169-.Ltmp162       #   Call between .Ltmp162 and .Ltmp169
	.word	.Ltmp177-.Lfunc_begin1  #     jumps to .Ltmp177
	.byte	0                       #   On action: cleanup
	.word	.Ltmp170-.Lfunc_begin1  # >> Call Site 55 <<
	.word	.Ltmp171-.Ltmp170       #   Call between .Ltmp170 and .Ltmp171
	.word	.Ltmp172-.Lfunc_begin1  #     jumps to .Ltmp172
	.byte	0                       #   On action: cleanup
	.word	.Ltmp129-.Lfunc_begin1  # >> Call Site 56 <<
	.word	.Ltmp130-.Ltmp129       #   Call between .Ltmp129 and .Ltmp130
	.word	.Ltmp177-.Lfunc_begin1  #     jumps to .Ltmp177
	.byte	0                       #   On action: cleanup
	.word	.Ltmp145-.Lfunc_begin1  # >> Call Site 57 <<
	.word	.Ltmp146-.Ltmp145       #   Call between .Ltmp145 and .Ltmp146
	.word	.Ltmp147-.Lfunc_begin1  #     jumps to .Ltmp147
	.byte	0                       #   On action: cleanup
	.word	.Ltmp148-.Lfunc_begin1  # >> Call Site 58 <<
	.word	.Ltmp151-.Ltmp148       #   Call between .Ltmp148 and .Ltmp151
	.word	.Ltmp152-.Lfunc_begin1  #     jumps to .Ltmp152
	.byte	0                       #   On action: cleanup
	.word	.Ltmp153-.Lfunc_begin1  # >> Call Site 59 <<
	.word	.Ltmp154-.Ltmp153       #   Call between .Ltmp153 and .Ltmp154
	.word	.Ltmp155-.Lfunc_begin1  #     jumps to .Ltmp155
	.byte	0                       #   On action: cleanup
	.word	.Ltmp131-.Lfunc_begin1  # >> Call Site 60 <<
	.word	.Ltmp132-.Ltmp131       #   Call between .Ltmp131 and .Ltmp132
	.word	.Ltmp177-.Lfunc_begin1  #     jumps to .Ltmp177
	.byte	0                       #   On action: cleanup
	.word	.Ltmp133-.Lfunc_begin1  # >> Call Site 61 <<
	.word	.Ltmp140-.Ltmp133       #   Call between .Ltmp133 and .Ltmp140
	.word	.Ltmp141-.Lfunc_begin1  #     jumps to .Ltmp141
	.byte	0                       #   On action: cleanup
	.word	.Ltmp142-.Lfunc_begin1  # >> Call Site 62 <<
	.word	.Ltmp143-.Ltmp142       #   Call between .Ltmp142 and .Ltmp143
	.word	.Ltmp144-.Lfunc_begin1  #     jumps to .Ltmp144
	.byte	0                       #   On action: cleanup
	.word	.Ltmp173-.Lfunc_begin1  # >> Call Site 63 <<
	.word	.Ltmp176-.Ltmp173       #   Call between .Ltmp173 and .Ltmp176
	.word	.Ltmp177-.Lfunc_begin1  #     jumps to .Ltmp177
	.byte	0                       #   On action: cleanup
	.word	.Ltmp233-.Lfunc_begin1  # >> Call Site 64 <<
	.word	.Ltmp234-.Ltmp233       #   Call between .Ltmp233 and .Ltmp234
	.word	.Ltmp235-.Lfunc_begin1  #     jumps to .Ltmp235
	.byte	0                       #   On action: cleanup
	.word	.Ltmp37-.Lfunc_begin1   # >> Call Site 65 <<
	.word	.Ltmp44-.Ltmp37         #   Call between .Ltmp37 and .Ltmp44
	.word	.Ltmp55-.Lfunc_begin1   #     jumps to .Ltmp55
	.byte	0                       #   On action: cleanup
	.word	.Ltmp45-.Lfunc_begin1   # >> Call Site 66 <<
	.word	.Ltmp46-.Ltmp45         #   Call between .Ltmp45 and .Ltmp46
	.word	.Ltmp47-.Lfunc_begin1   #     jumps to .Ltmp47
	.byte	0                       #   On action: cleanup
	.word	.Ltmp48-.Lfunc_begin1   # >> Call Site 67 <<
	.word	.Ltmp51-.Ltmp48         #   Call between .Ltmp48 and .Ltmp51
	.word	.Ltmp52-.Lfunc_begin1   #     jumps to .Ltmp52
	.byte	0                       #   On action: cleanup
	.word	.Ltmp53-.Lfunc_begin1   # >> Call Site 68 <<
	.word	.Ltmp54-.Ltmp53         #   Call between .Ltmp53 and .Ltmp54
	.word	.Ltmp55-.Lfunc_begin1   #     jumps to .Ltmp55
	.byte	0                       #   On action: cleanup
	.word	.Ltmp54-.Lfunc_begin1   # >> Call Site 69 <<
	.word	.Lfunc_end4-.Ltmp54     #   Call between .Ltmp54 and .Lfunc_end4
	.word	0                       #     has no landing pad
	.byte	0                       #   On action: cleanup
.Lcst_end1:
	.p2align	2
                                        # -- End function
	.section	.text._ZNSt6vectorISt10shared_ptrIN7Surface4BaseEESaIS3_EEC2Ev,"axG",@progbits,_ZNSt6vectorISt10shared_ptrIN7Surface4BaseEESaIS3_EEC2Ev,comdat
	.weak	_ZNSt6vectorISt10shared_ptrIN7Surface4BaseEESaIS3_EEC2Ev # -- Begin function _ZNSt6vectorISt10shared_ptrIN7Surface4BaseEESaIS3_EEC2Ev
	.p2align	2
	.type	_ZNSt6vectorISt10shared_ptrIN7Surface4BaseEESaIS3_EEC2Ev,@function
_ZNSt6vectorISt10shared_ptrIN7Surface4BaseEESaIS3_EEC2Ev: # @_ZNSt6vectorISt10shared_ptrIN7Surface4BaseEESaIS3_EEC2Ev
# %bb.0:                                # %entry
	addi	sp, sp, -32
	sd	ra, 24(sp)
	sd	s0, 16(sp)
	addi	s0, sp, 32
	sd	a0, -24(s0)
	ld	a0, -24(s0)
	call	_ZNSt12_Vector_baseISt10shared_ptrIN7Surface4BaseEESaIS3_EEC2Ev
	ld	s0, 16(sp)
	ld	ra, 24(sp)
	addi	sp, sp, 32
	ret
.Lfunc_end5:
	.size	_ZNSt6vectorISt10shared_ptrIN7Surface4BaseEESaIS3_EEC2Ev, .Lfunc_end5-_ZNSt6vectorISt10shared_ptrIN7Surface4BaseEESaIS3_EEC2Ev
                                        # -- End function
	.section	.text._ZNSt6vectorIdSaIdEEC2Ev,"axG",@progbits,_ZNSt6vectorIdSaIdEEC2Ev,comdat
	.weak	_ZNSt6vectorIdSaIdEEC2Ev # -- Begin function _ZNSt6vectorIdSaIdEEC2Ev
	.p2align	2
	.type	_ZNSt6vectorIdSaIdEEC2Ev,@function
_ZNSt6vectorIdSaIdEEC2Ev:               # @_ZNSt6vectorIdSaIdEEC2Ev
# %bb.0:                                # %entry
	addi	sp, sp, -32
	sd	ra, 24(sp)
	sd	s0, 16(sp)
	addi	s0, sp, 32
	sd	a0, -24(s0)
	ld	a0, -24(s0)
	call	_ZNSt12_Vector_baseIdSaIdEEC2Ev
	ld	s0, 16(sp)
	ld	ra, 24(sp)
	addi	sp, sp, 32
	ret
.Lfunc_end6:
	.size	_ZNSt6vectorIdSaIdEEC2Ev, .Lfunc_end6-_ZNSt6vectorIdSaIdEEC2Ev
                                        # -- End function
	.section	.text._ZNSt10shared_ptrI3BVHEC2Ev,"axG",@progbits,_ZNSt10shared_ptrI3BVHEC2Ev,comdat
	.weak	_ZNSt10shared_ptrI3BVHEC2Ev # -- Begin function _ZNSt10shared_ptrI3BVHEC2Ev
	.p2align	2
	.type	_ZNSt10shared_ptrI3BVHEC2Ev,@function
_ZNSt10shared_ptrI3BVHEC2Ev:            # @_ZNSt10shared_ptrI3BVHEC2Ev
# %bb.0:                                # %entry
	addi	sp, sp, -32
	sd	ra, 24(sp)
	sd	s0, 16(sp)
	addi	s0, sp, 32
	sd	a0, -24(s0)
	ld	a0, -24(s0)
	call	_ZNSt12__shared_ptrI3BVHLN9__gnu_cxx12_Lock_policyE0EEC2Ev
	ld	s0, 16(sp)
	ld	ra, 24(sp)
	addi	sp, sp, 32
	ret
.Lfunc_end7:
	.size	_ZNSt10shared_ptrI3BVHEC2Ev, .Lfunc_end7-_ZNSt10shared_ptrI3BVHEC2Ev
                                        # -- End function
	.section	.text._ZN11BoundingBoxC2Ev,"axG",@progbits,_ZN11BoundingBoxC2Ev,comdat
	.weak	_ZN11BoundingBoxC2Ev    # -- Begin function _ZN11BoundingBoxC2Ev
	.p2align	2
	.type	_ZN11BoundingBoxC2Ev,@function
_ZN11BoundingBoxC2Ev:                   # @_ZN11BoundingBoxC2Ev
	.cfi_startproc
# %bb.0:                                # %entry
	addi	sp, sp, -32
	.cfi_def_cfa_offset 32
	sd	ra, 24(sp)
	sd	s0, 16(sp)
	sd	s1, 8(sp)
	.cfi_offset ra, -8
	.cfi_offset s0, -16
	.cfi_offset s1, -24
	addi	s0, sp, 32
	.cfi_def_cfa s0, 0
	sd	a0, -32(s0)
	ld	s1, -32(s0)
	call	_ZNSt14numeric_limitsIdE3maxEv
	mv	a1, a0
	mv	a0, s1
	call	_ZN3glm3vecILi3EdLNS_9qualifierE0EEC2Ed
	addi	s1, s1, 24
	call	_ZNSt14numeric_limitsIdE6lowestEv
	mv	a1, a0
	mv	a0, s1
	call	_ZN3glm3vecILi3EdLNS_9qualifierE0EEC2Ed
	ld	s1, 8(sp)
	ld	s0, 16(sp)
	.cfi_def_cfa sp, 32
	ld	ra, 24(sp)
	.cfi_restore ra
	.cfi_restore s0
	.cfi_restore s1
	addi	sp, sp, 32
	.cfi_def_cfa_offset 0
	ret
.Lfunc_end8:
	.size	_ZN11BoundingBoxC2Ev, .Lfunc_end8-_ZN11BoundingBoxC2Ev
	.cfi_endproc
                                        # -- End function
	.section	.text._ZNK8nlohmann10basic_jsonISt3mapSt6vectorNSt7__cxx1112basic_stringIcSt11char_traitsIcESaIcEEEblmdSaNS_14adl_serializerEE2atERKS8_,"axG",@progbits,_ZNK8nlohmann10basic_jsonISt3mapSt6vectorNSt7__cxx1112basic_stringIcSt11char_traitsIcESaIcEEEblmdSaNS_14adl_serializerEE2atERKS8_,comdat
	.weak	_ZNK8nlohmann10basic_jsonISt3mapSt6vectorNSt7__cxx1112basic_stringIcSt11char_traitsIcESaIcEEEblmdSaNS_14adl_serializerEE2atERKS8_ # -- Begin function _ZNK8nlohmann10basic_jsonISt3mapSt6vectorNSt7__cxx1112basic_stringIcSt11char_traitsIcESaIcEEEblmdSaNS_14adl_serializerEE2atERKS8_
	.p2align	2
	.type	_ZNK8nlohmann10basic_jsonISt3mapSt6vectorNSt7__cxx1112basic_stringIcSt11char_traitsIcESaIcEEEblmdSaNS_14adl_serializerEE2atERKS8_,@function
_ZNK8nlohmann10basic_jsonISt3mapSt6vectorNSt7__cxx1112basic_stringIcSt11char_traitsIcESaIcEEEblmdSaNS_14adl_serializerEE2atERKS8_: # @_ZNK8nlohmann10basic_jsonISt3mapSt6vectorNSt7__cxx1112basic_stringIcSt11char_traitsIcESaIcEEEblmdSaNS_14adl_serializerEE2atERKS8_
.Lfunc_begin2:
	.cfi_startproc
	.cfi_personality 155, DW.ref.__gxx_personality_v0
	.cfi_lsda 27, .Lexception2
# %bb.0:                                # %entry
	addi	sp, sp, -240
	.cfi_def_cfa_offset 240
	sd	ra, 232(sp)
	sd	s0, 224(sp)
	sd	s1, 216(sp)
	sd	s2, 208(sp)
	sd	s3, 200(sp)
	.cfi_offset ra, -8
	.cfi_offset s0, -16
	.cfi_offset s1, -24
	.cfi_offset s2, -32
	.cfi_offset s3, -40
	addi	s0, sp, 240
	.cfi_def_cfa s0, 0
	sd	a0, -48(s0)
	sd	a1, -56(s0)
	ld	s1, -48(s0)
	mv	a0, s1
	call	_ZNK8nlohmann10basic_jsonISt3mapSt6vectorNSt7__cxx1112basic_stringIcSt11char_traitsIcESaIcEEEblmdSaNS_14adl_serializerEE9is_objectEv
	beqz	a0, .LBB9_17
	j	.LBB9_1
.LBB9_1:                                # %if.then
	ld	a0, 8(s1)
	ld	a1, -56(s0)
.Ltmp339:
	call	_ZNSt3mapINSt7__cxx1112basic_stringIcSt11char_traitsIcESaIcEEEN8nlohmann10basic_jsonIS_St6vectorS5_blmdSaNS6_14adl_serializerEEESt4lessIvESaISt4pairIKS5_SA_EEE2atERSE_
.Ltmp340:
	j	.LBB9_2
.LBB9_2:                                # %invoke.cont
	ld	s3, 200(sp)
	ld	s2, 208(sp)
	ld	s1, 216(sp)
	ld	s0, 224(sp)
	.cfi_def_cfa sp, 240
	ld	ra, 232(sp)
	.cfi_restore ra
	.cfi_restore s0
	.cfi_restore s1
	.cfi_restore s2
	.cfi_restore s3
	addi	sp, sp, 240
	.cfi_def_cfa_offset 0
	ret
.LBB9_3:                                # %lpad
.Ltmp341:
	sd	a0, -64(s0)
	sw	a1, -68(s0)
	j	.LBB9_4
.LBB9_4:                                # %catch.dispatch
	lw	a0, -68(s0)
	addi	a1, zero, 1
	bne	a0, a1, .LBB9_28
	j	.LBB9_5
.LBB9_5:                                # %catch
	ld	a0, -64(s0)
	call	__cxa_begin_catch
	sd	a0, -80(s0)
	addi	a0, zero, 32
	call	__cxa_allocate_exception
	mv	s1, a0
	addi	a0, zero, 1
	sb	a0, -145(s0)
	ld	a2, -56(s0)
.Ltmp342:
	lui	a0, %hi(.L.str.30)
	addi	a1, a0, %lo(.L.str.30)
	addi	a0, s0, -144
	call	_ZStplIcSt11char_traitsIcESaIcEENSt7__cxx1112basic_stringIT_T0_T1_EEPKS5_RKS8_
.Ltmp343:
	j	.LBB9_6
.LBB9_6:                                # %invoke.cont6
.Ltmp345:
	lui	a0, %hi(.L.str.31)
	addi	a2, a0, %lo(.L.str.31)
	addi	a0, s0, -112
	addi	a1, s0, -144
	call	_ZStplIcSt11char_traitsIcESaIcEENSt7__cxx1112basic_stringIT_T0_T1_EEOS8_PKS5_
.Ltmp346:
	j	.LBB9_7
.LBB9_7:                                # %invoke.cont8
.Ltmp348:
	addi	a2, s0, -112
	mv	a0, s1
	addi	a1, zero, 403
	call	_ZN8nlohmann6detail12out_of_range6createEiRKNSt7__cxx1112basic_stringIcSt11char_traitsIcESaIcEEE
.Ltmp349:
	j	.LBB9_8
.LBB9_8:                                # %invoke.cont10
	sb	zero, -145(s0)
.Ltmp350:
	lui	a0, %hi(_ZTIN8nlohmann6detail12out_of_rangeE)
	addi	a1, a0, %lo(_ZTIN8nlohmann6detail12out_of_rangeE)
	lui	a0, %hi(_ZN8nlohmann6detail12out_of_rangeD2Ev)
	addi	a2, a0, %lo(_ZN8nlohmann6detail12out_of_rangeD2Ev)
	mv	a0, s1
	call	__cxa_throw
.Ltmp351:
	j	.LBB9_30
.LBB9_9:                                # %lpad5
.Ltmp344:
	sd	a0, -64(s0)
	sw	a1, -68(s0)
	j	.LBB9_13
.LBB9_10:                               # %lpad7
.Ltmp347:
	sd	a0, -64(s0)
	sw	a1, -68(s0)
	j	.LBB9_12
.LBB9_11:                               # %lpad9
.Ltmp352:
	sd	a0, -64(s0)
	sw	a1, -68(s0)
	addi	a0, s0, -112
	call	_ZNSt7__cxx1112basic_stringIcSt11char_traitsIcESaIcEED1Ev
	j	.LBB9_12
.LBB9_12:                               # %ehcleanup
	addi	a0, s0, -144
	call	_ZNSt7__cxx1112basic_stringIcSt11char_traitsIcESaIcEED1Ev
	j	.LBB9_13
.LBB9_13:                               # %ehcleanup11
	lbu	a0, -145(s0)
	beqz	a0, .LBB9_15
	j	.LBB9_14
.LBB9_14:                               # %cleanup.action
	mv	a0, s1
	call	__cxa_free_exception
	j	.LBB9_15
.LBB9_15:                               # %cleanup.done
.Ltmp353:
	call	__cxa_end_catch
.Ltmp354:
	j	.LBB9_16
.LBB9_16:                               # %invoke.cont13
	j	.LBB9_28
.LBB9_17:                               # %if.else
	addi	a0, zero, 32
	call	__cxa_allocate_exception
	mv	s2, a0
	addi	a0, zero, 1
	sb	a0, -225(s0)
	mv	a0, s1
	call	_ZNK8nlohmann10basic_jsonISt3mapSt6vectorNSt7__cxx1112basic_stringIcSt11char_traitsIcESaIcEEEblmdSaNS_14adl_serializerEE9type_nameEv
	mv	s1, a0
	addi	s3, s0, -224
	mv	a0, s3
	call	_ZNSaIcEC1Ev
.Ltmp328:
	addi	a0, s0, -216
	mv	a1, s1
	mv	a2, s3
	call	_ZNSt7__cxx1112basic_stringIcSt11char_traitsIcESaIcEEC2IS3_EEPKcRKS3_
.Ltmp329:
	j	.LBB9_18
.LBB9_18:                               # %invoke.cont20
.Ltmp331:
	lui	a0, %hi(.L.str.32)
	addi	a1, a0, %lo(.L.str.32)
	addi	a0, s0, -184
	addi	a2, s0, -216
	call	_ZStplIcSt11char_traitsIcESaIcEENSt7__cxx1112basic_stringIT_T0_T1_EEPKS5_OS8_
.Ltmp332:
	j	.LBB9_19
.LBB9_19:                               # %invoke.cont22
.Ltmp334:
	addi	a2, s0, -184
	mv	a0, s2
	addi	a1, zero, 304
	call	_ZN8nlohmann6detail10type_error6createEiRKNSt7__cxx1112basic_stringIcSt11char_traitsIcESaIcEEE
.Ltmp335:
	j	.LBB9_20
.LBB9_20:                               # %invoke.cont24
	sb	zero, -225(s0)
.Ltmp336:
	lui	a0, %hi(_ZTIN8nlohmann6detail10type_errorE)
	addi	a1, a0, %lo(_ZTIN8nlohmann6detail10type_errorE)
	lui	a0, %hi(_ZN8nlohmann6detail10type_errorD2Ev)
	addi	a2, a0, %lo(_ZN8nlohmann6detail10type_errorD2Ev)
	mv	a0, s2
	call	__cxa_throw
.Ltmp337:
	j	.LBB9_30
.LBB9_21:                               # %lpad19
.Ltmp330:
	sd	a0, -64(s0)
	sw	a1, -68(s0)
	j	.LBB9_25
.LBB9_22:                               # %lpad21
.Ltmp333:
	sd	a0, -64(s0)
	sw	a1, -68(s0)
	j	.LBB9_24
.LBB9_23:                               # %lpad23
.Ltmp338:
	sd	a0, -64(s0)
	sw	a1, -68(s0)
	addi	a0, s0, -184
	call	_ZNSt7__cxx1112basic_stringIcSt11char_traitsIcESaIcEED1Ev
	j	.LBB9_24
.LBB9_24:                               # %ehcleanup27
	addi	a0, s0, -216
	call	_ZNSt7__cxx1112basic_stringIcSt11char_traitsIcESaIcEED1Ev
	j	.LBB9_25
.LBB9_25:                               # %ehcleanup28
	addi	a0, s0, -224
	call	_ZNSaIcED1Ev
	lbu	a0, -225(s0)
	beqz	a0, .LBB9_27
	j	.LBB9_26
.LBB9_26:                               # %cleanup.action31
	mv	a0, s2
	call	__cxa_free_exception
	j	.LBB9_27
.LBB9_27:                               # %cleanup.done32
	j	.LBB9_28
.LBB9_28:                               # %eh.resume
	ld	a0, -64(s0)
	call	_Unwind_Resume
.LBB9_29:                               # %terminate.lpad
.Ltmp355:
	call	__clang_call_terminate
.LBB9_30:                               # %unreachable
.Lfunc_end9:
	.size	_ZNK8nlohmann10basic_jsonISt3mapSt6vectorNSt7__cxx1112basic_stringIcSt11char_traitsIcESaIcEEEblmdSaNS_14adl_serializerEE2atERKS8_, .Lfunc_end9-_ZNK8nlohmann10basic_jsonISt3mapSt6vectorNSt7__cxx1112basic_stringIcSt11char_traitsIcESaIcEEEblmdSaNS_14adl_serializerEE2atERKS8_
	.cfi_endproc
	.section	.gcc_except_table,"a",@progbits
	.p2align	2
GCC_except_table9:
.Lexception2:
	.byte	255                     # @LPStart Encoding = omit
	.byte	155                     # @TType Encoding = indirect pcrel sdata4
	.uleb128 .Lttbase0-.Lttbaseref0
.Lttbaseref0:
	.byte	3                       # Call site Encoding = udata4
	.uleb128 .Lcst_end2-.Lcst_begin2
.Lcst_begin2:
	.word	.Ltmp339-.Lfunc_begin2  # >> Call Site 1 <<
	.word	.Ltmp340-.Ltmp339       #   Call between .Ltmp339 and .Ltmp340
	.word	.Ltmp341-.Lfunc_begin2  #     jumps to .Ltmp341
	.byte	1                       #   On action: 1
	.word	.Ltmp340-.Lfunc_begin2  # >> Call Site 2 <<
	.word	.Ltmp342-.Ltmp340       #   Call between .Ltmp340 and .Ltmp342
	.word	0                       #     has no landing pad
	.byte	0                       #   On action: cleanup
	.word	.Ltmp342-.Lfunc_begin2  # >> Call Site 3 <<
	.word	.Ltmp343-.Ltmp342       #   Call between .Ltmp342 and .Ltmp343
	.word	.Ltmp344-.Lfunc_begin2  #     jumps to .Ltmp344
	.byte	0                       #   On action: cleanup
	.word	.Ltmp345-.Lfunc_begin2  # >> Call Site 4 <<
	.word	.Ltmp346-.Ltmp345       #   Call between .Ltmp345 and .Ltmp346
	.word	.Ltmp347-.Lfunc_begin2  #     jumps to .Ltmp347
	.byte	0                       #   On action: cleanup
	.word	.Ltmp348-.Lfunc_begin2  # >> Call Site 5 <<
	.word	.Ltmp351-.Ltmp348       #   Call between .Ltmp348 and .Ltmp351
	.word	.Ltmp352-.Lfunc_begin2  #     jumps to .Ltmp352
	.byte	0                       #   On action: cleanup
	.word	.Ltmp351-.Lfunc_begin2  # >> Call Site 6 <<
	.word	.Ltmp353-.Ltmp351       #   Call between .Ltmp351 and .Ltmp353
	.word	0                       #     has no landing pad
	.byte	0                       #   On action: cleanup
	.word	.Ltmp353-.Lfunc_begin2  # >> Call Site 7 <<
	.word	.Ltmp354-.Ltmp353       #   Call between .Ltmp353 and .Ltmp354
	.word	.Ltmp355-.Lfunc_begin2  #     jumps to .Ltmp355
	.byte	3                       #   On action: 2
	.word	.Ltmp354-.Lfunc_begin2  # >> Call Site 8 <<
	.word	.Ltmp328-.Ltmp354       #   Call between .Ltmp354 and .Ltmp328
	.word	0                       #     has no landing pad
	.byte	0                       #   On action: cleanup
	.word	.Ltmp328-.Lfunc_begin2  # >> Call Site 9 <<
	.word	.Ltmp329-.Ltmp328       #   Call between .Ltmp328 and .Ltmp329
	.word	.Ltmp330-.Lfunc_begin2  #     jumps to .Ltmp330
	.byte	0                       #   On action: cleanup
	.word	.Ltmp331-.Lfunc_begin2  # >> Call Site 10 <<
	.word	.Ltmp332-.Ltmp331       #   Call between .Ltmp331 and .Ltmp332
	.word	.Ltmp333-.Lfunc_begin2  #     jumps to .Ltmp333
	.byte	0                       #   On action: cleanup
	.word	.Ltmp334-.Lfunc_begin2  # >> Call Site 11 <<
	.word	.Ltmp337-.Ltmp334       #   Call between .Ltmp334 and .Ltmp337
	.word	.Ltmp338-.Lfunc_begin2  #     jumps to .Ltmp338
	.byte	0                       #   On action: cleanup
	.word	.Ltmp337-.Lfunc_begin2  # >> Call Site 12 <<
	.word	.Lfunc_end9-.Ltmp337    #   Call between .Ltmp337 and .Lfunc_end9
	.word	0                       #     has no landing pad
	.byte	0                       #   On action: cleanup
.Lcst_end2:
	.byte	1                       # >> Action Record 1 <<
                                        #   Catch TypeInfo 1
	.byte	0                       #   No further actions
	.byte	2                       # >> Action Record 2 <<
                                        #   Catch TypeInfo 2
	.byte	0                       #   No further actions
	.p2align	2
                                        # >> Catch TypeInfos <<
	.word	0                       # TypeInfo 2
.Ltmp356:                               # TypeInfo 1
	.word	.L_ZTISt12out_of_range.DW.stub-.Ltmp356
.Lttbase0:
	.p2align	2
                                        # -- End function
	.section	.text._ZNSt7__cxx1112basic_stringIcSt11char_traitsIcESaIcEEC2IS3_EEPKcRKS3_,"axG",@progbits,_ZNSt7__cxx1112basic_stringIcSt11char_traitsIcESaIcEEC2IS3_EEPKcRKS3_,comdat
	.weak	_ZNSt7__cxx1112basic_stringIcSt11char_traitsIcESaIcEEC2IS3_EEPKcRKS3_ # -- Begin function _ZNSt7__cxx1112basic_stringIcSt11char_traitsIcESaIcEEC2IS3_EEPKcRKS3_
	.p2align	2
	.type	_ZNSt7__cxx1112basic_stringIcSt11char_traitsIcESaIcEEC2IS3_EEPKcRKS3_,@function
_ZNSt7__cxx1112basic_stringIcSt11char_traitsIcESaIcEEC2IS3_EEPKcRKS3_: # @_ZNSt7__cxx1112basic_stringIcSt11char_traitsIcESaIcEEC2IS3_EEPKcRKS3_
.Lfunc_begin3:
	.cfi_startproc
	.cfi_personality 155, DW.ref.__gxx_personality_v0
	.cfi_lsda 27, .Lexception3
# %bb.0:                                # %entry
	addi	sp, sp, -80
	.cfi_def_cfa_offset 80
	sd	ra, 72(sp)
	sd	s0, 64(sp)
	sd	s1, 56(sp)
	sd	s2, 48(sp)
	sd	s3, 40(sp)
	.cfi_offset ra, -8
	.cfi_offset s0, -16
	.cfi_offset s1, -24
	.cfi_offset s2, -32
	.cfi_offset s3, -40
	addi	s0, sp, 80
	.cfi_def_cfa s0, 0
	sd	a0, -48(s0)
	sd	a1, -56(s0)
	sd	a2, -64(s0)
	ld	s1, -48(s0)
	mv	a0, s1
	call	_ZNSt7__cxx1112basic_stringIcSt11char_traitsIcESaIcEE13_M_local_dataEv
	mv	a1, a0
	ld	a2, -64(s0)
	mv	a0, s1
	call	_ZNSt7__cxx1112basic_stringIcSt11char_traitsIcESaIcEE12_Alloc_hiderC1EPcRKS3_
	ld	s2, -56(s0)
	beqz	s2, .LBB10_3
	j	.LBB10_1
.LBB10_1:                               # %cond.true
	ld	s3, -56(s0)
.Ltmp357:
	mv	a0, s3
	call	_ZNSt11char_traitsIcE6lengthEPKc
.Ltmp358:
	j	.LBB10_2
.LBB10_2:                               # %invoke.cont
	add	a2, s3, a0
	j	.LBB10_4
.LBB10_3:                               # %cond.false
	ld	a0, -56(s0)
	addi	a2, a0, -1
	j	.LBB10_4
.LBB10_4:                               # %cond.end
.Ltmp359:
	mv	a0, s1
	mv	a1, s2
	call	_ZNSt7__cxx1112basic_stringIcSt11char_traitsIcESaIcEE12_M_constructIPKcEEvT_S8_
.Ltmp360:
	j	.LBB10_5
.LBB10_5:                               # %invoke.cont4
	ld	s3, 40(sp)
	ld	s2, 48(sp)
	ld	s1, 56(sp)
	ld	s0, 64(sp)
	.cfi_def_cfa sp, 80
	ld	ra, 72(sp)
	.cfi_restore ra
	.cfi_restore s0
	.cfi_restore s1
	.cfi_restore s2
	.cfi_restore s3
	addi	sp, sp, 80
	.cfi_def_cfa_offset 0
	ret
.LBB10_6:                               # %lpad
.Ltmp361:
	sd	a0, -72(s0)
	sw	a1, -76(s0)
	mv	a0, s1
	call	_ZNSt7__cxx1112basic_stringIcSt11char_traitsIcESaIcEE12_Alloc_hiderD2Ev
	j	.LBB10_7
.LBB10_7:                               # %eh.resume
	ld	a0, -72(s0)
	call	_Unwind_Resume
.Lfunc_end10:
	.size	_ZNSt7__cxx1112basic_stringIcSt11char_traitsIcESaIcEEC2IS3_EEPKcRKS3_, .Lfunc_end10-_ZNSt7__cxx1112basic_stringIcSt11char_traitsIcESaIcEEC2IS3_EEPKcRKS3_
	.cfi_endproc
	.section	.gcc_except_table,"a",@progbits
	.p2align	2
GCC_except_table10:
.Lexception3:
	.byte	255                     # @LPStart Encoding = omit
	.byte	255                     # @TType Encoding = omit
	.byte	3                       # Call site Encoding = udata4
	.uleb128 .Lcst_end3-.Lcst_begin3
.Lcst_begin3:
	.word	.Lfunc_begin3-.Lfunc_begin3 # >> Call Site 1 <<
	.word	.Ltmp357-.Lfunc_begin3  #   Call between .Lfunc_begin3 and .Ltmp357
	.word	0                       #     has no landing pad
	.byte	0                       #   On action: cleanup
	.word	.Ltmp357-.Lfunc_begin3  # >> Call Site 2 <<
	.word	.Ltmp360-.Ltmp357       #   Call between .Ltmp357 and .Ltmp360
	.word	.Ltmp361-.Lfunc_begin3  #     jumps to .Ltmp361
	.byte	0                       #   On action: cleanup
	.word	.Ltmp360-.Lfunc_begin3  # >> Call Site 3 <<
	.word	.Lfunc_end10-.Ltmp360   #   Call between .Ltmp360 and .Lfunc_end10
	.word	0                       #     has no landing pad
	.byte	0                       #   On action: cleanup
.Lcst_end3:
	.p2align	2
                                        # -- End function
	.section	.text._ZNK8nlohmann10basic_jsonISt3mapSt6vectorNSt7__cxx1112basic_stringIcSt11char_traitsIcESaIcEEEblmdSaNS_14adl_serializerEEcvT_ISt13unordered_mapIS8_St10shared_ptrI8MaterialESt4hashIS8_ESt8equal_toIS8_ESaISt4pairIKS8_SG_EEELi0EEEv,"axG",@progbits,_ZNK8nlohmann10basic_jsonISt3mapSt6vectorNSt7__cxx1112basic_stringIcSt11char_traitsIcESaIcEEEblmdSaNS_14adl_serializerEEcvT_ISt13unordered_mapIS8_St10shared_ptrI8MaterialESt4hashIS8_ESt8equal_toIS8_ESaISt4pairIKS8_SG_EEELi0EEEv,comdat
	.weak	_ZNK8nlohmann10basic_jsonISt3mapSt6vectorNSt7__cxx1112basic_stringIcSt11char_traitsIcESaIcEEEblmdSaNS_14adl_serializerEEcvT_ISt13unordered_mapIS8_St10shared_ptrI8MaterialESt4hashIS8_ESt8equal_toIS8_ESaISt4pairIKS8_SG_EEELi0EEEv # -- Begin function _ZNK8nlohmann10basic_jsonISt3mapSt6vectorNSt7__cxx1112basic_stringIcSt11char_traitsIcESaIcEEEblmdSaNS_14adl_serializerEEcvT_ISt13unordered_mapIS8_St10shared_ptrI8MaterialESt4hashIS8_ESt8equal_toIS8_ESaISt4pairIKS8_SG_EEELi0EEEv
	.p2align	2
	.type	_ZNK8nlohmann10basic_jsonISt3mapSt6vectorNSt7__cxx1112basic_stringIcSt11char_traitsIcESaIcEEEblmdSaNS_14adl_serializerEEcvT_ISt13unordered_mapIS8_St10shared_ptrI8MaterialESt4hashIS8_ESt8equal_toIS8_ESaISt4pairIKS8_SG_EEELi0EEEv,@function
_ZNK8nlohmann10basic_jsonISt3mapSt6vectorNSt7__cxx1112basic_stringIcSt11char_traitsIcESaIcEEEblmdSaNS_14adl_serializerEEcvT_ISt13unordered_mapIS8_St10shared_ptrI8MaterialESt4hashIS8_ESt8equal_toIS8_ESaISt4pairIKS8_SG_EEELi0EEEv: # @_ZNK8nlohmann10basic_jsonISt3mapSt6vectorNSt7__cxx1112basic_stringIcSt11char_traitsIcESaIcEEEblmdSaNS_14adl_serializerEEcvT_ISt13unordered_mapIS8_St10shared_ptrI8MaterialESt4hashIS8_ESt8equal_toIS8_ESaISt4pairIKS8_SG_EEELi0EEEv
	.cfi_startproc
# %bb.0:                                # %entry
	addi	sp, sp, -32
	.cfi_def_cfa_offset 32
	sd	ra, 24(sp)
	sd	s0, 16(sp)
	.cfi_offset ra, -8
	.cfi_offset s0, -16
	addi	s0, sp, 32
	.cfi_def_cfa s0, 0
	sd	a0, -24(s0)
	sd	a1, -32(s0)
	ld	a1, -32(s0)
	call	_ZNK8nlohmann10basic_jsonISt3mapSt6vectorNSt7__cxx1112basic_stringIcSt11char_traitsIcESaIcEEEblmdSaNS_14adl_serializerEE3getISt13unordered_mapIS8_St10shared_ptrI8MaterialESt4hashIS8_ESt8equal_toIS8_ESaISt4pairIKS8_SF_EEESO_Li0EEET0_v
	ld	s0, 16(sp)
	.cfi_def_cfa sp, 32
	ld	ra, 24(sp)
	.cfi_restore ra
	.cfi_restore s0
	addi	sp, sp, 32
	.cfi_def_cfa_offset 0
	ret
.Lfunc_end11:
	.size	_ZNK8nlohmann10basic_jsonISt3mapSt6vectorNSt7__cxx1112basic_stringIcSt11char_traitsIcESaIcEEEblmdSaNS_14adl_serializerEEcvT_ISt13unordered_mapIS8_St10shared_ptrI8MaterialESt4hashIS8_ESt8equal_toIS8_ESaISt4pairIKS8_SG_EEELi0EEEv, .Lfunc_end11-_ZNK8nlohmann10basic_jsonISt3mapSt6vectorNSt7__cxx1112basic_stringIcSt11char_traitsIcESaIcEEEblmdSaNS_14adl_serializerEEcvT_ISt13unordered_mapIS8_St10shared_ptrI8MaterialESt4hashIS8_ESt8equal_toIS8_ESaISt4pairIKS8_SG_EEELi0EEEv
	.cfi_endproc
                                        # -- End function
	.section	.text._Z11getOptionalISt13unordered_mapINSt7__cxx1112basic_stringIcSt11char_traitsIcESaIcEEESt6vectorIN3glm3vecILi3EdLNS8_9qualifierE0EEESaISB_EESt4hashIS6_ESt8equal_toIS6_ESaISt4pairIKS6_SD_EEEET_RKN8nlohmann10basic_jsonISt3mapS7_S6_blmdSaNSO_14adl_serializerEEES6_SN_,"axG",@progbits,_Z11getOptionalISt13unordered_mapINSt7__cxx1112basic_stringIcSt11char_traitsIcESaIcEEESt6vectorIN3glm3vecILi3EdLNS8_9qualifierE0EEESaISB_EESt4hashIS6_ESt8equal_toIS6_ESaISt4pairIKS6_SD_EEEET_RKN8nlohmann10basic_jsonISt3mapS7_S6_blmdSaNSO_14adl_serializerEEES6_SN_,comdat
	.weak	_Z11getOptionalISt13unordered_mapINSt7__cxx1112basic_stringIcSt11char_traitsIcESaIcEEESt6vectorIN3glm3vecILi3EdLNS8_9qualifierE0EEESaISB_EESt4hashIS6_ESt8equal_toIS6_ESaISt4pairIKS6_SD_EEEET_RKN8nlohmann10basic_jsonISt3mapS7_S6_blmdSaNSO_14adl_serializerEEES6_SN_ # -- Begin function _Z11getOptionalISt13unordered_mapINSt7__cxx1112basic_stringIcSt11char_traitsIcESaIcEEESt6vectorIN3glm3vecILi3EdLNS8_9qualifierE0EEESaISB_EESt4hashIS6_ESt8equal_toIS6_ESaISt4pairIKS6_SD_EEEET_RKN8nlohmann10basic_jsonISt3mapS7_S6_blmdSaNSO_14adl_serializerEEES6_SN_
	.p2align	2
	.type	_Z11getOptionalISt13unordered_mapINSt7__cxx1112basic_stringIcSt11char_traitsIcESaIcEEESt6vectorIN3glm3vecILi3EdLNS8_9qualifierE0EEESaISB_EESt4hashIS6_ESt8equal_toIS6_ESaISt4pairIKS6_SD_EEEET_RKN8nlohmann10basic_jsonISt3mapS7_S6_blmdSaNSO_14adl_serializerEEES6_SN_,@function
_Z11getOptionalISt13unordered_mapINSt7__cxx1112basic_stringIcSt11char_traitsIcESaIcEEESt6vectorIN3glm3vecILi3EdLNS8_9qualifierE0EEESaISB_EESt4hashIS6_ESt8equal_toIS6_ESaISt4pairIKS6_SD_EEEET_RKN8nlohmann10basic_jsonISt3mapS7_S6_blmdSaNSO_14adl_serializerEEES6_SN_: # @_Z11getOptionalISt13unordered_mapINSt7__cxx1112basic_stringIcSt11char_traitsIcESaIcEEESt6vectorIN3glm3vecILi3EdLNS8_9qualifierE0EEESaISB_EESt4hashIS6_ESt8equal_toIS6_ESaISt4pairIKS6_SD_EEEET_RKN8nlohmann10basic_jsonISt3mapS7_S6_blmdSaNSO_14adl_serializerEEES6_SN_
.Lfunc_begin4:
	.cfi_startproc
	.cfi_personality 155, DW.ref.__gxx_personality_v0
	.cfi_lsda 27, .Lexception4
# %bb.0:                                # %entry
	addi	sp, sp, -208
	.cfi_def_cfa_offset 208
	sd	ra, 200(sp)
	sd	s0, 192(sp)
	sd	s1, 184(sp)
	sd	s2, 176(sp)
	sd	s3, 168(sp)
	.cfi_offset ra, -8
	.cfi_offset s0, -16
	.cfi_offset s1, -24
	.cfi_offset s2, -32
	.cfi_offset s3, -40
	addi	s0, sp, 208
	.cfi_def_cfa s0, 0
	mv	s2, a2
	mv	s1, a0
	sd	s1, -48(s0)
	sd	a1, -56(s0)
	sb	zero, -57(s0)
	mv	a0, s1
	mv	a1, a3
	call	_ZNSt13unordered_mapINSt7__cxx1112basic_stringIcSt11char_traitsIcESaIcEEESt6vectorIN3glm3vecILi3EdLNS7_9qualifierE0EEESaISA_EESt4hashIS5_ESt8equal_toIS5_ESaISt4pairIKS5_SC_EEEC2ERKSL_
	ld	a1, -56(s0)
.Ltmp362:
	addi	a0, s0, -96
	mv	a2, s2
	call	_ZNK8nlohmann10basic_jsonISt3mapSt6vectorNSt7__cxx1112basic_stringIcSt11char_traitsIcESaIcEEEblmdSaNS_14adl_serializerEE4findIRS8_EENS_6detail9iter_implIKSA_EEOT_
.Ltmp363:
	j	.LBB12_1
.LBB12_1:                               # %invoke.cont
	ld	a1, -56(s0)
	addi	s3, s0, -144
	mv	a0, s3
	call	_ZNK8nlohmann10basic_jsonISt3mapSt6vectorNSt7__cxx1112basic_stringIcSt11char_traitsIcESaIcEEEblmdSaNS_14adl_serializerEE3endEv
.Ltmp364:
	addi	a0, s0, -96
	mv	a1, s3
	call	_ZNK8nlohmann6detail9iter_implIKNS_10basic_jsonISt3mapSt6vectorNSt7__cxx1112basic_stringIcSt11char_traitsIcESaIcEEEblmdSaNS_14adl_serializerEEEEneERKSE_
.Ltmp365:
	j	.LBB12_2
.LBB12_2:                               # %invoke.cont2
	andi	a0, a0, 1
	beqz	a0, .LBB12_7
	j	.LBB12_3
.LBB12_3:                               # %if.then
	ld	a0, -56(s0)
.Ltmp366:
	mv	a1, s2
	call	_ZNK8nlohmann10basic_jsonISt3mapSt6vectorNSt7__cxx1112basic_stringIcSt11char_traitsIcESaIcEEEblmdSaNS_14adl_serializerEE2atERKS8_
	mv	a1, a0
.Ltmp367:
	j	.LBB12_4
.LBB12_4:                               # %invoke.cont4
.Ltmp368:
	addi	a0, s0, -200
	call	_ZNK8nlohmann10basic_jsonISt3mapSt6vectorNSt7__cxx1112basic_stringIcSt11char_traitsIcESaIcEEEblmdSaNS_14adl_serializerEE3getISt13unordered_mapIS8_S2_IN3glm3vecILi3EdLNSD_9qualifierE0EEESaISG_EESt4hashIS8_ESt8equal_toIS8_ESaISt4pairIKS8_SI_EEESR_Li0EEET0_v
.Ltmp369:
	j	.LBB12_5
.LBB12_5:                               # %invoke.cont6
	addi	s2, s0, -200
	mv	a0, s1
	mv	a1, s2
	call	_ZNSt13unordered_mapINSt7__cxx1112basic_stringIcSt11char_traitsIcESaIcEEESt6vectorIN3glm3vecILi3EdLNS7_9qualifierE0EEESaISA_EESt4hashIS5_ESt8equal_toIS5_ESaISt4pairIKS5_SC_EEEaSEOSL_
	mv	a0, s2
	call	_ZNSt13unordered_mapINSt7__cxx1112basic_stringIcSt11char_traitsIcESaIcEEESt6vectorIN3glm3vecILi3EdLNS7_9qualifierE0EEESaISA_EESt4hashIS5_ESt8equal_toIS5_ESaISt4pairIKS5_SC_EEED2Ev
	j	.LBB12_7
.LBB12_6:                               # %lpad
.Ltmp370:
	sd	a0, -104(s0)
	sw	a1, -108(s0)
	mv	a0, s1
	call	_ZNSt13unordered_mapINSt7__cxx1112basic_stringIcSt11char_traitsIcESaIcEEESt6vectorIN3glm3vecILi3EdLNS7_9qualifierE0EEESaISA_EESt4hashIS5_ESt8equal_toIS5_ESaISt4pairIKS5_SC_EEED2Ev
	j	.LBB12_10
.LBB12_7:                               # %if.end
	addi	a0, zero, 1
	sb	a0, -57(s0)
	lbu	a0, -57(s0)
	bnez	a0, .LBB12_9
	j	.LBB12_8
.LBB12_8:                               # %nrvo.unused
	mv	a0, s1
	call	_ZNSt13unordered_mapINSt7__cxx1112basic_stringIcSt11char_traitsIcESaIcEEESt6vectorIN3glm3vecILi3EdLNS7_9qualifierE0EEESaISA_EESt4hashIS5_ESt8equal_toIS5_ESaISt4pairIKS5_SC_EEED2Ev
	j	.LBB12_9
.LBB12_9:                               # %nrvo.skipdtor
	ld	s3, 168(sp)
	ld	s2, 176(sp)
	ld	s1, 184(sp)
	ld	s0, 192(sp)
	.cfi_def_cfa sp, 208
	ld	ra, 200(sp)
	.cfi_restore ra
	.cfi_restore s0
	.cfi_restore s1
	.cfi_restore s2
	.cfi_restore s3
	addi	sp, sp, 208
	.cfi_def_cfa_offset 0
	ret
.LBB12_10:                              # %eh.resume
	ld	a0, -104(s0)
	call	_Unwind_Resume
.Lfunc_end12:
	.size	_Z11getOptionalISt13unordered_mapINSt7__cxx1112basic_stringIcSt11char_traitsIcESaIcEEESt6vectorIN3glm3vecILi3EdLNS8_9qualifierE0EEESaISB_EESt4hashIS6_ESt8equal_toIS6_ESaISt4pairIKS6_SD_EEEET_RKN8nlohmann10basic_jsonISt3mapS7_S6_blmdSaNSO_14adl_serializerEEES6_SN_, .Lfunc_end12-_Z11getOptionalISt13unordered_mapINSt7__cxx1112basic_stringIcSt11char_traitsIcESaIcEEESt6vectorIN3glm3vecILi3EdLNS8_9qualifierE0EEESaISB_EESt4hashIS6_ESt8equal_toIS6_ESaISt4pairIKS6_SD_EEEET_RKN8nlohmann10basic_jsonISt3mapS7_S6_blmdSaNSO_14adl_serializerEEES6_SN_
	.cfi_endproc
	.section	.gcc_except_table,"a",@progbits
	.p2align	2
GCC_except_table12:
.Lexception4:
	.byte	255                     # @LPStart Encoding = omit
	.byte	255                     # @TType Encoding = omit
	.byte	3                       # Call site Encoding = udata4
	.uleb128 .Lcst_end4-.Lcst_begin4
.Lcst_begin4:
	.word	.Lfunc_begin4-.Lfunc_begin4 # >> Call Site 1 <<
	.word	.Ltmp362-.Lfunc_begin4  #   Call between .Lfunc_begin4 and .Ltmp362
	.word	0                       #     has no landing pad
	.byte	0                       #   On action: cleanup
	.word	.Ltmp362-.Lfunc_begin4  # >> Call Site 2 <<
	.word	.Ltmp369-.Ltmp362       #   Call between .Ltmp362 and .Ltmp369
	.word	.Ltmp370-.Lfunc_begin4  #     jumps to .Ltmp370
	.byte	0                       #   On action: cleanup
	.word	.Ltmp369-.Lfunc_begin4  # >> Call Site 3 <<
	.word	.Lfunc_end12-.Ltmp369   #   Call between .Ltmp369 and .Lfunc_end12
	.word	0                       #     has no landing pad
	.byte	0                       #   On action: cleanup
.Lcst_end4:
	.p2align	2
                                        # -- End function
	.section	.text._ZNSt13unordered_mapINSt7__cxx1112basic_stringIcSt11char_traitsIcESaIcEEESt6vectorIN3glm3vecILi3EdLNS7_9qualifierE0EEESaISA_EESt4hashIS5_ESt8equal_toIS5_ESaISt4pairIKS5_SC_EEEC2Ev,"axG",@progbits,_ZNSt13unordered_mapINSt7__cxx1112basic_stringIcSt11char_traitsIcESaIcEEESt6vectorIN3glm3vecILi3EdLNS7_9qualifierE0EEESaISA_EESt4hashIS5_ESt8equal_toIS5_ESaISt4pairIKS5_SC_EEEC2Ev,comdat
	.weak	_ZNSt13unordered_mapINSt7__cxx1112basic_stringIcSt11char_traitsIcESaIcEEESt6vectorIN3glm3vecILi3EdLNS7_9qualifierE0EEESaISA_EESt4hashIS5_ESt8equal_toIS5_ESaISt4pairIKS5_SC_EEEC2Ev # -- Begin function _ZNSt13unordered_mapINSt7__cxx1112basic_stringIcSt11char_traitsIcESaIcEEESt6vectorIN3glm3vecILi3EdLNS7_9qualifierE0EEESaISA_EESt4hashIS5_ESt8equal_toIS5_ESaISt4pairIKS5_SC_EEEC2Ev
	.p2align	2
	.type	_ZNSt13unordered_mapINSt7__cxx1112basic_stringIcSt11char_traitsIcESaIcEEESt6vectorIN3glm3vecILi3EdLNS7_9qualifierE0EEESaISA_EESt4hashIS5_ESt8equal_toIS5_ESaISt4pairIKS5_SC_EEEC2Ev,@function
_ZNSt13unordered_mapINSt7__cxx1112basic_stringIcSt11char_traitsIcESaIcEEESt6vectorIN3glm3vecILi3EdLNS7_9qualifierE0EEESaISA_EESt4hashIS5_ESt8equal_toIS5_ESaISt4pairIKS5_SC_EEEC2Ev: # @_ZNSt13unordered_mapINSt7__cxx1112basic_stringIcSt11char_traitsIcESaIcEEESt6vectorIN3glm3vecILi3EdLNS7_9qualifierE0EEESaISA_EESt4hashIS5_ESt8equal_toIS5_ESaISt4pairIKS5_SC_EEEC2Ev
# %bb.0:                                # %entry
	addi	sp, sp, -32
	sd	ra, 24(sp)
	sd	s0, 16(sp)
	addi	s0, sp, 32
	sd	a0, -24(s0)
	ld	a0, -24(s0)
	call	_ZNSt10_HashtableINSt7__cxx1112basic_stringIcSt11char_traitsIcESaIcEEESt4pairIKS5_St6vectorIN3glm3vecILi3EdLNS9_9qualifierE0EEESaISC_EEESaISF_ENSt8__detail10_Select1stESt8equal_toIS5_ESt4hashIS5_ENSH_18_Mod_range_hashingENSH_20_Default_ranged_hashENSH_20_Prime_rehash_policyENSH_17_Hashtable_traitsILb1ELb0ELb1EEEEC2Ev
	ld	s0, 16(sp)
	ld	ra, 24(sp)
	addi	sp, sp, 32
	ret
.Lfunc_end13:
	.size	_ZNSt13unordered_mapINSt7__cxx1112basic_stringIcSt11char_traitsIcESaIcEEESt6vectorIN3glm3vecILi3EdLNS7_9qualifierE0EEESaISA_EESt4hashIS5_ESt8equal_toIS5_ESaISt4pairIKS5_SC_EEEC2Ev, .Lfunc_end13-_ZNSt13unordered_mapINSt7__cxx1112basic_stringIcSt11char_traitsIcESaIcEEESt6vectorIN3glm3vecILi3EdLNS7_9qualifierE0EEESaISA_EESt4hashIS5_ESt8equal_toIS5_ESaISt4pairIKS5_SC_EEEC2Ev
                                        # -- End function
	.section	.text._ZNSt13unordered_mapINSt7__cxx1112basic_stringIcSt11char_traitsIcESaIcEEESt6vectorIN3glm3vecILi3EdLNS7_9qualifierE0EEESaISA_EESt4hashIS5_ESt8equal_toIS5_ESaISt4pairIKS5_SC_EEED2Ev,"axG",@progbits,_ZNSt13unordered_mapINSt7__cxx1112basic_stringIcSt11char_traitsIcESaIcEEESt6vectorIN3glm3vecILi3EdLNS7_9qualifierE0EEESaISA_EESt4hashIS5_ESt8equal_toIS5_ESaISt4pairIKS5_SC_EEED2Ev,comdat
	.weak	_ZNSt13unordered_mapINSt7__cxx1112basic_stringIcSt11char_traitsIcESaIcEEESt6vectorIN3glm3vecILi3EdLNS7_9qualifierE0EEESaISA_EESt4hashIS5_ESt8equal_toIS5_ESaISt4pairIKS5_SC_EEED2Ev # -- Begin function _ZNSt13unordered_mapINSt7__cxx1112basic_stringIcSt11char_traitsIcESaIcEEESt6vectorIN3glm3vecILi3EdLNS7_9qualifierE0EEESaISA_EESt4hashIS5_ESt8equal_toIS5_ESaISt4pairIKS5_SC_EEED2Ev
	.p2align	2
	.type	_ZNSt13unordered_mapINSt7__cxx1112basic_stringIcSt11char_traitsIcESaIcEEESt6vectorIN3glm3vecILi3EdLNS7_9qualifierE0EEESaISA_EESt4hashIS5_ESt8equal_toIS5_ESaISt4pairIKS5_SC_EEED2Ev,@function
_ZNSt13unordered_mapINSt7__cxx1112basic_stringIcSt11char_traitsIcESaIcEEESt6vectorIN3glm3vecILi3EdLNS7_9qualifierE0EEESaISA_EESt4hashIS5_ESt8equal_toIS5_ESaISt4pairIKS5_SC_EEED2Ev: # @_ZNSt13unordered_mapINSt7__cxx1112basic_stringIcSt11char_traitsIcESaIcEEESt6vectorIN3glm3vecILi3EdLNS7_9qualifierE0EEESaISA_EESt4hashIS5_ESt8equal_toIS5_ESaISt4pairIKS5_SC_EEED2Ev
# %bb.0:                                # %entry
	addi	sp, sp, -32
	sd	ra, 24(sp)
	sd	s0, 16(sp)
	addi	s0, sp, 32
	sd	a0, -24(s0)
	ld	a0, -24(s0)
	call	_ZNSt10_HashtableINSt7__cxx1112basic_stringIcSt11char_traitsIcESaIcEEESt4pairIKS5_St6vectorIN3glm3vecILi3EdLNS9_9qualifierE0EEESaISC_EEESaISF_ENSt8__detail10_Select1stESt8equal_toIS5_ESt4hashIS5_ENSH_18_Mod_range_hashingENSH_20_Default_ranged_hashENSH_20_Prime_rehash_policyENSH_17_Hashtable_traitsILb1ELb0ELb1EEEED2Ev
	ld	s0, 16(sp)
	ld	ra, 24(sp)
	addi	sp, sp, 32
	ret
.Lfunc_end14:
	.size	_ZNSt13unordered_mapINSt7__cxx1112basic_stringIcSt11char_traitsIcESaIcEEESt6vectorIN3glm3vecILi3EdLNS7_9qualifierE0EEESaISA_EESt4hashIS5_ESt8equal_toIS5_ESaISt4pairIKS5_SC_EEED2Ev, .Lfunc_end14-_ZNSt13unordered_mapINSt7__cxx1112basic_stringIcSt11char_traitsIcESaIcEEESt6vectorIN3glm3vecILi3EdLNS7_9qualifierE0EEESaISA_EESt4hashIS5_ESt8equal_toIS5_ESaISt4pairIKS5_SC_EEED2Ev
                                        # -- End function
	.section	.text._Z11getOptionalIdET_RKN8nlohmann10basic_jsonISt3mapSt6vectorNSt7__cxx1112basic_stringIcSt11char_traitsIcESaIcEEEblmdSaNS1_14adl_serializerEEESA_S0_,"axG",@progbits,_Z11getOptionalIdET_RKN8nlohmann10basic_jsonISt3mapSt6vectorNSt7__cxx1112basic_stringIcSt11char_traitsIcESaIcEEEblmdSaNS1_14adl_serializerEEESA_S0_,comdat
	.weak	_Z11getOptionalIdET_RKN8nlohmann10basic_jsonISt3mapSt6vectorNSt7__cxx1112basic_stringIcSt11char_traitsIcESaIcEEEblmdSaNS1_14adl_serializerEEESA_S0_ # -- Begin function _Z11getOptionalIdET_RKN8nlohmann10basic_jsonISt3mapSt6vectorNSt7__cxx1112basic_stringIcSt11char_traitsIcESaIcEEEblmdSaNS1_14adl_serializerEEESA_S0_
	.p2align	2
	.type	_Z11getOptionalIdET_RKN8nlohmann10basic_jsonISt3mapSt6vectorNSt7__cxx1112basic_stringIcSt11char_traitsIcESaIcEEEblmdSaNS1_14adl_serializerEEESA_S0_,@function
_Z11getOptionalIdET_RKN8nlohmann10basic_jsonISt3mapSt6vectorNSt7__cxx1112basic_stringIcSt11char_traitsIcESaIcEEEblmdSaNS1_14adl_serializerEEESA_S0_: # @_Z11getOptionalIdET_RKN8nlohmann10basic_jsonISt3mapSt6vectorNSt7__cxx1112basic_stringIcSt11char_traitsIcESaIcEEEblmdSaNS1_14adl_serializerEEESA_S0_
	.cfi_startproc
# %bb.0:                                # %entry
	addi	sp, sp, -128
	.cfi_def_cfa_offset 128
	sd	ra, 120(sp)
	sd	s0, 112(sp)
	sd	s1, 104(sp)
	sd	s2, 96(sp)
	sd	s3, 88(sp)
	.cfi_offset ra, -8
	.cfi_offset s0, -16
	.cfi_offset s1, -24
	.cfi_offset s2, -32
	.cfi_offset s3, -40
	addi	s0, sp, 128
	.cfi_def_cfa s0, 0
	mv	s3, a1
	fmv.d.x	ft0, a2
	sd	a0, -48(s0)
	sd	a2, -56(s0)
	fld	ft0, -56(s0)
	fsd	ft0, -64(s0)
	ld	a1, -48(s0)
	addi	s2, s0, -96
	mv	a0, s2
	mv	a2, s3
	call	_ZNK8nlohmann10basic_jsonISt3mapSt6vectorNSt7__cxx1112basic_stringIcSt11char_traitsIcESaIcEEEblmdSaNS_14adl_serializerEE4findIRS8_EENS_6detail9iter_implIKSA_EEOT_
	ld	a1, -48(s0)
	addi	s1, s0, -128
	mv	a0, s1
	call	_ZNK8nlohmann10basic_jsonISt3mapSt6vectorNSt7__cxx1112basic_stringIcSt11char_traitsIcESaIcEEEblmdSaNS_14adl_serializerEE3endEv
	mv	a0, s2
	mv	a1, s1
	call	_ZNK8nlohmann6detail9iter_implIKNS_10basic_jsonISt3mapSt6vectorNSt7__cxx1112basic_stringIcSt11char_traitsIcESaIcEEEblmdSaNS_14adl_serializerEEEEneERKSE_
	beqz	a0, .LBB15_2
	j	.LBB15_1
.LBB15_1:                               # %if.then
	ld	a0, -48(s0)
	mv	a1, s3
	call	_ZNK8nlohmann10basic_jsonISt3mapSt6vectorNSt7__cxx1112basic_stringIcSt11char_traitsIcESaIcEEEblmdSaNS_14adl_serializerEE2atERKS8_
	call	_ZNK8nlohmann10basic_jsonISt3mapSt6vectorNSt7__cxx1112basic_stringIcSt11char_traitsIcESaIcEEEblmdSaNS_14adl_serializerEE3getIddLi0EEET0_v
	sd	a0, -64(s0)
	j	.LBB15_2
.LBB15_2:                               # %if.end
	ld	a0, -64(s0)
	ld	s3, 88(sp)
	ld	s2, 96(sp)
	ld	s1, 104(sp)
	ld	s0, 112(sp)
	.cfi_def_cfa sp, 128
	ld	ra, 120(sp)
	.cfi_restore ra
	.cfi_restore s0
	.cfi_restore s1
	.cfi_restore s2
	.cfi_restore s3
	addi	sp, sp, 128
	.cfi_def_cfa_offset 0
	ret
.Lfunc_end15:
	.size	_Z11getOptionalIdET_RKN8nlohmann10basic_jsonISt3mapSt6vectorNSt7__cxx1112basic_stringIcSt11char_traitsIcESaIcEEEblmdSaNS1_14adl_serializerEEESA_S0_, .Lfunc_end15-_Z11getOptionalIdET_RKN8nlohmann10basic_jsonISt3mapSt6vectorNSt7__cxx1112basic_stringIcSt11char_traitsIcESaIcEEEblmdSaNS1_14adl_serializerEEESA_S0_
	.cfi_endproc
                                        # -- End function
	.section	.text._ZNK8nlohmann10basic_jsonISt3mapSt6vectorNSt7__cxx1112basic_stringIcSt11char_traitsIcESaIcEEEblmdSaNS_14adl_serializerEE5beginEv,"axG",@progbits,_ZNK8nlohmann10basic_jsonISt3mapSt6vectorNSt7__cxx1112basic_stringIcSt11char_traitsIcESaIcEEEblmdSaNS_14adl_serializerEE5beginEv,comdat
	.weak	_ZNK8nlohmann10basic_jsonISt3mapSt6vectorNSt7__cxx1112basic_stringIcSt11char_traitsIcESaIcEEEblmdSaNS_14adl_serializerEE5beginEv # -- Begin function _ZNK8nlohmann10basic_jsonISt3mapSt6vectorNSt7__cxx1112basic_stringIcSt11char_traitsIcESaIcEEEblmdSaNS_14adl_serializerEE5beginEv
	.p2align	2
	.type	_ZNK8nlohmann10basic_jsonISt3mapSt6vectorNSt7__cxx1112basic_stringIcSt11char_traitsIcESaIcEEEblmdSaNS_14adl_serializerEE5beginEv,@function
_ZNK8nlohmann10basic_jsonISt3mapSt6vectorNSt7__cxx1112basic_stringIcSt11char_traitsIcESaIcEEEblmdSaNS_14adl_serializerEE5beginEv: # @_ZNK8nlohmann10basic_jsonISt3mapSt6vectorNSt7__cxx1112basic_stringIcSt11char_traitsIcESaIcEEEblmdSaNS_14adl_serializerEE5beginEv
# %bb.0:                                # %entry
	addi	sp, sp, -32
	sd	ra, 24(sp)
	sd	s0, 16(sp)
	addi	s0, sp, 32
	sd	a0, -24(s0)
	sd	a1, -32(s0)
	ld	a1, -32(s0)
	call	_ZNK8nlohmann10basic_jsonISt3mapSt6vectorNSt7__cxx1112basic_stringIcSt11char_traitsIcESaIcEEEblmdSaNS_14adl_serializerEE6cbeginEv
	ld	s0, 16(sp)
	ld	ra, 24(sp)
	addi	sp, sp, 32
	ret
.Lfunc_end16:
	.size	_ZNK8nlohmann10basic_jsonISt3mapSt6vectorNSt7__cxx1112basic_stringIcSt11char_traitsIcESaIcEEEblmdSaNS_14adl_serializerEE5beginEv, .Lfunc_end16-_ZNK8nlohmann10basic_jsonISt3mapSt6vectorNSt7__cxx1112basic_stringIcSt11char_traitsIcESaIcEEEblmdSaNS_14adl_serializerEE5beginEv
                                        # -- End function
	.section	.text._ZNK8nlohmann10basic_jsonISt3mapSt6vectorNSt7__cxx1112basic_stringIcSt11char_traitsIcESaIcEEEblmdSaNS_14adl_serializerEE3endEv,"axG",@progbits,_ZNK8nlohmann10basic_jsonISt3mapSt6vectorNSt7__cxx1112basic_stringIcSt11char_traitsIcESaIcEEEblmdSaNS_14adl_serializerEE3endEv,comdat
	.weak	_ZNK8nlohmann10basic_jsonISt3mapSt6vectorNSt7__cxx1112basic_stringIcSt11char_traitsIcESaIcEEEblmdSaNS_14adl_serializerEE3endEv # -- Begin function _ZNK8nlohmann10basic_jsonISt3mapSt6vectorNSt7__cxx1112basic_stringIcSt11char_traitsIcESaIcEEEblmdSaNS_14adl_serializerEE3endEv
	.p2align	2
	.type	_ZNK8nlohmann10basic_jsonISt3mapSt6vectorNSt7__cxx1112basic_stringIcSt11char_traitsIcESaIcEEEblmdSaNS_14adl_serializerEE3endEv,@function
_ZNK8nlohmann10basic_jsonISt3mapSt6vectorNSt7__cxx1112basic_stringIcSt11char_traitsIcESaIcEEEblmdSaNS_14adl_serializerEE3endEv: # @_ZNK8nlohmann10basic_jsonISt3mapSt6vectorNSt7__cxx1112basic_stringIcSt11char_traitsIcESaIcEEEblmdSaNS_14adl_serializerEE3endEv
# %bb.0:                                # %entry
	addi	sp, sp, -32
	sd	ra, 24(sp)
	sd	s0, 16(sp)
	addi	s0, sp, 32
	sd	a0, -24(s0)
	sd	a1, -32(s0)
	ld	a1, -32(s0)
	call	_ZNK8nlohmann10basic_jsonISt3mapSt6vectorNSt7__cxx1112basic_stringIcSt11char_traitsIcESaIcEEEblmdSaNS_14adl_serializerEE4cendEv
	ld	s0, 16(sp)
	ld	ra, 24(sp)
	addi	sp, sp, 32
	ret
.Lfunc_end17:
	.size	_ZNK8nlohmann10basic_jsonISt3mapSt6vectorNSt7__cxx1112basic_stringIcSt11char_traitsIcESaIcEEEblmdSaNS_14adl_serializerEE3endEv, .Lfunc_end17-_ZNK8nlohmann10basic_jsonISt3mapSt6vectorNSt7__cxx1112basic_stringIcSt11char_traitsIcESaIcEEEblmdSaNS_14adl_serializerEE3endEv
                                        # -- End function
	.section	.text._ZNK8nlohmann6detail9iter_implIKNS_10basic_jsonISt3mapSt6vectorNSt7__cxx1112basic_stringIcSt11char_traitsIcESaIcEEEblmdSaNS_14adl_serializerEEEEneERKSE_,"axG",@progbits,_ZNK8nlohmann6detail9iter_implIKNS_10basic_jsonISt3mapSt6vectorNSt7__cxx1112basic_stringIcSt11char_traitsIcESaIcEEEblmdSaNS_14adl_serializerEEEEneERKSE_,comdat
	.weak	_ZNK8nlohmann6detail9iter_implIKNS_10basic_jsonISt3mapSt6vectorNSt7__cxx1112basic_stringIcSt11char_traitsIcESaIcEEEblmdSaNS_14adl_serializerEEEEneERKSE_ # -- Begin function _ZNK8nlohmann6detail9iter_implIKNS_10basic_jsonISt3mapSt6vectorNSt7__cxx1112basic_stringIcSt11char_traitsIcESaIcEEEblmdSaNS_14adl_serializerEEEEneERKSE_
	.p2align	2
	.type	_ZNK8nlohmann6detail9iter_implIKNS_10basic_jsonISt3mapSt6vectorNSt7__cxx1112basic_stringIcSt11char_traitsIcESaIcEEEblmdSaNS_14adl_serializerEEEEneERKSE_,@function
_ZNK8nlohmann6detail9iter_implIKNS_10basic_jsonISt3mapSt6vectorNSt7__cxx1112basic_stringIcSt11char_traitsIcESaIcEEEblmdSaNS_14adl_serializerEEEEneERKSE_: # @_ZNK8nlohmann6detail9iter_implIKNS_10basic_jsonISt3mapSt6vectorNSt7__cxx1112basic_stringIcSt11char_traitsIcESaIcEEEblmdSaNS_14adl_serializerEEEEneERKSE_
	.cfi_startproc
# %bb.0:                                # %entry
	addi	sp, sp, -32
	.cfi_def_cfa_offset 32
	sd	ra, 24(sp)
	sd	s0, 16(sp)
	.cfi_offset ra, -8
	.cfi_offset s0, -16
	addi	s0, sp, 32
	.cfi_def_cfa s0, 0
	sd	a0, -24(s0)
	sd	a1, -32(s0)
	ld	a0, -24(s0)
	ld	a1, -32(s0)
	call	_ZNK8nlohmann6detail9iter_implIKNS_10basic_jsonISt3mapSt6vectorNSt7__cxx1112basic_stringIcSt11char_traitsIcESaIcEEEblmdSaNS_14adl_serializerEEEEeqERKSE_
	xori	a0, a0, 1
	ld	s0, 16(sp)
	.cfi_def_cfa sp, 32
	ld	ra, 24(sp)
	.cfi_restore ra
	.cfi_restore s0
	addi	sp, sp, 32
	.cfi_def_cfa_offset 0
	ret
.Lfunc_end18:
	.size	_ZNK8nlohmann6detail9iter_implIKNS_10basic_jsonISt3mapSt6vectorNSt7__cxx1112basic_stringIcSt11char_traitsIcESaIcEEEblmdSaNS_14adl_serializerEEEEneERKSE_, .Lfunc_end18-_ZNK8nlohmann6detail9iter_implIKNS_10basic_jsonISt3mapSt6vectorNSt7__cxx1112basic_stringIcSt11char_traitsIcESaIcEEEblmdSaNS_14adl_serializerEEEEneERKSE_
	.cfi_endproc
                                        # -- End function
	.section	.text._ZNK8nlohmann6detail9iter_implIKNS_10basic_jsonISt3mapSt6vectorNSt7__cxx1112basic_stringIcSt11char_traitsIcESaIcEEEblmdSaNS_14adl_serializerEEEEdeEv,"axG",@progbits,_ZNK8nlohmann6detail9iter_implIKNS_10basic_jsonISt3mapSt6vectorNSt7__cxx1112basic_stringIcSt11char_traitsIcESaIcEEEblmdSaNS_14adl_serializerEEEEdeEv,comdat
	.weak	_ZNK8nlohmann6detail9iter_implIKNS_10basic_jsonISt3mapSt6vectorNSt7__cxx1112basic_stringIcSt11char_traitsIcESaIcEEEblmdSaNS_14adl_serializerEEEEdeEv # -- Begin function _ZNK8nlohmann6detail9iter_implIKNS_10basic_jsonISt3mapSt6vectorNSt7__cxx1112basic_stringIcSt11char_traitsIcESaIcEEEblmdSaNS_14adl_serializerEEEEdeEv
	.p2align	2
	.type	_ZNK8nlohmann6detail9iter_implIKNS_10basic_jsonISt3mapSt6vectorNSt7__cxx1112basic_stringIcSt11char_traitsIcESaIcEEEblmdSaNS_14adl_serializerEEEEdeEv,@function
_ZNK8nlohmann6detail9iter_implIKNS_10basic_jsonISt3mapSt6vectorNSt7__cxx1112basic_stringIcSt11char_traitsIcESaIcEEEblmdSaNS_14adl_serializerEEEEdeEv: # @_ZNK8nlohmann6detail9iter_implIKNS_10basic_jsonISt3mapSt6vectorNSt7__cxx1112basic_stringIcSt11char_traitsIcESaIcEEEblmdSaNS_14adl_serializerEEEEdeEv
.Lfunc_begin5:
	.cfi_startproc
	.cfi_personality 155, DW.ref.__gxx_personality_v0
	.cfi_lsda 27, .Lexception5
# %bb.0:                                # %entry
	addi	sp, sp, -160
	.cfi_def_cfa_offset 160
	sd	ra, 152(sp)
	sd	s0, 144(sp)
	sd	s1, 136(sp)
	sd	s2, 128(sp)
	.cfi_offset ra, -8
	.cfi_offset s0, -16
	.cfi_offset s1, -24
	.cfi_offset s2, -32
	addi	s0, sp, 160
	.cfi_def_cfa s0, 0
	sd	a0, -48(s0)
	ld	s1, -48(s0)
	ld	a0, 0(s1)
	lbu	a0, 0(a0)
	beqz	a0, .LBB19_5
	j	.LBB19_1
.LBB19_1:                               # %entry
	andi	a1, a0, 255
	addi	a2, zero, 1
	beq	a1, a2, .LBB19_3
	j	.LBB19_2
.LBB19_2:                               # %entry
	andi	a0, a0, 255
	addi	a1, zero, 2
	beq	a0, a1, .LBB19_4
	j	.LBB19_13
.LBB19_3:                               # %sw.bb
	addi	a0, s1, 8
	call	_ZNKSt17_Rb_tree_iteratorISt4pairIKNSt7__cxx1112basic_stringIcSt11char_traitsIcESaIcEEEN8nlohmann10basic_jsonISt3mapSt6vectorS6_blmdSaNS8_14adl_serializerEEEEEptEv
	addi	a0, a0, 32
	sd	a0, -40(s0)
	j	.LBB19_23
.LBB19_4:                               # %sw.bb2
	addi	a0, s1, 16
	call	_ZNK9__gnu_cxx17__normal_iteratorIPN8nlohmann10basic_jsonISt3mapSt6vectorNSt7__cxx1112basic_stringIcSt11char_traitsIcESaIcEEEblmdSaNS1_14adl_serializerEEES4_ISC_SaISC_EEEdeEv
	sd	a0, -40(s0)
	j	.LBB19_23
.LBB19_5:                               # %sw.bb5
	addi	a0, zero, 32
	call	__cxa_allocate_exception
	mv	s2, a0
	addi	a0, zero, 1
	sb	a0, -101(s0)
	addi	s1, s0, -88
	mv	a0, s1
	call	_ZNSaIcEC1Ev
.Ltmp371:
	lui	a0, %hi(.L.str.52)
	addi	a1, a0, %lo(.L.str.52)
	addi	a0, s0, -80
	mv	a2, s1
	call	_ZNSt7__cxx1112basic_stringIcSt11char_traitsIcESaIcEEC2IS3_EEPKcRKS3_
.Ltmp372:
	j	.LBB19_6
.LBB19_6:                               # %invoke.cont
.Ltmp374:
	addi	a2, s0, -80
	mv	a0, s2
	addi	a1, zero, 214
	call	_ZN8nlohmann6detail16invalid_iterator6createEiRKNSt7__cxx1112basic_stringIcSt11char_traitsIcESaIcEEE
.Ltmp375:
	j	.LBB19_7
.LBB19_7:                               # %invoke.cont8
	sb	zero, -101(s0)
.Ltmp376:
	lui	a0, %hi(_ZTIN8nlohmann6detail16invalid_iteratorE)
	addi	a1, a0, %lo(_ZTIN8nlohmann6detail16invalid_iteratorE)
	lui	a0, %hi(_ZN8nlohmann6detail16invalid_iteratorD2Ev)
	addi	a2, a0, %lo(_ZN8nlohmann6detail16invalid_iteratorD2Ev)
	mv	a0, s2
	call	__cxa_throw
.Ltmp377:
	j	.LBB19_25
.LBB19_8:                               # %lpad
.Ltmp373:
	sd	a0, -96(s0)
	sw	a1, -100(s0)
	j	.LBB19_10
.LBB19_9:                               # %lpad7
.Ltmp378:
	sd	a0, -96(s0)
	sw	a1, -100(s0)
	addi	a0, s0, -80
	call	_ZNSt7__cxx1112basic_stringIcSt11char_traitsIcESaIcEED1Ev
	j	.LBB19_10
.LBB19_10:                              # %ehcleanup
	addi	a0, s0, -88
	call	_ZNSaIcED1Ev
	lbu	a0, -101(s0)
	beqz	a0, .LBB19_12
	j	.LBB19_11
.LBB19_11:                              # %cleanup.action
	mv	a0, s2
	call	__cxa_free_exception
	j	.LBB19_12
.LBB19_12:                              # %cleanup.done
	j	.LBB19_24
.LBB19_13:                              # %sw.default
	addi	a0, s1, 24
	call	_ZNK8nlohmann6detail20primitive_iterator_t8is_beginEv
	beqz	a0, .LBB19_15
	j	.LBB19_14
.LBB19_14:                              # %if.then
	ld	a0, 0(s1)
	sd	a0, -40(s0)
	j	.LBB19_23
.LBB19_15:                              # %if.end
	addi	a0, zero, 32
	call	__cxa_allocate_exception
	mv	s2, a0
	addi	a0, zero, 1
	sb	a0, -145(s0)
	addi	s1, s0, -144
	mv	a0, s1
	call	_ZNSaIcEC1Ev
.Ltmp379:
	lui	a0, %hi(.L.str.52)
	addi	a1, a0, %lo(.L.str.52)
	addi	a0, s0, -136
	mv	a2, s1
	call	_ZNSt7__cxx1112basic_stringIcSt11char_traitsIcESaIcEEC2IS3_EEPKcRKS3_
.Ltmp380:
	j	.LBB19_16
.LBB19_16:                              # %invoke.cont18
.Ltmp382:
	addi	a2, s0, -136
	mv	a0, s2
	addi	a1, zero, 214
	call	_ZN8nlohmann6detail16invalid_iterator6createEiRKNSt7__cxx1112basic_stringIcSt11char_traitsIcESaIcEEE
.Ltmp383:
	j	.LBB19_17
.LBB19_17:                              # %invoke.cont20
	sb	zero, -145(s0)
.Ltmp384:
	lui	a0, %hi(_ZTIN8nlohmann6detail16invalid_iteratorE)
	addi	a1, a0, %lo(_ZTIN8nlohmann6detail16invalid_iteratorE)
	lui	a0, %hi(_ZN8nlohmann6detail16invalid_iteratorD2Ev)
	addi	a2, a0, %lo(_ZN8nlohmann6detail16invalid_iteratorD2Ev)
	mv	a0, s2
	call	__cxa_throw
.Ltmp385:
	j	.LBB19_25
.LBB19_18:                              # %lpad17
.Ltmp381:
	sd	a0, -96(s0)
	sw	a1, -100(s0)
	j	.LBB19_20
.LBB19_19:                              # %lpad19
.Ltmp386:
	sd	a0, -96(s0)
	sw	a1, -100(s0)
	addi	a0, s0, -136
	call	_ZNSt7__cxx1112basic_stringIcSt11char_traitsIcESaIcEED1Ev
	j	.LBB19_20
.LBB19_20:                              # %ehcleanup23
	addi	a0, s0, -144
	call	_ZNSaIcED1Ev
	lbu	a0, -145(s0)
	beqz	a0, .LBB19_22
	j	.LBB19_21
.LBB19_21:                              # %cleanup.action26
	mv	a0, s2
	call	__cxa_free_exception
	j	.LBB19_22
.LBB19_22:                              # %cleanup.done27
	j	.LBB19_24
.LBB19_23:                              # %return
	ld	a0, -40(s0)
	ld	s2, 128(sp)
	ld	s1, 136(sp)
	ld	s0, 144(sp)
	.cfi_def_cfa sp, 160
	ld	ra, 152(sp)
	.cfi_restore ra
	.cfi_restore s0
	.cfi_restore s1
	.cfi_restore s2
	addi	sp, sp, 160
	.cfi_def_cfa_offset 0
	ret
.LBB19_24:                              # %eh.resume
	ld	a0, -96(s0)
	call	_Unwind_Resume
.LBB19_25:                              # %unreachable
.Lfunc_end19:
	.size	_ZNK8nlohmann6detail9iter_implIKNS_10basic_jsonISt3mapSt6vectorNSt7__cxx1112basic_stringIcSt11char_traitsIcESaIcEEEblmdSaNS_14adl_serializerEEEEdeEv, .Lfunc_end19-_ZNK8nlohmann6detail9iter_implIKNS_10basic_jsonISt3mapSt6vectorNSt7__cxx1112basic_stringIcSt11char_traitsIcESaIcEEEblmdSaNS_14adl_serializerEEEEdeEv
	.cfi_endproc
	.section	.gcc_except_table,"a",@progbits
	.p2align	2
GCC_except_table19:
.Lexception5:
	.byte	255                     # @LPStart Encoding = omit
	.byte	255                     # @TType Encoding = omit
	.byte	3                       # Call site Encoding = udata4
	.uleb128 .Lcst_end5-.Lcst_begin5
.Lcst_begin5:
	.word	.Lfunc_begin5-.Lfunc_begin5 # >> Call Site 1 <<
	.word	.Ltmp371-.Lfunc_begin5  #   Call between .Lfunc_begin5 and .Ltmp371
	.word	0                       #     has no landing pad
	.byte	0                       #   On action: cleanup
	.word	.Ltmp371-.Lfunc_begin5  # >> Call Site 2 <<
	.word	.Ltmp372-.Ltmp371       #   Call between .Ltmp371 and .Ltmp372
	.word	.Ltmp373-.Lfunc_begin5  #     jumps to .Ltmp373
	.byte	0                       #   On action: cleanup
	.word	.Ltmp374-.Lfunc_begin5  # >> Call Site 3 <<
	.word	.Ltmp377-.Ltmp374       #   Call between .Ltmp374 and .Ltmp377
	.word	.Ltmp378-.Lfunc_begin5  #     jumps to .Ltmp378
	.byte	0                       #   On action: cleanup
	.word	.Ltmp377-.Lfunc_begin5  # >> Call Site 4 <<
	.word	.Ltmp379-.Ltmp377       #   Call between .Ltmp377 and .Ltmp379
	.word	0                       #     has no landing pad
	.byte	0                       #   On action: cleanup
	.word	.Ltmp379-.Lfunc_begin5  # >> Call Site 5 <<
	.word	.Ltmp380-.Ltmp379       #   Call between .Ltmp379 and .Ltmp380
	.word	.Ltmp381-.Lfunc_begin5  #     jumps to .Ltmp381
	.byte	0                       #   On action: cleanup
	.word	.Ltmp382-.Lfunc_begin5  # >> Call Site 6 <<
	.word	.Ltmp385-.Ltmp382       #   Call between .Ltmp382 and .Ltmp385
	.word	.Ltmp386-.Lfunc_begin5  #     jumps to .Ltmp386
	.byte	0                       #   On action: cleanup
	.word	.Ltmp385-.Lfunc_begin5  # >> Call Site 7 <<
	.word	.Lfunc_end19-.Ltmp385   #   Call between .Ltmp385 and .Lfunc_end19
	.word	0                       #     has no landing pad
	.byte	0                       #   On action: cleanup
.Lcst_end5:
	.p2align	2
                                        # -- End function
	.section	.text._ZNK8nlohmann10basic_jsonISt3mapSt6vectorNSt7__cxx1112basic_stringIcSt11char_traitsIcESaIcEEEblmdSaNS_14adl_serializerEE4findIRA9_KcEENS_6detail9iter_implIKSA_EEOT_,"axG",@progbits,_ZNK8nlohmann10basic_jsonISt3mapSt6vectorNSt7__cxx1112basic_stringIcSt11char_traitsIcESaIcEEEblmdSaNS_14adl_serializerEE4findIRA9_KcEENS_6detail9iter_implIKSA_EEOT_,comdat
	.weak	_ZNK8nlohmann10basic_jsonISt3mapSt6vectorNSt7__cxx1112basic_stringIcSt11char_traitsIcESaIcEEEblmdSaNS_14adl_serializerEE4findIRA9_KcEENS_6detail9iter_implIKSA_EEOT_ # -- Begin function _ZNK8nlohmann10basic_jsonISt3mapSt6vectorNSt7__cxx1112basic_stringIcSt11char_traitsIcESaIcEEEblmdSaNS_14adl_serializerEE4findIRA9_KcEENS_6detail9iter_implIKSA_EEOT_
	.p2align	2
	.type	_ZNK8nlohmann10basic_jsonISt3mapSt6vectorNSt7__cxx1112basic_stringIcSt11char_traitsIcESaIcEEEblmdSaNS_14adl_serializerEE4findIRA9_KcEENS_6detail9iter_implIKSA_EEOT_,@function
_ZNK8nlohmann10basic_jsonISt3mapSt6vectorNSt7__cxx1112basic_stringIcSt11char_traitsIcESaIcEEEblmdSaNS_14adl_serializerEE4findIRA9_KcEENS_6detail9iter_implIKSA_EEOT_: # @_ZNK8nlohmann10basic_jsonISt3mapSt6vectorNSt7__cxx1112basic_stringIcSt11char_traitsIcESaIcEEEblmdSaNS_14adl_serializerEE4findIRA9_KcEENS_6detail9iter_implIKSA_EEOT_
	.cfi_startproc
# %bb.0:                                # %entry
	addi	sp, sp, -64
	.cfi_def_cfa_offset 64
	sd	ra, 56(sp)
	sd	s0, 48(sp)
	sd	s1, 40(sp)
	sd	s2, 32(sp)
	.cfi_offset ra, -8
	.cfi_offset s0, -16
	.cfi_offset s1, -24
	.cfi_offset s2, -32
	addi	s0, sp, 64
	.cfi_def_cfa s0, 0
	mv	s2, a0
	sd	s2, -40(s0)
	sd	a1, -48(s0)
	sd	a2, -56(s0)
	ld	s1, -48(s0)
	mv	a0, s2
	mv	a1, s1
	call	_ZNK8nlohmann10basic_jsonISt3mapSt6vectorNSt7__cxx1112basic_stringIcSt11char_traitsIcESaIcEEEblmdSaNS_14adl_serializerEE4cendEv
	mv	a0, s1
	call	_ZNK8nlohmann10basic_jsonISt3mapSt6vectorNSt7__cxx1112basic_stringIcSt11char_traitsIcESaIcEEEblmdSaNS_14adl_serializerEE9is_objectEv
	beqz	a0, .LBB20_2
	j	.LBB20_1
.LBB20_1:                               # %if.then
	ld	s1, 8(s1)
	ld	a0, -56(s0)
	call	_ZSt7forwardIRA9_KcEOT_RNSt16remove_referenceIS3_E4typeE
	mv	a1, a0
	mv	a0, s1
	call	_ZNSt3mapINSt7__cxx1112basic_stringIcSt11char_traitsIcESaIcEEEN8nlohmann10basic_jsonIS_St6vectorS5_blmdSaNS6_14adl_serializerEEESt4lessIvESaISt4pairIKS5_SA_EEE4findIA9_cEEDTcldtdtdefpT4_M_t10_M_find_trfp_EERKT_
	sd	a0, -64(s0)
	ld	a0, -64(s0)
	sd	a0, 8(s2)
	j	.LBB20_2
.LBB20_2:                               # %if.end
	ld	s2, 32(sp)
	ld	s1, 40(sp)
	ld	s0, 48(sp)
	.cfi_def_cfa sp, 64
	ld	ra, 56(sp)
	.cfi_restore ra
	.cfi_restore s0
	.cfi_restore s1
	.cfi_restore s2
	addi	sp, sp, 64
	.cfi_def_cfa_offset 0
	ret
.Lfunc_end20:
	.size	_ZNK8nlohmann10basic_jsonISt3mapSt6vectorNSt7__cxx1112basic_stringIcSt11char_traitsIcESaIcEEEblmdSaNS_14adl_serializerEE4findIRA9_KcEENS_6detail9iter_implIKSA_EEOT_, .Lfunc_end20-_ZNK8nlohmann10basic_jsonISt3mapSt6vectorNSt7__cxx1112basic_stringIcSt11char_traitsIcESaIcEEEblmdSaNS_14adl_serializerEE4findIRA9_KcEENS_6detail9iter_implIKSA_EEOT_
	.cfi_endproc
                                        # -- End function
	.section	.text._ZNK8nlohmann10basic_jsonISt3mapSt6vectorNSt7__cxx1112basic_stringIcSt11char_traitsIcESaIcEEEblmdSaNS_14adl_serializerEEcvT_IS8_Li0EEEv,"axG",@progbits,_ZNK8nlohmann10basic_jsonISt3mapSt6vectorNSt7__cxx1112basic_stringIcSt11char_traitsIcESaIcEEEblmdSaNS_14adl_serializerEEcvT_IS8_Li0EEEv,comdat
	.weak	_ZNK8nlohmann10basic_jsonISt3mapSt6vectorNSt7__cxx1112basic_stringIcSt11char_traitsIcESaIcEEEblmdSaNS_14adl_serializerEEcvT_IS8_Li0EEEv # -- Begin function _ZNK8nlohmann10basic_jsonISt3mapSt6vectorNSt7__cxx1112basic_stringIcSt11char_traitsIcESaIcEEEblmdSaNS_14adl_serializerEEcvT_IS8_Li0EEEv
	.p2align	2
	.type	_ZNK8nlohmann10basic_jsonISt3mapSt6vectorNSt7__cxx1112basic_stringIcSt11char_traitsIcESaIcEEEblmdSaNS_14adl_serializerEEcvT_IS8_Li0EEEv,@function
_ZNK8nlohmann10basic_jsonISt3mapSt6vectorNSt7__cxx1112basic_stringIcSt11char_traitsIcESaIcEEEblmdSaNS_14adl_serializerEEcvT_IS8_Li0EEEv: # @_ZNK8nlohmann10basic_jsonISt3mapSt6vectorNSt7__cxx1112basic_stringIcSt11char_traitsIcESaIcEEEblmdSaNS_14adl_serializerEEcvT_IS8_Li0EEEv
	.cfi_startproc
# %bb.0:                                # %entry
	addi	sp, sp, -32
	.cfi_def_cfa_offset 32
	sd	ra, 24(sp)
	sd	s0, 16(sp)
	.cfi_offset ra, -8
	.cfi_offset s0, -16
	addi	s0, sp, 32
	.cfi_def_cfa s0, 0
	sd	a0, -24(s0)
	sd	a1, -32(s0)
	ld	a1, -32(s0)
	call	_ZNK8nlohmann10basic_jsonISt3mapSt6vectorNSt7__cxx1112basic_stringIcSt11char_traitsIcESaIcEEEblmdSaNS_14adl_serializerEE3getIS8_S8_Li0EEET0_v
	ld	s0, 16(sp)
	.cfi_def_cfa sp, 32
	ld	ra, 24(sp)
	.cfi_restore ra
	.cfi_restore s0
	addi	sp, sp, 32
	.cfi_def_cfa_offset 0
	ret
.Lfunc_end21:
	.size	_ZNK8nlohmann10basic_jsonISt3mapSt6vectorNSt7__cxx1112basic_stringIcSt11char_traitsIcESaIcEEEblmdSaNS_14adl_serializerEEcvT_IS8_Li0EEEv, .Lfunc_end21-_ZNK8nlohmann10basic_jsonISt3mapSt6vectorNSt7__cxx1112basic_stringIcSt11char_traitsIcESaIcEEEblmdSaNS_14adl_serializerEEcvT_IS8_Li0EEEv
	.cfi_endproc
                                        # -- End function
	.section	.text._ZNSt13unordered_mapINSt7__cxx1112basic_stringIcSt11char_traitsIcESaIcEEESt10shared_ptrI8MaterialESt4hashIS5_ESt8equal_toIS5_ESaISt4pairIKS5_S8_EEE2atERSE_,"axG",@progbits,_ZNSt13unordered_mapINSt7__cxx1112basic_stringIcSt11char_traitsIcESaIcEEESt10shared_ptrI8MaterialESt4hashIS5_ESt8equal_toIS5_ESaISt4pairIKS5_S8_EEE2atERSE_,comdat
	.weak	_ZNSt13unordered_mapINSt7__cxx1112basic_stringIcSt11char_traitsIcESaIcEEESt10shared_ptrI8MaterialESt4hashIS5_ESt8equal_toIS5_ESaISt4pairIKS5_S8_EEE2atERSE_ # -- Begin function _ZNSt13unordered_mapINSt7__cxx1112basic_stringIcSt11char_traitsIcESaIcEEESt10shared_ptrI8MaterialESt4hashIS5_ESt8equal_toIS5_ESaISt4pairIKS5_S8_EEE2atERSE_
	.p2align	2
	.type	_ZNSt13unordered_mapINSt7__cxx1112basic_stringIcSt11char_traitsIcESaIcEEESt10shared_ptrI8MaterialESt4hashIS5_ESt8equal_toIS5_ESaISt4pairIKS5_S8_EEE2atERSE_,@function
_ZNSt13unordered_mapINSt7__cxx1112basic_stringIcSt11char_traitsIcESaIcEEESt10shared_ptrI8MaterialESt4hashIS5_ESt8equal_toIS5_ESaISt4pairIKS5_S8_EEE2atERSE_: # @_ZNSt13unordered_mapINSt7__cxx1112basic_stringIcSt11char_traitsIcESaIcEEESt10shared_ptrI8MaterialESt4hashIS5_ESt8equal_toIS5_ESaISt4pairIKS5_S8_EEE2atERSE_
	.cfi_startproc
# %bb.0:                                # %entry
	addi	sp, sp, -32
	.cfi_def_cfa_offset 32
	sd	ra, 24(sp)
	sd	s0, 16(sp)
	.cfi_offset ra, -8
	.cfi_offset s0, -16
	addi	s0, sp, 32
	.cfi_def_cfa s0, 0
	sd	a0, -24(s0)
	sd	a1, -32(s0)
	ld	a0, -24(s0)
	ld	a1, -32(s0)
	call	_ZNSt8__detail9_Map_baseINSt7__cxx1112basic_stringIcSt11char_traitsIcESaIcEEESt4pairIKS6_St10shared_ptrI8MaterialEESaISC_ENS_10_Select1stESt8equal_toIS6_ESt4hashIS6_ENS_18_Mod_range_hashingENS_20_Default_ranged_hashENS_20_Prime_rehash_policyENS_17_Hashtable_traitsILb1ELb0ELb1EEELb1EE2atERS8_
	ld	s0, 16(sp)
	.cfi_def_cfa sp, 32
	ld	ra, 24(sp)
	.cfi_restore ra
	.cfi_restore s0
	addi	sp, sp, 32
	.cfi_def_cfa_offset 0
	ret
.Lfunc_end22:
	.size	_ZNSt13unordered_mapINSt7__cxx1112basic_stringIcSt11char_traitsIcESaIcEEESt10shared_ptrI8MaterialESt4hashIS5_ESt8equal_toIS5_ESaISt4pairIKS5_S8_EEE2atERSE_, .Lfunc_end22-_ZNSt13unordered_mapINSt7__cxx1112basic_stringIcSt11char_traitsIcESaIcEEESt10shared_ptrI8MaterialESt4hashIS5_ESt8equal_toIS5_ESaISt4pairIKS5_S8_EEE2atERSE_
	.cfi_endproc
                                        # -- End function
	.section	.text._ZNSt10unique_ptrI9TransformSt14default_deleteIS0_EEC2IS2_vEEv,"axG",@progbits,_ZNSt10unique_ptrI9TransformSt14default_deleteIS0_EEC2IS2_vEEv,comdat
	.weak	_ZNSt10unique_ptrI9TransformSt14default_deleteIS0_EEC2IS2_vEEv # -- Begin function _ZNSt10unique_ptrI9TransformSt14default_deleteIS0_EEC2IS2_vEEv
	.p2align	2
	.type	_ZNSt10unique_ptrI9TransformSt14default_deleteIS0_EEC2IS2_vEEv,@function
_ZNSt10unique_ptrI9TransformSt14default_deleteIS0_EEC2IS2_vEEv: # @_ZNSt10unique_ptrI9TransformSt14default_deleteIS0_EEC2IS2_vEEv
# %bb.0:                                # %entry
	addi	sp, sp, -32
	sd	ra, 24(sp)
	sd	s0, 16(sp)
	addi	s0, sp, 32
	sd	a0, -24(s0)
	ld	a0, -24(s0)
	sd	zero, 0(a0)
	call	_ZNSt15__uniq_ptr_dataI9TransformSt14default_deleteIS0_ELb1ELb1EECI2St15__uniq_ptr_implIS0_S2_EEv
	ld	s0, 16(sp)
	ld	ra, 24(sp)
	addi	sp, sp, 32
	ret
.Lfunc_end23:
	.size	_ZNSt10unique_ptrI9TransformSt14default_deleteIS0_EEC2IS2_vEEv, .Lfunc_end23-_ZNSt10unique_ptrI9TransformSt14default_deleteIS0_EEC2IS2_vEEv
                                        # -- End function
	.section	.text._ZNK8nlohmann10basic_jsonISt3mapSt6vectorNSt7__cxx1112basic_stringIcSt11char_traitsIcESaIcEEEblmdSaNS_14adl_serializerEE4findIRA6_KcEENS_6detail9iter_implIKSA_EEOT_,"axG",@progbits,_ZNK8nlohmann10basic_jsonISt3mapSt6vectorNSt7__cxx1112basic_stringIcSt11char_traitsIcESaIcEEEblmdSaNS_14adl_serializerEE4findIRA6_KcEENS_6detail9iter_implIKSA_EEOT_,comdat
	.weak	_ZNK8nlohmann10basic_jsonISt3mapSt6vectorNSt7__cxx1112basic_stringIcSt11char_traitsIcESaIcEEEblmdSaNS_14adl_serializerEE4findIRA6_KcEENS_6detail9iter_implIKSA_EEOT_ # -- Begin function _ZNK8nlohmann10basic_jsonISt3mapSt6vectorNSt7__cxx1112basic_stringIcSt11char_traitsIcESaIcEEEblmdSaNS_14adl_serializerEE4findIRA6_KcEENS_6detail9iter_implIKSA_EEOT_
	.p2align	2
	.type	_ZNK8nlohmann10basic_jsonISt3mapSt6vectorNSt7__cxx1112basic_stringIcSt11char_traitsIcESaIcEEEblmdSaNS_14adl_serializerEE4findIRA6_KcEENS_6detail9iter_implIKSA_EEOT_,@function
_ZNK8nlohmann10basic_jsonISt3mapSt6vectorNSt7__cxx1112basic_stringIcSt11char_traitsIcESaIcEEEblmdSaNS_14adl_serializerEE4findIRA6_KcEENS_6detail9iter_implIKSA_EEOT_: # @_ZNK8nlohmann10basic_jsonISt3mapSt6vectorNSt7__cxx1112basic_stringIcSt11char_traitsIcESaIcEEEblmdSaNS_14adl_serializerEE4findIRA6_KcEENS_6detail9iter_implIKSA_EEOT_
	.cfi_startproc
# %bb.0:                                # %entry
	addi	sp, sp, -64
	.cfi_def_cfa_offset 64
	sd	ra, 56(sp)
	sd	s0, 48(sp)
	sd	s1, 40(sp)
	sd	s2, 32(sp)
	.cfi_offset ra, -8
	.cfi_offset s0, -16
	.cfi_offset s1, -24
	.cfi_offset s2, -32
	addi	s0, sp, 64
	.cfi_def_cfa s0, 0
	mv	s2, a0
	sd	s2, -40(s0)
	sd	a1, -48(s0)
	sd	a2, -56(s0)
	ld	s1, -48(s0)
	mv	a0, s2
	mv	a1, s1
	call	_ZNK8nlohmann10basic_jsonISt3mapSt6vectorNSt7__cxx1112basic_stringIcSt11char_traitsIcESaIcEEEblmdSaNS_14adl_serializerEE4cendEv
	mv	a0, s1
	call	_ZNK8nlohmann10basic_jsonISt3mapSt6vectorNSt7__cxx1112basic_stringIcSt11char_traitsIcESaIcEEEblmdSaNS_14adl_serializerEE9is_objectEv
	beqz	a0, .LBB24_2
	j	.LBB24_1
.LBB24_1:                               # %if.then
	ld	s1, 8(s1)
	ld	a0, -56(s0)
	call	_ZSt7forwardIRA6_KcEOT_RNSt16remove_referenceIS3_E4typeE
	mv	a1, a0
	mv	a0, s1
	call	_ZNSt3mapINSt7__cxx1112basic_stringIcSt11char_traitsIcESaIcEEEN8nlohmann10basic_jsonIS_St6vectorS5_blmdSaNS6_14adl_serializerEEESt4lessIvESaISt4pairIKS5_SA_EEE4findIA6_cEEDTcldtdtdefpT4_M_t10_M_find_trfp_EERKT_
	sd	a0, -64(s0)
	ld	a0, -64(s0)
	sd	a0, 8(s2)
	j	.LBB24_2
.LBB24_2:                               # %if.end
	ld	s2, 32(sp)
	ld	s1, 40(sp)
	ld	s0, 48(sp)
	.cfi_def_cfa sp, 64
	ld	ra, 56(sp)
	.cfi_restore ra
	.cfi_restore s0
	.cfi_restore s1
	.cfi_restore s2
	addi	sp, sp, 64
	.cfi_def_cfa_offset 0
	ret
.Lfunc_end24:
	.size	_ZNK8nlohmann10basic_jsonISt3mapSt6vectorNSt7__cxx1112basic_stringIcSt11char_traitsIcESaIcEEEblmdSaNS_14adl_serializerEE4findIRA6_KcEENS_6detail9iter_implIKSA_EEOT_, .Lfunc_end24-_ZNK8nlohmann10basic_jsonISt3mapSt6vectorNSt7__cxx1112basic_stringIcSt11char_traitsIcESaIcEEEblmdSaNS_14adl_serializerEE4findIRA6_KcEENS_6detail9iter_implIKSA_EEOT_
	.cfi_endproc
                                        # -- End function
	.section	.text._ZSt11make_uniqueI9TransformJN3glm3vecILi3EdLNS1_9qualifierE0EEES4_S4_EENSt9_MakeUniqIT_E15__single_objectEDpOT0_,"axG",@progbits,_ZSt11make_uniqueI9TransformJN3glm3vecILi3EdLNS1_9qualifierE0EEES4_S4_EENSt9_MakeUniqIT_E15__single_objectEDpOT0_,comdat
	.weak	_ZSt11make_uniqueI9TransformJN3glm3vecILi3EdLNS1_9qualifierE0EEES4_S4_EENSt9_MakeUniqIT_E15__single_objectEDpOT0_ # -- Begin function _ZSt11make_uniqueI9TransformJN3glm3vecILi3EdLNS1_9qualifierE0EEES4_S4_EENSt9_MakeUniqIT_E15__single_objectEDpOT0_
	.p2align	2
	.type	_ZSt11make_uniqueI9TransformJN3glm3vecILi3EdLNS1_9qualifierE0EEES4_S4_EENSt9_MakeUniqIT_E15__single_objectEDpOT0_,@function
_ZSt11make_uniqueI9TransformJN3glm3vecILi3EdLNS1_9qualifierE0EEES4_S4_EENSt9_MakeUniqIT_E15__single_objectEDpOT0_: # @_ZSt11make_uniqueI9TransformJN3glm3vecILi3EdLNS1_9qualifierE0EEES4_S4_EENSt9_MakeUniqIT_E15__single_objectEDpOT0_
.Lfunc_begin6:
	.cfi_startproc
	.cfi_personality 155, DW.ref.__gxx_personality_v0
	.cfi_lsda 27, .Lexception6
# %bb.0:                                # %entry
	addi	sp, sp, -96
	.cfi_def_cfa_offset 96
	sd	ra, 88(sp)
	sd	s0, 80(sp)
	sd	s1, 72(sp)
	sd	s2, 64(sp)
	sd	s3, 56(sp)
	sd	s4, 48(sp)
	.cfi_offset ra, -8
	.cfi_offset s0, -16
	.cfi_offset s1, -24
	.cfi_offset s2, -32
	.cfi_offset s3, -40
	.cfi_offset s4, -48
	addi	s0, sp, 96
	.cfi_def_cfa s0, 0
	mv	s2, a0
	sd	s2, -56(s0)
	sd	a1, -64(s0)
	sd	a2, -72(s0)
	sd	a3, -80(s0)
	addi	a0, zero, 336
	call	_Znwm
	mv	s3, a0
	ld	a0, -64(s0)
	call	_ZSt7forwardIN3glm3vecILi3EdLNS0_9qualifierE0EEEEOT_RNSt16remove_referenceIS4_E4typeE
	mv	s4, a0
	ld	a0, -72(s0)
	call	_ZSt7forwardIN3glm3vecILi3EdLNS0_9qualifierE0EEEEOT_RNSt16remove_referenceIS4_E4typeE
	mv	s1, a0
	ld	a0, -80(s0)
	call	_ZSt7forwardIN3glm3vecILi3EdLNS0_9qualifierE0EEEEOT_RNSt16remove_referenceIS4_E4typeE
	mv	a3, a0
.Ltmp387:
	mv	a0, s3
	mv	a1, s4
	mv	a2, s1
	call	_ZN9TransformC1ERKN3glm3vecILi3EdLNS0_9qualifierE0EEES5_S5_
.Ltmp388:
	j	.LBB25_1
.LBB25_1:                               # %invoke.cont
	mv	a0, s2
	mv	a1, s3
	call	_ZNSt10unique_ptrI9TransformSt14default_deleteIS0_EEC2IS2_vEEPS0_
	ld	s4, 48(sp)
	ld	s3, 56(sp)
	ld	s2, 64(sp)
	ld	s1, 72(sp)
	ld	s0, 80(sp)
	.cfi_def_cfa sp, 96
	ld	ra, 88(sp)
	.cfi_restore ra
	.cfi_restore s0
	.cfi_restore s1
	.cfi_restore s2
	.cfi_restore s3
	.cfi_restore s4
	addi	sp, sp, 96
	.cfi_def_cfa_offset 0
	ret
.LBB25_2:                               # %lpad
.Ltmp389:
	sd	a0, -88(s0)
	sw	a1, -92(s0)
	mv	a0, s3
	call	_ZdlPv
	j	.LBB25_3
.LBB25_3:                               # %eh.resume
	ld	a0, -88(s0)
	call	_Unwind_Resume
.Lfunc_end25:
	.size	_ZSt11make_uniqueI9TransformJN3glm3vecILi3EdLNS1_9qualifierE0EEES4_S4_EENSt9_MakeUniqIT_E15__single_objectEDpOT0_, .Lfunc_end25-_ZSt11make_uniqueI9TransformJN3glm3vecILi3EdLNS1_9qualifierE0EEES4_S4_EENSt9_MakeUniqIT_E15__single_objectEDpOT0_
	.cfi_endproc
	.section	.gcc_except_table,"a",@progbits
	.p2align	2
GCC_except_table25:
.Lexception6:
	.byte	255                     # @LPStart Encoding = omit
	.byte	255                     # @TType Encoding = omit
	.byte	3                       # Call site Encoding = udata4
	.uleb128 .Lcst_end6-.Lcst_begin6
.Lcst_begin6:
	.word	.Lfunc_begin6-.Lfunc_begin6 # >> Call Site 1 <<
	.word	.Ltmp387-.Lfunc_begin6  #   Call between .Lfunc_begin6 and .Ltmp387
	.word	0                       #     has no landing pad
	.byte	0                       #   On action: cleanup
	.word	.Ltmp387-.Lfunc_begin6  # >> Call Site 2 <<
	.word	.Ltmp388-.Ltmp387       #   Call between .Ltmp387 and .Ltmp388
	.word	.Ltmp389-.Lfunc_begin6  #     jumps to .Ltmp389
	.byte	0                       #   On action: cleanup
	.word	.Ltmp388-.Lfunc_begin6  # >> Call Site 3 <<
	.word	.Lfunc_end25-.Ltmp388   #   Call between .Ltmp388 and .Lfunc_end25
	.word	0                       #     has no landing pad
	.byte	0                       #   On action: cleanup
.Lcst_end6:
	.p2align	2
                                        # -- End function
	.section	.text._Z11getOptionalIN3glm3vecILi3EdLNS0_9qualifierE0EEEET_RKN8nlohmann10basic_jsonISt3mapSt6vectorNSt7__cxx1112basic_stringIcSt11char_traitsIcESaIcEEEblmdSaNS5_14adl_serializerEEESE_S4_,"axG",@progbits,_Z11getOptionalIN3glm3vecILi3EdLNS0_9qualifierE0EEEET_RKN8nlohmann10basic_jsonISt3mapSt6vectorNSt7__cxx1112basic_stringIcSt11char_traitsIcESaIcEEEblmdSaNS5_14adl_serializerEEESE_S4_,comdat
	.weak	_Z11getOptionalIN3glm3vecILi3EdLNS0_9qualifierE0EEEET_RKN8nlohmann10basic_jsonISt3mapSt6vectorNSt7__cxx1112basic_stringIcSt11char_traitsIcESaIcEEEblmdSaNS5_14adl_serializerEEESE_S4_ # -- Begin function _Z11getOptionalIN3glm3vecILi3EdLNS0_9qualifierE0EEEET_RKN8nlohmann10basic_jsonISt3mapSt6vectorNSt7__cxx1112basic_stringIcSt11char_traitsIcESaIcEEEblmdSaNS5_14adl_serializerEEESE_S4_
	.p2align	2
	.type	_Z11getOptionalIN3glm3vecILi3EdLNS0_9qualifierE0EEEET_RKN8nlohmann10basic_jsonISt3mapSt6vectorNSt7__cxx1112basic_stringIcSt11char_traitsIcESaIcEEEblmdSaNS5_14adl_serializerEEESE_S4_,@function
_Z11getOptionalIN3glm3vecILi3EdLNS0_9qualifierE0EEEET_RKN8nlohmann10basic_jsonISt3mapSt6vectorNSt7__cxx1112basic_stringIcSt11char_traitsIcESaIcEEEblmdSaNS5_14adl_serializerEEESE_S4_: # @_Z11getOptionalIN3glm3vecILi3EdLNS0_9qualifierE0EEEET_RKN8nlohmann10basic_jsonISt3mapSt6vectorNSt7__cxx1112basic_stringIcSt11char_traitsIcESaIcEEEblmdSaNS5_14adl_serializerEEESE_S4_
	.cfi_startproc
# %bb.0:                                # %entry
	addi	sp, sp, -160
	.cfi_def_cfa_offset 160
	sd	ra, 152(sp)
	sd	s0, 144(sp)
	sd	s1, 136(sp)
	sd	s2, 128(sp)
	sd	s3, 120(sp)
	sd	s4, 112(sp)
	.cfi_offset ra, -8
	.cfi_offset s0, -16
	.cfi_offset s1, -24
	.cfi_offset s2, -32
	.cfi_offset s3, -40
	.cfi_offset s4, -48
	addi	s0, sp, 160
	.cfi_def_cfa s0, 0
	mv	s2, a2
	mv	s1, a0
	sd	s1, -56(s0)
	sd	a1, -64(s0)
	ld	a0, 16(a3)
	sd	a0, 16(s1)
	ld	a0, 8(a3)
	sd	a0, 8(s1)
	ld	a0, 0(a3)
	sd	a0, 0(s1)
	ld	a1, -64(s0)
	addi	s3, s0, -96
	mv	a0, s3
	mv	a2, s2
	call	_ZNK8nlohmann10basic_jsonISt3mapSt6vectorNSt7__cxx1112basic_stringIcSt11char_traitsIcESaIcEEEblmdSaNS_14adl_serializerEE4findIRS8_EENS_6detail9iter_implIKSA_EEOT_
	ld	a1, -64(s0)
	addi	s4, s0, -128
	mv	a0, s4
	call	_ZNK8nlohmann10basic_jsonISt3mapSt6vectorNSt7__cxx1112basic_stringIcSt11char_traitsIcESaIcEEEblmdSaNS_14adl_serializerEE3endEv
	mv	a0, s3
	mv	a1, s4
	call	_ZNK8nlohmann6detail9iter_implIKNS_10basic_jsonISt3mapSt6vectorNSt7__cxx1112basic_stringIcSt11char_traitsIcESaIcEEEblmdSaNS_14adl_serializerEEEEneERKSE_
	beqz	a0, .LBB26_2
	j	.LBB26_1
.LBB26_1:                               # %if.then
	ld	a0, -64(s0)
	mv	a1, s2
	call	_ZNK8nlohmann10basic_jsonISt3mapSt6vectorNSt7__cxx1112basic_stringIcSt11char_traitsIcESaIcEEEblmdSaNS_14adl_serializerEE2atERKS8_
	mv	a1, a0
	addi	a0, s0, -152
	call	_ZNK8nlohmann10basic_jsonISt3mapSt6vectorNSt7__cxx1112basic_stringIcSt11char_traitsIcESaIcEEEblmdSaNS_14adl_serializerEE3getIN3glm3vecILi3EdLNSC_9qualifierE0EEESF_Li0EEET0_v
	ld	a0, -136(s0)
	sd	a0, 16(s1)
	ld	a0, -144(s0)
	sd	a0, 8(s1)
	ld	a0, -152(s0)
	sd	a0, 0(s1)
	j	.LBB26_2
.LBB26_2:                               # %if.end
	ld	s4, 112(sp)
	ld	s3, 120(sp)
	ld	s2, 128(sp)
	ld	s1, 136(sp)
	ld	s0, 144(sp)
	.cfi_def_cfa sp, 160
	ld	ra, 152(sp)
	.cfi_restore ra
	.cfi_restore s0
	.cfi_restore s1
	.cfi_restore s2
	.cfi_restore s3
	.cfi_restore s4
	addi	sp, sp, 160
	.cfi_def_cfa_offset 0
	ret
.Lfunc_end26:
	.size	_Z11getOptionalIN3glm3vecILi3EdLNS0_9qualifierE0EEEET_RKN8nlohmann10basic_jsonISt3mapSt6vectorNSt7__cxx1112basic_stringIcSt11char_traitsIcESaIcEEEblmdSaNS5_14adl_serializerEEESE_S4_, .Lfunc_end26-_Z11getOptionalIN3glm3vecILi3EdLNS0_9qualifierE0EEEET_RKN8nlohmann10basic_jsonISt3mapSt6vectorNSt7__cxx1112basic_stringIcSt11char_traitsIcESaIcEEEblmdSaNS5_14adl_serializerEEESE_S4_
	.cfi_endproc
                                        # -- End function
	.section	.text._ZN3glm3vecILi3EdLNS_9qualifierE0EEC2Ed,"axG",@progbits,_ZN3glm3vecILi3EdLNS_9qualifierE0EEC2Ed,comdat
	.weak	_ZN3glm3vecILi3EdLNS_9qualifierE0EEC2Ed # -- Begin function _ZN3glm3vecILi3EdLNS_9qualifierE0EEC2Ed
	.p2align	2
	.type	_ZN3glm3vecILi3EdLNS_9qualifierE0EEC2Ed,@function
_ZN3glm3vecILi3EdLNS_9qualifierE0EEC2Ed: # @_ZN3glm3vecILi3EdLNS_9qualifierE0EEC2Ed
# %bb.0:                                # %entry
	addi	sp, sp, -32
	sd	ra, 24(sp)
	sd	s0, 16(sp)
	addi	s0, sp, 32
	fmv.d.x	ft0, a1
	sd	a0, -24(s0)
	sd	a1, -32(s0)
	ld	a0, -24(s0)
	fld	ft0, -32(s0)
	fsd	ft0, 0(a0)
	fld	ft0, -32(s0)
	fsd	ft0, 8(a0)
	fld	ft0, -32(s0)
	fsd	ft0, 16(a0)
	ld	s0, 16(sp)
	ld	ra, 24(sp)
	addi	sp, sp, 32
	ret
.Lfunc_end27:
	.size	_ZN3glm3vecILi3EdLNS_9qualifierE0EEC2Ed, .Lfunc_end27-_ZN3glm3vecILi3EdLNS_9qualifierE0EEC2Ed
                                        # -- End function
	.section	.text._ZN3glm7radiansILi3EdLNS_9qualifierE0EEENS_3vecIXT_ET0_XT1_EEERKS4_,"axG",@progbits,_ZN3glm7radiansILi3EdLNS_9qualifierE0EEENS_3vecIXT_ET0_XT1_EEERKS4_,comdat
	.weak	_ZN3glm7radiansILi3EdLNS_9qualifierE0EEENS_3vecIXT_ET0_XT1_EEERKS4_ # -- Begin function _ZN3glm7radiansILi3EdLNS_9qualifierE0EEENS_3vecIXT_ET0_XT1_EEERKS4_
	.p2align	2
	.type	_ZN3glm7radiansILi3EdLNS_9qualifierE0EEENS_3vecIXT_ET0_XT1_EEERKS4_,@function
_ZN3glm7radiansILi3EdLNS_9qualifierE0EEENS_3vecIXT_ET0_XT1_EEERKS4_: # @_ZN3glm7radiansILi3EdLNS_9qualifierE0EEENS_3vecIXT_ET0_XT1_EEERKS4_
	.cfi_startproc
# %bb.0:                                # %entry
	addi	sp, sp, -32
	.cfi_def_cfa_offset 32
	sd	ra, 24(sp)
	sd	s0, 16(sp)
	.cfi_offset ra, -8
	.cfi_offset s0, -16
	addi	s0, sp, 32
	.cfi_def_cfa s0, 0
	sd	a0, -24(s0)
	sd	a1, -32(s0)
	ld	a2, -32(s0)
	lui	a1, %hi(_ZN3glm7radiansIdEET_S1_)
	addi	a1, a1, %lo(_ZN3glm7radiansIdEET_S1_)
	call	_ZN3glm6detail8functor1INS_3vecELi3EddLNS_9qualifierE0EE4callEPFddERKNS2_ILi3EdLS3_0EEE
	ld	s0, 16(sp)
	.cfi_def_cfa sp, 32
	ld	ra, 24(sp)
	.cfi_restore ra
	.cfi_restore s0
	addi	sp, sp, 32
	.cfi_def_cfa_offset 0
	ret
.Lfunc_end28:
	.size	_ZN3glm7radiansILi3EdLNS_9qualifierE0EEENS_3vecIXT_ET0_XT1_EEERKS4_, .Lfunc_end28-_ZN3glm7radiansILi3EdLNS_9qualifierE0EEENS_3vecIXT_ET0_XT1_EEERKS4_
	.cfi_endproc
                                        # -- End function
	.section	.text._ZNSt10unique_ptrI9TransformSt14default_deleteIS0_EEaSEOS3_,"axG",@progbits,_ZNSt10unique_ptrI9TransformSt14default_deleteIS0_EEaSEOS3_,comdat
	.weak	_ZNSt10unique_ptrI9TransformSt14default_deleteIS0_EEaSEOS3_ # -- Begin function _ZNSt10unique_ptrI9TransformSt14default_deleteIS0_EEaSEOS3_
	.p2align	2
	.type	_ZNSt10unique_ptrI9TransformSt14default_deleteIS0_EEaSEOS3_,@function
_ZNSt10unique_ptrI9TransformSt14default_deleteIS0_EEaSEOS3_: # @_ZNSt10unique_ptrI9TransformSt14default_deleteIS0_EEaSEOS3_
# %bb.0:                                # %entry
	addi	sp, sp, -48
	sd	ra, 40(sp)
	sd	s0, 32(sp)
	sd	s1, 24(sp)
	addi	s0, sp, 48
	sd	a0, -32(s0)
	sd	a1, -40(s0)
	ld	s1, -32(s0)
	ld	a1, -40(s0)
	mv	a0, s1
	call	_ZNSt15__uniq_ptr_dataI9TransformSt14default_deleteIS0_ELb1ELb1EEaSEOS3_
	mv	a0, s1
	ld	s1, 24(sp)
	ld	s0, 32(sp)
	ld	ra, 40(sp)
	addi	sp, sp, 48
	ret
.Lfunc_end29:
	.size	_ZNSt10unique_ptrI9TransformSt14default_deleteIS0_EEaSEOS3_, .Lfunc_end29-_ZNSt10unique_ptrI9TransformSt14default_deleteIS0_EEaSEOS3_
                                        # -- End function
	.section	.text._ZNSt10unique_ptrI9TransformSt14default_deleteIS0_EED2Ev,"axG",@progbits,_ZNSt10unique_ptrI9TransformSt14default_deleteIS0_EED2Ev,comdat
	.weak	_ZNSt10unique_ptrI9TransformSt14default_deleteIS0_EED2Ev # -- Begin function _ZNSt10unique_ptrI9TransformSt14default_deleteIS0_EED2Ev
	.p2align	2
	.type	_ZNSt10unique_ptrI9TransformSt14default_deleteIS0_EED2Ev,@function
_ZNSt10unique_ptrI9TransformSt14default_deleteIS0_EED2Ev: # @_ZNSt10unique_ptrI9TransformSt14default_deleteIS0_EED2Ev
.Lfunc_begin7:
	.cfi_startproc
	.cfi_personality 155, DW.ref.__gxx_personality_v0
	.cfi_lsda 27, .Lexception7
# %bb.0:                                # %entry
	addi	sp, sp, -48
	.cfi_def_cfa_offset 48
	sd	ra, 40(sp)
	sd	s0, 32(sp)
	sd	s1, 24(sp)
	.cfi_offset ra, -8
	.cfi_offset s0, -16
	.cfi_offset s1, -24
	addi	s0, sp, 48
	.cfi_def_cfa s0, 0
	sd	a0, -32(s0)
	ld	s1, -32(s0)
.Ltmp390:
	mv	a0, s1
	call	_ZNSt15__uniq_ptr_implI9TransformSt14default_deleteIS0_EE6_M_ptrEv
.Ltmp391:
	j	.LBB30_1
.LBB30_1:                               # %invoke.cont
	sd	a0, -40(s0)
	ld	a0, -40(s0)
	ld	a0, 0(a0)
	beqz	a0, .LBB30_4
	j	.LBB30_2
.LBB30_2:                               # %if.then
	mv	a0, s1
	call	_ZNSt10unique_ptrI9TransformSt14default_deleteIS0_EE11get_deleterEv
	mv	s1, a0
	ld	a0, -40(s0)
	call	_ZSt4moveIRP9TransformEONSt16remove_referenceIT_E4typeEOS4_
	ld	a1, 0(a0)
.Ltmp392:
	mv	a0, s1
	call	_ZNKSt14default_deleteI9TransformEclEPS0_
.Ltmp393:
	j	.LBB30_3
.LBB30_3:                               # %invoke.cont4
	j	.LBB30_4
.LBB30_4:                               # %if.end
	ld	a0, -40(s0)
	sd	zero, 0(a0)
	ld	s1, 24(sp)
	ld	s0, 32(sp)
	.cfi_def_cfa sp, 48
	ld	ra, 40(sp)
	.cfi_restore ra
	.cfi_restore s0
	.cfi_restore s1
	addi	sp, sp, 48
	.cfi_def_cfa_offset 0
	ret
.LBB30_5:                               # %terminate.lpad
.Ltmp394:
	call	__clang_call_terminate
.Lfunc_end30:
	.size	_ZNSt10unique_ptrI9TransformSt14default_deleteIS0_EED2Ev, .Lfunc_end30-_ZNSt10unique_ptrI9TransformSt14default_deleteIS0_EED2Ev
	.cfi_endproc
	.section	.gcc_except_table,"a",@progbits
	.p2align	2
GCC_except_table30:
.Lexception7:
	.byte	255                     # @LPStart Encoding = omit
	.byte	155                     # @TType Encoding = indirect pcrel sdata4
	.uleb128 .Lttbase1-.Lttbaseref1
.Lttbaseref1:
	.byte	3                       # Call site Encoding = udata4
	.uleb128 .Lcst_end7-.Lcst_begin7
.Lcst_begin7:
	.word	.Ltmp390-.Lfunc_begin7  # >> Call Site 1 <<
	.word	.Ltmp393-.Ltmp390       #   Call between .Ltmp390 and .Ltmp393
	.word	.Ltmp394-.Lfunc_begin7  #     jumps to .Ltmp394
	.byte	1                       #   On action: 1
.Lcst_end7:
	.byte	1                       # >> Action Record 1 <<
                                        #   Catch TypeInfo 1
	.byte	0                       #   No further actions
	.p2align	2
                                        # >> Catch TypeInfos <<
	.word	0                       # TypeInfo 1
.Lttbase1:
	.p2align	2
                                        # -- End function
	.section	.text._ZSteqIcSt11char_traitsIcESaIcEEbRKNSt7__cxx1112basic_stringIT_T0_T1_EEPKS5_,"axG",@progbits,_ZSteqIcSt11char_traitsIcESaIcEEbRKNSt7__cxx1112basic_stringIT_T0_T1_EEPKS5_,comdat
	.weak	_ZSteqIcSt11char_traitsIcESaIcEEbRKNSt7__cxx1112basic_stringIT_T0_T1_EEPKS5_ # -- Begin function _ZSteqIcSt11char_traitsIcESaIcEEbRKNSt7__cxx1112basic_stringIT_T0_T1_EEPKS5_
	.p2align	2
	.type	_ZSteqIcSt11char_traitsIcESaIcEEbRKNSt7__cxx1112basic_stringIT_T0_T1_EEPKS5_,@function
_ZSteqIcSt11char_traitsIcESaIcEEbRKNSt7__cxx1112basic_stringIT_T0_T1_EEPKS5_: # @_ZSteqIcSt11char_traitsIcESaIcEEbRKNSt7__cxx1112basic_stringIT_T0_T1_EEPKS5_
# %bb.0:                                # %entry
	addi	sp, sp, -32
	sd	ra, 24(sp)
	sd	s0, 16(sp)
	addi	s0, sp, 32
	sd	a0, -24(s0)
	sd	a1, -32(s0)
	ld	a0, -24(s0)
	ld	a1, -32(s0)
	call	_ZNKSt7__cxx1112basic_stringIcSt11char_traitsIcESaIcEE7compareEPKc
	seqz	a0, a0
	ld	s0, 16(sp)
	ld	ra, 24(sp)
	addi	sp, sp, 32
	ret
.Lfunc_end31:
	.size	_ZSteqIcSt11char_traitsIcESaIcEEbRKNSt7__cxx1112basic_stringIT_T0_T1_EEPKS5_, .Lfunc_end31-_ZSteqIcSt11char_traitsIcESaIcEEbRKNSt7__cxx1112basic_stringIT_T0_T1_EEPKS5_
                                        # -- End function
	.section	.text._ZNSt6vectorIN3glm3vecILi3EdLNS0_9qualifierE0EEESaIS3_EEC2Ev,"axG",@progbits,_ZNSt6vectorIN3glm3vecILi3EdLNS0_9qualifierE0EEESaIS3_EEC2Ev,comdat
	.weak	_ZNSt6vectorIN3glm3vecILi3EdLNS0_9qualifierE0EEESaIS3_EEC2Ev # -- Begin function _ZNSt6vectorIN3glm3vecILi3EdLNS0_9qualifierE0EEESaIS3_EEC2Ev
	.p2align	2
	.type	_ZNSt6vectorIN3glm3vecILi3EdLNS0_9qualifierE0EEESaIS3_EEC2Ev,@function
_ZNSt6vectorIN3glm3vecILi3EdLNS0_9qualifierE0EEESaIS3_EEC2Ev: # @_ZNSt6vectorIN3glm3vecILi3EdLNS0_9qualifierE0EEESaIS3_EEC2Ev
# %bb.0:                                # %entry
	addi	sp, sp, -32
	sd	ra, 24(sp)
	sd	s0, 16(sp)
	addi	s0, sp, 32
	sd	a0, -24(s0)
	ld	a0, -24(s0)
	call	_ZNSt12_Vector_baseIN3glm3vecILi3EdLNS0_9qualifierE0EEESaIS3_EEC2Ev
	ld	s0, 16(sp)
	ld	ra, 24(sp)
	addi	sp, sp, 32
	ret
.Lfunc_end32:
	.size	_ZNSt6vectorIN3glm3vecILi3EdLNS0_9qualifierE0EEESaIS3_EEC2Ev, .Lfunc_end32-_ZNSt6vectorIN3glm3vecILi3EdLNS0_9qualifierE0EEESaIS3_EEC2Ev
                                        # -- End function
	.section	.text._ZNSt6vectorIS_ImSaImEESaIS1_EEC2Ev,"axG",@progbits,_ZNSt6vectorIS_ImSaImEESaIS1_EEC2Ev,comdat
	.weak	_ZNSt6vectorIS_ImSaImEESaIS1_EEC2Ev # -- Begin function _ZNSt6vectorIS_ImSaImEESaIS1_EEC2Ev
	.p2align	2
	.type	_ZNSt6vectorIS_ImSaImEESaIS1_EEC2Ev,@function
_ZNSt6vectorIS_ImSaImEESaIS1_EEC2Ev:    # @_ZNSt6vectorIS_ImSaImEESaIS1_EEC2Ev
# %bb.0:                                # %entry
	addi	sp, sp, -32
	sd	ra, 24(sp)
	sd	s0, 16(sp)
	addi	s0, sp, 32
	sd	a0, -24(s0)
	ld	a0, -24(s0)
	call	_ZNSt12_Vector_baseISt6vectorImSaImEESaIS2_EEC2Ev
	ld	s0, 16(sp)
	ld	ra, 24(sp)
	addi	sp, sp, 32
	ret
.Lfunc_end33:
	.size	_ZNSt6vectorIS_ImSaImEESaIS1_EEC2Ev, .Lfunc_end33-_ZNSt6vectorIS_ImSaImEESaIS1_EEC2Ev
                                        # -- End function
	.section	.text._ZNK8nlohmann10basic_jsonISt3mapSt6vectorNSt7__cxx1112basic_stringIcSt11char_traitsIcESaIcEEEblmdSaNS_14adl_serializerEE4findIRA5_KcEENS_6detail9iter_implIKSA_EEOT_,"axG",@progbits,_ZNK8nlohmann10basic_jsonISt3mapSt6vectorNSt7__cxx1112basic_stringIcSt11char_traitsIcESaIcEEEblmdSaNS_14adl_serializerEE4findIRA5_KcEENS_6detail9iter_implIKSA_EEOT_,comdat
	.weak	_ZNK8nlohmann10basic_jsonISt3mapSt6vectorNSt7__cxx1112basic_stringIcSt11char_traitsIcESaIcEEEblmdSaNS_14adl_serializerEE4findIRA5_KcEENS_6detail9iter_implIKSA_EEOT_ # -- Begin function _ZNK8nlohmann10basic_jsonISt3mapSt6vectorNSt7__cxx1112basic_stringIcSt11char_traitsIcESaIcEEEblmdSaNS_14adl_serializerEE4findIRA5_KcEENS_6detail9iter_implIKSA_EEOT_
	.p2align	2
	.type	_ZNK8nlohmann10basic_jsonISt3mapSt6vectorNSt7__cxx1112basic_stringIcSt11char_traitsIcESaIcEEEblmdSaNS_14adl_serializerEE4findIRA5_KcEENS_6detail9iter_implIKSA_EEOT_,@function
_ZNK8nlohmann10basic_jsonISt3mapSt6vectorNSt7__cxx1112basic_stringIcSt11char_traitsIcESaIcEEEblmdSaNS_14adl_serializerEE4findIRA5_KcEENS_6detail9iter_implIKSA_EEOT_: # @_ZNK8nlohmann10basic_jsonISt3mapSt6vectorNSt7__cxx1112basic_stringIcSt11char_traitsIcESaIcEEEblmdSaNS_14adl_serializerEE4findIRA5_KcEENS_6detail9iter_implIKSA_EEOT_
	.cfi_startproc
# %bb.0:                                # %entry
	addi	sp, sp, -64
	.cfi_def_cfa_offset 64
	sd	ra, 56(sp)
	sd	s0, 48(sp)
	sd	s1, 40(sp)
	sd	s2, 32(sp)
	.cfi_offset ra, -8
	.cfi_offset s0, -16
	.cfi_offset s1, -24
	.cfi_offset s2, -32
	addi	s0, sp, 64
	.cfi_def_cfa s0, 0
	mv	s2, a0
	sd	s2, -40(s0)
	sd	a1, -48(s0)
	sd	a2, -56(s0)
	ld	s1, -48(s0)
	mv	a0, s2
	mv	a1, s1
	call	_ZNK8nlohmann10basic_jsonISt3mapSt6vectorNSt7__cxx1112basic_stringIcSt11char_traitsIcESaIcEEEblmdSaNS_14adl_serializerEE4cendEv
	mv	a0, s1
	call	_ZNK8nlohmann10basic_jsonISt3mapSt6vectorNSt7__cxx1112basic_stringIcSt11char_traitsIcESaIcEEEblmdSaNS_14adl_serializerEE9is_objectEv
	beqz	a0, .LBB34_2
	j	.LBB34_1
.LBB34_1:                               # %if.then
	ld	s1, 8(s1)
	ld	a0, -56(s0)
	call	_ZSt7forwardIRA5_KcEOT_RNSt16remove_referenceIS3_E4typeE
	mv	a1, a0
	mv	a0, s1
	call	_ZNSt3mapINSt7__cxx1112basic_stringIcSt11char_traitsIcESaIcEEEN8nlohmann10basic_jsonIS_St6vectorS5_blmdSaNS6_14adl_serializerEEESt4lessIvESaISt4pairIKS5_SA_EEE4findIA5_cEEDTcldtdtdefpT4_M_t10_M_find_trfp_EERKT_
	sd	a0, -64(s0)
	ld	a0, -64(s0)
	sd	a0, 8(s2)
	j	.LBB34_2
.LBB34_2:                               # %if.end
	ld	s2, 32(sp)
	ld	s1, 40(sp)
	ld	s0, 48(sp)
	.cfi_def_cfa sp, 64
	ld	ra, 56(sp)
	.cfi_restore ra
	.cfi_restore s0
	.cfi_restore s1
	.cfi_restore s2
	addi	sp, sp, 64
	.cfi_def_cfa_offset 0
	ret
.Lfunc_end34:
	.size	_ZNK8nlohmann10basic_jsonISt3mapSt6vectorNSt7__cxx1112basic_stringIcSt11char_traitsIcESaIcEEEblmdSaNS_14adl_serializerEE4findIRA5_KcEENS_6detail9iter_implIKSA_EEOT_, .Lfunc_end34-_ZNK8nlohmann10basic_jsonISt3mapSt6vectorNSt7__cxx1112basic_stringIcSt11char_traitsIcESaIcEEEblmdSaNS_14adl_serializerEE4findIRA5_KcEENS_6detail9iter_implIKSA_EEOT_
	.cfi_endproc
                                        # -- End function
	.section	.text._ZNSt10filesystem7__cxx11dvERKNS0_4pathES3_,"axG",@progbits,_ZNSt10filesystem7__cxx11dvERKNS0_4pathES3_,comdat
	.weak	_ZNSt10filesystem7__cxx11dvERKNS0_4pathES3_ # -- Begin function _ZNSt10filesystem7__cxx11dvERKNS0_4pathES3_
	.p2align	2
	.type	_ZNSt10filesystem7__cxx11dvERKNS0_4pathES3_,@function
_ZNSt10filesystem7__cxx11dvERKNS0_4pathES3_: # @_ZNSt10filesystem7__cxx11dvERKNS0_4pathES3_
.Lfunc_begin8:
	.cfi_startproc
	.cfi_personality 155, DW.ref.__gxx_personality_v0
	.cfi_lsda 27, .Lexception8
# %bb.0:                                # %entry
	addi	sp, sp, -80
	.cfi_def_cfa_offset 80
	sd	ra, 72(sp)
	sd	s0, 64(sp)
	sd	s1, 56(sp)
	.cfi_offset ra, -8
	.cfi_offset s0, -16
	.cfi_offset s1, -24
	addi	s0, sp, 80
	.cfi_def_cfa s0, 0
	mv	s1, a0
	sd	s1, -32(s0)
	sd	a1, -40(s0)
	sd	a2, -48(s0)
	sb	zero, -49(s0)
	ld	a1, -40(s0)
	mv	a0, s1
	call	_ZNSt10filesystem7__cxx114pathC2ERKS1_
	ld	a1, -48(s0)
.Ltmp395:
	mv	a0, s1
	call	_ZNSt10filesystem7__cxx114pathdVERKS1_
.Ltmp396:
	j	.LBB35_1
.LBB35_1:                               # %invoke.cont
	addi	a0, zero, 1
	sb	a0, -49(s0)
	lbu	a0, -49(s0)
	bnez	a0, .LBB35_4
	j	.LBB35_3
.LBB35_2:                               # %lpad
.Ltmp397:
	sd	a0, -64(s0)
	sw	a1, -68(s0)
	mv	a0, s1
	call	_ZNSt10filesystem7__cxx114pathD2Ev
	j	.LBB35_5
.LBB35_3:                               # %nrvo.unused
	mv	a0, s1
	call	_ZNSt10filesystem7__cxx114pathD2Ev
	j	.LBB35_4
.LBB35_4:                               # %nrvo.skipdtor
	ld	s1, 56(sp)
	ld	s0, 64(sp)
	.cfi_def_cfa sp, 80
	ld	ra, 72(sp)
	.cfi_restore ra
	.cfi_restore s0
	.cfi_restore s1
	addi	sp, sp, 80
	.cfi_def_cfa_offset 0
	ret
.LBB35_5:                               # %eh.resume
	ld	a0, -64(s0)
	call	_Unwind_Resume
.Lfunc_end35:
	.size	_ZNSt10filesystem7__cxx11dvERKNS0_4pathES3_, .Lfunc_end35-_ZNSt10filesystem7__cxx11dvERKNS0_4pathES3_
	.cfi_endproc
	.section	.gcc_except_table,"a",@progbits
	.p2align	2
GCC_except_table35:
.Lexception8:
	.byte	255                     # @LPStart Encoding = omit
	.byte	255                     # @TType Encoding = omit
	.byte	3                       # Call site Encoding = udata4
	.uleb128 .Lcst_end8-.Lcst_begin8
.Lcst_begin8:
	.word	.Lfunc_begin8-.Lfunc_begin8 # >> Call Site 1 <<
	.word	.Ltmp395-.Lfunc_begin8  #   Call between .Lfunc_begin8 and .Ltmp395
	.word	0                       #     has no landing pad
	.byte	0                       #   On action: cleanup
	.word	.Ltmp395-.Lfunc_begin8  # >> Call Site 2 <<
	.word	.Ltmp396-.Ltmp395       #   Call between .Ltmp395 and .Ltmp396
	.word	.Ltmp397-.Lfunc_begin8  #     jumps to .Ltmp397
	.byte	0                       #   On action: cleanup
	.word	.Ltmp396-.Lfunc_begin8  # >> Call Site 3 <<
	.word	.Lfunc_end35-.Ltmp396   #   Call between .Ltmp396 and .Lfunc_end35
	.word	0                       #     has no landing pad
	.byte	0                       #   On action: cleanup
.Lcst_end8:
	.p2align	2
                                        # -- End function
	.section	.text._ZNK8nlohmann10basic_jsonISt3mapSt6vectorNSt7__cxx1112basic_stringIcSt11char_traitsIcESaIcEEEblmdSaNS_14adl_serializerEE3getIS8_S8_Li0EEET0_v,"axG",@progbits,_ZNK8nlohmann10basic_jsonISt3mapSt6vectorNSt7__cxx1112basic_stringIcSt11char_traitsIcESaIcEEEblmdSaNS_14adl_serializerEE3getIS8_S8_Li0EEET0_v,comdat
	.weak	_ZNK8nlohmann10basic_jsonISt3mapSt6vectorNSt7__cxx1112basic_stringIcSt11char_traitsIcESaIcEEEblmdSaNS_14adl_serializerEE3getIS8_S8_Li0EEET0_v # -- Begin function _ZNK8nlohmann10basic_jsonISt3mapSt6vectorNSt7__cxx1112basic_stringIcSt11char_traitsIcESaIcEEEblmdSaNS_14adl_serializerEE3getIS8_S8_Li0EEET0_v
	.p2align	2
	.type	_ZNK8nlohmann10basic_jsonISt3mapSt6vectorNSt7__cxx1112basic_stringIcSt11char_traitsIcESaIcEEEblmdSaNS_14adl_serializerEE3getIS8_S8_Li0EEET0_v,@function
_ZNK8nlohmann10basic_jsonISt3mapSt6vectorNSt7__cxx1112basic_stringIcSt11char_traitsIcESaIcEEEblmdSaNS_14adl_serializerEE3getIS8_S8_Li0EEET0_v: # @_ZNK8nlohmann10basic_jsonISt3mapSt6vectorNSt7__cxx1112basic_stringIcSt11char_traitsIcESaIcEEEblmdSaNS_14adl_serializerEE3getIS8_S8_Li0EEET0_v
.Lfunc_begin9:
	.cfi_startproc
	.cfi_personality 155, DW.ref.__gxx_personality_v0
	.cfi_lsda 27, .Lexception9
# %bb.0:                                # %entry
	addi	sp, sp, -80
	.cfi_def_cfa_offset 80
	sd	ra, 72(sp)
	sd	s0, 64(sp)
	sd	s1, 56(sp)
	sd	s2, 48(sp)
	.cfi_offset ra, -8
	.cfi_offset s0, -16
	.cfi_offset s1, -24
	.cfi_offset s2, -32
	addi	s0, sp, 80
	.cfi_def_cfa s0, 0
	mv	s1, a0
	sd	s1, -40(s0)
	sd	a1, -48(s0)
	ld	s2, -48(s0)
	sb	zero, -49(s0)
	mv	a0, s1
	call	_ZNSt7__cxx1112basic_stringIcSt11char_traitsIcESaIcEEC1Ev
.Ltmp398:
	mv	a0, s2
	mv	a1, s1
	call	_ZN8nlohmann14adl_serializerINSt7__cxx1112basic_stringIcSt11char_traitsIcESaIcEEEvE9from_jsonIRKNS_10basic_jsonISt3mapSt6vectorS6_blmdSaS0_EES6_EEDTcmclL_ZNS_12_GLOBAL__N_19from_jsonEEclsr3stdE7forwardIT_Efp_Efp0_Ecvv_EEOSG_RT0_
.Ltmp399:
	j	.LBB36_1
.LBB36_1:                               # %invoke.cont
	addi	a0, zero, 1
	sb	a0, -49(s0)
	lbu	a0, -49(s0)
	bnez	a0, .LBB36_4
	j	.LBB36_3
.LBB36_2:                               # %lpad
.Ltmp400:
	sd	a0, -64(s0)
	sw	a1, -68(s0)
	mv	a0, s1
	call	_ZNSt7__cxx1112basic_stringIcSt11char_traitsIcESaIcEED1Ev
	j	.LBB36_5
.LBB36_3:                               # %nrvo.unused
	mv	a0, s1
	call	_ZNSt7__cxx1112basic_stringIcSt11char_traitsIcESaIcEED1Ev
	j	.LBB36_4
.LBB36_4:                               # %nrvo.skipdtor
	ld	s2, 48(sp)
	ld	s1, 56(sp)
	ld	s0, 64(sp)
	.cfi_def_cfa sp, 80
	ld	ra, 72(sp)
	.cfi_restore ra
	.cfi_restore s0
	.cfi_restore s1
	.cfi_restore s2
	addi	sp, sp, 80
	.cfi_def_cfa_offset 0
	ret
.LBB36_5:                               # %eh.resume
	ld	a0, -64(s0)
	call	_Unwind_Resume
.Lfunc_end36:
	.size	_ZNK8nlohmann10basic_jsonISt3mapSt6vectorNSt7__cxx1112basic_stringIcSt11char_traitsIcESaIcEEEblmdSaNS_14adl_serializerEE3getIS8_S8_Li0EEET0_v, .Lfunc_end36-_ZNK8nlohmann10basic_jsonISt3mapSt6vectorNSt7__cxx1112basic_stringIcSt11char_traitsIcESaIcEEEblmdSaNS_14adl_serializerEE3getIS8_S8_Li0EEET0_v
	.cfi_endproc
	.section	.gcc_except_table,"a",@progbits
	.p2align	2
GCC_except_table36:
.Lexception9:
	.byte	255                     # @LPStart Encoding = omit
	.byte	255                     # @TType Encoding = omit
	.byte	3                       # Call site Encoding = udata4
	.uleb128 .Lcst_end9-.Lcst_begin9
.Lcst_begin9:
	.word	.Ltmp398-.Lfunc_begin9  # >> Call Site 1 <<
	.word	.Ltmp399-.Ltmp398       #   Call between .Ltmp398 and .Ltmp399
	.word	.Ltmp400-.Lfunc_begin9  #     jumps to .Ltmp400
	.byte	0                       #   On action: cleanup
	.word	.Ltmp399-.Lfunc_begin9  # >> Call Site 2 <<
	.word	.Lfunc_end36-.Ltmp399   #   Call between .Ltmp399 and .Lfunc_end36
	.word	0                       #     has no landing pad
	.byte	0                       #   On action: cleanup
.Lcst_end9:
	.p2align	2
                                        # -- End function
	.section	.text._ZNSt10filesystem7__cxx114pathC2EONSt7__cxx1112basic_stringIcSt11char_traitsIcESaIcEEENS1_6formatE,"axG",@progbits,_ZNSt10filesystem7__cxx114pathC2EONSt7__cxx1112basic_stringIcSt11char_traitsIcESaIcEEENS1_6formatE,comdat
	.weak	_ZNSt10filesystem7__cxx114pathC2EONSt7__cxx1112basic_stringIcSt11char_traitsIcESaIcEEENS1_6formatE # -- Begin function _ZNSt10filesystem7__cxx114pathC2EONSt7__cxx1112basic_stringIcSt11char_traitsIcESaIcEEENS1_6formatE
	.p2align	2
	.type	_ZNSt10filesystem7__cxx114pathC2EONSt7__cxx1112basic_stringIcSt11char_traitsIcESaIcEEENS1_6formatE,@function
_ZNSt10filesystem7__cxx114pathC2EONSt7__cxx1112basic_stringIcSt11char_traitsIcESaIcEEENS1_6formatE: # @_ZNSt10filesystem7__cxx114pathC2EONSt7__cxx1112basic_stringIcSt11char_traitsIcESaIcEEENS1_6formatE
.Lfunc_begin10:
	.cfi_startproc
	.cfi_personality 155, DW.ref.__gxx_personality_v0
	.cfi_lsda 27, .Lexception10
# %bb.0:                                # %entry
	addi	sp, sp, -80
	.cfi_def_cfa_offset 80
	sd	ra, 72(sp)
	sd	s0, 64(sp)
	sd	s1, 56(sp)
	sd	s2, 48(sp)
	.cfi_offset ra, -8
	.cfi_offset s0, -16
	.cfi_offset s1, -24
	.cfi_offset s2, -32
	addi	s0, sp, 80
	.cfi_def_cfa s0, 0
	sd	a0, -40(s0)
	sd	a1, -48(s0)
	sb	a2, -49(s0)
	ld	s1, -40(s0)
	ld	a0, -48(s0)
	call	_ZSt4moveIRNSt7__cxx1112basic_stringIcSt11char_traitsIcESaIcEEEEONSt16remove_referenceIT_E4typeEOS8_
	mv	a1, a0
	mv	a0, s1
	call	_ZNSt7__cxx1112basic_stringIcSt11char_traitsIcESaIcEEC1EOS4_
	addi	s2, s1, 32
.Ltmp401:
	mv	a0, s2
	call	_ZNSt10filesystem7__cxx114path5_ListC1Ev
.Ltmp402:
	j	.LBB37_1
.LBB37_1:                               # %invoke.cont
.Ltmp404:
	mv	a0, s1
	call	_ZNSt10filesystem7__cxx114path14_M_split_cmptsEv
.Ltmp405:
	j	.LBB37_2
.LBB37_2:                               # %invoke.cont3
	ld	s2, 48(sp)
	ld	s1, 56(sp)
	ld	s0, 64(sp)
	.cfi_def_cfa sp, 80
	ld	ra, 72(sp)
	.cfi_restore ra
	.cfi_restore s0
	.cfi_restore s1
	.cfi_restore s2
	addi	sp, sp, 80
	.cfi_def_cfa_offset 0
	ret
.LBB37_3:                               # %lpad
.Ltmp403:
	sd	a0, -64(s0)
	sw	a1, -68(s0)
	j	.LBB37_5
.LBB37_4:                               # %lpad2
.Ltmp406:
	sd	a0, -64(s0)
	sw	a1, -68(s0)
	mv	a0, s2
	call	_ZNSt10filesystem7__cxx114path5_ListD2Ev
	j	.LBB37_5
.LBB37_5:                               # %ehcleanup
	mv	a0, s1
	call	_ZNSt7__cxx1112basic_stringIcSt11char_traitsIcESaIcEED1Ev
	j	.LBB37_6
.LBB37_6:                               # %eh.resume
	ld	a0, -64(s0)
	call	_Unwind_Resume
.Lfunc_end37:
	.size	_ZNSt10filesystem7__cxx114pathC2EONSt7__cxx1112basic_stringIcSt11char_traitsIcESaIcEEENS1_6formatE, .Lfunc_end37-_ZNSt10filesystem7__cxx114pathC2EONSt7__cxx1112basic_stringIcSt11char_traitsIcESaIcEEENS1_6formatE
	.cfi_endproc
	.section	.gcc_except_table,"a",@progbits
	.p2align	2
GCC_except_table37:
.Lexception10:
	.byte	255                     # @LPStart Encoding = omit
	.byte	255                     # @TType Encoding = omit
	.byte	3                       # Call site Encoding = udata4
	.uleb128 .Lcst_end10-.Lcst_begin10
.Lcst_begin10:
	.word	.Ltmp401-.Lfunc_begin10 # >> Call Site 1 <<
	.word	.Ltmp402-.Ltmp401       #   Call between .Ltmp401 and .Ltmp402
	.word	.Ltmp403-.Lfunc_begin10 #     jumps to .Ltmp403
	.byte	0                       #   On action: cleanup
	.word	.Ltmp404-.Lfunc_begin10 # >> Call Site 2 <<
	.word	.Ltmp405-.Ltmp404       #   Call between .Ltmp404 and .Ltmp405
	.word	.Ltmp406-.Lfunc_begin10 #     jumps to .Ltmp406
	.byte	0                       #   On action: cleanup
	.word	.Ltmp405-.Lfunc_begin10 # >> Call Site 3 <<
	.word	.Lfunc_end37-.Ltmp405   #   Call between .Ltmp405 and .Lfunc_end37
	.word	0                       #     has no landing pad
	.byte	0                       #   On action: cleanup
.Lcst_end10:
	.p2align	2
                                        # -- End function
	.section	.text._ZNSt10filesystem7__cxx114pathD2Ev,"axG",@progbits,_ZNSt10filesystem7__cxx114pathD2Ev,comdat
	.weak	_ZNSt10filesystem7__cxx114pathD2Ev # -- Begin function _ZNSt10filesystem7__cxx114pathD2Ev
	.p2align	2
	.type	_ZNSt10filesystem7__cxx114pathD2Ev,@function
_ZNSt10filesystem7__cxx114pathD2Ev:     # @_ZNSt10filesystem7__cxx114pathD2Ev
# %bb.0:                                # %entry
	addi	sp, sp, -32
	sd	ra, 24(sp)
	sd	s0, 16(sp)
	sd	s1, 8(sp)
	addi	s0, sp, 32
	sd	a0, -32(s0)
	ld	s1, -32(s0)
	addi	a0, s1, 32
	call	_ZNSt10filesystem7__cxx114path5_ListD2Ev
	mv	a0, s1
	call	_ZNSt7__cxx1112basic_stringIcSt11char_traitsIcESaIcEED1Ev
	ld	s1, 8(sp)
	ld	s0, 16(sp)
	ld	ra, 24(sp)
	addi	sp, sp, 32
	ret
.Lfunc_end38:
	.size	_ZNSt10filesystem7__cxx114pathD2Ev, .Lfunc_end38-_ZNSt10filesystem7__cxx114pathD2Ev
                                        # -- End function
	.text
	.globl	_ZNK5Scene8parseOBJERKNSt10filesystem7__cxx114pathERSt6vectorIN3glm3vecILi3EdLNS6_9qualifierE0EEESaIS9_EESC_RS5_IS5_ImSaImEESaISE_EESH_SH_ # -- Begin function _ZNK5Scene8parseOBJERKNSt10filesystem7__cxx114pathERSt6vectorIN3glm3vecILi3EdLNS6_9qualifierE0EEESaIS9_EESC_RS5_IS5_ImSaImEESaISE_EESH_SH_
	.p2align	2
	.type	_ZNK5Scene8parseOBJERKNSt10filesystem7__cxx114pathERSt6vectorIN3glm3vecILi3EdLNS6_9qualifierE0EEESaIS9_EESC_RS5_IS5_ImSaImEESaISE_EESH_SH_,@function
_ZNK5Scene8parseOBJERKNSt10filesystem7__cxx114pathERSt6vectorIN3glm3vecILi3EdLNS6_9qualifierE0EEESaIS9_EESC_RS5_IS5_ImSaImEESaISE_EESH_SH_: # @_ZNK5Scene8parseOBJERKNSt10filesystem7__cxx114pathERSt6vectorIN3glm3vecILi3EdLNS6_9qualifierE0EEESaIS9_EESC_RS5_IS5_ImSaImEESaISE_EESH_SH_
.Lfunc_begin11:
	.cfi_startproc
	.cfi_personality 155, DW.ref.__gxx_personality_v0
	.cfi_lsda 27, .Lexception11
# %bb.0:                                # %entry
	addi	sp, sp, -1760
	.cfi_def_cfa_offset 1760
	sd	ra, 1752(sp)
	sd	s0, 1744(sp)
	sd	s1, 1736(sp)
	.cfi_offset ra, -8
	.cfi_offset s0, -16
	.cfi_offset s1, -24
	addi	s0, sp, 1760
	.cfi_def_cfa s0, 0
	sd	a0, -40(s0)
	sd	a1, -48(s0)
	sd	a2, -56(s0)
	sd	a3, -64(s0)
	sd	a4, -72(s0)
	sd	a5, -80(s0)
	sd	a6, -88(s0)
	ld	a0, -48(s0)
	call	_ZNSt10filesystem6existsERKNS_7__cxx114pathE
	bnez	a0, .LBB39_4
	j	.LBB39_1
.LBB39_1:                               # %if.then
	ld	a1, -48(s0)
	addi	s1, s0, -120
	mv	a0, s1
	call	_ZNKSt10filesystem7__cxx114path6stringEv
	mv	a0, s1
	call	_ZNKSt7__cxx1112basic_stringIcSt11char_traitsIcESaIcEE5c_strEv
	mv	a1, a0
.Ltmp407:
	lui	a0, %hi(.L.str.21)
	addi	a0, a0, %lo(.L.str.21)
	call	printf
.Ltmp408:
	j	.LBB39_2
.LBB39_2:                               # %invoke.cont
	addi	a0, s0, -120
	call	_ZNSt7__cxx1112basic_stringIcSt11char_traitsIcESaIcEED1Ev
	j	.LBB39_96
.LBB39_3:                               # %lpad
.Ltmp409:
	sd	a0, -128(s0)
	sw	a1, -132(s0)
	addi	a0, s0, -120
	call	_ZNSt7__cxx1112basic_stringIcSt11char_traitsIcESaIcEED1Ev
	j	.LBB39_98
.LBB39_4:                               # %if.end
	ld	a1, -48(s0)
	addi	a0, s0, -624
	addi	a2, zero, 8
	call	_ZNSt14basic_ifstreamIcSt11char_traitsIcEEC1INSt10filesystem7__cxx114pathES6_EERKT_St13_Ios_Openmode
	addi	a0, s0, -664
	call	_ZNSt7__cxx1112basic_stringIcSt11char_traitsIcESaIcEEC1Ev
	j	.LBB39_5
.LBB39_5:                               # %while.cond
                                        # =>This Loop Header: Depth=1
                                        #     Child Loop BB39_32 Depth 2
                                        #       Child Loop BB39_37 Depth 3
.Ltmp410:
	addi	a0, s0, -624
	addi	a1, s0, -664
	call	_ZSt7getlineIcSt11char_traitsIcESaIcEERSt13basic_istreamIT_T0_ES7_RNSt7__cxx1112basic_stringIS4_S5_T1_EE
.Ltmp411:
	j	.LBB39_6
.LBB39_6:                               # %invoke.cont5
                                        #   in Loop: Header=BB39_5 Depth=1
	ld	a1, 0(a0)
	ld	a1, -24(a1)
	add	a0, a0, a1
.Ltmp412:
	call	_ZNKSt9basic_iosIcSt11char_traitsIcEEcvbEv
.Ltmp413:
	j	.LBB39_7
.LBB39_7:                               # %invoke.cont7
                                        #   in Loop: Header=BB39_5 Depth=1
	andi	a0, a0, 1
	beqz	a0, .LBB39_94
	j	.LBB39_8
.LBB39_8:                               # %while.body
                                        #   in Loop: Header=BB39_5 Depth=1
.Ltmp417:
	addi	a0, zero, 16
	addi	a1, zero, 8
	call	_ZStorSt13_Ios_OpenmodeS_
.Ltmp418:
	j	.LBB39_9
.LBB39_9:                               # %invoke.cont9
                                        #   in Loop: Header=BB39_5 Depth=1
.Ltmp419:
	sext.w	a2, a0
	addi	a0, s0, -1056
	addi	a1, s0, -664
	call	_ZNSt7__cxx1118basic_stringstreamIcSt11char_traitsIcESaIcEEC1ERKNS_12basic_stringIcS2_S3_EESt13_Ios_Openmode
.Ltmp420:
	j	.LBB39_10
.LBB39_10:                              # %invoke.cont11
                                        #   in Loop: Header=BB39_5 Depth=1
	addi	s1, s0, -1088
	mv	a0, s1
	call	_ZNSt7__cxx1112basic_stringIcSt11char_traitsIcESaIcEEC1Ev
.Ltmp422:
	addi	a0, s0, -1056
	mv	a1, s1
	call	_ZStrsIcSt11char_traitsIcESaIcEERSt13basic_istreamIT_T0_ES7_RNSt7__cxx1112basic_stringIS4_S5_T1_EE
.Ltmp423:
	j	.LBB39_11
.LBB39_11:                              # %invoke.cont13
                                        #   in Loop: Header=BB39_5 Depth=1
.Ltmp424:
	lui	a0, %hi(.L.str.22)
	addi	a1, a0, %lo(.L.str.22)
	addi	a0, s0, -1088
	call	_ZSteqIcSt11char_traitsIcESaIcEEbRKNSt7__cxx1112basic_stringIT_T0_T1_EEPKS5_
.Ltmp425:
	j	.LBB39_12
.LBB39_12:                              # %invoke.cont15
                                        #   in Loop: Header=BB39_5 Depth=1
	andi	a0, a0, 1
	beqz	a0, .LBB39_22
	j	.LBB39_13
.LBB39_13:                              # %if.then17
                                        #   in Loop: Header=BB39_5 Depth=1
.Ltmp426:
	addi	a0, s0, -1056
	addi	a1, s0, -1112
	call	_ZNSirsERd
.Ltmp427:
	j	.LBB39_14
.LBB39_14:                              # %invoke.cont18
                                        #   in Loop: Header=BB39_5 Depth=1
	addi	a1, s0, -1112
	addi	a1, a1, 8
.Ltmp428:
	call	_ZNSirsERd
.Ltmp429:
	j	.LBB39_15
.LBB39_15:                              # %invoke.cont20
                                        #   in Loop: Header=BB39_5 Depth=1
	addi	a1, s0, -1112
	addi	a1, a1, 16
.Ltmp430:
	call	_ZNSirsERd
.Ltmp431:
	j	.LBB39_16
.LBB39_16:                              # %invoke.cont22
                                        #   in Loop: Header=BB39_5 Depth=1
	ld	a0, -56(s0)
.Ltmp432:
	addi	a1, s0, -1112
	call	_ZNSt6vectorIN3glm3vecILi3EdLNS0_9qualifierE0EEESaIS3_EE9push_backERKS3_
.Ltmp433:
	j	.LBB39_17
.LBB39_17:                              # %invoke.cont24
                                        #   in Loop: Header=BB39_5 Depth=1
	j	.LBB39_22
.LBB39_18:                              # %lpad4.loopexit
.Ltmp421:
	j	.LBB39_20
.LBB39_19:                              # %lpad4.loopexit.split-lp
.Ltmp416:
	j	.LBB39_20
.LBB39_20:                              # %lpad4
	sd	a0, -128(s0)
	sw	a1, -132(s0)
	j	.LBB39_97
.LBB39_21:                              # %lpad12
.Ltmp493:
	sd	a0, -128(s0)
	sw	a1, -132(s0)
	j	.LBB39_93
.LBB39_22:                              # %if.end25
                                        #   in Loop: Header=BB39_5 Depth=1
.Ltmp434:
	lui	a0, %hi(.L.str.23)
	addi	a1, a0, %lo(.L.str.23)
	addi	a0, s0, -1088
	call	_ZSteqIcSt11char_traitsIcESaIcEEbRKNSt7__cxx1112basic_stringIT_T0_T1_EEPKS5_
.Ltmp435:
	j	.LBB39_23
.LBB39_23:                              # %invoke.cont26
                                        #   in Loop: Header=BB39_5 Depth=1
	andi	a0, a0, 1
	beqz	a0, .LBB39_29
	j	.LBB39_24
.LBB39_24:                              # %if.then28
                                        #   in Loop: Header=BB39_5 Depth=1
.Ltmp485:
	addi	a0, s0, -1056
	addi	a1, s0, -1136
	call	_ZNSirsERd
.Ltmp486:
	j	.LBB39_25
.LBB39_25:                              # %invoke.cont30
                                        #   in Loop: Header=BB39_5 Depth=1
	addi	a1, s0, -1136
	addi	a1, a1, 8
.Ltmp487:
	call	_ZNSirsERd
.Ltmp488:
	j	.LBB39_26
.LBB39_26:                              # %invoke.cont33
                                        #   in Loop: Header=BB39_5 Depth=1
	addi	a1, s0, -1136
	addi	a1, a1, 16
.Ltmp489:
	call	_ZNSirsERd
.Ltmp490:
	j	.LBB39_27
.LBB39_27:                              # %invoke.cont36
                                        #   in Loop: Header=BB39_5 Depth=1
	ld	a0, -64(s0)
.Ltmp491:
	addi	a1, s0, -1136
	call	_ZNSt6vectorIN3glm3vecILi3EdLNS0_9qualifierE0EEESaIS3_EE9push_backERKS3_
.Ltmp492:
	j	.LBB39_28
.LBB39_28:                              # %invoke.cont38
                                        #   in Loop: Header=BB39_5 Depth=1
	j	.LBB39_92
.LBB39_29:                              # %if.else
                                        #   in Loop: Header=BB39_5 Depth=1
.Ltmp436:
	lui	a0, %hi(.L.str.24)
	addi	a1, a0, %lo(.L.str.24)
	addi	a0, s0, -1088
	call	_ZSteqIcSt11char_traitsIcESaIcEEbRKNSt7__cxx1112basic_stringIT_T0_T1_EEPKS5_
.Ltmp437:
	j	.LBB39_30
.LBB39_30:                              # %invoke.cont39
                                        #   in Loop: Header=BB39_5 Depth=1
	andi	a0, a0, 1
	beqz	a0, .LBB39_91
	j	.LBB39_31
.LBB39_31:                              # %if.then41
                                        #   in Loop: Header=BB39_5 Depth=1
	addi	a0, s0, -1160
	call	_ZNSt6vectorImSaImEEC2Ev
	addi	a0, s0, -1184
	call	_ZNSt6vectorImSaImEEC2Ev
	addi	a0, s0, -1208
	call	_ZNSt6vectorImSaImEEC2Ev
	sw	zero, -1212(s0)
	j	.LBB39_32
.LBB39_32:                              # %for.cond
                                        #   Parent Loop BB39_5 Depth=1
                                        # =>  This Loop Header: Depth=2
                                        #       Child Loop BB39_37 Depth 3
	lw	a0, -1212(s0)
	addi	a1, zero, 2
	blt	a1, a0, .LBB39_79
	j	.LBB39_33
.LBB39_33:                              # %for.body
                                        #   in Loop: Header=BB39_32 Depth=2
	addi	s1, s0, -1248
	mv	a0, s1
	call	_ZNSt7__cxx1112basic_stringIcSt11char_traitsIcESaIcEEC1Ev
.Ltmp445:
	addi	a0, s0, -1056
	mv	a1, s1
	call	_ZStrsIcSt11char_traitsIcESaIcEERSt13basic_istreamIT_T0_ES7_RNSt7__cxx1112basic_stringIS4_S5_T1_EE
.Ltmp446:
	j	.LBB39_34
.LBB39_34:                              # %invoke.cont43
                                        #   in Loop: Header=BB39_32 Depth=2
.Ltmp447:
	addi	a0, zero, 16
	addi	a1, zero, 8
	call	_ZStorSt13_Ios_OpenmodeS_
.Ltmp448:
	j	.LBB39_35
.LBB39_35:                              # %invoke.cont45
                                        #   in Loop: Header=BB39_32 Depth=2
.Ltmp449:
	sext.w	a2, a0
	addi	a0, s0, -1640
	addi	a1, s0, -1248
	call	_ZNSt7__cxx1118basic_stringstreamIcSt11char_traitsIcESaIcEEC1ERKNS_12basic_stringIcS2_S3_EESt13_Ios_Openmode
.Ltmp450:
	j	.LBB39_36
.LBB39_36:                              # %invoke.cont47
                                        #   in Loop: Header=BB39_32 Depth=2
	addi	a0, s0, -1664
	call	_ZNSt6vectorImSaImEEC2Ev
	j	.LBB39_37
.LBB39_37:                              # %while.cond48
                                        #   Parent Loop BB39_5 Depth=1
                                        #     Parent Loop BB39_32 Depth=2
                                        # =>    This Inner Loop Header: Depth=3
	ld	a0, -1640(s0)
	ld	a0, -24(a0)
	addi	a1, s0, -1640
	add	a0, a1, a0
.Ltmp452:
	call	_ZNKSt9basic_iosIcSt11char_traitsIcEE4goodEv
.Ltmp453:
	j	.LBB39_38
.LBB39_38:                              # %invoke.cont54
                                        #   in Loop: Header=BB39_37 Depth=3
	andi	a0, a0, 1
	beqz	a0, .LBB39_59
	j	.LBB39_39
.LBB39_39:                              # %while.body56
                                        #   in Loop: Header=BB39_37 Depth=3
.Ltmp467:
	addi	a0, s0, -1640
	call	_ZNSi4peekEv
.Ltmp468:
	j	.LBB39_40
.LBB39_40:                              # %invoke.cont57
                                        #   in Loop: Header=BB39_37 Depth=3
	slli	a0, a0, 32
	srli	a0, a0, 32
	addi	a1, zero, 45
	bne	a0, a1, .LBB39_50
	j	.LBB39_41
.LBB39_41:                              # %if.then60
	addi	a0, zero, 16
	call	__cxa_allocate_exception
	mv	s1, a0
.Ltmp479:
	lui	a0, %hi(.L.str.25)
	addi	a1, a0, %lo(.L.str.25)
	mv	a0, s1
	call	_ZNSt13runtime_errorC1EPKc
.Ltmp480:
	j	.LBB39_42
.LBB39_42:                              # %invoke.cont62
.Ltmp482:
	lui	a0, %hi(_ZTISt13runtime_error)
	addi	a1, a0, %lo(_ZTISt13runtime_error)
	lui	a0, %hi(_ZNSt13runtime_errorD1Ev)
	addi	a2, a0, %lo(_ZNSt13runtime_errorD1Ev)
	mv	a0, s1
	call	__cxa_throw
.Ltmp483:
	j	.LBB39_99
.LBB39_43:                              # %lpad42
.Ltmp451:
	sd	a0, -128(s0)
	sw	a1, -132(s0)
	j	.LBB39_78
.LBB39_44:                              # %lpad53.loopexit
.Ltmp469:
	j	.LBB39_48
.LBB39_45:                              # %lpad53.loopexit.split-lp.loopexit
.Ltmp466:
	j	.LBB39_47
.LBB39_46:                              # %lpad53.loopexit.split-lp.loopexit.split-lp
.Ltmp484:
	j	.LBB39_47
.LBB39_47:                              # %lpad53.loopexit.split-lp
	j	.LBB39_48
.LBB39_48:                              # %lpad53
	sd	a0, -128(s0)
	sw	a1, -132(s0)
	j	.LBB39_77
.LBB39_49:                              # %lpad61
.Ltmp481:
	sd	a0, -128(s0)
	sw	a1, -132(s0)
	mv	a0, s1
	call	__cxa_free_exception
	j	.LBB39_77
.LBB39_50:                              # %if.end63
                                        #   in Loop: Header=BB39_37 Depth=3
	addi	s1, s0, -1696
	mv	a0, s1
	call	_ZNSt7__cxx1112basic_stringIcSt11char_traitsIcESaIcEEC1Ev
.Ltmp470:
	addi	a0, s0, -1640
	mv	a1, s1
	addi	a2, zero, 47
	call	_ZSt7getlineIcSt11char_traitsIcESaIcEERSt13basic_istreamIT_T0_ES7_RNSt7__cxx1112basic_stringIS4_S5_T1_EES4_
.Ltmp471:
	j	.LBB39_51
.LBB39_51:                              # %invoke.cont65
                                        #   in Loop: Header=BB39_37 Depth=3
.Ltmp472:
	addi	a0, s0, -632
	addi	a1, s0, -1696
	call	_ZZNK5Scene8parseOBJERKNSt10filesystem7__cxx114pathERSt6vectorIN3glm3vecILi3EdLNS6_9qualifierE0EEESaIS9_EESC_RS5_IS5_ImSaImEESaISE_EESH_SH_ENK3$_1clERKNSt7__cxx1112basic_stringIcSt11char_traitsIcESaIcEEE
.Ltmp473:
	j	.LBB39_52
.LBB39_52:                              # %invoke.cont68
                                        #   in Loop: Header=BB39_37 Depth=3
	andi	a0, a0, 1
	beqz	a0, .LBB39_55
	j	.LBB39_53
.LBB39_53:                              # %cond.true
                                        #   in Loop: Header=BB39_37 Depth=3
.Ltmp474:
	addi	a0, s0, -1696
	mv	a1, zero
	addi	a2, zero, 10
	call	_ZNSt7__cxx116stoullERKNS_12basic_stringIcSt11char_traitsIcESaIcEEEPmi
.Ltmp475:
	j	.LBB39_54
.LBB39_54:                              # %invoke.cont70
                                        #   in Loop: Header=BB39_37 Depth=3
	j	.LBB39_56
.LBB39_55:                              # %cond.false
                                        #   in Loop: Header=BB39_37 Depth=3
	mv	a0, zero
	j	.LBB39_56
.LBB39_56:                              # %cond.end
                                        #   in Loop: Header=BB39_37 Depth=3
	sd	a0, -1704(s0)
.Ltmp476:
	addi	a0, s0, -1664
	addi	a1, s0, -1704
	call	_ZNSt6vectorImSaImEE9push_backEOm
.Ltmp477:
	j	.LBB39_57
.LBB39_57:                              # %invoke.cont72
                                        #   in Loop: Header=BB39_37 Depth=3
	addi	a0, s0, -1696
	call	_ZNSt7__cxx1112basic_stringIcSt11char_traitsIcESaIcEED1Ev
	j	.LBB39_37
.LBB39_58:                              # %lpad64
.Ltmp478:
	sd	a0, -128(s0)
	sw	a1, -132(s0)
	addi	a0, s0, -1696
	call	_ZNSt7__cxx1112basic_stringIcSt11char_traitsIcESaIcEED1Ev
	j	.LBB39_77
.LBB39_59:                              # %while.end
                                        #   in Loop: Header=BB39_32 Depth=2
	addi	a0, s0, -1664
	call	_ZNKSt6vectorImSaImEE4sizeEv
	addi	a1, zero, 1
	bne	a0, a1, .LBB39_62
	j	.LBB39_60
.LBB39_60:                              # %if.then75
                                        #   in Loop: Header=BB39_32 Depth=2
	addi	a0, s0, -1664
	mv	a1, zero
	call	_ZNSt6vectorImSaImEEixEm
	ld	a0, 0(a0)
	addi	a0, a0, -1
	sd	a0, -1712(s0)
.Ltmp464:
	addi	a0, s0, -1160
	addi	a1, s0, -1712
	call	_ZNSt6vectorImSaImEE9push_backEOm
.Ltmp465:
	j	.LBB39_61
.LBB39_61:                              # %invoke.cont78
                                        #   in Loop: Header=BB39_32 Depth=2
	j	.LBB39_75
.LBB39_62:                              # %if.else79
                                        #   in Loop: Header=BB39_32 Depth=2
	addi	a0, s0, -1664
	call	_ZNKSt6vectorImSaImEE4sizeEv
	addi	a1, zero, 2
	bne	a0, a1, .LBB39_66
	j	.LBB39_63
.LBB39_63:                              # %if.then82
                                        #   in Loop: Header=BB39_32 Depth=2
	addi	a0, s0, -1664
	mv	a1, zero
	call	_ZNSt6vectorImSaImEEixEm
	ld	a0, 0(a0)
	addi	a0, a0, -1
	sd	a0, -1720(s0)
.Ltmp460:
	addi	a0, s0, -1160
	addi	a1, s0, -1720
	call	_ZNSt6vectorImSaImEE9push_backEOm
.Ltmp461:
	j	.LBB39_64
.LBB39_64:                              # %invoke.cont86
                                        #   in Loop: Header=BB39_32 Depth=2
	addi	a0, s0, -1664
	addi	a1, zero, 1
	call	_ZNSt6vectorImSaImEEixEm
	ld	a0, 0(a0)
	addi	a0, a0, -1
	sd	a0, -1728(s0)
.Ltmp462:
	addi	a0, s0, -1184
	addi	a1, s0, -1728
	call	_ZNSt6vectorImSaImEE9push_backEOm
.Ltmp463:
	j	.LBB39_65
.LBB39_65:                              # %invoke.cont90
                                        #   in Loop: Header=BB39_32 Depth=2
	j	.LBB39_74
.LBB39_66:                              # %if.else91
                                        #   in Loop: Header=BB39_32 Depth=2
	addi	a0, s0, -1664
	call	_ZNKSt6vectorImSaImEE4sizeEv
	addi	a1, zero, 3
	bne	a0, a1, .LBB39_73
	j	.LBB39_67
.LBB39_67:                              # %if.then94
                                        #   in Loop: Header=BB39_32 Depth=2
	addi	a0, s0, -1664
	mv	a1, zero
	call	_ZNSt6vectorImSaImEEixEm
	ld	a0, 0(a0)
	addi	a0, a0, -1
	sd	a0, -1736(s0)
.Ltmp454:
	addi	a0, s0, -1160
	addi	a1, s0, -1736
	call	_ZNSt6vectorImSaImEE9push_backEOm
.Ltmp455:
	j	.LBB39_68
.LBB39_68:                              # %invoke.cont98
                                        #   in Loop: Header=BB39_32 Depth=2
	addi	a0, s0, -1664
	addi	a1, zero, 1
	call	_ZNSt6vectorImSaImEEixEm
	ld	a0, 0(a0)
	beqz	a0, .LBB39_71
	j	.LBB39_69
.LBB39_69:                              # %if.then100
                                        #   in Loop: Header=BB39_32 Depth=2
	addi	a0, s0, -1664
	addi	a1, zero, 1
	call	_ZNSt6vectorImSaImEEixEm
	ld	a0, 0(a0)
	addi	a0, a0, -1
	sd	a0, -1744(s0)
.Ltmp456:
	addi	a0, s0, -1184
	addi	a1, s0, -1744
	call	_ZNSt6vectorImSaImEE9push_backEOm
.Ltmp457:
	j	.LBB39_70
.LBB39_70:                              # %invoke.cont104
                                        #   in Loop: Header=BB39_32 Depth=2
	j	.LBB39_71
.LBB39_71:                              # %if.end105
                                        #   in Loop: Header=BB39_32 Depth=2
	addi	a0, s0, -1664
	addi	a1, zero, 2
	call	_ZNSt6vectorImSaImEEixEm
	ld	a0, 0(a0)
	addi	a0, a0, -1
	sd	a0, -1752(s0)
.Ltmp458:
	addi	a0, s0, -1208
	addi	a1, s0, -1752
	call	_ZNSt6vectorImSaImEE9push_backEOm
.Ltmp459:
	j	.LBB39_72
.LBB39_72:                              # %invoke.cont109
                                        #   in Loop: Header=BB39_32 Depth=2
	j	.LBB39_73
.LBB39_73:                              # %if.end110
                                        #   in Loop: Header=BB39_32 Depth=2
	j	.LBB39_74
.LBB39_74:                              # %if.end111
                                        #   in Loop: Header=BB39_32 Depth=2
	j	.LBB39_75
.LBB39_75:                              # %if.end112
                                        #   in Loop: Header=BB39_32 Depth=2
	addi	a0, s0, -1664
	call	_ZNSt6vectorImSaImEED2Ev
	addi	a0, s0, -1640
	call	_ZNSt7__cxx1118basic_stringstreamIcSt11char_traitsIcESaIcEED1Ev
	addi	a0, s0, -1248
	call	_ZNSt7__cxx1112basic_stringIcSt11char_traitsIcESaIcEED1Ev
	j	.LBB39_76
.LBB39_76:                              # %for.inc
                                        #   in Loop: Header=BB39_32 Depth=2
	lw	a0, -1212(s0)
	addi	a0, a0, 1
	sw	a0, -1212(s0)
	j	.LBB39_32
.LBB39_77:                              # %ehcleanup
	addi	a0, s0, -1664
	call	_ZNSt6vectorImSaImEED2Ev
	addi	a0, s0, -1640
	call	_ZNSt7__cxx1118basic_stringstreamIcSt11char_traitsIcESaIcEED1Ev
	j	.LBB39_78
.LBB39_78:                              # %ehcleanup114
	addi	a0, s0, -1248
	call	_ZNSt7__cxx1112basic_stringIcSt11char_traitsIcESaIcEED1Ev
	j	.LBB39_90
.LBB39_79:                              # %for.end
                                        #   in Loop: Header=BB39_5 Depth=1
	addi	a0, s0, -1160
	call	_ZNKSt6vectorImSaImEE4sizeEv
	addi	a1, zero, 3
	bne	a0, a1, .LBB39_83
	j	.LBB39_80
.LBB39_80:                              # %if.then117
                                        #   in Loop: Header=BB39_5 Depth=1
	ld	a0, -72(s0)
.Ltmp438:
	addi	a1, s0, -1160
	call	_ZNSt6vectorIS_ImSaImEESaIS1_EE9push_backERKS1_
.Ltmp439:
	j	.LBB39_81
.LBB39_81:                              # %invoke.cont119
                                        #   in Loop: Header=BB39_5 Depth=1
	j	.LBB39_83
.LBB39_82:                              # %lpad118
.Ltmp444:
	sd	a0, -128(s0)
	sw	a1, -132(s0)
	j	.LBB39_90
.LBB39_83:                              # %if.end120
                                        #   in Loop: Header=BB39_5 Depth=1
	addi	a0, s0, -1184
	call	_ZNKSt6vectorImSaImEE4sizeEv
	addi	a1, zero, 3
	bne	a0, a1, .LBB39_86
	j	.LBB39_84
.LBB39_84:                              # %if.then123
                                        #   in Loop: Header=BB39_5 Depth=1
	ld	a0, -80(s0)
.Ltmp440:
	addi	a1, s0, -1184
	call	_ZNSt6vectorIS_ImSaImEESaIS1_EE9push_backERKS1_
.Ltmp441:
	j	.LBB39_85
.LBB39_85:                              # %invoke.cont124
                                        #   in Loop: Header=BB39_5 Depth=1
	j	.LBB39_86
.LBB39_86:                              # %if.end125
                                        #   in Loop: Header=BB39_5 Depth=1
	addi	a0, s0, -1208
	call	_ZNKSt6vectorImSaImEE4sizeEv
	addi	a1, zero, 3
	bne	a0, a1, .LBB39_89
	j	.LBB39_87
.LBB39_87:                              # %if.then128
                                        #   in Loop: Header=BB39_5 Depth=1
	ld	a0, -88(s0)
.Ltmp442:
	addi	a1, s0, -1208
	call	_ZNSt6vectorIS_ImSaImEESaIS1_EE9push_backERKS1_
.Ltmp443:
	j	.LBB39_88
.LBB39_88:                              # %invoke.cont129
                                        #   in Loop: Header=BB39_5 Depth=1
	j	.LBB39_89
.LBB39_89:                              # %if.end130
                                        #   in Loop: Header=BB39_5 Depth=1
	addi	a0, s0, -1208
	call	_ZNSt6vectorImSaImEED2Ev
	addi	a0, s0, -1184
	call	_ZNSt6vectorImSaImEED2Ev
	addi	a0, s0, -1160
	call	_ZNSt6vectorImSaImEED2Ev
	j	.LBB39_91
.LBB39_90:                              # %ehcleanup131
	addi	a0, s0, -1208
	call	_ZNSt6vectorImSaImEED2Ev
	addi	a0, s0, -1184
	call	_ZNSt6vectorImSaImEED2Ev
	addi	a0, s0, -1160
	call	_ZNSt6vectorImSaImEED2Ev
	j	.LBB39_93
.LBB39_91:                              # %if.end134
                                        #   in Loop: Header=BB39_5 Depth=1
	j	.LBB39_92
.LBB39_92:                              # %if.end135
                                        #   in Loop: Header=BB39_5 Depth=1
	addi	a0, s0, -1088
	call	_ZNSt7__cxx1112basic_stringIcSt11char_traitsIcESaIcEED1Ev
	addi	a0, s0, -1056
	call	_ZNSt7__cxx1118basic_stringstreamIcSt11char_traitsIcESaIcEED1Ev
	j	.LBB39_5
.LBB39_93:                              # %ehcleanup136
	addi	a0, s0, -1088
	call	_ZNSt7__cxx1112basic_stringIcSt11char_traitsIcESaIcEED1Ev
	addi	a0, s0, -1056
	call	_ZNSt7__cxx1118basic_stringstreamIcSt11char_traitsIcESaIcEED1Ev
	j	.LBB39_97
.LBB39_94:                              # %while.end138
.Ltmp414:
	addi	a0, s0, -624
	call	_ZNSt14basic_ifstreamIcSt11char_traitsIcEE5closeEv
.Ltmp415:
	j	.LBB39_95
.LBB39_95:                              # %invoke.cont139
	addi	a0, s0, -664
	call	_ZNSt7__cxx1112basic_stringIcSt11char_traitsIcESaIcEED1Ev
	addi	a0, s0, -624
	call	_ZNSt14basic_ifstreamIcSt11char_traitsIcEED1Ev
	j	.LBB39_96
.LBB39_96:                              # %return
	ld	s1, 1736(sp)
	ld	s0, 1744(sp)
	.cfi_def_cfa sp, 1760
	ld	ra, 1752(sp)
	.cfi_restore ra
	.cfi_restore s0
	.cfi_restore s1
	addi	sp, sp, 1760
	.cfi_def_cfa_offset 0
	ret
.LBB39_97:                              # %ehcleanup140
	addi	a0, s0, -664
	call	_ZNSt7__cxx1112basic_stringIcSt11char_traitsIcESaIcEED1Ev
	addi	a0, s0, -624
	call	_ZNSt14basic_ifstreamIcSt11char_traitsIcEED1Ev
	j	.LBB39_98
.LBB39_98:                              # %eh.resume
	ld	a0, -128(s0)
	call	_Unwind_Resume
.LBB39_99:                              # %unreachable
.Lfunc_end39:
	.size	_ZNK5Scene8parseOBJERKNSt10filesystem7__cxx114pathERSt6vectorIN3glm3vecILi3EdLNS6_9qualifierE0EEESaIS9_EESC_RS5_IS5_ImSaImEESaISE_EESH_SH_, .Lfunc_end39-_ZNK5Scene8parseOBJERKNSt10filesystem7__cxx114pathERSt6vectorIN3glm3vecILi3EdLNS6_9qualifierE0EEESaIS9_EESC_RS5_IS5_ImSaImEESaISE_EESH_SH_
	.cfi_endproc
	.section	.gcc_except_table,"a",@progbits
	.p2align	2
GCC_except_table39:
.Lexception11:
	.byte	255                     # @LPStart Encoding = omit
	.byte	255                     # @TType Encoding = omit
	.byte	3                       # Call site Encoding = udata4
	.uleb128 .Lcst_end11-.Lcst_begin11
.Lcst_begin11:
	.word	.Lfunc_begin11-.Lfunc_begin11 # >> Call Site 1 <<
	.word	.Ltmp407-.Lfunc_begin11 #   Call between .Lfunc_begin11 and .Ltmp407
	.word	0                       #     has no landing pad
	.byte	0                       #   On action: cleanup
	.word	.Ltmp407-.Lfunc_begin11 # >> Call Site 2 <<
	.word	.Ltmp408-.Ltmp407       #   Call between .Ltmp407 and .Ltmp408
	.word	.Ltmp409-.Lfunc_begin11 #     jumps to .Ltmp409
	.byte	0                       #   On action: cleanup
	.word	.Ltmp408-.Lfunc_begin11 # >> Call Site 3 <<
	.word	.Ltmp410-.Ltmp408       #   Call between .Ltmp408 and .Ltmp410
	.word	0                       #     has no landing pad
	.byte	0                       #   On action: cleanup
	.word	.Ltmp410-.Lfunc_begin11 # >> Call Site 4 <<
	.word	.Ltmp420-.Ltmp410       #   Call between .Ltmp410 and .Ltmp420
	.word	.Ltmp421-.Lfunc_begin11 #     jumps to .Ltmp421
	.byte	0                       #   On action: cleanup
	.word	.Ltmp422-.Lfunc_begin11 # >> Call Site 5 <<
	.word	.Ltmp437-.Ltmp422       #   Call between .Ltmp422 and .Ltmp437
	.word	.Ltmp493-.Lfunc_begin11 #     jumps to .Ltmp493
	.byte	0                       #   On action: cleanup
	.word	.Ltmp445-.Lfunc_begin11 # >> Call Site 6 <<
	.word	.Ltmp450-.Ltmp445       #   Call between .Ltmp445 and .Ltmp450
	.word	.Ltmp451-.Lfunc_begin11 #     jumps to .Ltmp451
	.byte	0                       #   On action: cleanup
	.word	.Ltmp452-.Lfunc_begin11 # >> Call Site 7 <<
	.word	.Ltmp468-.Ltmp452       #   Call between .Ltmp452 and .Ltmp468
	.word	.Ltmp469-.Lfunc_begin11 #     jumps to .Ltmp469
	.byte	0                       #   On action: cleanup
	.word	.Ltmp468-.Lfunc_begin11 # >> Call Site 8 <<
	.word	.Ltmp479-.Ltmp468       #   Call between .Ltmp468 and .Ltmp479
	.word	0                       #     has no landing pad
	.byte	0                       #   On action: cleanup
	.word	.Ltmp479-.Lfunc_begin11 # >> Call Site 9 <<
	.word	.Ltmp480-.Ltmp479       #   Call between .Ltmp479 and .Ltmp480
	.word	.Ltmp481-.Lfunc_begin11 #     jumps to .Ltmp481
	.byte	0                       #   On action: cleanup
	.word	.Ltmp482-.Lfunc_begin11 # >> Call Site 10 <<
	.word	.Ltmp483-.Ltmp482       #   Call between .Ltmp482 and .Ltmp483
	.word	.Ltmp484-.Lfunc_begin11 #     jumps to .Ltmp484
	.byte	0                       #   On action: cleanup
	.word	.Ltmp483-.Lfunc_begin11 # >> Call Site 11 <<
	.word	.Ltmp470-.Ltmp483       #   Call between .Ltmp483 and .Ltmp470
	.word	0                       #     has no landing pad
	.byte	0                       #   On action: cleanup
	.word	.Ltmp470-.Lfunc_begin11 # >> Call Site 12 <<
	.word	.Ltmp477-.Ltmp470       #   Call between .Ltmp470 and .Ltmp477
	.word	.Ltmp478-.Lfunc_begin11 #     jumps to .Ltmp478
	.byte	0                       #   On action: cleanup
	.word	.Ltmp464-.Lfunc_begin11 # >> Call Site 13 <<
	.word	.Ltmp459-.Ltmp464       #   Call between .Ltmp464 and .Ltmp459
	.word	.Ltmp466-.Lfunc_begin11 #     jumps to .Ltmp466
	.byte	0                       #   On action: cleanup
	.word	.Ltmp438-.Lfunc_begin11 # >> Call Site 14 <<
	.word	.Ltmp443-.Ltmp438       #   Call between .Ltmp438 and .Ltmp443
	.word	.Ltmp444-.Lfunc_begin11 #     jumps to .Ltmp444
	.byte	0                       #   On action: cleanup
	.word	.Ltmp414-.Lfunc_begin11 # >> Call Site 15 <<
	.word	.Ltmp415-.Ltmp414       #   Call between .Ltmp414 and .Ltmp415
	.word	.Ltmp416-.Lfunc_begin11 #     jumps to .Ltmp416
	.byte	0                       #   On action: cleanup
	.word	.Ltmp415-.Lfunc_begin11 # >> Call Site 16 <<
	.word	.Lfunc_end39-.Ltmp415   #   Call between .Ltmp415 and .Lfunc_end39
	.word	0                       #     has no landing pad
	.byte	0                       #   On action: cleanup
.Lcst_end11:
	.p2align	2
                                        # -- End function
	.section	.text._ZNSt13unordered_mapINSt7__cxx1112basic_stringIcSt11char_traitsIcESaIcEEESt6vectorIN3glm3vecILi3EdLNS7_9qualifierE0EEESaISA_EESt4hashIS5_ESt8equal_toIS5_ESaISt4pairIKS5_SC_EEE2atERSI_,"axG",@progbits,_ZNSt13unordered_mapINSt7__cxx1112basic_stringIcSt11char_traitsIcESaIcEEESt6vectorIN3glm3vecILi3EdLNS7_9qualifierE0EEESaISA_EESt4hashIS5_ESt8equal_toIS5_ESaISt4pairIKS5_SC_EEE2atERSI_,comdat
	.weak	_ZNSt13unordered_mapINSt7__cxx1112basic_stringIcSt11char_traitsIcESaIcEEESt6vectorIN3glm3vecILi3EdLNS7_9qualifierE0EEESaISA_EESt4hashIS5_ESt8equal_toIS5_ESaISt4pairIKS5_SC_EEE2atERSI_ # -- Begin function _ZNSt13unordered_mapINSt7__cxx1112basic_stringIcSt11char_traitsIcESaIcEEESt6vectorIN3glm3vecILi3EdLNS7_9qualifierE0EEESaISA_EESt4hashIS5_ESt8equal_toIS5_ESaISt4pairIKS5_SC_EEE2atERSI_
	.p2align	2
	.type	_ZNSt13unordered_mapINSt7__cxx1112basic_stringIcSt11char_traitsIcESaIcEEESt6vectorIN3glm3vecILi3EdLNS7_9qualifierE0EEESaISA_EESt4hashIS5_ESt8equal_toIS5_ESaISt4pairIKS5_SC_EEE2atERSI_,@function
_ZNSt13unordered_mapINSt7__cxx1112basic_stringIcSt11char_traitsIcESaIcEEESt6vectorIN3glm3vecILi3EdLNS7_9qualifierE0EEESaISA_EESt4hashIS5_ESt8equal_toIS5_ESaISt4pairIKS5_SC_EEE2atERSI_: # @_ZNSt13unordered_mapINSt7__cxx1112basic_stringIcSt11char_traitsIcESaIcEEESt6vectorIN3glm3vecILi3EdLNS7_9qualifierE0EEESaISA_EESt4hashIS5_ESt8equal_toIS5_ESaISt4pairIKS5_SC_EEE2atERSI_
	.cfi_startproc
# %bb.0:                                # %entry
	addi	sp, sp, -32
	.cfi_def_cfa_offset 32
	sd	ra, 24(sp)
	sd	s0, 16(sp)
	.cfi_offset ra, -8
	.cfi_offset s0, -16
	addi	s0, sp, 32
	.cfi_def_cfa s0, 0
	sd	a0, -24(s0)
	sd	a1, -32(s0)
	ld	a0, -24(s0)
	ld	a1, -32(s0)
	call	_ZNSt8__detail9_Map_baseINSt7__cxx1112basic_stringIcSt11char_traitsIcESaIcEEESt4pairIKS6_St6vectorIN3glm3vecILi3EdLNSA_9qualifierE0EEESaISD_EEESaISG_ENS_10_Select1stESt8equal_toIS6_ESt4hashIS6_ENS_18_Mod_range_hashingENS_20_Default_ranged_hashENS_20_Prime_rehash_policyENS_17_Hashtable_traitsILb1ELb0ELb1EEELb1EE2atERS8_
	ld	s0, 16(sp)
	.cfi_def_cfa sp, 32
	ld	ra, 24(sp)
	.cfi_restore ra
	.cfi_restore s0
	addi	sp, sp, 32
	.cfi_def_cfa_offset 0
	ret
.Lfunc_end40:
	.size	_ZNSt13unordered_mapINSt7__cxx1112basic_stringIcSt11char_traitsIcESaIcEEESt6vectorIN3glm3vecILi3EdLNS7_9qualifierE0EEESaISA_EESt4hashIS5_ESt8equal_toIS5_ESaISt4pairIKS5_SC_EEE2atERSI_, .Lfunc_end40-_ZNSt13unordered_mapINSt7__cxx1112basic_stringIcSt11char_traitsIcESaIcEEESt6vectorIN3glm3vecILi3EdLNS7_9qualifierE0EEESaISA_EESt4hashIS5_ESt8equal_toIS5_ESaISt4pairIKS5_SC_EEE2atERSI_
	.cfi_endproc
                                        # -- End function
	.section	.text._ZNSt6vectorIN3glm3vecILi3EdLNS0_9qualifierE0EEESaIS3_EEaSERKS5_,"axG",@progbits,_ZNSt6vectorIN3glm3vecILi3EdLNS0_9qualifierE0EEESaIS3_EEaSERKS5_,comdat
	.weak	_ZNSt6vectorIN3glm3vecILi3EdLNS0_9qualifierE0EEESaIS3_EEaSERKS5_ # -- Begin function _ZNSt6vectorIN3glm3vecILi3EdLNS0_9qualifierE0EEESaIS3_EEaSERKS5_
	.p2align	2
	.type	_ZNSt6vectorIN3glm3vecILi3EdLNS0_9qualifierE0EEESaIS3_EEaSERKS5_,@function
_ZNSt6vectorIN3glm3vecILi3EdLNS0_9qualifierE0EEESaIS3_EEaSERKS5_: # @_ZNSt6vectorIN3glm3vecILi3EdLNS0_9qualifierE0EEESaIS3_EEaSERKS5_
	.cfi_startproc
# %bb.0:                                # %entry
	addi	sp, sp, -144
	.cfi_def_cfa_offset 144
	sd	ra, 136(sp)
	sd	s0, 128(sp)
	sd	s1, 120(sp)
	sd	s2, 112(sp)
	sd	s3, 104(sp)
	sd	s4, 96(sp)
	.cfi_offset ra, -8
	.cfi_offset s0, -16
	.cfi_offset s1, -24
	.cfi_offset s2, -32
	.cfi_offset s3, -40
	.cfi_offset s4, -48
	addi	s0, sp, 144
	.cfi_def_cfa s0, 0
	sd	a0, -56(s0)
	sd	a1, -64(s0)
	ld	s1, -56(s0)
	ld	a0, -64(s0)
	beq	a0, s1, .LBB41_8
	j	.LBB41_1
.LBB41_1:                               # %if.then
	ld	a0, -64(s0)
	call	_ZNKSt6vectorIN3glm3vecILi3EdLNS0_9qualifierE0EEESaIS3_EE4sizeEv
	sd	a0, -72(s0)
	ld	s2, -72(s0)
	mv	a0, s1
	call	_ZNKSt6vectorIN3glm3vecILi3EdLNS0_9qualifierE0EEESaIS3_EE8capacityEv
	bgeu	a0, s2, .LBB41_3
	j	.LBB41_2
.LBB41_2:                               # %if.then4
	ld	s2, -72(s0)
	ld	a0, -64(s0)
	call	_ZNKSt6vectorIN3glm3vecILi3EdLNS0_9qualifierE0EEESaIS3_EE5beginEv
	sd	a0, -88(s0)
	ld	a0, -64(s0)
	call	_ZNKSt6vectorIN3glm3vecILi3EdLNS0_9qualifierE0EEESaIS3_EE3endEv
	sd	a0, -96(s0)
	ld	a2, -88(s0)
	ld	a3, -96(s0)
	mv	a0, s1
	mv	a1, s2
	call	_ZNSt6vectorIN3glm3vecILi3EdLNS0_9qualifierE0EEESaIS3_EE20_M_allocate_and_copyIN9__gnu_cxx17__normal_iteratorIPKS3_S5_EEEEPS3_mT_SD_
	sd	a0, -80(s0)
	ld	s2, 0(s1)
	ld	s3, 8(s1)
	mv	a0, s1
	call	_ZNSt12_Vector_baseIN3glm3vecILi3EdLNS0_9qualifierE0EEESaIS3_EE19_M_get_Tp_allocatorEv
	mv	a2, a0
	mv	a0, s2
	mv	a1, s3
	call	_ZSt8_DestroyIPN3glm3vecILi3EdLNS0_9qualifierE0EEES3_EvT_S5_RSaIT0_E
	ld	a1, 0(s1)
	ld	a0, 16(s1)
	sub	a0, a0, a1
	srai	a0, a0, 3
	lui	a2, 1026731
	addiw	a2, a2, -1365
	slli	a2, a2, 12
	addi	a2, a2, -1365
	slli	a2, a2, 12
	addi	a2, a2, -1365
	slli	a2, a2, 12
	addi	a2, a2, -1365
	mul	a2, a0, a2
	mv	a0, s1
	call	_ZNSt12_Vector_baseIN3glm3vecILi3EdLNS0_9qualifierE0EEESaIS3_EE13_M_deallocateEPS3_m
	ld	a0, -80(s0)
	sd	a0, 0(s1)
	ld	a0, 0(s1)
	ld	a1, -72(s0)
	addi	a2, zero, 24
	mul	a1, a1, a2
	add	a0, a0, a1
	sd	a0, 16(s1)
	j	.LBB41_7
.LBB41_3:                               # %if.else
	mv	a0, s1
	call	_ZNKSt6vectorIN3glm3vecILi3EdLNS0_9qualifierE0EEESaIS3_EE4sizeEv
	ld	a1, -72(s0)
	bltu	a0, a1, .LBB41_5
	j	.LBB41_4
.LBB41_4:                               # %if.then29
	ld	a0, -64(s0)
	call	_ZNKSt6vectorIN3glm3vecILi3EdLNS0_9qualifierE0EEESaIS3_EE5beginEv
	sd	a0, -112(s0)
	ld	a0, -64(s0)
	call	_ZNKSt6vectorIN3glm3vecILi3EdLNS0_9qualifierE0EEESaIS3_EE3endEv
	sd	a0, -120(s0)
	mv	a0, s1
	call	_ZNSt6vectorIN3glm3vecILi3EdLNS0_9qualifierE0EEESaIS3_EE5beginEv
	sd	a0, -128(s0)
	ld	a0, -112(s0)
	ld	a1, -120(s0)
	ld	a2, -128(s0)
	call	_ZSt4copyIN9__gnu_cxx17__normal_iteratorIPKN3glm3vecILi3EdLNS2_9qualifierE0EEESt6vectorIS5_SaIS5_EEEENS1_IPS5_SA_EEET0_T_SF_SE_
	sd	a0, -104(s0)
	mv	a0, s1
	call	_ZNSt6vectorIN3glm3vecILi3EdLNS0_9qualifierE0EEESaIS3_EE3endEv
	sd	a0, -136(s0)
	mv	a0, s1
	call	_ZNSt12_Vector_baseIN3glm3vecILi3EdLNS0_9qualifierE0EEESaIS3_EE19_M_get_Tp_allocatorEv
	mv	a2, a0
	ld	a0, -104(s0)
	ld	a1, -136(s0)
	call	_ZSt8_DestroyIN9__gnu_cxx17__normal_iteratorIPN3glm3vecILi3EdLNS2_9qualifierE0EEESt6vectorIS5_SaIS5_EEEES5_EvT_SB_RSaIT0_E
	j	.LBB41_6
.LBB41_5:                               # %if.else61
	ld	a0, -64(s0)
	ld	s2, 0(a0)
	mv	a0, s1
	call	_ZNKSt6vectorIN3glm3vecILi3EdLNS0_9qualifierE0EEESaIS3_EE4sizeEv
	addi	s3, zero, 24
	mul	a0, a0, s3
	add	a1, s2, a0
	ld	a2, 0(s1)
	mv	a0, s2
	call	_ZSt4copyIPN3glm3vecILi3EdLNS0_9qualifierE0EEES4_ET0_T_S6_S5_
	ld	a0, -64(s0)
	ld	s2, 0(a0)
	mv	a0, s1
	call	_ZNKSt6vectorIN3glm3vecILi3EdLNS0_9qualifierE0EEESaIS3_EE4sizeEv
	mul	a0, a0, s3
	add	s2, s2, a0
	ld	a0, -64(s0)
	ld	s3, 8(a0)
	ld	s4, 8(s1)
	mv	a0, s1
	call	_ZNSt12_Vector_baseIN3glm3vecILi3EdLNS0_9qualifierE0EEESaIS3_EE19_M_get_Tp_allocatorEv
	mv	a3, a0
	mv	a0, s2
	mv	a1, s3
	mv	a2, s4
	call	_ZSt22__uninitialized_copy_aIPN3glm3vecILi3EdLNS0_9qualifierE0EEES4_S3_ET0_T_S6_S5_RSaIT1_E
	j	.LBB41_6
.LBB41_6:                               # %if.end
	j	.LBB41_7
.LBB41_7:                               # %if.end81
	ld	a0, 0(s1)
	ld	a1, -72(s0)
	addi	a2, zero, 24
	mul	a1, a1, a2
	add	a0, a0, a1
	sd	a0, 8(s1)
	j	.LBB41_8
.LBB41_8:                               # %if.end87
	mv	a0, s1
	ld	s4, 96(sp)
	ld	s3, 104(sp)
	ld	s2, 112(sp)
	ld	s1, 120(sp)
	ld	s0, 128(sp)
	.cfi_def_cfa sp, 144
	ld	ra, 136(sp)
	.cfi_restore ra
	.cfi_restore s0
	.cfi_restore s1
	.cfi_restore s2
	.cfi_restore s3
	.cfi_restore s4
	addi	sp, sp, 144
	.cfi_def_cfa_offset 0
	ret
.Lfunc_end41:
	.size	_ZNSt6vectorIN3glm3vecILi3EdLNS0_9qualifierE0EEESaIS3_EEaSERKS5_, .Lfunc_end41-_ZNSt6vectorIN3glm3vecILi3EdLNS0_9qualifierE0EEESaIS3_EEaSERKS5_
	.cfi_endproc
                                        # -- End function
	.section	.text._ZNK8nlohmann10basic_jsonISt3mapSt6vectorNSt7__cxx1112basic_stringIcSt11char_traitsIcESaIcEEEblmdSaNS_14adl_serializerEE3getIS2_IS2_ImSaImEESaISD_EESF_Li0EEET0_v,"axG",@progbits,_ZNK8nlohmann10basic_jsonISt3mapSt6vectorNSt7__cxx1112basic_stringIcSt11char_traitsIcESaIcEEEblmdSaNS_14adl_serializerEE3getIS2_IS2_ImSaImEESaISD_EESF_Li0EEET0_v,comdat
	.weak	_ZNK8nlohmann10basic_jsonISt3mapSt6vectorNSt7__cxx1112basic_stringIcSt11char_traitsIcESaIcEEEblmdSaNS_14adl_serializerEE3getIS2_IS2_ImSaImEESaISD_EESF_Li0EEET0_v # -- Begin function _ZNK8nlohmann10basic_jsonISt3mapSt6vectorNSt7__cxx1112basic_stringIcSt11char_traitsIcESaIcEEEblmdSaNS_14adl_serializerEE3getIS2_IS2_ImSaImEESaISD_EESF_Li0EEET0_v
	.p2align	2
	.type	_ZNK8nlohmann10basic_jsonISt3mapSt6vectorNSt7__cxx1112basic_stringIcSt11char_traitsIcESaIcEEEblmdSaNS_14adl_serializerEE3getIS2_IS2_ImSaImEESaISD_EESF_Li0EEET0_v,@function
_ZNK8nlohmann10basic_jsonISt3mapSt6vectorNSt7__cxx1112basic_stringIcSt11char_traitsIcESaIcEEEblmdSaNS_14adl_serializerEE3getIS2_IS2_ImSaImEESaISD_EESF_Li0EEET0_v: # @_ZNK8nlohmann10basic_jsonISt3mapSt6vectorNSt7__cxx1112basic_stringIcSt11char_traitsIcESaIcEEEblmdSaNS_14adl_serializerEE3getIS2_IS2_ImSaImEESaISD_EESF_Li0EEET0_v
.Lfunc_begin12:
	.cfi_startproc
	.cfi_personality 155, DW.ref.__gxx_personality_v0
	.cfi_lsda 27, .Lexception12
# %bb.0:                                # %entry
	addi	sp, sp, -80
	.cfi_def_cfa_offset 80
	sd	ra, 72(sp)
	sd	s0, 64(sp)
	sd	s1, 56(sp)
	sd	s2, 48(sp)
	.cfi_offset ra, -8
	.cfi_offset s0, -16
	.cfi_offset s1, -24
	.cfi_offset s2, -32
	addi	s0, sp, 80
	.cfi_def_cfa s0, 0
	mv	s1, a0
	sd	s1, -40(s0)
	sd	a1, -48(s0)
	ld	s2, -48(s0)
	sb	zero, -49(s0)
	mv	a0, s1
	call	_ZNSt6vectorIS_ImSaImEESaIS1_EEC2Ev
.Ltmp494:
	mv	a0, s2
	mv	a1, s1
	call	_ZN8nlohmann14adl_serializerISt6vectorIS1_ImSaImEESaIS3_EEvE9from_jsonIRKNS_10basic_jsonISt3mapS1_NSt7__cxx1112basic_stringIcSt11char_traitsIcESaIcEEEblmdSaS0_EES5_EEDTcmclL_ZNS_12_GLOBAL__N_19from_jsonEEclsr3stdE7forwardIT_Efp_Efp0_Ecvv_EEOSK_RT0_
.Ltmp495:
	j	.LBB42_1
.LBB42_1:                               # %invoke.cont
	addi	a0, zero, 1
	sb	a0, -49(s0)
	lbu	a0, -49(s0)
	bnez	a0, .LBB42_4
	j	.LBB42_3
.LBB42_2:                               # %lpad
.Ltmp496:
	sd	a0, -64(s0)
	sw	a1, -68(s0)
	mv	a0, s1
	call	_ZNSt6vectorIS_ImSaImEESaIS1_EED2Ev
	j	.LBB42_5
.LBB42_3:                               # %nrvo.unused
	mv	a0, s1
	call	_ZNSt6vectorIS_ImSaImEESaIS1_EED2Ev
	j	.LBB42_4
.LBB42_4:                               # %nrvo.skipdtor
	ld	s2, 48(sp)
	ld	s1, 56(sp)
	ld	s0, 64(sp)
	.cfi_def_cfa sp, 80
	ld	ra, 72(sp)
	.cfi_restore ra
	.cfi_restore s0
	.cfi_restore s1
	.cfi_restore s2
	addi	sp, sp, 80
	.cfi_def_cfa_offset 0
	ret
.LBB42_5:                               # %eh.resume
	ld	a0, -64(s0)
	call	_Unwind_Resume
.Lfunc_end42:
	.size	_ZNK8nlohmann10basic_jsonISt3mapSt6vectorNSt7__cxx1112basic_stringIcSt11char_traitsIcESaIcEEEblmdSaNS_14adl_serializerEE3getIS2_IS2_ImSaImEESaISD_EESF_Li0EEET0_v, .Lfunc_end42-_ZNK8nlohmann10basic_jsonISt3mapSt6vectorNSt7__cxx1112basic_stringIcSt11char_traitsIcESaIcEEEblmdSaNS_14adl_serializerEE3getIS2_IS2_ImSaImEESaISD_EESF_Li0EEET0_v
	.cfi_endproc
	.section	.gcc_except_table,"a",@progbits
	.p2align	2
GCC_except_table42:
.Lexception12:
	.byte	255                     # @LPStart Encoding = omit
	.byte	255                     # @TType Encoding = omit
	.byte	3                       # Call site Encoding = udata4
	.uleb128 .Lcst_end12-.Lcst_begin12
.Lcst_begin12:
	.word	.Ltmp494-.Lfunc_begin12 # >> Call Site 1 <<
	.word	.Ltmp495-.Ltmp494       #   Call between .Ltmp494 and .Ltmp495
	.word	.Ltmp496-.Lfunc_begin12 #     jumps to .Ltmp496
	.byte	0                       #   On action: cleanup
	.word	.Ltmp495-.Lfunc_begin12 # >> Call Site 2 <<
	.word	.Lfunc_end42-.Ltmp495   #   Call between .Ltmp495 and .Lfunc_end42
	.word	0                       #     has no landing pad
	.byte	0                       #   On action: cleanup
.Lcst_end12:
	.p2align	2
                                        # -- End function
	.section	.text._ZNSt6vectorIS_ImSaImEESaIS1_EEaSEOS3_,"axG",@progbits,_ZNSt6vectorIS_ImSaImEESaIS1_EEaSEOS3_,comdat
	.weak	_ZNSt6vectorIS_ImSaImEESaIS1_EEaSEOS3_ # -- Begin function _ZNSt6vectorIS_ImSaImEESaIS1_EEaSEOS3_
	.p2align	2
	.type	_ZNSt6vectorIS_ImSaImEESaIS1_EEaSEOS3_,@function
_ZNSt6vectorIS_ImSaImEESaIS1_EEaSEOS3_: # @_ZNSt6vectorIS_ImSaImEESaIS1_EEaSEOS3_
# %bb.0:                                # %entry
	addi	sp, sp, -48
	sd	ra, 40(sp)
	sd	s0, 32(sp)
	sd	s1, 24(sp)
	addi	s0, sp, 48
	sd	a0, -32(s0)
	sd	a1, -40(s0)
	ld	s1, -32(s0)
	addi	a0, zero, 1
	sb	a0, -41(s0)
	ld	a0, -40(s0)
	call	_ZSt4moveIRSt6vectorIS0_ImSaImEESaIS2_EEEONSt16remove_referenceIT_E4typeEOS7_
	mv	a1, a0
	mv	a0, s1
	call	_ZNSt6vectorIS_ImSaImEESaIS1_EE14_M_move_assignEOS3_St17integral_constantIbLb1EE
	mv	a0, s1
	ld	s1, 24(sp)
	ld	s0, 32(sp)
	ld	ra, 40(sp)
	addi	sp, sp, 48
	ret
.Lfunc_end43:
	.size	_ZNSt6vectorIS_ImSaImEESaIS1_EEaSEOS3_, .Lfunc_end43-_ZNSt6vectorIS_ImSaImEESaIS1_EEaSEOS3_
                                        # -- End function
	.section	.text._ZNSt6vectorIS_ImSaImEESaIS1_EED2Ev,"axG",@progbits,_ZNSt6vectorIS_ImSaImEESaIS1_EED2Ev,comdat
	.weak	_ZNSt6vectorIS_ImSaImEESaIS1_EED2Ev # -- Begin function _ZNSt6vectorIS_ImSaImEESaIS1_EED2Ev
	.p2align	2
	.type	_ZNSt6vectorIS_ImSaImEESaIS1_EED2Ev,@function
_ZNSt6vectorIS_ImSaImEESaIS1_EED2Ev:    # @_ZNSt6vectorIS_ImSaImEESaIS1_EED2Ev
.Lfunc_begin13:
	.cfi_startproc
	.cfi_personality 155, DW.ref.__gxx_personality_v0
	.cfi_lsda 27, .Lexception13
# %bb.0:                                # %entry
	addi	sp, sp, -64
	.cfi_def_cfa_offset 64
	sd	ra, 56(sp)
	sd	s0, 48(sp)
	sd	s1, 40(sp)
	sd	s2, 32(sp)
	sd	s3, 24(sp)
	.cfi_offset ra, -8
	.cfi_offset s0, -16
	.cfi_offset s1, -24
	.cfi_offset s2, -32
	.cfi_offset s3, -40
	addi	s0, sp, 64
	.cfi_def_cfa s0, 0
	sd	a0, -48(s0)
	ld	s1, -48(s0)
	ld	s2, 0(s1)
	ld	s3, 8(s1)
	mv	a0, s1
	call	_ZNSt12_Vector_baseISt6vectorImSaImEESaIS2_EE19_M_get_Tp_allocatorEv
	mv	a2, a0
.Ltmp497:
	mv	a0, s2
	mv	a1, s3
	call	_ZSt8_DestroyIPSt6vectorImSaImEES2_EvT_S4_RSaIT0_E
.Ltmp498:
	j	.LBB44_1
.LBB44_1:                               # %invoke.cont
	mv	a0, s1
	call	_ZNSt12_Vector_baseISt6vectorImSaImEESaIS2_EED2Ev
	ld	s3, 24(sp)
	ld	s2, 32(sp)
	ld	s1, 40(sp)
	ld	s0, 48(sp)
	.cfi_def_cfa sp, 64
	ld	ra, 56(sp)
	.cfi_restore ra
	.cfi_restore s0
	.cfi_restore s1
	.cfi_restore s2
	.cfi_restore s3
	addi	sp, sp, 64
	.cfi_def_cfa_offset 0
	ret
.LBB44_2:                               # %lpad
.Ltmp499:
	sd	a0, -56(s0)
	sw	a1, -60(s0)
	mv	a0, s1
	call	_ZNSt12_Vector_baseISt6vectorImSaImEESaIS2_EED2Ev
	j	.LBB44_3
.LBB44_3:                               # %terminate.handler
	ld	a0, -56(s0)
	call	__clang_call_terminate
.Lfunc_end44:
	.size	_ZNSt6vectorIS_ImSaImEESaIS1_EED2Ev, .Lfunc_end44-_ZNSt6vectorIS_ImSaImEESaIS1_EED2Ev
	.cfi_endproc
	.section	.gcc_except_table,"a",@progbits
	.p2align	2
GCC_except_table44:
.Lexception13:
	.byte	255                     # @LPStart Encoding = omit
	.byte	155                     # @TType Encoding = indirect pcrel sdata4
	.uleb128 .Lttbase2-.Lttbaseref2
.Lttbaseref2:
	.byte	3                       # Call site Encoding = udata4
	.uleb128 .Lcst_end13-.Lcst_begin13
.Lcst_begin13:
	.word	.Ltmp497-.Lfunc_begin13 # >> Call Site 1 <<
	.word	.Ltmp498-.Ltmp497       #   Call between .Ltmp497 and .Ltmp498
	.word	.Ltmp499-.Lfunc_begin13 #     jumps to .Ltmp499
	.byte	1                       #   On action: 1
.Lcst_end13:
	.byte	1                       # >> Action Record 1 <<
                                        #   Catch TypeInfo 1
	.byte	0                       #   No further actions
	.p2align	2
                                        # >> Catch TypeInfos <<
	.word	0                       # TypeInfo 1
.Lttbase2:
	.p2align	2
                                        # -- End function
	.section	.text._Z11getOptionalIbET_RKN8nlohmann10basic_jsonISt3mapSt6vectorNSt7__cxx1112basic_stringIcSt11char_traitsIcESaIcEEEblmdSaNS1_14adl_serializerEEESA_S0_,"axG",@progbits,_Z11getOptionalIbET_RKN8nlohmann10basic_jsonISt3mapSt6vectorNSt7__cxx1112basic_stringIcSt11char_traitsIcESaIcEEEblmdSaNS1_14adl_serializerEEESA_S0_,comdat
	.weak	_Z11getOptionalIbET_RKN8nlohmann10basic_jsonISt3mapSt6vectorNSt7__cxx1112basic_stringIcSt11char_traitsIcESaIcEEEblmdSaNS1_14adl_serializerEEESA_S0_ # -- Begin function _Z11getOptionalIbET_RKN8nlohmann10basic_jsonISt3mapSt6vectorNSt7__cxx1112basic_stringIcSt11char_traitsIcESaIcEEEblmdSaNS1_14adl_serializerEEESA_S0_
	.p2align	2
	.type	_Z11getOptionalIbET_RKN8nlohmann10basic_jsonISt3mapSt6vectorNSt7__cxx1112basic_stringIcSt11char_traitsIcESaIcEEEblmdSaNS1_14adl_serializerEEESA_S0_,@function
_Z11getOptionalIbET_RKN8nlohmann10basic_jsonISt3mapSt6vectorNSt7__cxx1112basic_stringIcSt11char_traitsIcESaIcEEEblmdSaNS1_14adl_serializerEEESA_S0_: # @_Z11getOptionalIbET_RKN8nlohmann10basic_jsonISt3mapSt6vectorNSt7__cxx1112basic_stringIcSt11char_traitsIcESaIcEEEblmdSaNS1_14adl_serializerEEESA_S0_
	.cfi_startproc
# %bb.0:                                # %entry
	addi	sp, sp, -128
	.cfi_def_cfa_offset 128
	sd	ra, 120(sp)
	sd	s0, 112(sp)
	sd	s1, 104(sp)
	sd	s2, 96(sp)
	sd	s3, 88(sp)
	.cfi_offset ra, -8
	.cfi_offset s0, -16
	.cfi_offset s1, -24
	.cfi_offset s2, -32
	.cfi_offset s3, -40
	addi	s0, sp, 128
	.cfi_def_cfa s0, 0
	mv	s3, a1
	sd	a0, -48(s0)
	sb	a2, -49(s0)
	lbu	a0, -49(s0)
	andi	a0, a0, 1
	sb	a0, -50(s0)
	ld	a1, -48(s0)
	addi	s2, s0, -88
	mv	a0, s2
	mv	a2, s3
	call	_ZNK8nlohmann10basic_jsonISt3mapSt6vectorNSt7__cxx1112basic_stringIcSt11char_traitsIcESaIcEEEblmdSaNS_14adl_serializerEE4findIRS8_EENS_6detail9iter_implIKSA_EEOT_
	ld	a1, -48(s0)
	addi	s1, s0, -120
	mv	a0, s1
	call	_ZNK8nlohmann10basic_jsonISt3mapSt6vectorNSt7__cxx1112basic_stringIcSt11char_traitsIcESaIcEEEblmdSaNS_14adl_serializerEE3endEv
	mv	a0, s2
	mv	a1, s1
	call	_ZNK8nlohmann6detail9iter_implIKNS_10basic_jsonISt3mapSt6vectorNSt7__cxx1112basic_stringIcSt11char_traitsIcESaIcEEEblmdSaNS_14adl_serializerEEEEneERKSE_
	beqz	a0, .LBB45_2
	j	.LBB45_1
.LBB45_1:                               # %if.then
	ld	a0, -48(s0)
	mv	a1, s3
	call	_ZNK8nlohmann10basic_jsonISt3mapSt6vectorNSt7__cxx1112basic_stringIcSt11char_traitsIcESaIcEEEblmdSaNS_14adl_serializerEE2atERKS8_
	call	_ZNK8nlohmann10basic_jsonISt3mapSt6vectorNSt7__cxx1112basic_stringIcSt11char_traitsIcESaIcEEEblmdSaNS_14adl_serializerEE3getIbbLi0EEET0_v
	sb	a0, -50(s0)
	j	.LBB45_2
.LBB45_2:                               # %if.end
	lbu	a0, -50(s0)
	andi	a0, a0, 1
	ld	s3, 88(sp)
	ld	s2, 96(sp)
	ld	s1, 104(sp)
	ld	s0, 112(sp)
	.cfi_def_cfa sp, 128
	ld	ra, 120(sp)
	.cfi_restore ra
	.cfi_restore s0
	.cfi_restore s1
	.cfi_restore s2
	.cfi_restore s3
	addi	sp, sp, 128
	.cfi_def_cfa_offset 0
	ret
.Lfunc_end45:
