	.text
	.file	"integrator.cpp"
	.p2align	2               # -- Begin function __cxx_global_var_init
	.type	__cxx_global_var_init,@function
__cxx_global_var_init:                  # @__cxx_global_var_init
	.cfi_startproc
# %bb.0:                                # %entry
	lui	a0, 1
	addi	a0, a0, -1552
	sub	sp, sp, a0
	.cfi_def_cfa_offset 2544
	lui	a0, 1
	addi	a0, a0, -1560
	add	a0, sp, a0
	sd	ra, 0(a0)
	lui	a0, 1
	addi	a0, a0, -1568
	add	a0, sp, a0
	sd	s0, 0(a0)
	lui	a0, 1
	addi	a0, a0, -1576
	add	a0, sp, a0
	sd	s1, 0(a0)
	lui	a0, 1
	addi	a0, a0, -1584
	add	a0, sp, a0
	sd	s2, 0(a0)
	.cfi_offset ra, -8
	.cfi_offset s0, -16
	.cfi_offset s1, -24
	.cfi_offset s2, -32
	lui	a0, 1
	addi	a0, a0, -1552
	add	s0, sp, a0
	.cfi_def_cfa s0, 0
	lui	a0, %tprel_hi(_ZGVN6Random6engineE)
	add	s1, a0, tp, %tprel_add(_ZGVN6Random6engineE)
	lbu	a0, %tprel_lo(_ZGVN6Random6engineE)(s1)
	bnez	a0, .LBB0_2
# %bb.1:                                # %init.check
	lui	a0, 1048575
	addi	a0, a0, 1552
	add	a0, s0, a0
	mv	s2, a0
	mv	a0, s2
	call	_ZNSt13random_deviceC2Ev
	mv	a0, s2
	call	_ZNSt13random_deviceclEv
	lui	a1, %tprel_hi(_ZN6Random6engineE)
	add	a1, a1, tp, %tprel_add(_ZN6Random6engineE)
	addi	a2, a1, %tprel_lo(_ZN6Random6engineE)
	slli	a0, a0, 32
	srli	a1, a0, 32
	mv	a0, a2
	call	_ZNSt23mersenne_twister_engineImLm64ELm312ELm156ELm31ELm13043109905998158313ELm29ELm6148914691236517205ELm17ELm8202884508482404352ELm37ELm18444473444759240704ELm43ELm6364136223846793005EEC2Em
	addi	a0, s1, %tprel_lo(_ZGVN6Random6engineE)
	addi	a1, zero, 1
	sd	a1, 0(a0)
.LBB0_2:                                # %init.end
	lui	a0, 1
	addi	a0, a0, -1584
	add	a0, sp, a0
	ld	s2, 0(a0)
	lui	a0, 1
	addi	a0, a0, -1576
	add	a0, sp, a0
	ld	s1, 0(a0)
	lui	a0, 1
	addi	a0, a0, -1568
	add	a0, sp, a0
	ld	s0, 0(a0)
	.cfi_def_cfa sp, 2544
	lui	a0, 1
	addi	a0, a0, -1560
	add	a0, sp, a0
	ld	ra, 0(a0)
	.cfi_restore ra
	.cfi_restore s0
	.cfi_restore s1
	.cfi_restore s2
	lui	a0, 1
	addi	a0, a0, -1552
	add	sp, sp, a0
	.cfi_def_cfa_offset 0
	ret
.Lfunc_end0:
	.size	__cxx_global_var_init, .Lfunc_end0-__cxx_global_var_init
	.cfi_endproc
                                        # -- End function
	.section	.text._ZNSt13random_deviceC2Ev,"axG",@progbits,_ZNSt13random_deviceC2Ev,comdat
	.weak	_ZNSt13random_deviceC2Ev # -- Begin function _ZNSt13random_deviceC2Ev
	.p2align	2
	.type	_ZNSt13random_deviceC2Ev,@function
_ZNSt13random_deviceC2Ev:               # @_ZNSt13random_deviceC2Ev
.Lfunc_begin0:
	.cfi_startproc
	.cfi_personality 155, DW.ref.__gxx_personality_v0
	.cfi_lsda 27, .Lexception0
# %bb.0:                                # %entry
	addi	sp, sp, -96
	.cfi_def_cfa_offset 96
	sd	ra, 88(sp)
	sd	s0, 80(sp)
	sd	s1, 72(sp)
	sd	s2, 64(sp)
	.cfi_offset ra, -8
	.cfi_offset s0, -16
	.cfi_offset s1, -24
	.cfi_offset s2, -32
	addi	s0, sp, 96
	.cfi_def_cfa s0, 0
	sd	a0, -40(s0)
	ld	s2, -40(s0)
	addi	s1, s0, -80
	mv	a0, s1
	call	_ZNSaIcEC1Ev
.Ltmp0:
	lui	a0, %hi(.L.str.2)
	addi	a1, a0, %lo(.L.str.2)
	addi	a0, s0, -72
	mv	a2, s1
	call	_ZNSt7__cxx1112basic_stringIcSt11char_traitsIcESaIcEEC2IS3_EEPKcRKS3_
.Ltmp1:
	j	.LBB1_1
.LBB1_1:                                # %invoke.cont
.Ltmp3:
	addi	a1, s0, -72
	mv	a0, s2
	call	_ZNSt13random_device7_M_initERKNSt7__cxx1112basic_stringIcSt11char_traitsIcESaIcEEE
.Ltmp4:
	j	.LBB1_2
.LBB1_2:                                # %invoke.cont4
	addi	a0, s0, -72
	call	_ZNSt7__cxx1112basic_stringIcSt11char_traitsIcESaIcEED1Ev
	addi	a0, s0, -80
	call	_ZNSaIcED1Ev
	ld	s2, 64(sp)
	ld	s1, 72(sp)
	ld	s0, 80(sp)
	.cfi_def_cfa sp, 96
	ld	ra, 88(sp)
	.cfi_restore ra
	.cfi_restore s0
	.cfi_restore s1
	.cfi_restore s2
	addi	sp, sp, 96
	.cfi_def_cfa_offset 0
	ret
.LBB1_3:                                # %lpad
.Ltmp2:
	sd	a0, -88(s0)
	sw	a1, -92(s0)
	j	.LBB1_5
.LBB1_4:                                # %lpad3
.Ltmp5:
	sd	a0, -88(s0)
	sw	a1, -92(s0)
	addi	a0, s0, -72
	call	_ZNSt7__cxx1112basic_stringIcSt11char_traitsIcESaIcEED1Ev
	j	.LBB1_5
.LBB1_5:                                # %ehcleanup
	addi	a0, s0, -80
	call	_ZNSaIcED1Ev
	j	.LBB1_6
.LBB1_6:                                # %eh.resume
	ld	a0, -88(s0)
	call	_Unwind_Resume
.Lfunc_end1:
	.size	_ZNSt13random_deviceC2Ev, .Lfunc_end1-_ZNSt13random_deviceC2Ev
	.cfi_endproc
	.section	.gcc_except_table,"a",@progbits
	.p2align	2
GCC_except_table1:
.Lexception0:
	.byte	255                     # @LPStart Encoding = omit
	.byte	255                     # @TType Encoding = omit
	.byte	3                       # Call site Encoding = udata4
	.uleb128 .Lcst_end0-.Lcst_begin0
.Lcst_begin0:
	.word	.Ltmp0-.Lfunc_begin0    # >> Call Site 1 <<
	.word	.Ltmp1-.Ltmp0           #   Call between .Ltmp0 and .Ltmp1
	.word	.Ltmp2-.Lfunc_begin0    #     jumps to .Ltmp2
	.byte	0                       #   On action: cleanup
	.word	.Ltmp3-.Lfunc_begin0    # >> Call Site 2 <<
	.word	.Ltmp4-.Ltmp3           #   Call between .Ltmp3 and .Ltmp4
	.word	.Ltmp5-.Lfunc_begin0    #     jumps to .Ltmp5
	.byte	0                       #   On action: cleanup
	.word	.Ltmp4-.Lfunc_begin0    # >> Call Site 3 <<
	.word	.Lfunc_end1-.Ltmp4      #   Call between .Ltmp4 and .Lfunc_end1
	.word	0                       #     has no landing pad
	.byte	0                       #   On action: cleanup
.Lcst_end0:
	.p2align	2
                                        # -- End function
	.section	.text._ZNSt13random_deviceclEv,"axG",@progbits,_ZNSt13random_deviceclEv,comdat
	.weak	_ZNSt13random_deviceclEv # -- Begin function _ZNSt13random_deviceclEv
	.p2align	2
	.type	_ZNSt13random_deviceclEv,@function
_ZNSt13random_deviceclEv:               # @_ZNSt13random_deviceclEv
	.cfi_startproc
# %bb.0:                                # %entry
	addi	sp, sp, -32
	.cfi_def_cfa_offset 32
	sd	ra, 24(sp)
	sd	s0, 16(sp)
	.cfi_offset ra, -8
	.cfi_offset s0, -16
	addi	s0, sp, 32
	.cfi_def_cfa s0, 0
	sd	a0, -24(s0)
	ld	a0, -24(s0)
	call	_ZNSt13random_device9_M_getvalEv
	ld	s0, 16(sp)
	.cfi_def_cfa sp, 32
	ld	ra, 24(sp)
	.cfi_restore ra
	.cfi_restore s0
	addi	sp, sp, 32
	.cfi_def_cfa_offset 0
	ret
.Lfunc_end2:
	.size	_ZNSt13random_deviceclEv, .Lfunc_end2-_ZNSt13random_deviceclEv
	.cfi_endproc
                                        # -- End function
	.section	.text._ZNSt23mersenne_twister_engineImLm64ELm312ELm156ELm31ELm13043109905998158313ELm29ELm6148914691236517205ELm17ELm8202884508482404352ELm37ELm18444473444759240704ELm43ELm6364136223846793005EEC2Em,"axG",@progbits,_ZNSt23mersenne_twister_engineImLm64ELm312ELm156ELm31ELm13043109905998158313ELm29ELm6148914691236517205ELm17ELm8202884508482404352ELm37ELm18444473444759240704ELm43ELm6364136223846793005EEC2Em,comdat
	.weak	_ZNSt23mersenne_twister_engineImLm64ELm312ELm156ELm31ELm13043109905998158313ELm29ELm6148914691236517205ELm17ELm8202884508482404352ELm37ELm18444473444759240704ELm43ELm6364136223846793005EEC2Em # -- Begin function _ZNSt23mersenne_twister_engineImLm64ELm312ELm156ELm31ELm13043109905998158313ELm29ELm6148914691236517205ELm17ELm8202884508482404352ELm37ELm18444473444759240704ELm43ELm6364136223846793005EEC2Em
	.p2align	2
	.type	_ZNSt23mersenne_twister_engineImLm64ELm312ELm156ELm31ELm13043109905998158313ELm29ELm6148914691236517205ELm17ELm8202884508482404352ELm37ELm18444473444759240704ELm43ELm6364136223846793005EEC2Em,@function
_ZNSt23mersenne_twister_engineImLm64ELm312ELm156ELm31ELm13043109905998158313ELm29ELm6148914691236517205ELm17ELm8202884508482404352ELm37ELm18444473444759240704ELm43ELm6364136223846793005EEC2Em: # @_ZNSt23mersenne_twister_engineImLm64ELm312ELm156ELm31ELm13043109905998158313ELm29ELm6148914691236517205ELm17ELm8202884508482404352ELm37ELm18444473444759240704ELm43ELm6364136223846793005EEC2Em
	.cfi_startproc
# %bb.0:                                # %entry
	addi	sp, sp, -32
	.cfi_def_cfa_offset 32
	sd	ra, 24(sp)
	sd	s0, 16(sp)
	.cfi_offset ra, -8
	.cfi_offset s0, -16
	addi	s0, sp, 32
	.cfi_def_cfa s0, 0
	sd	a0, -24(s0)
	sd	a1, -32(s0)
	ld	a0, -24(s0)
	ld	a1, -32(s0)
	call	_ZNSt23mersenne_twister_engineImLm64ELm312ELm156ELm31ELm13043109905998158313ELm29ELm6148914691236517205ELm17ELm8202884508482404352ELm37ELm18444473444759240704ELm43ELm6364136223846793005EE4seedEm
	ld	s0, 16(sp)
	.cfi_def_cfa sp, 32
	ld	ra, 24(sp)
	.cfi_restore ra
	.cfi_restore s0
	addi	sp, sp, 32
	.cfi_def_cfa_offset 0
	ret
.Lfunc_end3:
	.size	_ZNSt23mersenne_twister_engineImLm64ELm312ELm156ELm31ELm13043109905998158313ELm29ELm6148914691236517205ELm17ELm8202884508482404352ELm37ELm18444473444759240704ELm43ELm6364136223846793005EEC2Em, .Lfunc_end3-_ZNSt23mersenne_twister_engineImLm64ELm312ELm156ELm31ELm13043109905998158313ELm29ELm6148914691236517205ELm17ELm8202884508482404352ELm37ELm18444473444759240704ELm43ELm6364136223846793005EEC2Em
	.cfi_endproc
                                        # -- End function
	.text
	.p2align	2               # -- Begin function __cxx_global_var_init.1
	.type	__cxx_global_var_init.1,@function
__cxx_global_var_init.1:                # @__cxx_global_var_init.1
.Lfunc_begin1:
	.cfi_startproc
	.cfi_personality 155, DW.ref.__gxx_personality_v0
	.cfi_lsda 27, .Lexception1
# %bb.0:                                # %entry
	lui	a0, 1
	addi	a0, a0, -1552
	sub	sp, sp, a0
	.cfi_def_cfa_offset 2544
	lui	a0, 1
	addi	a0, a0, -1560
	add	a0, sp, a0
	sd	ra, 0(a0)
	lui	a0, 1
	addi	a0, a0, -1568
	add	a0, sp, a0
	sd	s0, 0(a0)
	.cfi_offset ra, -8
	.cfi_offset s0, -16
	lui	a0, 1
	addi	a0, a0, -1552
	add	s0, sp, a0
	.cfi_def_cfa s0, 0
	lui	a0, %hi(_ZGVN7Sampler11global_seedE)
	lb	a1, %lo(_ZGVN7Sampler11global_seedE)(a0)
	fence	r, rw
	andi	a1, a1, 255
	bnez	a1, .LBB4_5
# %bb.1:                                # %init.check
	addi	a0, a0, %lo(_ZGVN7Sampler11global_seedE)
	call	__cxa_guard_acquire
	slli	a0, a0, 32
	srli	a0, a0, 32
	beqz	a0, .LBB4_5
# %bb.2:                                # %init
.Ltmp6:
	lui	a0, 1048575
	addi	a0, a0, 1568
	add	a0, s0, a0
	mv	a0, a0
	call	_ZNSt13random_deviceC2Ev
.Ltmp7:
# %bb.3:                                # %invoke.cont
.Ltmp8:
	lui	a0, 1048575
	addi	a0, a0, 1568
	add	a0, s0, a0
	mv	a0, a0
	call	_ZNSt13random_deviceclEv
.Ltmp9:
# %bb.4:                                # %invoke.cont1
	lui	a1, %hi(_ZN7Sampler11global_seedE)
	sw	a0, %lo(_ZN7Sampler11global_seedE)(a1)
	lui	a0, %hi(_ZGVN7Sampler11global_seedE)
	addi	a0, a0, %lo(_ZGVN7Sampler11global_seedE)
	call	__cxa_guard_release
.LBB4_5:                                # %init.end
	lui	a0, 1
	addi	a0, a0, -1568
	add	a0, sp, a0
	ld	s0, 0(a0)
	.cfi_def_cfa sp, 2544
	lui	a0, 1
	addi	a0, a0, -1560
	add	a0, sp, a0
	ld	ra, 0(a0)
	.cfi_restore ra
	.cfi_restore s0
	lui	a0, 1
	addi	a0, a0, -1552
	add	sp, sp, a0
	.cfi_def_cfa_offset 0
	ret
.LBB4_6:                                # %lpad
.Ltmp10:
	lui	a2, 1048575
	addi	a2, a2, 1556
	add	a2, s0, a2
	sw	a1, 0(a2)
	lui	a1, 1048575
	addi	a1, a1, 1560
	add	a1, s0, a1
	sd	a0, 0(a1)
	lui	a0, %hi(_ZGVN7Sampler11global_seedE)
	addi	a0, a0, %lo(_ZGVN7Sampler11global_seedE)
	call	__cxa_guard_abort
	lui	a0, 1048575
	addi	a0, a0, 1560
	add	a0, s0, a0
	ld	a0, 0(a0)
	call	_Unwind_Resume
.Lfunc_end4:
	.size	__cxx_global_var_init.1, .Lfunc_end4-__cxx_global_var_init.1
	.cfi_endproc
	.section	.gcc_except_table,"a",@progbits
	.p2align	2
GCC_except_table4:
.Lexception1:
	.byte	255                     # @LPStart Encoding = omit
	.byte	255                     # @TType Encoding = omit
	.byte	3                       # Call site Encoding = udata4
	.uleb128 .Lcst_end1-.Lcst_begin1
.Lcst_begin1:
	.word	.Ltmp6-.Lfunc_begin1    # >> Call Site 1 <<
	.word	.Ltmp9-.Ltmp6           #   Call between .Ltmp6 and .Ltmp9
	.word	.Ltmp10-.Lfunc_begin1   #     jumps to .Ltmp10
	.byte	0                       #   On action: cleanup
	.word	.Ltmp9-.Lfunc_begin1    # >> Call Site 2 <<
	.word	.Lfunc_end4-.Ltmp9      #   Call between .Ltmp9 and .Lfunc_end4
	.word	0                       #     has no landing pad
	.byte	0                       #   On action: cleanup
.Lcst_end1:
	.p2align	2
                                        # -- End function
	.text
	.globl	_ZN10IntegratorC2ERKN8nlohmann10basic_jsonISt3mapSt6vectorNSt7__cxx1112basic_stringIcSt11char_traitsIcESaIcEEEblmdSaNS0_14adl_serializerEEE # -- Begin function _ZN10IntegratorC2ERKN8nlohmann10basic_jsonISt3mapSt6vectorNSt7__cxx1112basic_stringIcSt11char_traitsIcESaIcEEEblmdSaNS0_14adl_serializerEEE
	.p2align	2
	.type	_ZN10IntegratorC2ERKN8nlohmann10basic_jsonISt3mapSt6vectorNSt7__cxx1112basic_stringIcSt11char_traitsIcESaIcEEEblmdSaNS0_14adl_serializerEEE,@function
_ZN10IntegratorC2ERKN8nlohmann10basic_jsonISt3mapSt6vectorNSt7__cxx1112basic_stringIcSt11char_traitsIcESaIcEEEblmdSaNS0_14adl_serializerEEE: # @_ZN10IntegratorC2ERKN8nlohmann10basic_jsonISt3mapSt6vectorNSt7__cxx1112basic_stringIcSt11char_traitsIcESaIcEEEblmdSaNS0_14adl_serializerEEE
.Lfunc_begin2:
	.cfi_startproc
	.cfi_personality 155, DW.ref.__gxx_personality_v0
	.cfi_lsda 27, .Lexception2
# %bb.0:                                # %entry
	addi	sp, sp, -128
	.cfi_def_cfa_offset 128
	sd	ra, 120(sp)
	sd	s0, 112(sp)
	sd	s1, 104(sp)
	sd	s2, 96(sp)
	sd	s3, 88(sp)
	.cfi_offset ra, -8
	.cfi_offset s0, -16
	.cfi_offset s1, -24
	.cfi_offset s2, -32
	.cfi_offset s3, -40
	addi	s0, sp, 128
	.cfi_def_cfa s0, 0
	sd	a0, -48(s0)
	sd	a1, -56(s0)
	ld	s1, -48(s0)
	lui	a0, %hi(_ZTV10Integrator)
	addi	a0, a0, %lo(_ZTV10Integrator)
	addi	a0, a0, 16
	sd	a0, 0(s1)
	addi	s2, s1, 16
	ld	a1, -56(s0)
	mv	a0, s2
	call	_ZN5SceneC1ERKN8nlohmann10basic_jsonISt3mapSt6vectorNSt7__cxx1112basic_stringIcSt11char_traitsIcESaIcEEEblmdSaNS0_14adl_serializerEEE
	addi	a0, zero, 3
	sb	a0, 160(s1)
	addi	a0, zero, 16
	sb	a0, 161(s1)
	ld	s3, -56(s0)
	addi	s1, s0, -104
	mv	a0, s1
	call	_ZNSaIcEC1Ev
.Ltmp11:
	lui	a0, %hi(.L.str)
	addi	a1, a0, %lo(.L.str)
	addi	a0, s0, -96
	mv	a2, s1
	call	_ZNSt7__cxx1112basic_stringIcSt11char_traitsIcESaIcEEC2IS3_EEPKcRKS3_
.Ltmp12:
	j	.LBB5_1
.LBB5_1:                                # %invoke.cont
.Ltmp14:
	addi	a1, s0, -96
	mv	a0, s3
	addi	a2, zero, -1
	call	_Z11getOptionalIiET_RKN8nlohmann10basic_jsonISt3mapSt6vectorNSt7__cxx1112basic_stringIcSt11char_traitsIcESaIcEEEblmdSaNS1_14adl_serializerEEESA_S0_
	mv	s1, a0
.Ltmp15:
	j	.LBB5_2
.LBB5_2:                                # %invoke.cont3
	addi	a0, s0, -96
	call	_ZNSt7__cxx1112basic_stringIcSt11char_traitsIcESaIcEED1Ev
	addi	a0, s0, -104
	call	_ZNSaIcED1Ev
	sw	s1, -60(s0)
	ld	s3, 88(sp)
	ld	s2, 96(sp)
	ld	s1, 104(sp)
	ld	s0, 112(sp)
	.cfi_def_cfa sp, 128
	ld	ra, 120(sp)
	.cfi_restore ra
	.cfi_restore s0
	.cfi_restore s1
	.cfi_restore s2
	.cfi_restore s3
	addi	sp, sp, 128
	.cfi_def_cfa_offset 0
	ret
.LBB5_3:                                # %lpad
.Ltmp13:
	sd	a0, -112(s0)
	sw	a1, -116(s0)
	j	.LBB5_5
.LBB5_4:                                # %lpad2
.Ltmp16:
	sd	a0, -112(s0)
	sw	a1, -116(s0)
	addi	a0, s0, -96
	call	_ZNSt7__cxx1112basic_stringIcSt11char_traitsIcESaIcEED1Ev
	j	.LBB5_5
.LBB5_5:                                # %ehcleanup
	addi	a0, s0, -104
	call	_ZNSaIcED1Ev
	mv	a0, s2
	call	_ZN5SceneD2Ev
	j	.LBB5_6
.LBB5_6:                                # %eh.resume
	ld	a0, -112(s0)
	call	_Unwind_Resume
.Lfunc_end5:
	.size	_ZN10IntegratorC2ERKN8nlohmann10basic_jsonISt3mapSt6vectorNSt7__cxx1112basic_stringIcSt11char_traitsIcESaIcEEEblmdSaNS0_14adl_serializerEEE, .Lfunc_end5-_ZN10IntegratorC2ERKN8nlohmann10basic_jsonISt3mapSt6vectorNSt7__cxx1112basic_stringIcSt11char_traitsIcESaIcEEEblmdSaNS0_14adl_serializerEEE
	.cfi_endproc
	.section	.gcc_except_table,"a",@progbits
	.p2align	2
GCC_except_table5:
.Lexception2:
	.byte	255                     # @LPStart Encoding = omit
	.byte	255                     # @TType Encoding = omit
	.byte	3                       # Call site Encoding = udata4
	.uleb128 .Lcst_end2-.Lcst_begin2
.Lcst_begin2:
	.word	.Lfunc_begin2-.Lfunc_begin2 # >> Call Site 1 <<
	.word	.Ltmp11-.Lfunc_begin2   #   Call between .Lfunc_begin2 and .Ltmp11
	.word	0                       #     has no landing pad
	.byte	0                       #   On action: cleanup
	.word	.Ltmp11-.Lfunc_begin2   # >> Call Site 2 <<
	.word	.Ltmp12-.Ltmp11         #   Call between .Ltmp11 and .Ltmp12
	.word	.Ltmp13-.Lfunc_begin2   #     jumps to .Ltmp13
	.byte	0                       #   On action: cleanup
	.word	.Ltmp14-.Lfunc_begin2   # >> Call Site 3 <<
	.word	.Ltmp15-.Ltmp14         #   Call between .Ltmp14 and .Ltmp15
	.word	.Ltmp16-.Lfunc_begin2   #     jumps to .Ltmp16
	.byte	0                       #   On action: cleanup
	.word	.Ltmp15-.Lfunc_begin2   # >> Call Site 4 <<
	.word	.Lfunc_end5-.Ltmp15     #   Call between .Ltmp15 and .Lfunc_end5
	.word	0                       #     has no landing pad
	.byte	0                       #   On action: cleanup
.Lcst_end2:
	.p2align	2
                                        # -- End function
	.section	.text._Z11getOptionalIiET_RKN8nlohmann10basic_jsonISt3mapSt6vectorNSt7__cxx1112basic_stringIcSt11char_traitsIcESaIcEEEblmdSaNS1_14adl_serializerEEESA_S0_,"axG",@progbits,_Z11getOptionalIiET_RKN8nlohmann10basic_jsonISt3mapSt6vectorNSt7__cxx1112basic_stringIcSt11char_traitsIcESaIcEEEblmdSaNS1_14adl_serializerEEESA_S0_,comdat
	.weak	_Z11getOptionalIiET_RKN8nlohmann10basic_jsonISt3mapSt6vectorNSt7__cxx1112basic_stringIcSt11char_traitsIcESaIcEEEblmdSaNS1_14adl_serializerEEESA_S0_ # -- Begin function _Z11getOptionalIiET_RKN8nlohmann10basic_jsonISt3mapSt6vectorNSt7__cxx1112basic_stringIcSt11char_traitsIcESaIcEEEblmdSaNS1_14adl_serializerEEESA_S0_
	.p2align	2
	.type	_Z11getOptionalIiET_RKN8nlohmann10basic_jsonISt3mapSt6vectorNSt7__cxx1112basic_stringIcSt11char_traitsIcESaIcEEEblmdSaNS1_14adl_serializerEEESA_S0_,@function
_Z11getOptionalIiET_RKN8nlohmann10basic_jsonISt3mapSt6vectorNSt7__cxx1112basic_stringIcSt11char_traitsIcESaIcEEEblmdSaNS1_14adl_serializerEEESA_S0_: # @_Z11getOptionalIiET_RKN8nlohmann10basic_jsonISt3mapSt6vectorNSt7__cxx1112basic_stringIcSt11char_traitsIcESaIcEEEblmdSaNS1_14adl_serializerEEESA_S0_
	.cfi_startproc
# %bb.0:                                # %entry
	addi	sp, sp, -128
	.cfi_def_cfa_offset 128
	sd	ra, 120(sp)
	sd	s0, 112(sp)
	sd	s1, 104(sp)
	sd	s2, 96(sp)
	sd	s3, 88(sp)
	.cfi_offset ra, -8
	.cfi_offset s0, -16
	.cfi_offset s1, -24
	.cfi_offset s2, -32
	.cfi_offset s3, -40
	addi	s0, sp, 128
	.cfi_def_cfa s0, 0
	mv	s3, a1
	sd	a0, -48(s0)
	sw	a2, -52(s0)
	lw	a0, -52(s0)
	sw	a0, -56(s0)
	ld	a1, -48(s0)
	addi	s2, s0, -88
	mv	a0, s2
	mv	a2, s3
	call	_ZNK8nlohmann10basic_jsonISt3mapSt6vectorNSt7__cxx1112basic_stringIcSt11char_traitsIcESaIcEEEblmdSaNS_14adl_serializerEE4findIRS8_EENS_6detail9iter_implIKSA_EEOT_
	ld	a1, -48(s0)
	addi	s1, s0, -120
	mv	a0, s1
	call	_ZNK8nlohmann10basic_jsonISt3mapSt6vectorNSt7__cxx1112basic_stringIcSt11char_traitsIcESaIcEEEblmdSaNS_14adl_serializerEE3endEv
	mv	a0, s2
	mv	a1, s1
	call	_ZNK8nlohmann6detail9iter_implIKNS_10basic_jsonISt3mapSt6vectorNSt7__cxx1112basic_stringIcSt11char_traitsIcESaIcEEEblmdSaNS_14adl_serializerEEEEneERKSE_
	beqz	a0, .LBB6_2
	j	.LBB6_1
.LBB6_1:                                # %if.then
	ld	a0, -48(s0)
	mv	a1, s3
	call	_ZNK8nlohmann10basic_jsonISt3mapSt6vectorNSt7__cxx1112basic_stringIcSt11char_traitsIcESaIcEEEblmdSaNS_14adl_serializerEE2atERKS8_
	call	_ZNK8nlohmann10basic_jsonISt3mapSt6vectorNSt7__cxx1112basic_stringIcSt11char_traitsIcESaIcEEEblmdSaNS_14adl_serializerEE3getIiiLi0EEET0_v
	sw	a0, -56(s0)
	j	.LBB6_2
.LBB6_2:                                # %if.end
	lw	a0, -56(s0)
	ld	s3, 88(sp)
	ld	s2, 96(sp)
	ld	s1, 104(sp)
	ld	s0, 112(sp)
	.cfi_def_cfa sp, 128
	ld	ra, 120(sp)
	.cfi_restore ra
	.cfi_restore s0
	.cfi_restore s1
	.cfi_restore s2
	.cfi_restore s3
	addi	sp, sp, 128
	.cfi_def_cfa_offset 0
	ret
.Lfunc_end6:
	.size	_Z11getOptionalIiET_RKN8nlohmann10basic_jsonISt3mapSt6vectorNSt7__cxx1112basic_stringIcSt11char_traitsIcESaIcEEEblmdSaNS1_14adl_serializerEEESA_S0_, .Lfunc_end6-_Z11getOptionalIiET_RKN8nlohmann10basic_jsonISt3mapSt6vectorNSt7__cxx1112basic_stringIcSt11char_traitsIcESaIcEEEblmdSaNS1_14adl_serializerEEESA_S0_
	.cfi_endproc
                                        # -- End function
	.section	.text._ZNSt7__cxx1112basic_stringIcSt11char_traitsIcESaIcEEC2IS3_EEPKcRKS3_,"axG",@progbits,_ZNSt7__cxx1112basic_stringIcSt11char_traitsIcESaIcEEC2IS3_EEPKcRKS3_,comdat
	.weak	_ZNSt7__cxx1112basic_stringIcSt11char_traitsIcESaIcEEC2IS3_EEPKcRKS3_ # -- Begin function _ZNSt7__cxx1112basic_stringIcSt11char_traitsIcESaIcEEC2IS3_EEPKcRKS3_
	.p2align	2
	.type	_ZNSt7__cxx1112basic_stringIcSt11char_traitsIcESaIcEEC2IS3_EEPKcRKS3_,@function
_ZNSt7__cxx1112basic_stringIcSt11char_traitsIcESaIcEEC2IS3_EEPKcRKS3_: # @_ZNSt7__cxx1112basic_stringIcSt11char_traitsIcESaIcEEC2IS3_EEPKcRKS3_
.Lfunc_begin3:
	.cfi_startproc
	.cfi_personality 155, DW.ref.__gxx_personality_v0
	.cfi_lsda 27, .Lexception3
# %bb.0:                                # %entry
	addi	sp, sp, -80
	.cfi_def_cfa_offset 80
	sd	ra, 72(sp)
	sd	s0, 64(sp)
	sd	s1, 56(sp)
	sd	s2, 48(sp)
	sd	s3, 40(sp)
	.cfi_offset ra, -8
	.cfi_offset s0, -16
	.cfi_offset s1, -24
	.cfi_offset s2, -32
	.cfi_offset s3, -40
	addi	s0, sp, 80
	.cfi_def_cfa s0, 0
	sd	a0, -48(s0)
	sd	a1, -56(s0)
	sd	a2, -64(s0)
	ld	s1, -48(s0)
	mv	a0, s1
	call	_ZNSt7__cxx1112basic_stringIcSt11char_traitsIcESaIcEE13_M_local_dataEv
	mv	a1, a0
	ld	a2, -64(s0)
	mv	a0, s1
	call	_ZNSt7__cxx1112basic_stringIcSt11char_traitsIcESaIcEE12_Alloc_hiderC1EPcRKS3_
	ld	s2, -56(s0)
	beqz	s2, .LBB7_3
	j	.LBB7_1
.LBB7_1:                                # %cond.true
	ld	s3, -56(s0)
.Ltmp17:
	mv	a0, s3
	call	_ZNSt11char_traitsIcE6lengthEPKc
.Ltmp18:
	j	.LBB7_2
.LBB7_2:                                # %invoke.cont
	add	a2, s3, a0
	j	.LBB7_4
.LBB7_3:                                # %cond.false
	ld	a0, -56(s0)
	addi	a2, a0, -1
	j	.LBB7_4
.LBB7_4:                                # %cond.end
.Ltmp19:
	mv	a0, s1
	mv	a1, s2
	call	_ZNSt7__cxx1112basic_stringIcSt11char_traitsIcESaIcEE12_M_constructIPKcEEvT_S8_
.Ltmp20:
	j	.LBB7_5
.LBB7_5:                                # %invoke.cont4
	ld	s3, 40(sp)
	ld	s2, 48(sp)
	ld	s1, 56(sp)
	ld	s0, 64(sp)
	.cfi_def_cfa sp, 80
	ld	ra, 72(sp)
	.cfi_restore ra
	.cfi_restore s0
	.cfi_restore s1
	.cfi_restore s2
	.cfi_restore s3
	addi	sp, sp, 80
	.cfi_def_cfa_offset 0
	ret
.LBB7_6:                                # %lpad
.Ltmp21:
	sd	a0, -72(s0)
	sw	a1, -76(s0)
	mv	a0, s1
	call	_ZNSt7__cxx1112basic_stringIcSt11char_traitsIcESaIcEE12_Alloc_hiderD2Ev
	j	.LBB7_7
.LBB7_7:                                # %eh.resume
	ld	a0, -72(s0)
	call	_Unwind_Resume
.Lfunc_end7:
	.size	_ZNSt7__cxx1112basic_stringIcSt11char_traitsIcESaIcEEC2IS3_EEPKcRKS3_, .Lfunc_end7-_ZNSt7__cxx1112basic_stringIcSt11char_traitsIcESaIcEEC2IS3_EEPKcRKS3_
	.cfi_endproc
	.section	.gcc_except_table,"a",@progbits
	.p2align	2
GCC_except_table7:
.Lexception3:
	.byte	255                     # @LPStart Encoding = omit
	.byte	255                     # @TType Encoding = omit
	.byte	3                       # Call site Encoding = udata4
	.uleb128 .Lcst_end3-.Lcst_begin3
.Lcst_begin3:
	.word	.Lfunc_begin3-.Lfunc_begin3 # >> Call Site 1 <<
	.word	.Ltmp17-.Lfunc_begin3   #   Call between .Lfunc_begin3 and .Ltmp17
	.word	0                       #     has no landing pad
	.byte	0                       #   On action: cleanup
	.word	.Ltmp17-.Lfunc_begin3   # >> Call Site 2 <<
	.word	.Ltmp20-.Ltmp17         #   Call between .Ltmp17 and .Ltmp20
	.word	.Ltmp21-.Lfunc_begin3   #     jumps to .Ltmp21
	.byte	0                       #   On action: cleanup
	.word	.Ltmp20-.Lfunc_begin3   # >> Call Site 3 <<
	.word	.Lfunc_end7-.Ltmp20     #   Call between .Ltmp20 and .Lfunc_end7
	.word	0                       #     has no landing pad
	.byte	0                       #   On action: cleanup
.Lcst_end3:
	.p2align	2
                                        # -- End function
	.section	.text._ZN5SceneD2Ev,"axG",@progbits,_ZN5SceneD2Ev,comdat
	.weak	_ZN5SceneD2Ev           # -- Begin function _ZN5SceneD2Ev
	.p2align	2
	.type	_ZN5SceneD2Ev,@function
_ZN5SceneD2Ev:                          # @_ZN5SceneD2Ev
# %bb.0:                                # %entry
	addi	sp, sp, -32
	sd	ra, 24(sp)
	sd	s0, 16(sp)
	sd	s1, 8(sp)
	addi	s0, sp, 32
	sd	a0, -32(s0)
	ld	s1, -32(s0)
	addi	a0, s1, 72
	call	_ZNSt10shared_ptrI3BVHED2Ev
	addi	a0, s1, 48
	call	_ZNSt6vectorIdSaIdEED2Ev
	addi	a0, s1, 24
	call	_ZNSt6vectorISt10shared_ptrIN7Surface4BaseEESaIS3_EED2Ev
	mv	a0, s1
	call	_ZNSt6vectorISt10shared_ptrIN7Surface4BaseEESaIS3_EED2Ev
	ld	s1, 8(sp)
	ld	s0, 16(sp)
	ld	ra, 24(sp)
	addi	sp, sp, 32
	ret
.Lfunc_end8:
	.size	_ZN5SceneD2Ev, .Lfunc_end8-_ZN5SceneD2Ev
                                        # -- End function
	.section	.sdata,"aw",@progbits
	.p2align	3               # -- Begin function _ZNK10Integrator12sampleDirectERK11InteractionRNS_11LightSampleE
.LCPI9_0:
	.quad	0                       # double 0
	.text
	.globl	_ZNK10Integrator12sampleDirectERK11InteractionRNS_11LightSampleE
	.p2align	2
	.type	_ZNK10Integrator12sampleDirectERK11InteractionRNS_11LightSampleE,@function
_ZNK10Integrator12sampleDirectERK11InteractionRNS_11LightSampleE: # @_ZNK10Integrator12sampleDirectERK11InteractionRNS_11LightSampleE
.Lfunc_begin4:
	.cfi_startproc
	.cfi_personality 155, DW.ref.__gxx_personality_v0
	.cfi_lsda 27, .Lexception4
# %bb.0:                                # %entry
	addi	sp, sp, -720
	.cfi_def_cfa_offset 720
	sd	ra, 712(sp)
	sd	s0, 704(sp)
	sd	s1, 696(sp)
	sd	s2, 688(sp)
	sd	s3, 680(sp)
	sd	s4, 672(sp)
	sd	s5, 664(sp)
	sd	s6, 656(sp)
	.cfi_offset ra, -8
	.cfi_offset s0, -16
	.cfi_offset s1, -24
	.cfi_offset s2, -32
	.cfi_offset s3, -40
	.cfi_offset s4, -48
	.cfi_offset s5, -56
	.cfi_offset s6, -64
	addi	s0, sp, 720
	.cfi_def_cfa s0, 0
	mv	s2, a0
	sd	s2, -72(s0)
	sd	a1, -80(s0)
	sd	a2, -88(s0)
	sd	a3, -96(s0)
	ld	s6, -80(s0)
	addi	a0, s6, 40
	call	_ZNKSt6vectorISt10shared_ptrIN7Surface4BaseEESaIS3_EE5emptyEv
	bnez	a0, .LBB9_2
	j	.LBB9_1
.LBB9_1:                                # %lor.lhs.false
	ld	a0, -88(s0)
	addi	a0, a0, 48
	call	_ZNKSt19__shared_ptr_accessI8MaterialLN9__gnu_cxx12_Lock_policyE0ELb0ELb0EEptEv
	lbu	a0, 148(a0)
	andi	a0, a0, 1
	beqz	a0, .LBB9_3
	j	.LBB9_2
.LBB9_2:                                # %if.then
	addi	s1, s0, -112
	mv	a0, s1
	mv	a1, zero
	call	_ZNSt10shared_ptrIN7Surface4BaseEEC2EDn
	ld	a0, -96(s0)
	addi	a0, a0, 16
	mv	a1, s1
	call	_ZNSt10shared_ptrIN7Surface4BaseEEaSEOS2_
	mv	a0, s1
	call	_ZNSt10shared_ptrIN7Surface4BaseEED2Ev
	mv	a0, s2
	mv	a1, zero
	call	_ZN3glm3vecILi3EdLNS_9qualifierE0EEC2Ed
	j	.LBB9_29
.LBB9_3:                                # %if.end
	addi	s3, s0, -136
	mv	a0, s3
	call	_ZN7Sampler3getILi0ELi3EEEDav
	addi	s1, s6, 16
	mv	a0, s3
	addi	a1, zero, 2
	call	_ZNSt5arrayIdLm3EEixEm
	ld	a1, -96(s0)
	addi	a3, a1, 8
	ld	a2, 0(a0)
	addi	s4, s0, -152
	mv	a0, s4
	mv	a1, s1
	call	_ZNK5Scene11selectLightEdRd
	ld	a0, -96(s0)
	addi	a0, a0, 16
	mv	a1, s4
	call	_ZNSt10shared_ptrIN7Surface4BaseEEaSEOS2_
	mv	a0, s4
	call	_ZNSt10shared_ptrIN7Surface4BaseEED2Ev
	ld	a0, -96(s0)
	addi	a0, a0, 16
	call	_ZNKSt19__shared_ptr_accessIN7Surface4BaseELN9__gnu_cxx12_Lock_policyE0ELb0ELb0EEptEv
	mv	s1, a0
	mv	a0, s3
	mv	a1, zero
	call	_ZNSt5arrayIdLm3EEixEm
	ld	s4, 0(a0)
	mv	a0, s3
	addi	a1, zero, 1
	call	_ZNSt5arrayIdLm3EEixEm
	ld	a1, 0(s1)
	ld	a4, 24(a1)
	ld	a3, 0(a0)
	addi	s3, s0, -176
	mv	a0, s3
	mv	a1, s1
	mv	a2, s4
	jalr	a4
	ld	a0, -88(s0)
	addi	s1, a0, 80
	addi	a1, a0, 104
	lui	a0, 497
	addiw	a0, a0, -1897
	slli	a0, a0, 14
	addi	a0, a0, 381
	slli	a0, a0, 15
	addi	a0, a0, 621
	slli	a0, a0, 12
	addi	a2, a0, 1685
	addi	s4, s0, -328
	mv	a0, s4
	call	_ZN3glmmlIdLNS_9qualifierE0EEENS_3vecILi3ET_XT0_EEERKS4_S3_
	addi	s5, s0, -304
	mv	a0, s5
	mv	a1, s1
	mv	a2, s4
	call	_ZN3glmplIdLNS_9qualifierE0EEENS_3vecILi3ET_XT0_EEERKS4_S6_
	addi	s1, s0, -280
	mv	a0, s1
	mv	a1, s5
	mv	a2, s3
	call	_ZN3RayC1ERKN3glm3vecILi3EdLNS0_9qualifierE0EEES5_
	addi	a1, s1, 24
	addi	s4, s0, -360
	mv	a0, s4
	call	_ZN3glmngIdLNS_9qualifierE0EEENS_3vecILi3ET_XT0_EEERKS4_
	ld	a0, -96(s0)
	addi	a0, a0, 16
	call	_ZNKSt19__shared_ptr_accessIN7Surface4BaseELN9__gnu_cxx12_Lock_policyE0ELb0ELb0EEptEv
	mv	a1, a0
	ld	a0, 0(a1)
	ld	a3, 32(a0)
	addi	s1, s0, -384
	mv	a0, s1
	mv	a2, s3
	jalr	a3
	mv	a0, s4
	mv	a1, s1
	call	_ZN3glm3dotILi3EdLNS_9qualifierE0EEET0_RKNS_3vecIXT_ES2_XT1_EEES6_
	sd	a0, -336(s0)
	fld	ft0, -336(s0)
	lui	a0, %hi(.LCPI9_0)
	addi	a0, a0, %lo(.LCPI9_0)
	fld	ft1, 0(a0)
	fle.d	a0, ft0, ft1
	xori	a0, a0, 1
	bnez	a0, .LBB9_5
	j	.LBB9_4
.LBB9_4:                                # %if.then22
	mv	a0, s2
	mv	a1, zero
	call	_ZN3glm3vecILi3EdLNS_9qualifierE0EEC2Ed
	j	.LBB9_29
.LBB9_5:                                # %if.end23
	addi	a0, s0, -280
	addi	a0, a0, 24
	ld	a1, -88(s0)
	addi	a1, a1, 104
	call	_ZN3glm3dotILi3EdLNS_9qualifierE0EEET0_RKNS_3vecIXT_ES2_XT1_EEES6_
	sd	a0, -392(s0)
	fld	ft0, -392(s0)
	lui	a0, %hi(.LCPI9_0)
	addi	a0, a0, %lo(.LCPI9_0)
	fld	ft1, 0(a0)
	fle.d	a0, ft0, ft1
	xori	a0, a0, 1
	bnez	a0, .LBB9_11
	j	.LBB9_6
.LBB9_6:                                # %if.then28
	ld	a0, -88(s0)
	addi	a0, a0, 48
	call	_ZNKSt19__shared_ptr_accessI8MaterialLN9__gnu_cxx12_Lock_policyE0ELb0ELb0EEptEv
	lbu	a0, 146(a0)
	andi	a0, a0, 1
	bnez	a0, .LBB9_8
	j	.LBB9_7
.LBB9_7:                                # %lor.lhs.false32
	fld	ft0, -392(s0)
	lui	a0, %hi(.LCPI9_0)
	addi	a0, a0, %lo(.LCPI9_0)
	fld	ft1, 0(a0)
	feq.d	a0, ft0, ft1
	xori	a0, a0, 1
	bnez	a0, .LBB9_9
	j	.LBB9_8
.LBB9_8:                                # %if.then34
	mv	a0, s2
	mv	a1, zero
	call	_ZN3glm3vecILi3EdLNS_9qualifierE0EEC2Ed
	j	.LBB9_29
.LBB9_9:                                # %if.else
	ld	a0, -88(s0)
	addi	s1, a0, 80
	addi	a1, a0, 104
	lui	a0, 497
	addiw	a0, a0, -1897
	slli	a0, a0, 14
	addi	a0, a0, 381
	slli	a0, a0, 15
	addi	a0, a0, 621
	slli	a0, a0, 12
	addi	a2, a0, 1685
	addi	s3, s0, -544
	mv	a0, s3
	call	_ZN3glmmlIdLNS_9qualifierE0EEENS_3vecILi3ET_XT0_EEERKS4_S3_
	addi	s4, s0, -520
	mv	a0, s4
	mv	a1, s1
	mv	a2, s3
	call	_ZN3glmmiIdLNS_9qualifierE0EEENS_3vecILi3ET_XT0_EEERKS4_S6_
	addi	s1, s0, -496
	addi	a2, s0, -176
	mv	a0, s1
	mv	a1, s4
	call	_ZN3RayC1ERKN3glm3vecILi3EdLNS0_9qualifierE0EEES5_
	addi	a0, s0, -280
	mv	a1, s1
	addi	a2, zero, 100
	call	memcpy
	j	.LBB9_10
.LBB9_10:                               # %if.end40
	j	.LBB9_11
.LBB9_11:                               # %if.end41
	addi	a1, s6, 16
	addi	s1, s0, -592
	addi	a2, s0, -280
	mv	a0, s1
	call	_ZNK5Scene9intersectERK3Ray
.Ltmp22:
	mv	a0, s1
	call	_ZNK12IntersectioncvbEv
.Ltmp23:
	j	.LBB9_12
.LBB9_12:                               # %invoke.cont
	andi	a0, a0, 1
	beqz	a0, .LBB9_14
	j	.LBB9_13
.LBB9_13:                               # %lor.lhs.false44
	ld	a0, -96(s0)
	addi	a1, a0, 16
	addi	a0, s0, -592
	call	_ZStneIN7Surface4BaseES1_EbRKSt10shared_ptrIT_ERKS2_IT0_E
	beqz	a0, .LBB9_17
	j	.LBB9_14
.LBB9_14:                               # %if.then47
.Ltmp40:
	mv	a0, s2
	mv	a1, zero
	call	_ZN3glm3vecILi3EdLNS_9qualifierE0EEC2Ed
.Ltmp41:
	j	.LBB9_15
.LBB9_15:                               # %invoke.cont48
	addi	a0, zero, 1
	sw	a0, -608(s0)
	j	.LBB9_28
.LBB9_16:                               # %lpad
.Ltmp42:
	sd	a0, -600(s0)
	sw	a1, -604(s0)
	addi	a0, s0, -592
	call	_ZN12IntersectionD2Ev
	j	.LBB9_30
.LBB9_17:                               # %if.end49
	ld	a0, -576(s0)
.Ltmp24:
	call	_Z4pow2IdET_S0_
.Ltmp25:
	fmv.d.x	ft0, a0
	j	.LBB9_18
.LBB9_18:                               # %invoke.cont50
	ld	a0, -96(s0)
	addi	a0, a0, 16
	fsd	ft0, -712(s0)
	call	_ZNKSt19__shared_ptr_accessIN7Surface4BaseELN9__gnu_cxx12_Lock_policyE0ELb0ELb0EEptEv
.Ltmp26:
	call	_ZNK7Surface4Base4areaEv
	fld	ft2, -712(s0)
.Ltmp27:
	fmv.d.x	ft0, a0
	j	.LBB9_19
.LBB9_19:                               # %invoke.cont54
	fld	ft1, -336(s0)
	fmul.d	ft0, ft0, ft1
	fdiv.d	ft0, ft2, ft0
	fsd	ft0, -616(s0)
	ld	a0, -88(s0)
	addi	a1, s0, -280
	addi	a2, a1, 24
.Ltmp28:
	addi	a1, s0, -648
	addi	a3, s0, -624
	call	_ZNK11Interaction4BSDFERN3glm3vecILi3EdLNS0_9qualifierE0EEERKS3_Rd
.Ltmp29:
	j	.LBB9_20
.LBB9_20:                               # %invoke.cont57
	andi	a0, a0, 1
	bnez	a0, .LBB9_23
	j	.LBB9_21
.LBB9_21:                               # %if.then59
.Ltmp30:
	mv	a0, s2
	mv	a1, zero
	call	_ZN3glm3vecILi3EdLNS_9qualifierE0EEC2Ed
.Ltmp31:
	j	.LBB9_22
.LBB9_22:                               # %invoke.cont60
	addi	a0, zero, 1
	sw	a0, -608(s0)
	j	.LBB9_28
.LBB9_23:                               # %if.end61
	ld	a1, -624(s0)
	ld	a0, -616(s0)
.Ltmp32:
	call	_Z14powerHeuristicdd
	fmv.d.x	ft0, a0
.Ltmp33:
	j	.LBB9_24
.LBB9_24:                               # %invoke.cont62
	fsd	ft0, -656(s0)
	ld	a1, -656(s0)
.Ltmp34:
	addi	a0, s0, -704
	addi	a2, s0, -648
	call	_ZN3glmmlIdLNS_9qualifierE0EEENS_3vecILi3ET_XT0_EEES3_RKS4_
.Ltmp35:
	j	.LBB9_25
.LBB9_25:                               # %invoke.cont66
	ld	a0, -96(s0)
	addi	a0, a0, 16
	call	_ZNKSt19__shared_ptr_accessIN7Surface4BaseELN9__gnu_cxx12_Lock_policyE0ELb0ELb0EEptEv
	addi	a0, a0, 8
	call	_ZNKSt19__shared_ptr_accessI8MaterialLN9__gnu_cxx12_Lock_policyE0ELb0ELb0EEptEv
	addi	a2, a0, 72
.Ltmp36:
	addi	a0, s0, -680
	addi	a1, s0, -704
	call	_ZN3glmmlIdLNS_9qualifierE0EEENS_3vecILi3ET_XT0_EEERKS4_S6_
.Ltmp37:
	j	.LBB9_26
.LBB9_26:                               # %invoke.cont71
	fld	ft0, -616(s0)
	ld	a0, -96(s0)
	fld	ft1, 8(a0)
	fmul.d	ft0, ft0, ft1
	fmv.x.d	a2, ft0
.Ltmp38:
	addi	a1, s0, -680
	mv	a0, s2
	call	_ZN3glmdvIdLNS_9qualifierE0EEENS_3vecILi3ET_XT0_EEERKS4_S3_
.Ltmp39:
	j	.LBB9_27
.LBB9_27:                               # %invoke.cont74
	addi	a0, zero, 1
	sw	a0, -608(s0)
	j	.LBB9_28
.LBB9_28:                               # %cleanup
	addi	a0, s0, -592
	call	_ZN12IntersectionD2Ev
	j	.LBB9_29
.LBB9_29:                               # %return
	ld	s6, 656(sp)
	ld	s5, 664(sp)
	ld	s4, 672(sp)
	ld	s3, 680(sp)
	ld	s2, 688(sp)
	ld	s1, 696(sp)
	ld	s0, 704(sp)
	.cfi_def_cfa sp, 720
	ld	ra, 712(sp)
	.cfi_restore ra
	.cfi_restore s0
	.cfi_restore s1
	.cfi_restore s2
	.cfi_restore s3
	.cfi_restore s4
	.cfi_restore s5
	.cfi_restore s6
	addi	sp, sp, 720
	.cfi_def_cfa_offset 0
	ret
.LBB9_30:                               # %eh.resume
	ld	a0, -600(s0)
	call	_Unwind_Resume
.Lfunc_end9:
	.size	_ZNK10Integrator12sampleDirectERK11InteractionRNS_11LightSampleE, .Lfunc_end9-_ZNK10Integrator12sampleDirectERK11InteractionRNS_11LightSampleE
	.cfi_endproc
	.section	.gcc_except_table,"a",@progbits
	.p2align	2
GCC_except_table9:
.Lexception4:
	.byte	255                     # @LPStart Encoding = omit
	.byte	255                     # @TType Encoding = omit
	.byte	3                       # Call site Encoding = udata4
	.uleb128 .Lcst_end4-.Lcst_begin4
.Lcst_begin4:
	.word	.Lfunc_begin4-.Lfunc_begin4 # >> Call Site 1 <<
	.word	.Ltmp22-.Lfunc_begin4   #   Call between .Lfunc_begin4 and .Ltmp22
	.word	0                       #     has no landing pad
	.byte	0                       #   On action: cleanup
	.word	.Ltmp22-.Lfunc_begin4   # >> Call Site 2 <<
	.word	.Ltmp39-.Ltmp22         #   Call between .Ltmp22 and .Ltmp39
	.word	.Ltmp42-.Lfunc_begin4   #     jumps to .Ltmp42
	.byte	0                       #   On action: cleanup
	.word	.Ltmp39-.Lfunc_begin4   # >> Call Site 3 <<
	.word	.Lfunc_end9-.Ltmp39     #   Call between .Ltmp39 and .Lfunc_end9
	.word	0                       #     has no landing pad
	.byte	0                       #   On action: cleanup
.Lcst_end4:
	.p2align	2
                                        # -- End function
	.section	.text._ZNKSt6vectorISt10shared_ptrIN7Surface4BaseEESaIS3_EE5emptyEv,"axG",@progbits,_ZNKSt6vectorISt10shared_ptrIN7Surface4BaseEESaIS3_EE5emptyEv,comdat
	.weak	_ZNKSt6vectorISt10shared_ptrIN7Surface4BaseEESaIS3_EE5emptyEv # -- Begin function _ZNKSt6vectorISt10shared_ptrIN7Surface4BaseEESaIS3_EE5emptyEv
	.p2align	2
	.type	_ZNKSt6vectorISt10shared_ptrIN7Surface4BaseEESaIS3_EE5emptyEv,@function
_ZNKSt6vectorISt10shared_ptrIN7Surface4BaseEESaIS3_EE5emptyEv: # @_ZNKSt6vectorISt10shared_ptrIN7Surface4BaseEESaIS3_EE5emptyEv
# %bb.0:                                # %entry
	addi	sp, sp, -48
	sd	ra, 40(sp)
	sd	s0, 32(sp)
	sd	s1, 24(sp)
	addi	s0, sp, 48
	sd	a0, -32(s0)
	ld	s1, -32(s0)
	mv	a0, s1
	call	_ZNKSt6vectorISt10shared_ptrIN7Surface4BaseEESaIS3_EE5beginEv
	sd	a0, -40(s0)
	mv	a0, s1
	call	_ZNKSt6vectorISt10shared_ptrIN7Surface4BaseEESaIS3_EE3endEv
	sd	a0, -48(s0)
	addi	a0, s0, -40
	addi	a1, s0, -48
	call	_ZN9__gnu_cxxeqIPKSt10shared_ptrIN7Surface4BaseEESt6vectorIS4_SaIS4_EEEEbRKNS_17__normal_iteratorIT_T0_EESF_
	ld	s1, 24(sp)
	ld	s0, 32(sp)
	ld	ra, 40(sp)
	addi	sp, sp, 48
	ret
.Lfunc_end10:
	.size	_ZNKSt6vectorISt10shared_ptrIN7Surface4BaseEESaIS3_EE5emptyEv, .Lfunc_end10-_ZNKSt6vectorISt10shared_ptrIN7Surface4BaseEESaIS3_EE5emptyEv
                                        # -- End function
	.section	.text._ZNKSt19__shared_ptr_accessI8MaterialLN9__gnu_cxx12_Lock_policyE0ELb0ELb0EEptEv,"axG",@progbits,_ZNKSt19__shared_ptr_accessI8MaterialLN9__gnu_cxx12_Lock_policyE0ELb0ELb0EEptEv,comdat
	.weak	_ZNKSt19__shared_ptr_accessI8MaterialLN9__gnu_cxx12_Lock_policyE0ELb0ELb0EEptEv # -- Begin function _ZNKSt19__shared_ptr_accessI8MaterialLN9__gnu_cxx12_Lock_policyE0ELb0ELb0EEptEv
	.p2align	2
	.type	_ZNKSt19__shared_ptr_accessI8MaterialLN9__gnu_cxx12_Lock_policyE0ELb0ELb0EEptEv,@function
_ZNKSt19__shared_ptr_accessI8MaterialLN9__gnu_cxx12_Lock_policyE0ELb0ELb0EEptEv: # @_ZNKSt19__shared_ptr_accessI8MaterialLN9__gnu_cxx12_Lock_policyE0ELb0ELb0EEptEv
# %bb.0:                                # %entry
	addi	sp, sp, -32
	sd	ra, 24(sp)
	sd	s0, 16(sp)
	addi	s0, sp, 32
	sd	a0, -24(s0)
	ld	a0, -24(s0)
	call	_ZNKSt19__shared_ptr_accessI8MaterialLN9__gnu_cxx12_Lock_policyE0ELb0ELb0EE6_M_getEv
	ld	s0, 16(sp)
	ld	ra, 24(sp)
	addi	sp, sp, 32
	ret
.Lfunc_end11:
	.size	_ZNKSt19__shared_ptr_accessI8MaterialLN9__gnu_cxx12_Lock_policyE0ELb0ELb0EEptEv, .Lfunc_end11-_ZNKSt19__shared_ptr_accessI8MaterialLN9__gnu_cxx12_Lock_policyE0ELb0ELb0EEptEv
                                        # -- End function
	.section	.text._ZNSt10shared_ptrIN7Surface4BaseEEC2EDn,"axG",@progbits,_ZNSt10shared_ptrIN7Surface4BaseEEC2EDn,comdat
	.weak	_ZNSt10shared_ptrIN7Surface4BaseEEC2EDn # -- Begin function _ZNSt10shared_ptrIN7Surface4BaseEEC2EDn
	.p2align	2
	.type	_ZNSt10shared_ptrIN7Surface4BaseEEC2EDn,@function
_ZNSt10shared_ptrIN7Surface4BaseEEC2EDn: # @_ZNSt10shared_ptrIN7Surface4BaseEEC2EDn
# %bb.0:                                # %entry
	addi	sp, sp, -32
	sd	ra, 24(sp)
	sd	s0, 16(sp)
	addi	s0, sp, 32
	sd	a0, -24(s0)
	sd	a1, -32(s0)
	ld	a0, -24(s0)
	call	_ZNSt10shared_ptrIN7Surface4BaseEEC2Ev
	ld	s0, 16(sp)
	ld	ra, 24(sp)
	addi	sp, sp, 32
	ret
.Lfunc_end12:
	.size	_ZNSt10shared_ptrIN7Surface4BaseEEC2EDn, .Lfunc_end12-_ZNSt10shared_ptrIN7Surface4BaseEEC2EDn
                                        # -- End function
	.section	.text._ZNSt10shared_ptrIN7Surface4BaseEEaSEOS2_,"axG",@progbits,_ZNSt10shared_ptrIN7Surface4BaseEEaSEOS2_,comdat
	.weak	_ZNSt10shared_ptrIN7Surface4BaseEEaSEOS2_ # -- Begin function _ZNSt10shared_ptrIN7Surface4BaseEEaSEOS2_
	.p2align	2
	.type	_ZNSt10shared_ptrIN7Surface4BaseEEaSEOS2_,@function
_ZNSt10shared_ptrIN7Surface4BaseEEaSEOS2_: # @_ZNSt10shared_ptrIN7Surface4BaseEEaSEOS2_
# %bb.0:                                # %entry
	addi	sp, sp, -48
	sd	ra, 40(sp)
	sd	s0, 32(sp)
	sd	s1, 24(sp)
	addi	s0, sp, 48
	sd	a0, -32(s0)
	sd	a1, -40(s0)
	ld	s1, -32(s0)
	ld	a0, -40(s0)
	call	_ZSt4moveIRSt10shared_ptrIN7Surface4BaseEEEONSt16remove_referenceIT_E4typeEOS6_
	mv	a1, a0
	mv	a0, s1
	call	_ZNSt12__shared_ptrIN7Surface4BaseELN9__gnu_cxx12_Lock_policyE0EEaSEOS4_
	mv	a0, s1
	ld	s1, 24(sp)
	ld	s0, 32(sp)
	ld	ra, 40(sp)
	addi	sp, sp, 48
	ret
.Lfunc_end13:
	.size	_ZNSt10shared_ptrIN7Surface4BaseEEaSEOS2_, .Lfunc_end13-_ZNSt10shared_ptrIN7Surface4BaseEEaSEOS2_
                                        # -- End function
	.section	.text._ZNSt10shared_ptrIN7Surface4BaseEED2Ev,"axG",@progbits,_ZNSt10shared_ptrIN7Surface4BaseEED2Ev,comdat
	.weak	_ZNSt10shared_ptrIN7Surface4BaseEED2Ev # -- Begin function _ZNSt10shared_ptrIN7Surface4BaseEED2Ev
	.p2align	2
	.type	_ZNSt10shared_ptrIN7Surface4BaseEED2Ev,@function
_ZNSt10shared_ptrIN7Surface4BaseEED2Ev: # @_ZNSt10shared_ptrIN7Surface4BaseEED2Ev
# %bb.0:                                # %entry
	addi	sp, sp, -32
	sd	ra, 24(sp)
	sd	s0, 16(sp)
	addi	s0, sp, 32
	sd	a0, -24(s0)
	ld	a0, -24(s0)
	call	_ZNSt12__shared_ptrIN7Surface4BaseELN9__gnu_cxx12_Lock_policyE0EED2Ev
	ld	s0, 16(sp)
	ld	ra, 24(sp)
	addi	sp, sp, 32
	ret
.Lfunc_end14:
	.size	_ZNSt10shared_ptrIN7Surface4BaseEED2Ev, .Lfunc_end14-_ZNSt10shared_ptrIN7Surface4BaseEED2Ev
                                        # -- End function
	.section	.text._ZN3glm3vecILi3EdLNS_9qualifierE0EEC2Ed,"axG",@progbits,_ZN3glm3vecILi3EdLNS_9qualifierE0EEC2Ed,comdat
	.weak	_ZN3glm3vecILi3EdLNS_9qualifierE0EEC2Ed # -- Begin function _ZN3glm3vecILi3EdLNS_9qualifierE0EEC2Ed
	.p2align	2
	.type	_ZN3glm3vecILi3EdLNS_9qualifierE0EEC2Ed,@function
_ZN3glm3vecILi3EdLNS_9qualifierE0EEC2Ed: # @_ZN3glm3vecILi3EdLNS_9qualifierE0EEC2Ed
# %bb.0:                                # %entry
	addi	sp, sp, -32
	sd	ra, 24(sp)
	sd	s0, 16(sp)
	addi	s0, sp, 32
	fmv.d.x	ft0, a1
	sd	a0, -24(s0)
	sd	a1, -32(s0)
	ld	a0, -24(s0)
	fld	ft0, -32(s0)
	fsd	ft0, 0(a0)
	fld	ft0, -32(s0)
	fsd	ft0, 8(a0)
	fld	ft0, -32(s0)
	fsd	ft0, 16(a0)
	ld	s0, 16(sp)
	ld	ra, 24(sp)
	addi	sp, sp, 32
	ret
.Lfunc_end15:
	.size	_ZN3glm3vecILi3EdLNS_9qualifierE0EEC2Ed, .Lfunc_end15-_ZN3glm3vecILi3EdLNS_9qualifierE0EEC2Ed
                                        # -- End function
	.section	.text._ZN7Sampler3getILi0ELi3EEEDav,"axG",@progbits,_ZN7Sampler3getILi0ELi3EEEDav,comdat
	.weak	_ZN7Sampler3getILi0ELi3EEEDav # -- Begin function _ZN7Sampler3getILi0ELi3EEEDav
	.p2align	2
	.type	_ZN7Sampler3getILi0ELi3EEEDav,@function
_ZN7Sampler3getILi0ELi3EEEDav:          # @_ZN7Sampler3getILi0ELi3EEEDav
	.cfi_startproc
# %bb.0:                                # %entry
	addi	sp, sp, -64
	.cfi_def_cfa_offset 64
	sd	ra, 56(sp)
	sd	s0, 48(sp)
	sd	s1, 40(sp)
	.cfi_offset ra, -8
	.cfi_offset s0, -16
	.cfi_offset s1, -24
	addi	s0, sp, 64
	.cfi_def_cfa s0, 0
	mv	s1, a0
	sd	s1, -32(s0)
	addi	a0, s0, -56
	sd	a0, -64(s0)
	addi	a0, s0, -64
	call	_Z12unrolledLoopIiLi3EZN7Sampler3getILi0ELi3EEEDavEUlT_E_EvOT1_
	ld	a0, -40(s0)
	sd	a0, 16(s1)
	ld	a0, -48(s0)
	sd	a0, 8(s1)
	ld	a0, -56(s0)
	sd	a0, 0(s1)
	ld	s1, 40(sp)
	ld	s0, 48(sp)
	.cfi_def_cfa sp, 64
	ld	ra, 56(sp)
	.cfi_restore ra
	.cfi_restore s0
	.cfi_restore s1
	addi	sp, sp, 64
	.cfi_def_cfa_offset 0
	ret
.Lfunc_end16:
	.size	_ZN7Sampler3getILi0ELi3EEEDav, .Lfunc_end16-_ZN7Sampler3getILi0ELi3EEEDav
	.cfi_endproc
                                        # -- End function
	.section	.text._ZNSt5arrayIdLm3EEixEm,"axG",@progbits,_ZNSt5arrayIdLm3EEixEm,comdat
	.weak	_ZNSt5arrayIdLm3EEixEm  # -- Begin function _ZNSt5arrayIdLm3EEixEm
	.p2align	2
	.type	_ZNSt5arrayIdLm3EEixEm,@function
_ZNSt5arrayIdLm3EEixEm:                 # @_ZNSt5arrayIdLm3EEixEm
# %bb.0:                                # %entry
	addi	sp, sp, -32
	sd	ra, 24(sp)
	sd	s0, 16(sp)
	addi	s0, sp, 32
	sd	a0, -24(s0)
	sd	a1, -32(s0)
	ld	a0, -24(s0)
	ld	a1, -32(s0)
	call	_ZNSt14__array_traitsIdLm3EE6_S_refERA3_Kdm
	ld	s0, 16(sp)
	ld	ra, 24(sp)
	addi	sp, sp, 32
	ret
.Lfunc_end17:
	.size	_ZNSt5arrayIdLm3EEixEm, .Lfunc_end17-_ZNSt5arrayIdLm3EEixEm
                                        # -- End function
	.section	.text._ZNKSt19__shared_ptr_accessIN7Surface4BaseELN9__gnu_cxx12_Lock_policyE0ELb0ELb0EEptEv,"axG",@progbits,_ZNKSt19__shared_ptr_accessIN7Surface4BaseELN9__gnu_cxx12_Lock_policyE0ELb0ELb0EEptEv,comdat
	.weak	_ZNKSt19__shared_ptr_accessIN7Surface4BaseELN9__gnu_cxx12_Lock_policyE0ELb0ELb0EEptEv # -- Begin function _ZNKSt19__shared_ptr_accessIN7Surface4BaseELN9__gnu_cxx12_Lock_policyE0ELb0ELb0EEptEv
	.p2align	2
	.type	_ZNKSt19__shared_ptr_accessIN7Surface4BaseELN9__gnu_cxx12_Lock_policyE0ELb0ELb0EEptEv,@function
_ZNKSt19__shared_ptr_accessIN7Surface4BaseELN9__gnu_cxx12_Lock_policyE0ELb0ELb0EEptEv: # @_ZNKSt19__shared_ptr_accessIN7Surface4BaseELN9__gnu_cxx12_Lock_policyE0ELb0ELb0EEptEv
# %bb.0:                                # %entry
	addi	sp, sp, -32
	sd	ra, 24(sp)
	sd	s0, 16(sp)
	addi	s0, sp, 32
	sd	a0, -24(s0)
	ld	a0, -24(s0)
	call	_ZNKSt19__shared_ptr_accessIN7Surface4BaseELN9__gnu_cxx12_Lock_policyE0ELb0ELb0EE6_M_getEv
	ld	s0, 16(sp)
	ld	ra, 24(sp)
	addi	sp, sp, 32
	ret
.Lfunc_end18:
	.size	_ZNKSt19__shared_ptr_accessIN7Surface4BaseELN9__gnu_cxx12_Lock_policyE0ELb0ELb0EEptEv, .Lfunc_end18-_ZNKSt19__shared_ptr_accessIN7Surface4BaseELN9__gnu_cxx12_Lock_policyE0ELb0ELb0EEptEv
                                        # -- End function
	.section	.text._ZN3glmplIdLNS_9qualifierE0EEENS_3vecILi3ET_XT0_EEERKS4_S6_,"axG",@progbits,_ZN3glmplIdLNS_9qualifierE0EEENS_3vecILi3ET_XT0_EEERKS4_S6_,comdat
	.weak	_ZN3glmplIdLNS_9qualifierE0EEENS_3vecILi3ET_XT0_EEERKS4_S6_ # -- Begin function _ZN3glmplIdLNS_9qualifierE0EEENS_3vecILi3ET_XT0_EEERKS4_S6_
	.p2align	2
	.type	_ZN3glmplIdLNS_9qualifierE0EEENS_3vecILi3ET_XT0_EEERKS4_S6_,@function
_ZN3glmplIdLNS_9qualifierE0EEENS_3vecILi3ET_XT0_EEERKS4_S6_: # @_ZN3glmplIdLNS_9qualifierE0EEENS_3vecILi3ET_XT0_EEERKS4_S6_
	.cfi_startproc
# %bb.0:                                # %entry
	addi	sp, sp, -48
	.cfi_def_cfa_offset 48
	sd	ra, 40(sp)
	sd	s0, 32(sp)
	.cfi_offset ra, -8
	.cfi_offset s0, -16
	addi	s0, sp, 48
	.cfi_def_cfa s0, 0
	sd	a0, -24(s0)
	sd	a1, -32(s0)
	sd	a2, -40(s0)
	ld	a1, -32(s0)
	fld	ft0, 0(a1)
	ld	a2, -40(s0)
	fld	ft1, 0(a2)
	fadd.d	ft0, ft0, ft1
	fld	ft1, 8(a1)
	fld	ft2, 8(a2)
	fadd.d	ft1, ft1, ft2
	fld	ft2, 16(a1)
	fld	ft3, 16(a2)
	fadd.d	ft2, ft2, ft3
	fmv.x.d	a1, ft0
	fmv.x.d	a2, ft1
	fmv.x.d	a3, ft2
	call	_ZN3glm3vecILi3EdLNS_9qualifierE0EEC2Eddd
	ld	s0, 32(sp)
	.cfi_def_cfa sp, 48
	ld	ra, 40(sp)
	.cfi_restore ra
	.cfi_restore s0
	addi	sp, sp, 48
	.cfi_def_cfa_offset 0
	ret
.Lfunc_end19:
	.size	_ZN3glmplIdLNS_9qualifierE0EEENS_3vecILi3ET_XT0_EEERKS4_S6_, .Lfunc_end19-_ZN3glmplIdLNS_9qualifierE0EEENS_3vecILi3ET_XT0_EEERKS4_S6_
	.cfi_endproc
                                        # -- End function
	.section	.text._ZN3glmmlIdLNS_9qualifierE0EEENS_3vecILi3ET_XT0_EEERKS4_S3_,"axG",@progbits,_ZN3glmmlIdLNS_9qualifierE0EEENS_3vecILi3ET_XT0_EEERKS4_S3_,comdat
	.weak	_ZN3glmmlIdLNS_9qualifierE0EEENS_3vecILi3ET_XT0_EEERKS4_S3_ # -- Begin function _ZN3glmmlIdLNS_9qualifierE0EEENS_3vecILi3ET_XT0_EEERKS4_S3_
	.p2align	2
	.type	_ZN3glmmlIdLNS_9qualifierE0EEENS_3vecILi3ET_XT0_EEERKS4_S3_,@function
_ZN3glmmlIdLNS_9qualifierE0EEENS_3vecILi3ET_XT0_EEERKS4_S3_: # @_ZN3glmmlIdLNS_9qualifierE0EEENS_3vecILi3ET_XT0_EEERKS4_S3_
	.cfi_startproc
# %bb.0:                                # %entry
	addi	sp, sp, -48
	.cfi_def_cfa_offset 48
	sd	ra, 40(sp)
	sd	s0, 32(sp)
	.cfi_offset ra, -8
	.cfi_offset s0, -16
	addi	s0, sp, 48
	.cfi_def_cfa s0, 0
	fmv.d.x	ft0, a2
	sd	a0, -24(s0)
	sd	a1, -32(s0)
	sd	a2, -40(s0)
	ld	a1, -32(s0)
	fld	ft0, 0(a1)
	fld	ft1, -40(s0)
	fmul.d	ft0, ft0, ft1
	fld	ft2, 8(a1)
	fmul.d	ft2, ft2, ft1
	fld	ft3, 16(a1)
	fmul.d	ft1, ft3, ft1
	fmv.x.d	a1, ft0
	fmv.x.d	a2, ft2
	fmv.x.d	a3, ft1
	call	_ZN3glm3vecILi3EdLNS_9qualifierE0EEC2Eddd
	ld	s0, 32(sp)
	.cfi_def_cfa sp, 48
	ld	ra, 40(sp)
	.cfi_restore ra
	.cfi_restore s0
	addi	sp, sp, 48
	.cfi_def_cfa_offset 0
	ret
.Lfunc_end20:
	.size	_ZN3glmmlIdLNS_9qualifierE0EEENS_3vecILi3ET_XT0_EEERKS4_S3_, .Lfunc_end20-_ZN3glmmlIdLNS_9qualifierE0EEENS_3vecILi3ET_XT0_EEERKS4_S3_
	.cfi_endproc
                                        # -- End function
	.section	.text._ZN3glm3dotILi3EdLNS_9qualifierE0EEET0_RKNS_3vecIXT_ES2_XT1_EEES6_,"axG",@progbits,_ZN3glm3dotILi3EdLNS_9qualifierE0EEET0_RKNS_3vecIXT_ES2_XT1_EEES6_,comdat
	.weak	_ZN3glm3dotILi3EdLNS_9qualifierE0EEET0_RKNS_3vecIXT_ES2_XT1_EEES6_ # -- Begin function _ZN3glm3dotILi3EdLNS_9qualifierE0EEET0_RKNS_3vecIXT_ES2_XT1_EEES6_
	.p2align	2
	.type	_ZN3glm3dotILi3EdLNS_9qualifierE0EEET0_RKNS_3vecIXT_ES2_XT1_EEES6_,@function
_ZN3glm3dotILi3EdLNS_9qualifierE0EEET0_RKNS_3vecIXT_ES2_XT1_EEES6_: # @_ZN3glm3dotILi3EdLNS_9qualifierE0EEET0_RKNS_3vecIXT_ES2_XT1_EEES6_
	.cfi_startproc
# %bb.0:                                # %entry
	addi	sp, sp, -32
	.cfi_def_cfa_offset 32
	sd	ra, 24(sp)
	sd	s0, 16(sp)
	.cfi_offset ra, -8
	.cfi_offset s0, -16
	addi	s0, sp, 32
	.cfi_def_cfa s0, 0
	sd	a0, -24(s0)
	sd	a1, -32(s0)
	ld	a0, -24(s0)
	ld	a1, -32(s0)
	call	_ZN3glm6detail11compute_dotINS_3vecILi3EdLNS_9qualifierE0EEEdLb0EE4callERKS4_S7_
	ld	s0, 16(sp)
	.cfi_def_cfa sp, 32
	ld	ra, 24(sp)
	.cfi_restore ra
	.cfi_restore s0
	addi	sp, sp, 32
	.cfi_def_cfa_offset 0
	ret
.Lfunc_end21:
	.size	_ZN3glm3dotILi3EdLNS_9qualifierE0EEET0_RKNS_3vecIXT_ES2_XT1_EEES6_, .Lfunc_end21-_ZN3glm3dotILi3EdLNS_9qualifierE0EEET0_RKNS_3vecIXT_ES2_XT1_EEES6_
	.cfi_endproc
                                        # -- End function
	.section	.text._ZN3glmngIdLNS_9qualifierE0EEENS_3vecILi3ET_XT0_EEERKS4_,"axG",@progbits,_ZN3glmngIdLNS_9qualifierE0EEENS_3vecILi3ET_XT0_EEERKS4_,comdat
	.weak	_ZN3glmngIdLNS_9qualifierE0EEENS_3vecILi3ET_XT0_EEERKS4_ # -- Begin function _ZN3glmngIdLNS_9qualifierE0EEENS_3vecILi3ET_XT0_EEERKS4_
	.p2align	2
	.type	_ZN3glmngIdLNS_9qualifierE0EEENS_3vecILi3ET_XT0_EEERKS4_,@function
_ZN3glmngIdLNS_9qualifierE0EEENS_3vecILi3ET_XT0_EEERKS4_: # @_ZN3glmngIdLNS_9qualifierE0EEENS_3vecILi3ET_XT0_EEERKS4_
	.cfi_startproc
# %bb.0:                                # %entry
	addi	sp, sp, -32
	.cfi_def_cfa_offset 32
	sd	ra, 24(sp)
	sd	s0, 16(sp)
	.cfi_offset ra, -8
	.cfi_offset s0, -16
	addi	s0, sp, 32
	.cfi_def_cfa s0, 0
	sd	a0, -24(s0)
	sd	a1, -32(s0)
	ld	a1, -32(s0)
	ld	a2, 0(a1)
	ld	a3, 8(a1)
	ld	a4, 16(a1)
	addi	a1, zero, -1
	slli	a5, a1, 63
	xor	a1, a2, a5
	xor	a2, a3, a5
	xor	a3, a4, a5
	call	_ZN3glm3vecILi3EdLNS_9qualifierE0EEC2Eddd
	ld	s0, 16(sp)
	.cfi_def_cfa sp, 32
	ld	ra, 24(sp)
	.cfi_restore ra
	.cfi_restore s0
	addi	sp, sp, 32
	.cfi_def_cfa_offset 0
	ret
.Lfunc_end22:
	.size	_ZN3glmngIdLNS_9qualifierE0EEENS_3vecILi3ET_XT0_EEERKS4_, .Lfunc_end22-_ZN3glmngIdLNS_9qualifierE0EEENS_3vecILi3ET_XT0_EEERKS4_
	.cfi_endproc
                                        # -- End function
	.section	.text._ZN3glmmiIdLNS_9qualifierE0EEENS_3vecILi3ET_XT0_EEERKS4_S6_,"axG",@progbits,_ZN3glmmiIdLNS_9qualifierE0EEENS_3vecILi3ET_XT0_EEERKS4_S6_,comdat
	.weak	_ZN3glmmiIdLNS_9qualifierE0EEENS_3vecILi3ET_XT0_EEERKS4_S6_ # -- Begin function _ZN3glmmiIdLNS_9qualifierE0EEENS_3vecILi3ET_XT0_EEERKS4_S6_
	.p2align	2
	.type	_ZN3glmmiIdLNS_9qualifierE0EEENS_3vecILi3ET_XT0_EEERKS4_S6_,@function
_ZN3glmmiIdLNS_9qualifierE0EEENS_3vecILi3ET_XT0_EEERKS4_S6_: # @_ZN3glmmiIdLNS_9qualifierE0EEENS_3vecILi3ET_XT0_EEERKS4_S6_
	.cfi_startproc
# %bb.0:                                # %entry
	addi	sp, sp, -48
	.cfi_def_cfa_offset 48
	sd	ra, 40(sp)
	sd	s0, 32(sp)
	.cfi_offset ra, -8
	.cfi_offset s0, -16
	addi	s0, sp, 48
	.cfi_def_cfa s0, 0
	sd	a0, -24(s0)
	sd	a1, -32(s0)
	sd	a2, -40(s0)
	ld	a1, -32(s0)
	fld	ft0, 0(a1)
	ld	a2, -40(s0)
	fld	ft1, 0(a2)
	fsub.d	ft0, ft0, ft1
	fld	ft1, 8(a1)
	fld	ft2, 8(a2)
	fsub.d	ft1, ft1, ft2
	fld	ft2, 16(a1)
	fld	ft3, 16(a2)
	fsub.d	ft2, ft2, ft3
	fmv.x.d	a1, ft0
	fmv.x.d	a2, ft1
	fmv.x.d	a3, ft2
	call	_ZN3glm3vecILi3EdLNS_9qualifierE0EEC2Eddd
	ld	s0, 32(sp)
	.cfi_def_cfa sp, 48
	ld	ra, 40(sp)
	.cfi_restore ra
	.cfi_restore s0
	addi	sp, sp, 48
	.cfi_def_cfa_offset 0
	ret
.Lfunc_end23:
	.size	_ZN3glmmiIdLNS_9qualifierE0EEENS_3vecILi3ET_XT0_EEERKS4_S6_, .Lfunc_end23-_ZN3glmmiIdLNS_9qualifierE0EEENS_3vecILi3ET_XT0_EEERKS4_S6_
	.cfi_endproc
                                        # -- End function
	.section	.text._ZNK12IntersectioncvbEv,"axG",@progbits,_ZNK12IntersectioncvbEv,comdat
	.weak	_ZNK12IntersectioncvbEv # -- Begin function _ZNK12IntersectioncvbEv
	.p2align	2
	.type	_ZNK12IntersectioncvbEv,@function
_ZNK12IntersectioncvbEv:                # @_ZNK12IntersectioncvbEv
# %bb.0:                                # %entry
	addi	sp, sp, -32
	sd	ra, 24(sp)
	sd	s0, 16(sp)
	addi	s0, sp, 32
	sd	a0, -24(s0)
	ld	a0, -24(s0)
	call	_ZNKSt12__shared_ptrIN7Surface4BaseELN9__gnu_cxx12_Lock_policyE0EEcvbEv
	ld	s0, 16(sp)
	ld	ra, 24(sp)
	addi	sp, sp, 32
	ret
.Lfunc_end24:
	.size	_ZNK12IntersectioncvbEv, .Lfunc_end24-_ZNK12IntersectioncvbEv
                                        # -- End function
	.section	.text._ZStneIN7Surface4BaseES1_EbRKSt10shared_ptrIT_ERKS2_IT0_E,"axG",@progbits,_ZStneIN7Surface4BaseES1_EbRKSt10shared_ptrIT_ERKS2_IT0_E,comdat
	.weak	_ZStneIN7Surface4BaseES1_EbRKSt10shared_ptrIT_ERKS2_IT0_E # -- Begin function _ZStneIN7Surface4BaseES1_EbRKSt10shared_ptrIT_ERKS2_IT0_E
	.p2align	2
	.type	_ZStneIN7Surface4BaseES1_EbRKSt10shared_ptrIT_ERKS2_IT0_E,@function
_ZStneIN7Surface4BaseES1_EbRKSt10shared_ptrIT_ERKS2_IT0_E: # @_ZStneIN7Surface4BaseES1_EbRKSt10shared_ptrIT_ERKS2_IT0_E
# %bb.0:                                # %entry
	addi	sp, sp, -48
	sd	ra, 40(sp)
	sd	s0, 32(sp)
	sd	s1, 24(sp)
	addi	s0, sp, 48
	sd	a0, -32(s0)
	sd	a1, -40(s0)
	ld	a0, -32(s0)
	call	_ZNKSt12__shared_ptrIN7Surface4BaseELN9__gnu_cxx12_Lock_policyE0EE3getEv
	mv	s1, a0
	ld	a0, -40(s0)
	call	_ZNKSt12__shared_ptrIN7Surface4BaseELN9__gnu_cxx12_Lock_policyE0EE3getEv
	xor	a0, s1, a0
	snez	a0, a0
	ld	s1, 24(sp)
	ld	s0, 32(sp)
	ld	ra, 40(sp)
	addi	sp, sp, 48
	ret
.Lfunc_end25:
	.size	_ZStneIN7Surface4BaseES1_EbRKSt10shared_ptrIT_ERKS2_IT0_E, .Lfunc_end25-_ZStneIN7Surface4BaseES1_EbRKSt10shared_ptrIT_ERKS2_IT0_E
                                        # -- End function
	.section	.text._Z4pow2IdET_S0_,"axG",@progbits,_Z4pow2IdET_S0_,comdat
	.weak	_Z4pow2IdET_S0_         # -- Begin function _Z4pow2IdET_S0_
	.p2align	2
	.type	_Z4pow2IdET_S0_,@function
_Z4pow2IdET_S0_:                        # @_Z4pow2IdET_S0_
# %bb.0:                                # %entry
	addi	sp, sp, -32
	sd	ra, 24(sp)
	sd	s0, 16(sp)
	addi	s0, sp, 32
	fmv.d.x	ft0, a0
	sd	a0, -24(s0)
	fld	ft0, -24(s0)
	fmul.d	ft0, ft0, ft0
	fmv.x.d	a0, ft0
	ld	s0, 16(sp)
	ld	ra, 24(sp)
	addi	sp, sp, 32
	ret
.Lfunc_end26:
	.size	_Z4pow2IdET_S0_, .Lfunc_end26-_Z4pow2IdET_S0_
                                        # -- End function
	.section	.text._ZNK7Surface4Base4areaEv,"axG",@progbits,_ZNK7Surface4Base4areaEv,comdat
	.weak	_ZNK7Surface4Base4areaEv # -- Begin function _ZNK7Surface4Base4areaEv
	.p2align	2
	.type	_ZNK7Surface4Base4areaEv,@function
_ZNK7Surface4Base4areaEv:               # @_ZNK7Surface4Base4areaEv
# %bb.0:                                # %entry
	addi	sp, sp, -32
	sd	ra, 24(sp)
	sd	s0, 16(sp)
	addi	s0, sp, 32
	sd	a0, -24(s0)
	ld	a0, -24(s0)
	ld	a0, 24(a0)
	ld	s0, 16(sp)
	ld	ra, 24(sp)
	addi	sp, sp, 32
	ret
.Lfunc_end27:
	.size	_ZNK7Surface4Base4areaEv, .Lfunc_end27-_ZNK7Surface4Base4areaEv
                                        # -- End function
	.section	.text._Z14powerHeuristicdd,"axG",@progbits,_Z14powerHeuristicdd,comdat
	.weak	_Z14powerHeuristicdd    # -- Begin function _Z14powerHeuristicdd
	.p2align	2
	.type	_Z14powerHeuristicdd,@function
_Z14powerHeuristicdd:                   # @_Z14powerHeuristicdd
# %bb.0:                                # %entry
	addi	sp, sp, -48
	sd	ra, 40(sp)
	sd	s0, 32(sp)
	addi	s0, sp, 48
	fmv.d.x	ft0, a1
	fmv.d.x	ft0, a0
	sd	a0, -24(s0)
	sd	a1, -32(s0)
	fld	ft0, -24(s0)
	fmul.d	ft0, ft0, ft0
	fsd	ft0, -40(s0)
	fld	ft0, -40(s0)
	fld	ft1, -32(s0)
	fmul.d	ft1, ft1, ft1
	fadd.d	ft1, ft0, ft1
	fdiv.d	ft0, ft0, ft1
	fmv.x.d	a0, ft0
	ld	s0, 32(sp)
	ld	ra, 40(sp)
	addi	sp, sp, 48
	ret
.Lfunc_end28:
	.size	_Z14powerHeuristicdd, .Lfunc_end28-_Z14powerHeuristicdd
                                        # -- End function
	.section	.text._ZN3glmdvIdLNS_9qualifierE0EEENS_3vecILi3ET_XT0_EEERKS4_S3_,"axG",@progbits,_ZN3glmdvIdLNS_9qualifierE0EEENS_3vecILi3ET_XT0_EEERKS4_S3_,comdat
	.weak	_ZN3glmdvIdLNS_9qualifierE0EEENS_3vecILi3ET_XT0_EEERKS4_S3_ # -- Begin function _ZN3glmdvIdLNS_9qualifierE0EEENS_3vecILi3ET_XT0_EEERKS4_S3_
	.p2align	2
	.type	_ZN3glmdvIdLNS_9qualifierE0EEENS_3vecILi3ET_XT0_EEERKS4_S3_,@function
_ZN3glmdvIdLNS_9qualifierE0EEENS_3vecILi3ET_XT0_EEERKS4_S3_: # @_ZN3glmdvIdLNS_9qualifierE0EEENS_3vecILi3ET_XT0_EEERKS4_S3_
	.cfi_startproc
# %bb.0:                                # %entry
	addi	sp, sp, -48
	.cfi_def_cfa_offset 48
	sd	ra, 40(sp)
	sd	s0, 32(sp)
	.cfi_offset ra, -8
	.cfi_offset s0, -16
	addi	s0, sp, 48
	.cfi_def_cfa s0, 0
	fmv.d.x	ft0, a2
	sd	a0, -24(s0)
	sd	a1, -32(s0)
	sd	a2, -40(s0)
	ld	a1, -32(s0)
	fld	ft0, 0(a1)
	fld	ft1, -40(s0)
	fdiv.d	ft0, ft0, ft1
	fld	ft2, 8(a1)
	fdiv.d	ft2, ft2, ft1
	fld	ft3, 16(a1)
	fdiv.d	ft1, ft3, ft1
	fmv.x.d	a1, ft0
	fmv.x.d	a2, ft2
	fmv.x.d	a3, ft1
	call	_ZN3glm3vecILi3EdLNS_9qualifierE0EEC2Eddd
	ld	s0, 32(sp)
	.cfi_def_cfa sp, 48
	ld	ra, 40(sp)
	.cfi_restore ra
	.cfi_restore s0
	addi	sp, sp, 48
	.cfi_def_cfa_offset 0
	ret
.Lfunc_end29:
	.size	_ZN3glmdvIdLNS_9qualifierE0EEENS_3vecILi3ET_XT0_EEERKS4_S3_, .Lfunc_end29-_ZN3glmdvIdLNS_9qualifierE0EEENS_3vecILi3ET_XT0_EEERKS4_S3_
	.cfi_endproc
                                        # -- End function
	.section	.text._ZN3glmmlIdLNS_9qualifierE0EEENS_3vecILi3ET_XT0_EEERKS4_S6_,"axG",@progbits,_ZN3glmmlIdLNS_9qualifierE0EEENS_3vecILi3ET_XT0_EEERKS4_S6_,comdat
	.weak	_ZN3glmmlIdLNS_9qualifierE0EEENS_3vecILi3ET_XT0_EEERKS4_S6_ # -- Begin function _ZN3glmmlIdLNS_9qualifierE0EEENS_3vecILi3ET_XT0_EEERKS4_S6_
	.p2align	2
	.type	_ZN3glmmlIdLNS_9qualifierE0EEENS_3vecILi3ET_XT0_EEERKS4_S6_,@function
_ZN3glmmlIdLNS_9qualifierE0EEENS_3vecILi3ET_XT0_EEERKS4_S6_: # @_ZN3glmmlIdLNS_9qualifierE0EEENS_3vecILi3ET_XT0_EEERKS4_S6_
	.cfi_startproc
# %bb.0:                                # %entry
	addi	sp, sp, -48
	.cfi_def_cfa_offset 48
	sd	ra, 40(sp)
	sd	s0, 32(sp)
	.cfi_offset ra, -8
	.cfi_offset s0, -16
	addi	s0, sp, 48
	.cfi_def_cfa s0, 0
	sd	a0, -24(s0)
	sd	a1, -32(s0)
	sd	a2, -40(s0)
	ld	a1, -32(s0)
	fld	ft0, 0(a1)
	ld	a2, -40(s0)
	fld	ft1, 0(a2)
	fmul.d	ft0, ft0, ft1
	fld	ft1, 8(a1)
	fld	ft2, 8(a2)
	fmul.d	ft1, ft1, ft2
	fld	ft2, 16(a1)
	fld	ft3, 16(a2)
	fmul.d	ft2, ft2, ft3
	fmv.x.d	a1, ft0
	fmv.x.d	a2, ft1
	fmv.x.d	a3, ft2
	call	_ZN3glm3vecILi3EdLNS_9qualifierE0EEC2Eddd
	ld	s0, 32(sp)
	.cfi_def_cfa sp, 48
	ld	ra, 40(sp)
	.cfi_restore ra
	.cfi_restore s0
	addi	sp, sp, 48
	.cfi_def_cfa_offset 0
	ret
.Lfunc_end30:
	.size	_ZN3glmmlIdLNS_9qualifierE0EEENS_3vecILi3ET_XT0_EEERKS4_S6_, .Lfunc_end30-_ZN3glmmlIdLNS_9qualifierE0EEENS_3vecILi3ET_XT0_EEERKS4_S6_
	.cfi_endproc
                                        # -- End function
	.section	.text._ZN3glmmlIdLNS_9qualifierE0EEENS_3vecILi3ET_XT0_EEES3_RKS4_,"axG",@progbits,_ZN3glmmlIdLNS_9qualifierE0EEENS_3vecILi3ET_XT0_EEES3_RKS4_,comdat
	.weak	_ZN3glmmlIdLNS_9qualifierE0EEENS_3vecILi3ET_XT0_EEES3_RKS4_ # -- Begin function _ZN3glmmlIdLNS_9qualifierE0EEENS_3vecILi3ET_XT0_EEES3_RKS4_
	.p2align	2
	.type	_ZN3glmmlIdLNS_9qualifierE0EEENS_3vecILi3ET_XT0_EEES3_RKS4_,@function
_ZN3glmmlIdLNS_9qualifierE0EEENS_3vecILi3ET_XT0_EEES3_RKS4_: # @_ZN3glmmlIdLNS_9qualifierE0EEENS_3vecILi3ET_XT0_EEES3_RKS4_
	.cfi_startproc
# %bb.0:                                # %entry
	addi	sp, sp, -48
	.cfi_def_cfa_offset 48
	sd	ra, 40(sp)
	sd	s0, 32(sp)
	.cfi_offset ra, -8
	.cfi_offset s0, -16
	addi	s0, sp, 48
	.cfi_def_cfa s0, 0
	fmv.d.x	ft0, a1
	sd	a0, -24(s0)
	sd	a1, -32(s0)
	sd	a2, -40(s0)
	fld	ft0, -32(s0)
	ld	a1, -40(s0)
	fld	ft1, 0(a1)
	fmul.d	ft1, ft0, ft1
	fld	ft2, 8(a1)
	fmul.d	ft2, ft0, ft2
	fld	ft3, 16(a1)
	fmul.d	ft0, ft0, ft3
	fmv.x.d	a1, ft1
	fmv.x.d	a2, ft2
	fmv.x.d	a3, ft0
	call	_ZN3glm3vecILi3EdLNS_9qualifierE0EEC2Eddd
	ld	s0, 32(sp)
	.cfi_def_cfa sp, 48
	ld	ra, 40(sp)
	.cfi_restore ra
	.cfi_restore s0
	addi	sp, sp, 48
	.cfi_def_cfa_offset 0
	ret
.Lfunc_end31:
	.size	_ZN3glmmlIdLNS_9qualifierE0EEENS_3vecILi3ET_XT0_EEES3_RKS4_, .Lfunc_end31-_ZN3glmmlIdLNS_9qualifierE0EEENS_3vecILi3ET_XT0_EEES3_RKS4_
	.cfi_endproc
                                        # -- End function
	.section	.text._ZN12IntersectionD2Ev,"axG",@progbits,_ZN12IntersectionD2Ev,comdat
	.weak	_ZN12IntersectionD2Ev   # -- Begin function _ZN12IntersectionD2Ev
	.p2align	2
	.type	_ZN12IntersectionD2Ev,@function
_ZN12IntersectionD2Ev:                  # @_ZN12IntersectionD2Ev
# %bb.0:                                # %entry
	addi	sp, sp, -32
	sd	ra, 24(sp)
	sd	s0, 16(sp)
	addi	s0, sp, 32
	sd	a0, -24(s0)
	ld	a0, -24(s0)
	call	_ZNSt10shared_ptrIN7Surface4BaseEED2Ev
	ld	s0, 16(sp)
	ld	ra, 24(sp)
	addi	sp, sp, 32
	ret
.Lfunc_end32:
	.size	_ZN12IntersectionD2Ev, .Lfunc_end32-_ZN12IntersectionD2Ev
                                        # -- End function
	.text
	.globl	_ZNK10Integrator14sampleEmissiveERK11InteractionRKNS_11LightSampleE # -- Begin function _ZNK10Integrator14sampleEmissiveERK11InteractionRKNS_11LightSampleE
	.p2align	2
	.type	_ZNK10Integrator14sampleEmissiveERK11InteractionRKNS_11LightSampleE,@function
_ZNK10Integrator14sampleEmissiveERK11InteractionRKNS_11LightSampleE: # @_ZNK10Integrator14sampleEmissiveERK11InteractionRKNS_11LightSampleE
	.cfi_startproc
# %bb.0:                                # %entry
	addi	sp, sp, -128
	.cfi_def_cfa_offset 128
	sd	ra, 120(sp)
	sd	s0, 112(sp)
	sd	s1, 104(sp)
	sd	s2, 96(sp)
	sd	s3, 88(sp)
	.cfi_offset ra, -8
	.cfi_offset s0, -16
	.cfi_offset s1, -24
	.cfi_offset s2, -32
	.cfi_offset s3, -40
	addi	s0, sp, 128
	.cfi_def_cfa s0, 0
	mv	s1, a0
	sd	s1, -48(s0)
	sd	a1, -56(s0)
	sd	a2, -64(s0)
	sd	a3, -72(s0)
	ld	a0, -64(s0)
	addi	a0, a0, 48
	call	_ZNKSt19__shared_ptr_accessI8MaterialLN9__gnu_cxx12_Lock_policyE0ELb0ELb0EEptEv
	lbu	a0, 147(a0)
	andi	a0, a0, 1
	beqz	a0, .LBB33_8
	j	.LBB33_1
.LBB33_1:                               # %land.lhs.true
	ld	a0, -64(s0)
	lbu	a0, 224(a0)
	andi	a0, a0, 1
	bnez	a0, .LBB33_8
	j	.LBB33_2
.LBB33_2:                               # %if.then
	ld	a0, -64(s0)
	lhu	a0, 322(a0)
	beqz	a0, .LBB33_4
	j	.LBB33_3
.LBB33_3:                               # %lor.lhs.false
	ld	a0, -64(s0)
	lbu	a0, 320(a0)
	andi	a0, a0, 1
	beqz	a0, .LBB33_5
	j	.LBB33_4
.LBB33_4:                               # %if.then5
	ld	a0, -64(s0)
	addi	a0, a0, 48
	call	_ZNKSt19__shared_ptr_accessI8MaterialLN9__gnu_cxx12_Lock_policyE0ELb0ELb0EEptEv
	ld	a1, 88(a0)
	sd	a1, 16(s1)
	ld	a1, 80(a0)
	sd	a1, 8(s1)
	ld	a0, 72(a0)
	sd	a0, 0(s1)
	j	.LBB33_9
.LBB33_5:                               # %if.end
	ld	a0, -72(s0)
	addi	a0, a0, 16
	ld	a1, -64(s0)
	addi	a1, a1, 64
	call	_ZSteqIN7Surface4BaseES1_EbRKSt10shared_ptrIT_ERKS2_IT0_E
	beqz	a0, .LBB33_7
	j	.LBB33_6
.LBB33_6:                               # %if.then9
	ld	a1, -64(s0)
	addi	a0, a1, 128
	addi	a1, a1, 104
	call	_ZN3glm3dotILi3EdLNS_9qualifierE0EEET0_RKNS_3vecIXT_ES2_XT1_EEES6_
	sd	a0, -80(s0)
	ld	a0, -64(s0)
	ld	a0, 8(a0)
	call	_Z4pow2IdET_S0_
	fmv.d.x	ft0, a0
	fsd	ft0, -128(s0)
	ld	a0, -64(s0)
	addi	a0, a0, 64
	call	_ZNKSt19__shared_ptr_accessIN7Surface4BaseELN9__gnu_cxx12_Lock_policyE0ELb0ELb0EEptEv
	call	_ZNK7Surface4Base4areaEv
	fmv.d.x	ft0, a0
	fld	ft1, -80(s0)
	fmul.d	ft0, ft0, ft1
	fld	ft1, -128(s0)
	fdiv.d	ft0, ft1, ft0
	fsd	ft0, -88(s0)
	ld	a0, -72(s0)
	ld	a0, 0(a0)
	ld	a1, -88(s0)
	call	_Z14powerHeuristicdd
	sd	a0, -96(s0)
	ld	a0, -64(s0)
	addi	a0, a0, 48
	ld	s2, -96(s0)
	call	_ZNKSt19__shared_ptr_accessI8MaterialLN9__gnu_cxx12_Lock_policyE0ELb0ELb0EEptEv
	addi	a2, a0, 72
	addi	s3, s0, -120
	mv	a0, s3
	mv	a1, s2
	call	_ZN3glmmlIdLNS_9qualifierE0EEENS_3vecILi3ET_XT0_EEES3_RKS4_
	ld	a0, -72(s0)
	ld	a2, 8(a0)
	mv	a0, s1
	mv	a1, s3
	call	_ZN3glmdvIdLNS_9qualifierE0EEENS_3vecILi3ET_XT0_EEERKS4_S3_
	j	.LBB33_9
.LBB33_7:                               # %if.end19
	j	.LBB33_8
.LBB33_8:                               # %if.end20
	mv	a0, s1
	mv	a1, zero
	call	_ZN3glm3vecILi3EdLNS_9qualifierE0EEC2Ed
	j	.LBB33_9
.LBB33_9:                               # %return
	ld	s3, 88(sp)
	ld	s2, 96(sp)
	ld	s1, 104(sp)
	ld	s0, 112(sp)
	.cfi_def_cfa sp, 128
	ld	ra, 120(sp)
	.cfi_restore ra
	.cfi_restore s0
	.cfi_restore s1
	.cfi_restore s2
	.cfi_restore s3
	addi	sp, sp, 128
	.cfi_def_cfa_offset 0
	ret
.Lfunc_end33:
	.size	_ZNK10Integrator14sampleEmissiveERK11InteractionRKNS_11LightSampleE, .Lfunc_end33-_ZNK10Integrator14sampleEmissiveERK11InteractionRKNS_11LightSampleE
	.cfi_endproc
                                        # -- End function
	.section	.text._ZSteqIN7Surface4BaseES1_EbRKSt10shared_ptrIT_ERKS2_IT0_E,"axG",@progbits,_ZSteqIN7Surface4BaseES1_EbRKSt10shared_ptrIT_ERKS2_IT0_E,comdat
	.weak	_ZSteqIN7Surface4BaseES1_EbRKSt10shared_ptrIT_ERKS2_IT0_E # -- Begin function _ZSteqIN7Surface4BaseES1_EbRKSt10shared_ptrIT_ERKS2_IT0_E
	.p2align	2
	.type	_ZSteqIN7Surface4BaseES1_EbRKSt10shared_ptrIT_ERKS2_IT0_E,@function
_ZSteqIN7Surface4BaseES1_EbRKSt10shared_ptrIT_ERKS2_IT0_E: # @_ZSteqIN7Surface4BaseES1_EbRKSt10shared_ptrIT_ERKS2_IT0_E
# %bb.0:                                # %entry
	addi	sp, sp, -48
	sd	ra, 40(sp)
	sd	s0, 32(sp)
	sd	s1, 24(sp)
	addi	s0, sp, 48
	sd	a0, -32(s0)
	sd	a1, -40(s0)
	ld	a0, -32(s0)
	call	_ZNKSt12__shared_ptrIN7Surface4BaseELN9__gnu_cxx12_Lock_policyE0EE3getEv
	mv	s1, a0
	ld	a0, -40(s0)
	call	_ZNKSt12__shared_ptrIN7Surface4BaseELN9__gnu_cxx12_Lock_policyE0EE3getEv
	xor	a0, s1, a0
	seqz	a0, a0
	ld	s1, 24(sp)
	ld	s0, 32(sp)
	ld	ra, 40(sp)
	addi	sp, sp, 48
	ret
.Lfunc_end34:
	.size	_ZSteqIN7Surface4BaseES1_EbRKSt10shared_ptrIT_ERKS2_IT0_E, .Lfunc_end34-_ZSteqIN7Surface4BaseES1_EbRKSt10shared_ptrIT_ERKS2_IT0_E
                                        # -- End function
	.section	.sdata,"aw",@progbits
	.p2align	3               # -- Begin function _ZNK10Integrator6absorbERK3RayRN3glm3vecILi3EdLNS3_9qualifierE0EEE
.LCPI35_0:
	.quad	0                       # double 0
	.text
	.globl	_ZNK10Integrator6absorbERK3RayRN3glm3vecILi3EdLNS3_9qualifierE0EEE
	.p2align	2
	.type	_ZNK10Integrator6absorbERK3RayRN3glm3vecILi3EdLNS3_9qualifierE0EEE,@function
_ZNK10Integrator6absorbERK3RayRN3glm3vecILi3EdLNS3_9qualifierE0EEE: # @_ZNK10Integrator6absorbERK3RayRN3glm3vecILi3EdLNS3_9qualifierE0EEE
	.cfi_startproc
# %bb.0:                                # %entry
	addi	sp, sp, -96
	.cfi_def_cfa_offset 96
	sd	ra, 88(sp)
	sd	s0, 80(sp)
	sd	s1, 72(sp)
	.cfi_offset ra, -8
	.cfi_offset s0, -16
	.cfi_offset s1, -24
	addi	s0, sp, 96
	.cfi_def_cfa s0, 0
	sd	a0, -40(s0)
	sd	a1, -48(s0)
	sd	a2, -56(s0)
	ld	s1, -40(s0)
	ld	a0, -56(s0)
	call	_ZN3glm7compMaxILi3EdLNS_9qualifierE0EEET0_RKNS_3vecIXT_ES2_XT1_EEE
	fmv.d.x	ft0, a0
	ld	a0, -48(s0)
	fld	ft1, 80(a0)
	fmul.d	ft0, ft0, ft1
	fsd	ft0, -64(s0)
	fld	ft0, -64(s0)
	lui	a0, %hi(.LCPI35_0)
	addi	a0, a0, %lo(.LCPI35_0)
	fld	ft1, 0(a0)
	feq.d	a0, ft0, ft1
	xori	a0, a0, 1
	bnez	a0, .LBB35_2
	j	.LBB35_1
.LBB35_1:                               # %if.then
	addi	a0, zero, 1
	sb	a0, -25(s0)
	j	.LBB35_8
.LBB35_2:                               # %if.end
	ld	a0, -48(s0)
	lhu	a0, 92(a0)
	lbu	a1, 160(s1)
	blt	a1, a0, .LBB35_4
	j	.LBB35_3
.LBB35_3:                               # %lor.lhs.false
	ld	a0, -48(s0)
	lhu	a0, 90(a0)
	lbu	a1, 161(s1)
	bge	a1, a0, .LBB35_7
	j	.LBB35_4
.LBB35_4:                               # %if.then7
	lui	a0, 8183
	addiw	a0, a0, 819
	slli	a0, a0, 12
	addi	a0, a0, 819
	slli	a0, a0, 12
	addi	a0, a0, 819
	slli	a0, a0, 13
	addi	a0, a0, 1638
	sd	a0, -72(s0)
	addi	a0, s0, -72
	addi	a1, s0, -64
	call	_ZSt3minIdERKT_S2_S2_
	fld	ft0, 0(a0)
	fsd	ft0, -64(s0)
	fld	ft0, -64(s0)
	fsd	ft0, -88(s0)
	call	_ZN7Sampler3getILi6ELi1EEEDav
	sd	a0, -80(s0)
	addi	a0, s0, -80
	mv	a1, zero
	call	_ZNSt5arrayIdLm1EEixEm
	fld	ft0, 0(a0)
	fld	ft1, -88(s0)
	fle.d	a0, ft1, ft0
	xori	a0, a0, 1
	bnez	a0, .LBB35_6
	j	.LBB35_5
.LBB35_5:                               # %if.then13
	addi	a0, zero, 1
	sb	a0, -25(s0)
	j	.LBB35_8
.LBB35_6:                               # %if.end14
	ld	a0, -56(s0)
	ld	a1, -64(s0)
	call	_ZN3glm3vecILi3EdLNS_9qualifierE0EEdVIdEERS2_T_
	j	.LBB35_7
.LBB35_7:                               # %if.end16
	sb	zero, -25(s0)
	j	.LBB35_8
.LBB35_8:                               # %return
	lbu	a0, -25(s0)
	ld	s1, 72(sp)
	ld	s0, 80(sp)
	.cfi_def_cfa sp, 96
	ld	ra, 88(sp)
	.cfi_restore ra
	.cfi_restore s0
	.cfi_restore s1
	addi	sp, sp, 96
	.cfi_def_cfa_offset 0
	ret
.Lfunc_end35:
	.size	_ZNK10Integrator6absorbERK3RayRN3glm3vecILi3EdLNS3_9qualifierE0EEE, .Lfunc_end35-_ZNK10Integrator6absorbERK3RayRN3glm3vecILi3EdLNS3_9qualifierE0EEE
	.cfi_endproc
                                        # -- End function
	.section	.text._ZN3glm7compMaxILi3EdLNS_9qualifierE0EEET0_RKNS_3vecIXT_ES2_XT1_EEE,"axG",@progbits,_ZN3glm7compMaxILi3EdLNS_9qualifierE0EEET0_RKNS_3vecIXT_ES2_XT1_EEE,comdat
	.weak	_ZN3glm7compMaxILi3EdLNS_9qualifierE0EEET0_RKNS_3vecIXT_ES2_XT1_EEE # -- Begin function _ZN3glm7compMaxILi3EdLNS_9qualifierE0EEET0_RKNS_3vecIXT_ES2_XT1_EEE
	.p2align	2
	.type	_ZN3glm7compMaxILi3EdLNS_9qualifierE0EEET0_RKNS_3vecIXT_ES2_XT1_EEE,@function
_ZN3glm7compMaxILi3EdLNS_9qualifierE0EEET0_RKNS_3vecIXT_ES2_XT1_EEE: # @_ZN3glm7compMaxILi3EdLNS_9qualifierE0EEET0_RKNS_3vecIXT_ES2_XT1_EEE
	.cfi_startproc
# %bb.0:                                # %entry
	addi	sp, sp, -48
	.cfi_def_cfa_offset 48
	sd	ra, 40(sp)
	sd	s0, 32(sp)
	sd	s1, 24(sp)
	.cfi_offset ra, -8
	.cfi_offset s0, -16
	.cfi_offset s1, -24
	addi	s0, sp, 48
	.cfi_def_cfa s0, 0
	sd	a0, -32(s0)
	ld	a0, -32(s0)
	mv	a1, zero
	call	_ZNK3glm3vecILi3EdLNS_9qualifierE0EEixEi
	fld	ft0, 0(a0)
	fsd	ft0, -40(s0)
	addi	a0, zero, 1
	sw	a0, -44(s0)
	call	_ZN3glm3vecILi3EdLNS_9qualifierE0EE6lengthEv
	sw	a0, -48(s0)
	j	.LBB36_1
.LBB36_1:                               # %for.cond
                                        # =>This Inner Loop Header: Depth=1
	lw	a0, -44(s0)
	lw	a1, -48(s0)
	bge	a0, a1, .LBB36_4
	j	.LBB36_2
.LBB36_2:                               # %for.body
                                        #   in Loop: Header=BB36_1 Depth=1
	ld	a0, -32(s0)
	lw	a1, -44(s0)
	ld	s1, -40(s0)
	call	_ZNK3glm3vecILi3EdLNS_9qualifierE0EEixEi
	ld	a1, 0(a0)
	mv	a0, s1
	call	_ZN3glm3maxIdEET_S1_S1_
	sd	a0, -40(s0)
	j	.LBB36_3
.LBB36_3:                               # %for.inc
                                        #   in Loop: Header=BB36_1 Depth=1
	lw	a0, -44(s0)
	addi	a0, a0, 1
	sw	a0, -44(s0)
	j	.LBB36_1
.LBB36_4:                               # %for.end
	ld	a0, -40(s0)
	ld	s1, 24(sp)
	ld	s0, 32(sp)
	.cfi_def_cfa sp, 48
	ld	ra, 40(sp)
	.cfi_restore ra
	.cfi_restore s0
	.cfi_restore s1
	addi	sp, sp, 48
	.cfi_def_cfa_offset 0
	ret
.Lfunc_end36:
	.size	_ZN3glm7compMaxILi3EdLNS_9qualifierE0EEET0_RKNS_3vecIXT_ES2_XT1_EEE, .Lfunc_end36-_ZN3glm7compMaxILi3EdLNS_9qualifierE0EEET0_RKNS_3vecIXT_ES2_XT1_EEE
	.cfi_endproc
                                        # -- End function
	.section	.text._ZSt3minIdERKT_S2_S2_,"axG",@progbits,_ZSt3minIdERKT_S2_S2_,comdat
	.weak	_ZSt3minIdERKT_S2_S2_   # -- Begin function _ZSt3minIdERKT_S2_S2_
	.p2align	2
	.type	_ZSt3minIdERKT_S2_S2_,@function
_ZSt3minIdERKT_S2_S2_:                  # @_ZSt3minIdERKT_S2_S2_
# %bb.0:                                # %entry
	addi	sp, sp, -48
	sd	ra, 40(sp)
	sd	s0, 32(sp)
	addi	s0, sp, 48
	sd	a0, -32(s0)
	sd	a1, -40(s0)
	ld	a0, -40(s0)
	fld	ft0, 0(a0)
	ld	a0, -32(s0)
	fld	ft1, 0(a0)
	flt.d	a0, ft0, ft1
	xori	a0, a0, 1
	bnez	a0, .LBB37_2
	j	.LBB37_1
.LBB37_1:                               # %if.then
	ld	a0, -40(s0)
	sd	a0, -24(s0)
	j	.LBB37_3
.LBB37_2:                               # %if.end
	ld	a0, -32(s0)
	sd	a0, -24(s0)
	j	.LBB37_3
.LBB37_3:                               # %return
	ld	a0, -24(s0)
	ld	s0, 32(sp)
	ld	ra, 40(sp)
	addi	sp, sp, 48
	ret
.Lfunc_end37:
	.size	_ZSt3minIdERKT_S2_S2_, .Lfunc_end37-_ZSt3minIdERKT_S2_S2_
                                        # -- End function
	.section	.text._ZN7Sampler3getILi6ELi1EEEDav,"axG",@progbits,_ZN7Sampler3getILi6ELi1EEEDav,comdat
	.weak	_ZN7Sampler3getILi6ELi1EEEDav # -- Begin function _ZN7Sampler3getILi6ELi1EEEDav
	.p2align	2
	.type	_ZN7Sampler3getILi6ELi1EEEDav,@function
_ZN7Sampler3getILi6ELi1EEEDav:          # @_ZN7Sampler3getILi6ELi1EEEDav
	.cfi_startproc
# %bb.0:                                # %entry
	addi	sp, sp, -48
	.cfi_def_cfa_offset 48
	sd	ra, 40(sp)
	sd	s0, 32(sp)
	.cfi_offset ra, -8
	.cfi_offset s0, -16
	addi	s0, sp, 48
	.cfi_def_cfa s0, 0
	addi	a0, s0, -32
	sd	a0, -40(s0)
	addi	a0, s0, -40
	call	_Z12unrolledLoopIiLi1EZN7Sampler3getILi6ELi1EEEDavEUlT_E_EvOT1_
	ld	a0, -32(s0)
	sd	a0, -24(s0)
	ld	a0, -24(s0)
	ld	s0, 32(sp)
	.cfi_def_cfa sp, 48
	ld	ra, 40(sp)
	.cfi_restore ra
	.cfi_restore s0
	addi	sp, sp, 48
	.cfi_def_cfa_offset 0
	ret
.Lfunc_end38:
	.size	_ZN7Sampler3getILi6ELi1EEEDav, .Lfunc_end38-_ZN7Sampler3getILi6ELi1EEEDav
	.cfi_endproc
                                        # -- End function
	.section	.text._ZNSt5arrayIdLm1EEixEm,"axG",@progbits,_ZNSt5arrayIdLm1EEixEm,comdat
	.weak	_ZNSt5arrayIdLm1EEixEm  # -- Begin function _ZNSt5arrayIdLm1EEixEm
	.p2align	2
	.type	_ZNSt5arrayIdLm1EEixEm,@function
_ZNSt5arrayIdLm1EEixEm:                 # @_ZNSt5arrayIdLm1EEixEm
# %bb.0:                                # %entry
	addi	sp, sp, -32
	sd	ra, 24(sp)
	sd	s0, 16(sp)
	addi	s0, sp, 32
	sd	a0, -24(s0)
	sd	a1, -32(s0)
	ld	a0, -24(s0)
	ld	a1, -32(s0)
	call	_ZNSt14__array_traitsIdLm1EE6_S_refERA1_Kdm
	ld	s0, 16(sp)
	ld	ra, 24(sp)
	addi	sp, sp, 32
	ret
.Lfunc_end39:
	.size	_ZNSt5arrayIdLm1EEixEm, .Lfunc_end39-_ZNSt5arrayIdLm1EEixEm
                                        # -- End function
	.section	.text._ZN3glm3vecILi3EdLNS_9qualifierE0EEdVIdEERS2_T_,"axG",@progbits,_ZN3glm3vecILi3EdLNS_9qualifierE0EEdVIdEERS2_T_,comdat
	.weak	_ZN3glm3vecILi3EdLNS_9qualifierE0EEdVIdEERS2_T_ # -- Begin function _ZN3glm3vecILi3EdLNS_9qualifierE0EEdVIdEERS2_T_
	.p2align	2
	.type	_ZN3glm3vecILi3EdLNS_9qualifierE0EEdVIdEERS2_T_,@function
_ZN3glm3vecILi3EdLNS_9qualifierE0EEdVIdEERS2_T_: # @_ZN3glm3vecILi3EdLNS_9qualifierE0EEdVIdEERS2_T_
# %bb.0:                                # %entry
	addi	sp, sp, -32
	sd	ra, 24(sp)
	sd	s0, 16(sp)
	addi	s0, sp, 32
	fmv.d.x	ft0, a1
	sd	a0, -24(s0)
	sd	a1, -32(s0)
	ld	a0, -24(s0)
	fld	ft0, -32(s0)
	fld	ft1, 0(a0)
	fdiv.d	ft0, ft1, ft0
	fsd	ft0, 0(a0)
	fld	ft0, -32(s0)
	fld	ft1, 8(a0)
	fdiv.d	ft0, ft1, ft0
	fsd	ft0, 8(a0)
	fld	ft0, -32(s0)
	fld	ft1, 16(a0)
	fdiv.d	ft0, ft1, ft0
	fsd	ft0, 16(a0)
	ld	s0, 16(sp)
	ld	ra, 24(sp)
	addi	sp, sp, 32
	ret
.Lfunc_end40:
	.size	_ZN3glm3vecILi3EdLNS_9qualifierE0EEdVIdEERS2_T_, .Lfunc_end40-_ZN3glm3vecILi3EdLNS_9qualifierE0EEdVIdEERS2_T_
                                        # -- End function
	.section	.text._ZN10IntegratorD2Ev,"axG",@progbits,_ZN10IntegratorD2Ev,comdat
	.weak	_ZN10IntegratorD2Ev     # -- Begin function _ZN10IntegratorD2Ev
	.p2align	2
	.type	_ZN10IntegratorD2Ev,@function
_ZN10IntegratorD2Ev:                    # @_ZN10IntegratorD2Ev
# %bb.0:                                # %entry
	addi	sp, sp, -32
	sd	ra, 24(sp)
	sd	s0, 16(sp)
	addi	s0, sp, 32
	sd	a0, -24(s0)
	ld	a0, -24(s0)
	lui	a1, %hi(_ZTV10Integrator)
	addi	a1, a1, %lo(_ZTV10Integrator)
	addi	a1, a1, 16
	sd	a1, 0(a0)
	addi	a0, a0, 16
	call	_ZN5SceneD2Ev
	ld	s0, 16(sp)
	ld	ra, 24(sp)
	addi	sp, sp, 32
	ret
.Lfunc_end41:
	.size	_ZN10IntegratorD2Ev, .Lfunc_end41-_ZN10IntegratorD2Ev
                                        # -- End function
	.section	.text._ZN10IntegratorD0Ev,"axG",@progbits,_ZN10IntegratorD0Ev,comdat
	.weak	_ZN10IntegratorD0Ev     # -- Begin function _ZN10IntegratorD0Ev
	.p2align	2
	.type	_ZN10IntegratorD0Ev,@function
_ZN10IntegratorD0Ev:                    # @_ZN10IntegratorD0Ev
# %bb.0:                                # %entry
	addi	sp, sp, -32
	sd	ra, 24(sp)
	sd	s0, 16(sp)
	addi	s0, sp, 32
	sd	a0, -24(s0)
	call	abort
.Lfunc_end42:
	.size	_ZN10IntegratorD0Ev, .Lfunc_end42-_ZN10IntegratorD0Ev
                                        # -- End function
	.section	.text._ZNSt10shared_ptrI3BVHED2Ev,"axG",@progbits,_ZNSt10shared_ptrI3BVHED2Ev,comdat
	.weak	_ZNSt10shared_ptrI3BVHED2Ev # -- Begin function _ZNSt10shared_ptrI3BVHED2Ev
	.p2align	2
	.type	_ZNSt10shared_ptrI3BVHED2Ev,@function
_ZNSt10shared_ptrI3BVHED2Ev:            # @_ZNSt10shared_ptrI3BVHED2Ev
# %bb.0:                                # %entry
	addi	sp, sp, -32
	sd	ra, 24(sp)
	sd	s0, 16(sp)
	addi	s0, sp, 32
	sd	a0, -24(s0)
	ld	a0, -24(s0)
	call	_ZNSt12__shared_ptrI3BVHLN9__gnu_cxx12_Lock_policyE0EED2Ev
	ld	s0, 16(sp)
	ld	ra, 24(sp)
	addi	sp, sp, 32
	ret
.Lfunc_end43:
	.size	_ZNSt10shared_ptrI3BVHED2Ev, .Lfunc_end43-_ZNSt10shared_ptrI3BVHED2Ev
                                        # -- End function
	.section	.text._ZNSt6vectorIdSaIdEED2Ev,"axG",@progbits,_ZNSt6vectorIdSaIdEED2Ev,comdat
	.weak	_ZNSt6vectorIdSaIdEED2Ev # -- Begin function _ZNSt6vectorIdSaIdEED2Ev
	.p2align	2
	.type	_ZNSt6vectorIdSaIdEED2Ev,@function
_ZNSt6vectorIdSaIdEED2Ev:               # @_ZNSt6vectorIdSaIdEED2Ev
.Lfunc_begin5:
	.cfi_startproc
	.cfi_personality 155, DW.ref.__gxx_personality_v0
	.cfi_lsda 27, .Lexception5
# %bb.0:                                # %entry
	addi	sp, sp, -64
	.cfi_def_cfa_offset 64
	sd	ra, 56(sp)
	sd	s0, 48(sp)
	sd	s1, 40(sp)
	sd	s2, 32(sp)
	sd	s3, 24(sp)
	.cfi_offset ra, -8
	.cfi_offset s0, -16
	.cfi_offset s1, -24
	.cfi_offset s2, -32
	.cfi_offset s3, -40
	addi	s0, sp, 64
	.cfi_def_cfa s0, 0
	sd	a0, -48(s0)
	ld	s1, -48(s0)
	ld	s2, 0(s1)
	ld	s3, 8(s1)
	mv	a0, s1
	call	_ZNSt12_Vector_baseIdSaIdEE19_M_get_Tp_allocatorEv
	mv	a2, a0
.Ltmp43:
	mv	a0, s2
	mv	a1, s3
	call	_ZSt8_DestroyIPddEvT_S1_RSaIT0_E
.Ltmp44:
	j	.LBB44_1
.LBB44_1:                               # %invoke.cont
	mv	a0, s1
	call	_ZNSt12_Vector_baseIdSaIdEED2Ev
	ld	s3, 24(sp)
	ld	s2, 32(sp)
	ld	s1, 40(sp)
	ld	s0, 48(sp)
	.cfi_def_cfa sp, 64
	ld	ra, 56(sp)
	.cfi_restore ra
	.cfi_restore s0
	.cfi_restore s1
	.cfi_restore s2
	.cfi_restore s3
	addi	sp, sp, 64
	.cfi_def_cfa_offset 0
	ret
.LBB44_2:                               # %lpad
.Ltmp45:
	sd	a0, -56(s0)
	sw	a1, -60(s0)
	mv	a0, s1
	call	_ZNSt12_Vector_baseIdSaIdEED2Ev
	j	.LBB44_3
.LBB44_3:                               # %terminate.handler
	ld	a0, -56(s0)
	call	__clang_call_terminate
.Lfunc_end44:
	.size	_ZNSt6vectorIdSaIdEED2Ev, .Lfunc_end44-_ZNSt6vectorIdSaIdEED2Ev
	.cfi_endproc
	.section	.gcc_except_table,"a",@progbits
	.p2align	2
GCC_except_table44:
.Lexception5:
	.byte	255                     # @LPStart Encoding = omit
	.byte	155                     # @TType Encoding = indirect pcrel sdata4
	.uleb128 .Lttbase0-.Lttbaseref0
.Lttbaseref0:
	.byte	3                       # Call site Encoding = udata4
	.uleb128 .Lcst_end5-.Lcst_begin5
.Lcst_begin5:
	.word	.Ltmp43-.Lfunc_begin5   # >> Call Site 1 <<
	.word	.Ltmp44-.Ltmp43         #   Call between .Ltmp43 and .Ltmp44
	.word	.Ltmp45-.Lfunc_begin5   #     jumps to .Ltmp45
	.byte	1                       #   On action: 1
.Lcst_end5:
	.byte	1                       # >> Action Record 1 <<
                                        #   Catch TypeInfo 1
	.byte	0                       #   No further actions
	.p2align	2
                                        # >> Catch TypeInfos <<
	.word	0                       # TypeInfo 1
.Lttbase0:
	.p2align	2
                                        # -- End function
	.section	.text._ZNSt6vectorISt10shared_ptrIN7Surface4BaseEESaIS3_EED2Ev,"axG",@progbits,_ZNSt6vectorISt10shared_ptrIN7Surface4BaseEESaIS3_EED2Ev,comdat
	.weak	_ZNSt6vectorISt10shared_ptrIN7Surface4BaseEESaIS3_EED2Ev # -- Begin function _ZNSt6vectorISt10shared_ptrIN7Surface4BaseEESaIS3_EED2Ev
	.p2align	2
	.type	_ZNSt6vectorISt10shared_ptrIN7Surface4BaseEESaIS3_EED2Ev,@function
_ZNSt6vectorISt10shared_ptrIN7Surface4BaseEESaIS3_EED2Ev: # @_ZNSt6vectorISt10shared_ptrIN7Surface4BaseEESaIS3_EED2Ev
.Lfunc_begin6:
	.cfi_startproc
	.cfi_personality 155, DW.ref.__gxx_personality_v0
	.cfi_lsda 27, .Lexception6
# %bb.0:                                # %entry
	addi	sp, sp, -64
	.cfi_def_cfa_offset 64
	sd	ra, 56(sp)
	sd	s0, 48(sp)
	sd	s1, 40(sp)
	sd	s2, 32(sp)
	sd	s3, 24(sp)
	.cfi_offset ra, -8
	.cfi_offset s0, -16
	.cfi_offset s1, -24
	.cfi_offset s2, -32
	.cfi_offset s3, -40
	addi	s0, sp, 64
	.cfi_def_cfa s0, 0
	sd	a0, -48(s0)
	ld	s1, -48(s0)
	ld	s2, 0(s1)
	ld	s3, 8(s1)
	mv	a0, s1
	call	_ZNSt12_Vector_baseISt10shared_ptrIN7Surface4BaseEESaIS3_EE19_M_get_Tp_allocatorEv
	mv	a2, a0
.Ltmp46:
	mv	a0, s2
	mv	a1, s3
	call	_ZSt8_DestroyIPSt10shared_ptrIN7Surface4BaseEES3_EvT_S5_RSaIT0_E
.Ltmp47:
	j	.LBB45_1
.LBB45_1:                               # %invoke.cont
	mv	a0, s1
	call	_ZNSt12_Vector_baseISt10shared_ptrIN7Surface4BaseEESaIS3_EED2Ev
	ld	s3, 24(sp)
	ld	s2, 32(sp)
	ld	s1, 40(sp)
	ld	s0, 48(sp)
	.cfi_def_cfa sp, 64
	ld	ra, 56(sp)
	.cfi_restore ra
	.cfi_restore s0
	.cfi_restore s1
	.cfi_restore s2
	.cfi_restore s3
	addi	sp, sp, 64
	.cfi_def_cfa_offset 0
	ret
.LBB45_2:                               # %lpad
.Ltmp48:
	sd	a0, -56(s0)
	sw	a1, -60(s0)
	mv	a0, s1
	call	_ZNSt12_Vector_baseISt10shared_ptrIN7Surface4BaseEESaIS3_EED2Ev
	j	.LBB45_3
.LBB45_3:                               # %terminate.handler
	ld	a0, -56(s0)
	call	__clang_call_terminate
.Lfunc_end45:
	.size	_ZNSt6vectorISt10shared_ptrIN7Surface4BaseEESaIS3_EED2Ev, .Lfunc_end45-_ZNSt6vectorISt10shared_ptrIN7Surface4BaseEESaIS3_EED2Ev
	.cfi_endproc
	.section	.gcc_except_table,"a",@progbits
	.p2align	2
GCC_except_table45:
.Lexception6:
	.byte	255                     # @LPStart Encoding = omit
	.byte	155                     # @TType Encoding = indirect pcrel sdata4
	.uleb128 .Lttbase1-.Lttbaseref1
.Lttbaseref1:
	.byte	3                       # Call site Encoding = udata4
	.uleb128 .Lcst_end6-.Lcst_begin6
.Lcst_begin6:
	.word	.Ltmp46-.Lfunc_begin6   # >> Call Site 1 <<
	.word	.Ltmp47-.Ltmp46         #   Call between .Ltmp46 and .Ltmp47
	.word	.Ltmp48-.Lfunc_begin6   #     jumps to .Ltmp48
	.byte	1                       #   On action: 1
.Lcst_end6:
	.byte	1                       # >> Action Record 1 <<
                                        #   Catch TypeInfo 1
	.byte	0                       #   No further actions
	.p2align	2
                                        # >> Catch TypeInfos <<
	.word	0                       # TypeInfo 1
.Lttbase1:
	.p2align	2
                                        # -- End function
	.section	.text._ZNSt12__shared_ptrI3BVHLN9__gnu_cxx12_Lock_policyE0EED2Ev,"axG",@progbits,_ZNSt12__shared_ptrI3BVHLN9__gnu_cxx12_Lock_policyE0EED2Ev,comdat
	.weak	_ZNSt12__shared_ptrI3BVHLN9__gnu_cxx12_Lock_policyE0EED2Ev # -- Begin function _ZNSt12__shared_ptrI3BVHLN9__gnu_cxx12_Lock_policyE0EED2Ev
	.p2align	2
	.type	_ZNSt12__shared_ptrI3BVHLN9__gnu_cxx12_Lock_policyE0EED2Ev,@function
_ZNSt12__shared_ptrI3BVHLN9__gnu_cxx12_Lock_policyE0EED2Ev: # @_ZNSt12__shared_ptrI3BVHLN9__gnu_cxx12_Lock_policyE0EED2Ev
# %bb.0:                                # %entry
	addi	sp, sp, -32
	sd	ra, 24(sp)
	sd	s0, 16(sp)
	addi	s0, sp, 32
	sd	a0, -24(s0)
	ld	a0, -24(s0)
	addi	a0, a0, 8
	call	_ZNSt14__shared_countILN9__gnu_cxx12_Lock_policyE0EED2Ev
	ld	s0, 16(sp)
	ld	ra, 24(sp)
	addi	sp, sp, 32
	ret
.Lfunc_end46:
	.size	_ZNSt12__shared_ptrI3BVHLN9__gnu_cxx12_Lock_policyE0EED2Ev, .Lfunc_end46-_ZNSt12__shared_ptrI3BVHLN9__gnu_cxx12_Lock_policyE0EED2Ev
                                        # -- End function
	.section	.text._ZNSt14__shared_countILN9__gnu_cxx12_Lock_policyE0EED2Ev,"axG",@progbits,_ZNSt14__shared_countILN9__gnu_cxx12_Lock_policyE0EED2Ev,comdat
	.weak	_ZNSt14__shared_countILN9__gnu_cxx12_Lock_policyE0EED2Ev # -- Begin function _ZNSt14__shared_countILN9__gnu_cxx12_Lock_policyE0EED2Ev
	.p2align	2
	.type	_ZNSt14__shared_countILN9__gnu_cxx12_Lock_policyE0EED2Ev,@function
_ZNSt14__shared_countILN9__gnu_cxx12_Lock_policyE0EED2Ev: # @_ZNSt14__shared_countILN9__gnu_cxx12_Lock_policyE0EED2Ev
# %bb.0:                                # %entry
	addi	sp, sp, -32
	sd	ra, 24(sp)
	sd	s0, 16(sp)
	addi	s0, sp, 32
	sd	a0, -24(s0)
	ld	a0, -24(s0)
	ld	a1, 0(a0)
	beqz	a1, .LBB47_2
	j	.LBB47_1
.LBB47_1:                               # %if.then
	ld	a0, 0(a0)
	call	_ZNSt16_Sp_counted_baseILN9__gnu_cxx12_Lock_policyE0EE10_M_releaseEv
	j	.LBB47_2
.LBB47_2:                               # %if.end
	ld	s0, 16(sp)
	ld	ra, 24(sp)
	addi	sp, sp, 32
	ret
.Lfunc_end47:
	.size	_ZNSt14__shared_countILN9__gnu_cxx12_Lock_policyE0EED2Ev, .Lfunc_end47-_ZNSt14__shared_countILN9__gnu_cxx12_Lock_policyE0EED2Ev
                                        # -- End function
	.section	.text._ZNSt16_Sp_counted_baseILN9__gnu_cxx12_Lock_policyE0EE10_M_releaseEv,"axG",@progbits,_ZNSt16_Sp_counted_baseILN9__gnu_cxx12_Lock_policyE0EE10_M_releaseEv,comdat
	.weak	_ZNSt16_Sp_counted_baseILN9__gnu_cxx12_Lock_policyE0EE10_M_releaseEv # -- Begin function _ZNSt16_Sp_counted_baseILN9__gnu_cxx12_Lock_policyE0EE10_M_releaseEv
	.p2align	2
	.type	_ZNSt16_Sp_counted_baseILN9__gnu_cxx12_Lock_policyE0EE10_M_releaseEv,@function
_ZNSt16_Sp_counted_baseILN9__gnu_cxx12_Lock_policyE0EE10_M_releaseEv: # @_ZNSt16_Sp_counted_baseILN9__gnu_cxx12_Lock_policyE0EE10_M_releaseEv
# %bb.0:                                # %entry
	addi	sp, sp, -32
	sd	ra, 24(sp)
	sd	s0, 16(sp)
	sd	s1, 8(sp)
	addi	s0, sp, 32
	sd	a0, -32(s0)
	ld	s1, -32(s0)
	lw	a0, 8(s1)
	addi	a0, a0, -1
	sw	a0, 8(s1)
	slli	a0, a0, 32
	srli	a0, a0, 32
	bnez	a0, .LBB48_4
	j	.LBB48_1
.LBB48_1:                               # %if.then
	ld	a0, 0(s1)
	ld	a1, 16(a0)
	mv	a0, s1
	jalr	a1
	lw	a0, 12(s1)
	addi	a0, a0, -1
	sw	a0, 12(s1)
	slli	a0, a0, 32
	srli	a0, a0, 32
	bnez	a0, .LBB48_3
	j	.LBB48_2
.LBB48_2:                               # %if.then4
	ld	a0, 0(s1)
	ld	a1, 24(a0)
	mv	a0, s1
	jalr	a1
	j	.LBB48_3
.LBB48_3:                               # %if.end
	j	.LBB48_4
.LBB48_4:                               # %if.end7
	ld	s1, 8(sp)
	ld	s0, 16(sp)
	ld	ra, 24(sp)
	addi	sp, sp, 32
	ret
.Lfunc_end48:
	.size	_ZNSt16_Sp_counted_baseILN9__gnu_cxx12_Lock_policyE0EE10_M_releaseEv, .Lfunc_end48-_ZNSt16_Sp_counted_baseILN9__gnu_cxx12_Lock_policyE0EE10_M_releaseEv
                                        # -- End function
	.section	.text._ZSt8_DestroyIPddEvT_S1_RSaIT0_E,"axG",@progbits,_ZSt8_DestroyIPddEvT_S1_RSaIT0_E,comdat
	.weak	_ZSt8_DestroyIPddEvT_S1_RSaIT0_E # -- Begin function _ZSt8_DestroyIPddEvT_S1_RSaIT0_E
	.p2align	2
	.type	_ZSt8_DestroyIPddEvT_S1_RSaIT0_E,@function
_ZSt8_DestroyIPddEvT_S1_RSaIT0_E:       # @_ZSt8_DestroyIPddEvT_S1_RSaIT0_E
	.cfi_startproc
# %bb.0:                                # %entry
	addi	sp, sp, -48
	.cfi_def_cfa_offset 48
	sd	ra, 40(sp)
	sd	s0, 32(sp)
	.cfi_offset ra, -8
	.cfi_offset s0, -16
	addi	s0, sp, 48
	.cfi_def_cfa s0, 0
	sd	a0, -24(s0)
	sd	a1, -32(s0)
	sd	a2, -40(s0)
	ld	a0, -24(s0)
	ld	a1, -32(s0)
	call	_ZSt8_DestroyIPdEvT_S1_
	ld	s0, 32(sp)
	.cfi_def_cfa sp, 48
	ld	ra, 40(sp)
	.cfi_restore ra
	.cfi_restore s0
	addi	sp, sp, 48
	.cfi_def_cfa_offset 0
	ret
.Lfunc_end49:
	.size	_ZSt8_DestroyIPddEvT_S1_RSaIT0_E, .Lfunc_end49-_ZSt8_DestroyIPddEvT_S1_RSaIT0_E
	.cfi_endproc
                                        # -- End function
	.section	.text._ZNSt12_Vector_baseIdSaIdEE19_M_get_Tp_allocatorEv,"axG",@progbits,_ZNSt12_Vector_baseIdSaIdEE19_M_get_Tp_allocatorEv,comdat
	.weak	_ZNSt12_Vector_baseIdSaIdEE19_M_get_Tp_allocatorEv # -- Begin function _ZNSt12_Vector_baseIdSaIdEE19_M_get_Tp_allocatorEv
	.p2align	2
	.type	_ZNSt12_Vector_baseIdSaIdEE19_M_get_Tp_allocatorEv,@function
_ZNSt12_Vector_baseIdSaIdEE19_M_get_Tp_allocatorEv: # @_ZNSt12_Vector_baseIdSaIdEE19_M_get_Tp_allocatorEv
# %bb.0:                                # %entry
	addi	sp, sp, -32
	sd	ra, 24(sp)
	sd	s0, 16(sp)
	addi	s0, sp, 32
	sd	a0, -24(s0)
	ld	a0, -24(s0)
	ld	s0, 16(sp)
	ld	ra, 24(sp)
	addi	sp, sp, 32
	ret
.Lfunc_end50:
	.size	_ZNSt12_Vector_baseIdSaIdEE19_M_get_Tp_allocatorEv, .Lfunc_end50-_ZNSt12_Vector_baseIdSaIdEE19_M_get_Tp_allocatorEv
                                        # -- End function
	.section	.text._ZNSt12_Vector_baseIdSaIdEED2Ev,"axG",@progbits,_ZNSt12_Vector_baseIdSaIdEED2Ev,comdat
	.weak	_ZNSt12_Vector_baseIdSaIdEED2Ev # -- Begin function _ZNSt12_Vector_baseIdSaIdEED2Ev
	.p2align	2
	.type	_ZNSt12_Vector_baseIdSaIdEED2Ev,@function
_ZNSt12_Vector_baseIdSaIdEED2Ev:        # @_ZNSt12_Vector_baseIdSaIdEED2Ev
.Lfunc_begin7:
	.cfi_startproc
	.cfi_personality 155, DW.ref.__gxx_personality_v0
	.cfi_lsda 27, .Lexception7
# %bb.0:                                # %entry
	addi	sp, sp, -48
	.cfi_def_cfa_offset 48
	sd	ra, 40(sp)
	sd	s0, 32(sp)
	sd	s1, 24(sp)
	.cfi_offset ra, -8
	.cfi_offset s0, -16
	.cfi_offset s1, -24
	addi	s0, sp, 48
	.cfi_def_cfa s0, 0
	sd	a0, -32(s0)
	ld	s1, -32(s0)
	ld	a1, 0(s1)
	ld	a0, 16(s1)
	sub	a0, a0, a1
	srai	a2, a0, 3
.Ltmp49:
	mv	a0, s1
	call	_ZNSt12_Vector_baseIdSaIdEE13_M_deallocateEPdm
.Ltmp50:
	j	.LBB51_1
.LBB51_1:                               # %invoke.cont
	mv	a0, s1
	call	_ZNSt12_Vector_baseIdSaIdEE12_Vector_implD2Ev
	ld	s1, 24(sp)
	ld	s0, 32(sp)
	.cfi_def_cfa sp, 48
	ld	ra, 40(sp)
	.cfi_restore ra
	.cfi_restore s0
	.cfi_restore s1
	addi	sp, sp, 48
	.cfi_def_cfa_offset 0
	ret
.LBB51_2:                               # %lpad
.Ltmp51:
	sd	a0, -40(s0)
	sw	a1, -44(s0)
	mv	a0, s1
	call	_ZNSt12_Vector_baseIdSaIdEE12_Vector_implD2Ev
	j	.LBB51_3
.LBB51_3:                               # %terminate.handler
	ld	a0, -40(s0)
	call	__clang_call_terminate
.Lfunc_end51:
	.size	_ZNSt12_Vector_baseIdSaIdEED2Ev, .Lfunc_end51-_ZNSt12_Vector_baseIdSaIdEED2Ev
	.cfi_endproc
	.section	.gcc_except_table,"a",@progbits
	.p2align	2
GCC_except_table51:
.Lexception7:
	.byte	255                     # @LPStart Encoding = omit
	.byte	155                     # @TType Encoding = indirect pcrel sdata4
	.uleb128 .Lttbase2-.Lttbaseref2
.Lttbaseref2:
	.byte	3                       # Call site Encoding = udata4
	.uleb128 .Lcst_end7-.Lcst_begin7
.Lcst_begin7:
	.word	.Ltmp49-.Lfunc_begin7   # >> Call Site 1 <<
	.word	.Ltmp50-.Ltmp49         #   Call between .Ltmp49 and .Ltmp50
	.word	.Ltmp51-.Lfunc_begin7   #     jumps to .Ltmp51
	.byte	1                       #   On action: 1
.Lcst_end7:
	.byte	1                       # >> Action Record 1 <<
                                        #   Catch TypeInfo 1
	.byte	0                       #   No further actions
	.p2align	2
                                        # >> Catch TypeInfos <<
	.word	0                       # TypeInfo 1
.Lttbase2:
	.p2align	2
                                        # -- End function
	.section	.text.__clang_call_terminate,"axG",@progbits,__clang_call_terminate,comdat
	.hidden	__clang_call_terminate  # -- Begin function __clang_call_terminate
	.weak	__clang_call_terminate
	.p2align	2
	.type	__clang_call_terminate,@function
__clang_call_terminate:                 # @__clang_call_terminate
# %bb.0:
	addi	sp, sp, -16
	sd	ra, 8(sp)
	call	__cxa_begin_catch
	call	_ZSt9terminatev
.Lfunc_end52:
	.size	__clang_call_terminate, .Lfunc_end52-__clang_call_terminate
                                        # -- End function
	.section	.text._ZSt8_DestroyIPdEvT_S1_,"axG",@progbits,_ZSt8_DestroyIPdEvT_S1_,comdat
	.weak	_ZSt8_DestroyIPdEvT_S1_ # -- Begin function _ZSt8_DestroyIPdEvT_S1_
	.p2align	2
	.type	_ZSt8_DestroyIPdEvT_S1_,@function
_ZSt8_DestroyIPdEvT_S1_:                # @_ZSt8_DestroyIPdEvT_S1_
	.cfi_startproc
# %bb.0:                                # %entry
	addi	sp, sp, -32
	.cfi_def_cfa_offset 32
	sd	ra, 24(sp)
	sd	s0, 16(sp)
	.cfi_offset ra, -8
	.cfi_offset s0, -16
	addi	s0, sp, 32
	.cfi_def_cfa s0, 0
	sd	a0, -24(s0)
	sd	a1, -32(s0)
	ld	a0, -24(s0)
	ld	a1, -32(s0)
	call	_ZNSt12_Destroy_auxILb1EE9__destroyIPdEEvT_S3_
	ld	s0, 16(sp)
	.cfi_def_cfa sp, 32
	ld	ra, 24(sp)
	.cfi_restore ra
	.cfi_restore s0
	addi	sp, sp, 32
	.cfi_def_cfa_offset 0
	ret
.Lfunc_end53:
	.size	_ZSt8_DestroyIPdEvT_S1_, .Lfunc_end53-_ZSt8_DestroyIPdEvT_S1_
	.cfi_endproc
                                        # -- End function
	.section	.text._ZNSt12_Destroy_auxILb1EE9__destroyIPdEEvT_S3_,"axG",@progbits,_ZNSt12_Destroy_auxILb1EE9__destroyIPdEEvT_S3_,comdat
	.weak	_ZNSt12_Destroy_auxILb1EE9__destroyIPdEEvT_S3_ # -- Begin function _ZNSt12_Destroy_auxILb1EE9__destroyIPdEEvT_S3_
	.p2align	2
	.type	_ZNSt12_Destroy_auxILb1EE9__destroyIPdEEvT_S3_,@function
_ZNSt12_Destroy_auxILb1EE9__destroyIPdEEvT_S3_: # @_ZNSt12_Destroy_auxILb1EE9__destroyIPdEEvT_S3_
# %bb.0:                                # %entry
	addi	sp, sp, -32
	sd	ra, 24(sp)
	sd	s0, 16(sp)
	addi	s0, sp, 32
	sd	a0, -24(s0)
	sd	a1, -32(s0)
	ld	s0, 16(sp)
	ld	ra, 24(sp)
	addi	sp, sp, 32
	ret
.Lfunc_end54:
	.size	_ZNSt12_Destroy_auxILb1EE9__destroyIPdEEvT_S3_, .Lfunc_end54-_ZNSt12_Destroy_auxILb1EE9__destroyIPdEEvT_S3_
                                        # -- End function
	.section	.text._ZNSt12_Vector_baseIdSaIdEE13_M_deallocateEPdm,"axG",@progbits,_ZNSt12_Vector_baseIdSaIdEE13_M_deallocateEPdm,comdat
	.weak	_ZNSt12_Vector_baseIdSaIdEE13_M_deallocateEPdm # -- Begin function _ZNSt12_Vector_baseIdSaIdEE13_M_deallocateEPdm
	.p2align	2
	.type	_ZNSt12_Vector_baseIdSaIdEE13_M_deallocateEPdm,@function
_ZNSt12_Vector_baseIdSaIdEE13_M_deallocateEPdm: # @_ZNSt12_Vector_baseIdSaIdEE13_M_deallocateEPdm
	.cfi_startproc
# %bb.0:                                # %entry
	addi	sp, sp, -48
	.cfi_def_cfa_offset 48
	sd	ra, 40(sp)
	sd	s0, 32(sp)
	.cfi_offset ra, -8
	.cfi_offset s0, -16
	addi	s0, sp, 48
	.cfi_def_cfa s0, 0
	sd	a0, -24(s0)
	sd	a1, -32(s0)
	sd	a2, -40(s0)
	ld	a0, -24(s0)
	ld	a1, -32(s0)
	beqz	a1, .LBB55_2
	j	.LBB55_1
.LBB55_1:                               # %if.then
	ld	a1, -32(s0)
	ld	a2, -40(s0)
	call	_ZNSt16allocator_traitsISaIdEE10deallocateERS0_Pdm
	j	.LBB55_2
.LBB55_2:                               # %if.end
	ld	s0, 32(sp)
	.cfi_def_cfa sp, 48
	ld	ra, 40(sp)
	.cfi_restore ra
	.cfi_restore s0
	addi	sp, sp, 48
	.cfi_def_cfa_offset 0
	ret
.Lfunc_end55:
	.size	_ZNSt12_Vector_baseIdSaIdEE13_M_deallocateEPdm, .Lfunc_end55-_ZNSt12_Vector_baseIdSaIdEE13_M_deallocateEPdm
	.cfi_endproc
                                        # -- End function
	.section	.text._ZNSt12_Vector_baseIdSaIdEE12_Vector_implD2Ev,"axG",@progbits,_ZNSt12_Vector_baseIdSaIdEE12_Vector_implD2Ev,comdat
	.weak	_ZNSt12_Vector_baseIdSaIdEE12_Vector_implD2Ev # -- Begin function _ZNSt12_Vector_baseIdSaIdEE12_Vector_implD2Ev
	.p2align	2
	.type	_ZNSt12_Vector_baseIdSaIdEE12_Vector_implD2Ev,@function
_ZNSt12_Vector_baseIdSaIdEE12_Vector_implD2Ev: # @_ZNSt12_Vector_baseIdSaIdEE12_Vector_implD2Ev
# %bb.0:                                # %entry
	addi	sp, sp, -32
	sd	ra, 24(sp)
	sd	s0, 16(sp)
	addi	s0, sp, 32
	sd	a0, -24(s0)
	ld	a0, -24(s0)
	call	_ZNSaIdED2Ev
	ld	s0, 16(sp)
	ld	ra, 24(sp)
	addi	sp, sp, 32
	ret
.Lfunc_end56:
	.size	_ZNSt12_Vector_baseIdSaIdEE12_Vector_implD2Ev, .Lfunc_end56-_ZNSt12_Vector_baseIdSaIdEE12_Vector_implD2Ev
                                        # -- End function
	.section	.text._ZNSt16allocator_traitsISaIdEE10deallocateERS0_Pdm,"axG",@progbits,_ZNSt16allocator_traitsISaIdEE10deallocateERS0_Pdm,comdat
	.weak	_ZNSt16allocator_traitsISaIdEE10deallocateERS0_Pdm # -- Begin function _ZNSt16allocator_traitsISaIdEE10deallocateERS0_Pdm
	.p2align	2
	.type	_ZNSt16allocator_traitsISaIdEE10deallocateERS0_Pdm,@function
_ZNSt16allocator_traitsISaIdEE10deallocateERS0_Pdm: # @_ZNSt16allocator_traitsISaIdEE10deallocateERS0_Pdm
	.cfi_startproc
# %bb.0:                                # %entry
	addi	sp, sp, -48
	.cfi_def_cfa_offset 48
	sd	ra, 40(sp)
	sd	s0, 32(sp)
	.cfi_offset ra, -8
	.cfi_offset s0, -16
	addi	s0, sp, 48
	.cfi_def_cfa s0, 0
	sd	a0, -24(s0)
	sd	a1, -32(s0)
	sd	a2, -40(s0)
	ld	a0, -24(s0)
	ld	a1, -32(s0)
	ld	a2, -40(s0)
	call	_ZN9__gnu_cxx13new_allocatorIdE10deallocateEPdm
	ld	s0, 32(sp)
	.cfi_def_cfa sp, 48
	ld	ra, 40(sp)
	.cfi_restore ra
	.cfi_restore s0
	addi	sp, sp, 48
	.cfi_def_cfa_offset 0
	ret
.Lfunc_end57:
	.size	_ZNSt16allocator_traitsISaIdEE10deallocateERS0_Pdm, .Lfunc_end57-_ZNSt16allocator_traitsISaIdEE10deallocateERS0_Pdm
	.cfi_endproc
                                        # -- End function
	.section	.text._ZN9__gnu_cxx13new_allocatorIdE10deallocateEPdm,"axG",@progbits,_ZN9__gnu_cxx13new_allocatorIdE10deallocateEPdm,comdat
	.weak	_ZN9__gnu_cxx13new_allocatorIdE10deallocateEPdm # -- Begin function _ZN9__gnu_cxx13new_allocatorIdE10deallocateEPdm
	.p2align	2
	.type	_ZN9__gnu_cxx13new_allocatorIdE10deallocateEPdm,@function
_ZN9__gnu_cxx13new_allocatorIdE10deallocateEPdm: # @_ZN9__gnu_cxx13new_allocatorIdE10deallocateEPdm
# %bb.0:                                # %entry
	addi	sp, sp, -48
	sd	ra, 40(sp)
	sd	s0, 32(sp)
	addi	s0, sp, 48
	sd	a0, -24(s0)
	sd	a1, -32(s0)
	sd	a2, -40(s0)
	ld	a0, -32(s0)
	call	_ZdlPv
	ld	s0, 32(sp)
	ld	ra, 40(sp)
	addi	sp, sp, 48
	ret
.Lfunc_end58:
	.size	_ZN9__gnu_cxx13new_allocatorIdE10deallocateEPdm, .Lfunc_end58-_ZN9__gnu_cxx13new_allocatorIdE10deallocateEPdm
                                        # -- End function
	.section	.text._ZNSaIdED2Ev,"axG",@progbits,_ZNSaIdED2Ev,comdat
	.weak	_ZNSaIdED2Ev            # -- Begin function _ZNSaIdED2Ev
	.p2align	2
	.type	_ZNSaIdED2Ev,@function
_ZNSaIdED2Ev:                           # @_ZNSaIdED2Ev
# %bb.0:                                # %entry
	addi	sp, sp, -32
	sd	ra, 24(sp)
	sd	s0, 16(sp)
	addi	s0, sp, 32
	sd	a0, -24(s0)
	ld	a0, -24(s0)
	call	_ZN9__gnu_cxx13new_allocatorIdED2Ev
	ld	s0, 16(sp)
	ld	ra, 24(sp)
	addi	sp, sp, 32
	ret
.Lfunc_end59:
	.size	_ZNSaIdED2Ev, .Lfunc_end59-_ZNSaIdED2Ev
                                        # -- End function
	.section	.text._ZN9__gnu_cxx13new_allocatorIdED2Ev,"axG",@progbits,_ZN9__gnu_cxx13new_allocatorIdED2Ev,comdat
	.weak	_ZN9__gnu_cxx13new_allocatorIdED2Ev # -- Begin function _ZN9__gnu_cxx13new_allocatorIdED2Ev
	.p2align	2
	.type	_ZN9__gnu_cxx13new_allocatorIdED2Ev,@function
_ZN9__gnu_cxx13new_allocatorIdED2Ev:    # @_ZN9__gnu_cxx13new_allocatorIdED2Ev
# %bb.0:                                # %entry
	addi	sp, sp, -32
	sd	ra, 24(sp)
	sd	s0, 16(sp)
	addi	s0, sp, 32
	sd	a0, -24(s0)
	ld	s0, 16(sp)
	ld	ra, 24(sp)
	addi	sp, sp, 32
	ret
.Lfunc_end60:
	.size	_ZN9__gnu_cxx13new_allocatorIdED2Ev, .Lfunc_end60-_ZN9__gnu_cxx13new_allocatorIdED2Ev
                                        # -- End function
	.section	.text._ZSt8_DestroyIPSt10shared_ptrIN7Surface4BaseEES3_EvT_S5_RSaIT0_E,"axG",@progbits,_ZSt8_DestroyIPSt10shared_ptrIN7Surface4BaseEES3_EvT_S5_RSaIT0_E,comdat
	.weak	_ZSt8_DestroyIPSt10shared_ptrIN7Surface4BaseEES3_EvT_S5_RSaIT0_E # -- Begin function _ZSt8_DestroyIPSt10shared_ptrIN7Surface4BaseEES3_EvT_S5_RSaIT0_E
	.p2align	2
	.type	_ZSt8_DestroyIPSt10shared_ptrIN7Surface4BaseEES3_EvT_S5_RSaIT0_E,@function
_ZSt8_DestroyIPSt10shared_ptrIN7Surface4BaseEES3_EvT_S5_RSaIT0_E: # @_ZSt8_DestroyIPSt10shared_ptrIN7Surface4BaseEES3_EvT_S5_RSaIT0_E
	.cfi_startproc
# %bb.0:                                # %entry
	addi	sp, sp, -48
	.cfi_def_cfa_offset 48
	sd	ra, 40(sp)
	sd	s0, 32(sp)
	.cfi_offset ra, -8
	.cfi_offset s0, -16
	addi	s0, sp, 48
	.cfi_def_cfa s0, 0
	sd	a0, -24(s0)
	sd	a1, -32(s0)
	sd	a2, -40(s0)
	ld	a0, -24(s0)
	ld	a1, -32(s0)
	call	_ZSt8_DestroyIPSt10shared_ptrIN7Surface4BaseEEEvT_S5_
	ld	s0, 32(sp)
	.cfi_def_cfa sp, 48
	ld	ra, 40(sp)
	.cfi_restore ra
	.cfi_restore s0
	addi	sp, sp, 48
	.cfi_def_cfa_offset 0
	ret
.Lfunc_end61:
	.size	_ZSt8_DestroyIPSt10shared_ptrIN7Surface4BaseEES3_EvT_S5_RSaIT0_E, .Lfunc_end61-_ZSt8_DestroyIPSt10shared_ptrIN7Surface4BaseEES3_EvT_S5_RSaIT0_E
	.cfi_endproc
                                        # -- End function
	.section	.text._ZNSt12_Vector_baseISt10shared_ptrIN7Surface4BaseEESaIS3_EE19_M_get_Tp_allocatorEv,"axG",@progbits,_ZNSt12_Vector_baseISt10shared_ptrIN7Surface4BaseEESaIS3_EE19_M_get_Tp_allocatorEv,comdat
	.weak	_ZNSt12_Vector_baseISt10shared_ptrIN7Surface4BaseEESaIS3_EE19_M_get_Tp_allocatorEv # -- Begin function _ZNSt12_Vector_baseISt10shared_ptrIN7Surface4BaseEESaIS3_EE19_M_get_Tp_allocatorEv
	.p2align	2
	.type	_ZNSt12_Vector_baseISt10shared_ptrIN7Surface4BaseEESaIS3_EE19_M_get_Tp_allocatorEv,@function
_ZNSt12_Vector_baseISt10shared_ptrIN7Surface4BaseEESaIS3_EE19_M_get_Tp_allocatorEv: # @_ZNSt12_Vector_baseISt10shared_ptrIN7Surface4BaseEESaIS3_EE19_M_get_Tp_allocatorEv
# %bb.0:                                # %entry
	addi	sp, sp, -32
	sd	ra, 24(sp)
	sd	s0, 16(sp)
	addi	s0, sp, 32
	sd	a0, -24(s0)
	ld	a0, -24(s0)
	ld	s0, 16(sp)
	ld	ra, 24(sp)
	addi	sp, sp, 32
	ret
.Lfunc_end62:
	.size	_ZNSt12_Vector_baseISt10shared_ptrIN7Surface4BaseEESaIS3_EE19_M_get_Tp_allocatorEv, .Lfunc_end62-_ZNSt12_Vector_baseISt10shared_ptrIN7Surface4BaseEESaIS3_EE19_M_get_Tp_allocatorEv
                                        # -- End function
	.section	.text._ZNSt12_Vector_baseISt10shared_ptrIN7Surface4BaseEESaIS3_EED2Ev,"axG",@progbits,_ZNSt12_Vector_baseISt10shared_ptrIN7Surface4BaseEESaIS3_EED2Ev,comdat
	.weak	_ZNSt12_Vector_baseISt10shared_ptrIN7Surface4BaseEESaIS3_EED2Ev # -- Begin function _ZNSt12_Vector_baseISt10shared_ptrIN7Surface4BaseEESaIS3_EED2Ev
	.p2align	2
	.type	_ZNSt12_Vector_baseISt10shared_ptrIN7Surface4BaseEESaIS3_EED2Ev,@function
_ZNSt12_Vector_baseISt10shared_ptrIN7Surface4BaseEESaIS3_EED2Ev: # @_ZNSt12_Vector_baseISt10shared_ptrIN7Surface4BaseEESaIS3_EED2Ev
.Lfunc_begin8:
	.cfi_startproc
	.cfi_personality 155, DW.ref.__gxx_personality_v0
	.cfi_lsda 27, .Lexception8
# %bb.0:                                # %entry
	addi	sp, sp, -48
	.cfi_def_cfa_offset 48
	sd	ra, 40(sp)
	sd	s0, 32(sp)
	sd	s1, 24(sp)
	.cfi_offset ra, -8
	.cfi_offset s0, -16
	.cfi_offset s1, -24
	addi	s0, sp, 48
	.cfi_def_cfa s0, 0
	sd	a0, -32(s0)
	ld	s1, -32(s0)
	ld	a1, 0(s1)
	ld	a0, 16(s1)
	sub	a0, a0, a1
	srai	a2, a0, 4
.Ltmp52:
	mv	a0, s1
	call	_ZNSt12_Vector_baseISt10shared_ptrIN7Surface4BaseEESaIS3_EE13_M_deallocateEPS3_m
.Ltmp53:
	j	.LBB63_1
.LBB63_1:                               # %invoke.cont
	mv	a0, s1
	call	_ZNSt12_Vector_baseISt10shared_ptrIN7Surface4BaseEESaIS3_EE12_Vector_implD2Ev
	ld	s1, 24(sp)
	ld	s0, 32(sp)
	.cfi_def_cfa sp, 48
	ld	ra, 40(sp)
	.cfi_restore ra
	.cfi_restore s0
	.cfi_restore s1
	addi	sp, sp, 48
	.cfi_def_cfa_offset 0
	ret
.LBB63_2:                               # %lpad
.Ltmp54:
	sd	a0, -40(s0)
	sw	a1, -44(s0)
	mv	a0, s1
	call	_ZNSt12_Vector_baseISt10shared_ptrIN7Surface4BaseEESaIS3_EE12_Vector_implD2Ev
	j	.LBB63_3
.LBB63_3:                               # %terminate.handler
	ld	a0, -40(s0)
	call	__clang_call_terminate
.Lfunc_end63:
	.size	_ZNSt12_Vector_baseISt10shared_ptrIN7Surface4BaseEESaIS3_EED2Ev, .Lfunc_end63-_ZNSt12_Vector_baseISt10shared_ptrIN7Surface4BaseEESaIS3_EED2Ev
	.cfi_endproc
	.section	.gcc_except_table,"a",@progbits
	.p2align	2
GCC_except_table63:
.Lexception8:
	.byte	255                     # @LPStart Encoding = omit
	.byte	155                     # @TType Encoding = indirect pcrel sdata4
	.uleb128 .Lttbase3-.Lttbaseref3
.Lttbaseref3:
	.byte	3                       # Call site Encoding = udata4
	.uleb128 .Lcst_end8-.Lcst_begin8
.Lcst_begin8:
	.word	.Ltmp52-.Lfunc_begin8   # >> Call Site 1 <<
	.word	.Ltmp53-.Ltmp52         #   Call between .Ltmp52 and .Ltmp53
	.word	.Ltmp54-.Lfunc_begin8   #     jumps to .Ltmp54
	.byte	1                       #   On action: 1
.Lcst_end8:
	.byte	1                       # >> Action Record 1 <<
                                        #   Catch TypeInfo 1
	.byte	0                       #   No further actions
	.p2align	2
                                        # >> Catch TypeInfos <<
	.word	0                       # TypeInfo 1
.Lttbase3:
	.p2align	2
                                        # -- End function
	.section	.text._ZSt8_DestroyIPSt10shared_ptrIN7Surface4BaseEEEvT_S5_,"axG",@progbits,_ZSt8_DestroyIPSt10shared_ptrIN7Surface4BaseEEEvT_S5_,comdat
	.weak	_ZSt8_DestroyIPSt10shared_ptrIN7Surface4BaseEEEvT_S5_ # -- Begin function _ZSt8_DestroyIPSt10shared_ptrIN7Surface4BaseEEEvT_S5_
	.p2align	2
	.type	_ZSt8_DestroyIPSt10shared_ptrIN7Surface4BaseEEEvT_S5_,@function
_ZSt8_DestroyIPSt10shared_ptrIN7Surface4BaseEEEvT_S5_: # @_ZSt8_DestroyIPSt10shared_ptrIN7Surface4BaseEEEvT_S5_
	.cfi_startproc
# %bb.0:                                # %entry
	addi	sp, sp, -32
	.cfi_def_cfa_offset 32
	sd	ra, 24(sp)
	sd	s0, 16(sp)
	.cfi_offset ra, -8
	.cfi_offset s0, -16
	addi	s0, sp, 32
	.cfi_def_cfa s0, 0
	sd	a0, -24(s0)
	sd	a1, -32(s0)
	ld	a0, -24(s0)
	ld	a1, -32(s0)
	call	_ZNSt12_Destroy_auxILb0EE9__destroyIPSt10shared_ptrIN7Surface4BaseEEEEvT_S7_
	ld	s0, 16(sp)
	.cfi_def_cfa sp, 32
	ld	ra, 24(sp)
	.cfi_restore ra
	.cfi_restore s0
	addi	sp, sp, 32
	.cfi_def_cfa_offset 0
	ret
.Lfunc_end64:
	.size	_ZSt8_DestroyIPSt10shared_ptrIN7Surface4BaseEEEvT_S5_, .Lfunc_end64-_ZSt8_DestroyIPSt10shared_ptrIN7Surface4BaseEEEvT_S5_
	.cfi_endproc
                                        # -- End function
	.section	.text._ZNSt12_Destroy_auxILb0EE9__destroyIPSt10shared_ptrIN7Surface4BaseEEEEvT_S7_,"axG",@progbits,_ZNSt12_Destroy_auxILb0EE9__destroyIPSt10shared_ptrIN7Surface4BaseEEEEvT_S7_,comdat
	.weak	_ZNSt12_Destroy_auxILb0EE9__destroyIPSt10shared_ptrIN7Surface4BaseEEEEvT_S7_ # -- Begin function _ZNSt12_Destroy_auxILb0EE9__destroyIPSt10shared_ptrIN7Surface4BaseEEEEvT_S7_
	.p2align	2
	.type	_ZNSt12_Destroy_auxILb0EE9__destroyIPSt10shared_ptrIN7Surface4BaseEEEEvT_S7_,@function
_ZNSt12_Destroy_auxILb0EE9__destroyIPSt10shared_ptrIN7Surface4BaseEEEEvT_S7_: # @_ZNSt12_Destroy_auxILb0EE9__destroyIPSt10shared_ptrIN7Surface4BaseEEEEvT_S7_
	.cfi_startproc
# %bb.0:                                # %entry
	addi	sp, sp, -32
	.cfi_def_cfa_offset 32
	sd	ra, 24(sp)
	sd	s0, 16(sp)
	.cfi_offset ra, -8
	.cfi_offset s0, -16
	addi	s0, sp, 32
	.cfi_def_cfa s0, 0
	sd	a0, -24(s0)
	sd	a1, -32(s0)
	j	.LBB65_1
.LBB65_1:                               # %for.cond
                                        # =>This Inner Loop Header: Depth=1
	ld	a0, -24(s0)
	ld	a1, -32(s0)
	beq	a0, a1, .LBB65_4
	j	.LBB65_2
.LBB65_2:                               # %for.body
                                        #   in Loop: Header=BB65_1 Depth=1
	ld	a0, -24(s0)
	call	_ZSt11__addressofISt10shared_ptrIN7Surface4BaseEEEPT_RS4_
	call	_ZSt8_DestroyISt10shared_ptrIN7Surface4BaseEEEvPT_
	j	.LBB65_3
.LBB65_3:                               # %for.inc
                                        #   in Loop: Header=BB65_1 Depth=1
	ld	a0, -24(s0)
	addi	a0, a0, 16
	sd	a0, -24(s0)
	j	.LBB65_1
.LBB65_4:                               # %for.end
	ld	s0, 16(sp)
	.cfi_def_cfa sp, 32
	ld	ra, 24(sp)
	.cfi_restore ra
	.cfi_restore s0
	addi	sp, sp, 32
	.cfi_def_cfa_offset 0
	ret
.Lfunc_end65:
	.size	_ZNSt12_Destroy_auxILb0EE9__destroyIPSt10shared_ptrIN7Surface4BaseEEEEvT_S7_, .Lfunc_end65-_ZNSt12_Destroy_auxILb0EE9__destroyIPSt10shared_ptrIN7Surface4BaseEEEEvT_S7_
	.cfi_endproc
                                        # -- End function
	.section	.text._ZSt8_DestroyISt10shared_ptrIN7Surface4BaseEEEvPT_,"axG",@progbits,_ZSt8_DestroyISt10shared_ptrIN7Surface4BaseEEEvPT_,comdat
	.weak	_ZSt8_DestroyISt10shared_ptrIN7Surface4BaseEEEvPT_ # -- Begin function _ZSt8_DestroyISt10shared_ptrIN7Surface4BaseEEEvPT_
	.p2align	2
	.type	_ZSt8_DestroyISt10shared_ptrIN7Surface4BaseEEEvPT_,@function
_ZSt8_DestroyISt10shared_ptrIN7Surface4BaseEEEvPT_: # @_ZSt8_DestroyISt10shared_ptrIN7Surface4BaseEEEvPT_
# %bb.0:                                # %entry
	addi	sp, sp, -32
	sd	ra, 24(sp)
	sd	s0, 16(sp)
	addi	s0, sp, 32
	sd	a0, -24(s0)
	ld	a0, -24(s0)
	call	_ZNSt10shared_ptrIN7Surface4BaseEED2Ev
	ld	s0, 16(sp)
	ld	ra, 24(sp)
	addi	sp, sp, 32
	ret
.Lfunc_end66:
	.size	_ZSt8_DestroyISt10shared_ptrIN7Surface4BaseEEEvPT_, .Lfunc_end66-_ZSt8_DestroyISt10shared_ptrIN7Surface4BaseEEEvPT_
                                        # -- End function
	.section	.text._ZSt11__addressofISt10shared_ptrIN7Surface4BaseEEEPT_RS4_,"axG",@progbits,_ZSt11__addressofISt10shared_ptrIN7Surface4BaseEEEPT_RS4_,comdat
	.weak	_ZSt11__addressofISt10shared_ptrIN7Surface4BaseEEEPT_RS4_ # -- Begin function _ZSt11__addressofISt10shared_ptrIN7Surface4BaseEEEPT_RS4_
	.p2align	2
	.type	_ZSt11__addressofISt10shared_ptrIN7Surface4BaseEEEPT_RS4_,@function
_ZSt11__addressofISt10shared_ptrIN7Surface4BaseEEEPT_RS4_: # @_ZSt11__addressofISt10shared_ptrIN7Surface4BaseEEEPT_RS4_
# %bb.0:                                # %entry
	addi	sp, sp, -32
	sd	ra, 24(sp)
	sd	s0, 16(sp)
	addi	s0, sp, 32
	sd	a0, -24(s0)
	ld	a0, -24(s0)
	ld	s0, 16(sp)
	ld	ra, 24(sp)
	addi	sp, sp, 32
	ret
.Lfunc_end67:
	.size	_ZSt11__addressofISt10shared_ptrIN7Surface4BaseEEEPT_RS4_, .Lfunc_end67-_ZSt11__addressofISt10shared_ptrIN7Surface4BaseEEEPT_RS4_
                                        # -- End function
	.section	.text._ZNSt12_Vector_baseISt10shared_ptrIN7Surface4BaseEESaIS3_EE13_M_deallocateEPS3_m,"axG",@progbits,_ZNSt12_Vector_baseISt10shared_ptrIN7Surface4BaseEESaIS3_EE13_M_deallocateEPS3_m,comdat
	.weak	_ZNSt12_Vector_baseISt10shared_ptrIN7Surface4BaseEESaIS3_EE13_M_deallocateEPS3_m # -- Begin function _ZNSt12_Vector_baseISt10shared_ptrIN7Surface4BaseEESaIS3_EE13_M_deallocateEPS3_m
	.p2align	2
	.type	_ZNSt12_Vector_baseISt10shared_ptrIN7Surface4BaseEESaIS3_EE13_M_deallocateEPS3_m,@function
_ZNSt12_Vector_baseISt10shared_ptrIN7Surface4BaseEESaIS3_EE13_M_deallocateEPS3_m: # @_ZNSt12_Vector_baseISt10shared_ptrIN7Surface4BaseEESaIS3_EE13_M_deallocateEPS3_m
	.cfi_startproc
# %bb.0:                                # %entry
	addi	sp, sp, -48
	.cfi_def_cfa_offset 48
	sd	ra, 40(sp)
	sd	s0, 32(sp)
	.cfi_offset ra, -8
	.cfi_offset s0, -16
	addi	s0, sp, 48
	.cfi_def_cfa s0, 0
	sd	a0, -24(s0)
	sd	a1, -32(s0)
	sd	a2, -40(s0)
	ld	a0, -24(s0)
	ld	a1, -32(s0)
	beqz	a1, .LBB68_2
	j	.LBB68_1
.LBB68_1:                               # %if.then
	ld	a1, -32(s0)
	ld	a2, -40(s0)
	call	_ZNSt16allocator_traitsISaISt10shared_ptrIN7Surface4BaseEEEE10deallocateERS4_PS3_m
	j	.LBB68_2
.LBB68_2:                               # %if.end
	ld	s0, 32(sp)
	.cfi_def_cfa sp, 48
	ld	ra, 40(sp)
	.cfi_restore ra
	.cfi_restore s0
	addi	sp, sp, 48
	.cfi_def_cfa_offset 0
	ret
.Lfunc_end68:
	.size	_ZNSt12_Vector_baseISt10shared_ptrIN7Surface4BaseEESaIS3_EE13_M_deallocateEPS3_m, .Lfunc_end68-_ZNSt12_Vector_baseISt10shared_ptrIN7Surface4BaseEESaIS3_EE13_M_deallocateEPS3_m
	.cfi_endproc
                                        # -- End function
	.section	.text._ZNSt12_Vector_baseISt10shared_ptrIN7Surface4BaseEESaIS3_EE12_Vector_implD2Ev,"axG",@progbits,_ZNSt12_Vector_baseISt10shared_ptrIN7Surface4BaseEESaIS3_EE12_Vector_implD2Ev,comdat
	.weak	_ZNSt12_Vector_baseISt10shared_ptrIN7Surface4BaseEESaIS3_EE12_Vector_implD2Ev # -- Begin function _ZNSt12_Vector_baseISt10shared_ptrIN7Surface4BaseEESaIS3_EE12_Vector_implD2Ev
	.p2align	2
	.type	_ZNSt12_Vector_baseISt10shared_ptrIN7Surface4BaseEESaIS3_EE12_Vector_implD2Ev,@function
_ZNSt12_Vector_baseISt10shared_ptrIN7Surface4BaseEESaIS3_EE12_Vector_implD2Ev: # @_ZNSt12_Vector_baseISt10shared_ptrIN7Surface4BaseEESaIS3_EE12_Vector_implD2Ev
# %bb.0:                                # %entry
	addi	sp, sp, -32
	sd	ra, 24(sp)
	sd	s0, 16(sp)
	addi	s0, sp, 32
	sd	a0, -24(s0)
	ld	a0, -24(s0)
	call	_ZNSaISt10shared_ptrIN7Surface4BaseEEED2Ev
	ld	s0, 16(sp)
	ld	ra, 24(sp)
	addi	sp, sp, 32
	ret
.Lfunc_end69:
	.size	_ZNSt12_Vector_baseISt10shared_ptrIN7Surface4BaseEESaIS3_EE12_Vector_implD2Ev, .Lfunc_end69-_ZNSt12_Vector_baseISt10shared_ptrIN7Surface4BaseEESaIS3_EE12_Vector_implD2Ev
                                        # -- End function
	.section	.text._ZNSt16allocator_traitsISaISt10shared_ptrIN7Surface4BaseEEEE10deallocateERS4_PS3_m,"axG",@progbits,_ZNSt16allocator_traitsISaISt10shared_ptrIN7Surface4BaseEEEE10deallocateERS4_PS3_m,comdat
	.weak	_ZNSt16allocator_traitsISaISt10shared_ptrIN7Surface4BaseEEEE10deallocateERS4_PS3_m # -- Begin function _ZNSt16allocator_traitsISaISt10shared_ptrIN7Surface4BaseEEEE10deallocateERS4_PS3_m
	.p2align	2
	.type	_ZNSt16allocator_traitsISaISt10shared_ptrIN7Surface4BaseEEEE10deallocateERS4_PS3_m,@function
_ZNSt16allocator_traitsISaISt10shared_ptrIN7Surface4BaseEEEE10deallocateERS4_PS3_m: # @_ZNSt16allocator_traitsISaISt10shared_ptrIN7Surface4BaseEEEE10deallocateERS4_PS3_m
	.cfi_startproc
# %bb.0:                                # %entry
	addi	sp, sp, -48
	.cfi_def_cfa_offset 48
	sd	ra, 40(sp)
	sd	s0, 32(sp)
	.cfi_offset ra, -8
	.cfi_offset s0, -16
	addi	s0, sp, 48
	.cfi_def_cfa s0, 0
	sd	a0, -24(s0)
	sd	a1, -32(s0)
	sd	a2, -40(s0)
	ld	a0, -24(s0)
	ld	a1, -32(s0)
	ld	a2, -40(s0)
	call	_ZN9__gnu_cxx13new_allocatorISt10shared_ptrIN7Surface4BaseEEE10deallocateEPS4_m
	ld	s0, 32(sp)
	.cfi_def_cfa sp, 48
	ld	ra, 40(sp)
	.cfi_restore ra
	.cfi_restore s0
	addi	sp, sp, 48
	.cfi_def_cfa_offset 0
	ret
.Lfunc_end70:
	.size	_ZNSt16allocator_traitsISaISt10shared_ptrIN7Surface4BaseEEEE10deallocateERS4_PS3_m, .Lfunc_end70-_ZNSt16allocator_traitsISaISt10shared_ptrIN7Surface4BaseEEEE10deallocateERS4_PS3_m
	.cfi_endproc
                                        # -- End function
	.section	.text._ZN9__gnu_cxx13new_allocatorISt10shared_ptrIN7Surface4BaseEEE10deallocateEPS4_m,"axG",@progbits,_ZN9__gnu_cxx13new_allocatorISt10shared_ptrIN7Surface4BaseEEE10deallocateEPS4_m,comdat
	.weak	_ZN9__gnu_cxx13new_allocatorISt10shared_ptrIN7Surface4BaseEEE10deallocateEPS4_m # -- Begin function _ZN9__gnu_cxx13new_allocatorISt10shared_ptrIN7Surface4BaseEEE10deallocateEPS4_m
	.p2align	2
	.type	_ZN9__gnu_cxx13new_allocatorISt10shared_ptrIN7Surface4BaseEEE10deallocateEPS4_m,@function
_ZN9__gnu_cxx13new_allocatorISt10shared_ptrIN7Surface4BaseEEE10deallocateEPS4_m: # @_ZN9__gnu_cxx13new_allocatorISt10shared_ptrIN7Surface4BaseEEE10deallocateEPS4_m
# %bb.0:                                # %entry
	addi	sp, sp, -48
	sd	ra, 40(sp)
	sd	s0, 32(sp)
	addi	s0, sp, 48
	sd	a0, -24(s0)
	sd	a1, -32(s0)
	sd	a2, -40(s0)
	ld	a0, -32(s0)
	call	_ZdlPv
	ld	s0, 32(sp)
	ld	ra, 40(sp)
	addi	sp, sp, 48
	ret
.Lfunc_end71:
	.size	_ZN9__gnu_cxx13new_allocatorISt10shared_ptrIN7Surface4BaseEEE10deallocateEPS4_m, .Lfunc_end71-_ZN9__gnu_cxx13new_allocatorISt10shared_ptrIN7Surface4BaseEEE10deallocateEPS4_m
                                        # -- End function
	.section	.text._ZNSaISt10shared_ptrIN7Surface4BaseEEED2Ev,"axG",@progbits,_ZNSaISt10shared_ptrIN7Surface4BaseEEED2Ev,comdat
	.weak	_ZNSaISt10shared_ptrIN7Surface4BaseEEED2Ev # -- Begin function _ZNSaISt10shared_ptrIN7Surface4BaseEEED2Ev
	.p2align	2
	.type	_ZNSaISt10shared_ptrIN7Surface4BaseEEED2Ev,@function
_ZNSaISt10shared_ptrIN7Surface4BaseEEED2Ev: # @_ZNSaISt10shared_ptrIN7Surface4BaseEEED2Ev
# %bb.0:                                # %entry
	addi	sp, sp, -32
	sd	ra, 24(sp)
	sd	s0, 16(sp)
	addi	s0, sp, 32
	sd	a0, -24(s0)
	ld	a0, -24(s0)
	call	_ZN9__gnu_cxx13new_allocatorISt10shared_ptrIN7Surface4BaseEEED2Ev
	ld	s0, 16(sp)
	ld	ra, 24(sp)
	addi	sp, sp, 32
	ret
.Lfunc_end72:
	.size	_ZNSaISt10shared_ptrIN7Surface4BaseEEED2Ev, .Lfunc_end72-_ZNSaISt10shared_ptrIN7Surface4BaseEEED2Ev
                                        # -- End function
	.section	.text._ZN9__gnu_cxx13new_allocatorISt10shared_ptrIN7Surface4BaseEEED2Ev,"axG",@progbits,_ZN9__gnu_cxx13new_allocatorISt10shared_ptrIN7Surface4BaseEEED2Ev,comdat
	.weak	_ZN9__gnu_cxx13new_allocatorISt10shared_ptrIN7Surface4BaseEEED2Ev # -- Begin function _ZN9__gnu_cxx13new_allocatorISt10shared_ptrIN7Surface4BaseEEED2Ev
	.p2align	2
	.type	_ZN9__gnu_cxx13new_allocatorISt10shared_ptrIN7Surface4BaseEEED2Ev,@function
_ZN9__gnu_cxx13new_allocatorISt10shared_ptrIN7Surface4BaseEEED2Ev: # @_ZN9__gnu_cxx13new_allocatorISt10shared_ptrIN7Surface4BaseEEED2Ev
# %bb.0:                                # %entry
	addi	sp, sp, -32
	sd	ra, 24(sp)
	sd	s0, 16(sp)
	addi	s0, sp, 32
	sd	a0, -24(s0)
	ld	s0, 16(sp)
	ld	ra, 24(sp)
	addi	sp, sp, 32
	ret
.Lfunc_end73:
	.size	_ZN9__gnu_cxx13new_allocatorISt10shared_ptrIN7Surface4BaseEEED2Ev, .Lfunc_end73-_ZN9__gnu_cxx13new_allocatorISt10shared_ptrIN7Surface4BaseEEED2Ev
                                        # -- End function
	.section	.text._ZNSt10shared_ptrIN7Surface4BaseEEC2Ev,"axG",@progbits,_ZNSt10shared_ptrIN7Surface4BaseEEC2Ev,comdat
	.weak	_ZNSt10shared_ptrIN7Surface4BaseEEC2Ev # -- Begin function _ZNSt10shared_ptrIN7Surface4BaseEEC2Ev
	.p2align	2
	.type	_ZNSt10shared_ptrIN7Surface4BaseEEC2Ev,@function
_ZNSt10shared_ptrIN7Surface4BaseEEC2Ev: # @_ZNSt10shared_ptrIN7Surface4BaseEEC2Ev
# %bb.0:                                # %entry
	addi	sp, sp, -32
	sd	ra, 24(sp)
	sd	s0, 16(sp)
	addi	s0, sp, 32
	sd	a0, -24(s0)
	ld	a0, -24(s0)
	call	_ZNSt12__shared_ptrIN7Surface4BaseELN9__gnu_cxx12_Lock_policyE0EEC2Ev
	ld	s0, 16(sp)
	ld	ra, 24(sp)
	addi	sp, sp, 32
	ret
.Lfunc_end74:
	.size	_ZNSt10shared_ptrIN7Surface4BaseEEC2Ev, .Lfunc_end74-_ZNSt10shared_ptrIN7Surface4BaseEEC2Ev
                                        # -- End function
	.section	.text._ZNSt12__shared_ptrIN7Surface4BaseELN9__gnu_cxx12_Lock_policyE0EEC2Ev,"axG",@progbits,_ZNSt12__shared_ptrIN7Surface4BaseELN9__gnu_cxx12_Lock_policyE0EEC2Ev,comdat
	.weak	_ZNSt12__shared_ptrIN7Surface4BaseELN9__gnu_cxx12_Lock_policyE0EEC2Ev # -- Begin function _ZNSt12__shared_ptrIN7Surface4BaseELN9__gnu_cxx12_Lock_policyE0EEC2Ev
	.p2align	2
	.type	_ZNSt12__shared_ptrIN7Surface4BaseELN9__gnu_cxx12_Lock_policyE0EEC2Ev,@function
_ZNSt12__shared_ptrIN7Surface4BaseELN9__gnu_cxx12_Lock_policyE0EEC2Ev: # @_ZNSt12__shared_ptrIN7Surface4BaseELN9__gnu_cxx12_Lock_policyE0EEC2Ev
# %bb.0:                                # %entry
	addi	sp, sp, -32
	sd	ra, 24(sp)
	sd	s0, 16(sp)
	addi	s0, sp, 32
	sd	a0, -24(s0)
	ld	a0, -24(s0)
	sd	zero, 0(a0)
	addi	a0, a0, 8
	call	_ZNSt14__shared_countILN9__gnu_cxx12_Lock_policyE0EEC2Ev
	ld	s0, 16(sp)
	ld	ra, 24(sp)
	addi	sp, sp, 32
	ret
.Lfunc_end75:
	.size	_ZNSt12__shared_ptrIN7Surface4BaseELN9__gnu_cxx12_Lock_policyE0EEC2Ev, .Lfunc_end75-_ZNSt12__shared_ptrIN7Surface4BaseELN9__gnu_cxx12_Lock_policyE0EEC2Ev
                                        # -- End function
	.section	.text._ZNSt14__shared_countILN9__gnu_cxx12_Lock_policyE0EEC2Ev,"axG",@progbits,_ZNSt14__shared_countILN9__gnu_cxx12_Lock_policyE0EEC2Ev,comdat
	.weak	_ZNSt14__shared_countILN9__gnu_cxx12_Lock_policyE0EEC2Ev # -- Begin function _ZNSt14__shared_countILN9__gnu_cxx12_Lock_policyE0EEC2Ev
	.p2align	2
	.type	_ZNSt14__shared_countILN9__gnu_cxx12_Lock_policyE0EEC2Ev,@function
_ZNSt14__shared_countILN9__gnu_cxx12_Lock_policyE0EEC2Ev: # @_ZNSt14__shared_countILN9__gnu_cxx12_Lock_policyE0EEC2Ev
# %bb.0:                                # %entry
	addi	sp, sp, -32
	sd	ra, 24(sp)
	sd	s0, 16(sp)
	addi	s0, sp, 32
	sd	a0, -24(s0)
	ld	a0, -24(s0)
	sd	zero, 0(a0)
	ld	s0, 16(sp)
	ld	ra, 24(sp)
	addi	sp, sp, 32
	ret
.Lfunc_end76:
	.size	_ZNSt14__shared_countILN9__gnu_cxx12_Lock_policyE0EEC2Ev, .Lfunc_end76-_ZNSt14__shared_countILN9__gnu_cxx12_Lock_policyE0EEC2Ev
                                        # -- End function
	.section	.text._Z12unrolledLoopIiLi3EZN7Sampler3getILi0ELi3EEEDavEUlT_E_EvOT1_,"axG",@progbits,_Z12unrolledLoopIiLi3EZN7Sampler3getILi0ELi3EEEDavEUlT_E_EvOT1_,comdat
	.weak	_Z12unrolledLoopIiLi3EZN7Sampler3getILi0ELi3EEEDavEUlT_E_EvOT1_ # -- Begin function _Z12unrolledLoopIiLi3EZN7Sampler3getILi0ELi3EEEDavEUlT_E_EvOT1_
	.p2align	2
	.type	_Z12unrolledLoopIiLi3EZN7Sampler3getILi0ELi3EEEDavEUlT_E_EvOT1_,@function
_Z12unrolledLoopIiLi3EZN7Sampler3getILi0ELi3EEEDavEUlT_E_EvOT1_: # @_Z12unrolledLoopIiLi3EZN7Sampler3getILi0ELi3EEEDavEUlT_E_EvOT1_
	.cfi_startproc
# %bb.0:                                # %entry
	addi	sp, sp, -32
	.cfi_def_cfa_offset 32
	sd	ra, 24(sp)
	sd	s0, 16(sp)
	.cfi_offset ra, -8
	.cfi_offset s0, -16
	addi	s0, sp, 32
	.cfi_def_cfa s0, 0
	sd	a0, -24(s0)
	ld	a0, -24(s0)
	call	_ZSt7forwardIZN7Sampler3getILi0ELi3EEEDavEUlT_E_EOS2_RNSt16remove_referenceIS2_E4typeE
	call	_ZN6detail12unrolledLoopIiJLi0ELi1ELi2EEZN7Sampler3getILi0ELi3EEEDavEUlT_E_EEvSt16integer_sequenceIS3_JXspT0_EEEOT1_
	ld	s0, 16(sp)
	.cfi_def_cfa sp, 32
	ld	ra, 24(sp)
	.cfi_restore ra
	.cfi_restore s0
	addi	sp, sp, 32
	.cfi_def_cfa_offset 0
	ret
.Lfunc_end77:
	.size	_Z12unrolledLoopIiLi3EZN7Sampler3getILi0ELi3EEEDavEUlT_E_EvOT1_, .Lfunc_end77-_Z12unrolledLoopIiLi3EZN7Sampler3getILi0ELi3EEEDavEUlT_E_EvOT1_
	.cfi_endproc
                                        # -- End function
	.section	.text._ZN6detail12unrolledLoopIiJLi0ELi1ELi2EEZN7Sampler3getILi0ELi3EEEDavEUlT_E_EEvSt16integer_sequenceIS3_JXspT0_EEEOT1_,"axG",@progbits,_ZN6detail12unrolledLoopIiJLi0ELi1ELi2EEZN7Sampler3getILi0ELi3EEEDavEUlT_E_EEvSt16integer_sequenceIS3_JXspT0_EEEOT1_,comdat
	.weak	_ZN6detail12unrolledLoopIiJLi0ELi1ELi2EEZN7Sampler3getILi0ELi3EEEDavEUlT_E_EEvSt16integer_sequenceIS3_JXspT0_EEEOT1_ # -- Begin function _ZN6detail12unrolledLoopIiJLi0ELi1ELi2EEZN7Sampler3getILi0ELi3EEEDavEUlT_E_EEvSt16integer_sequenceIS3_JXspT0_EEEOT1_
	.p2align	2
	.type	_ZN6detail12unrolledLoopIiJLi0ELi1ELi2EEZN7Sampler3getILi0ELi3EEEDavEUlT_E_EEvSt16integer_sequenceIS3_JXspT0_EEEOT1_,@function
_ZN6detail12unrolledLoopIiJLi0ELi1ELi2EEZN7Sampler3getILi0ELi3EEEDavEUlT_E_EEvSt16integer_sequenceIS3_JXspT0_EEEOT1_: # @_ZN6detail12unrolledLoopIiJLi0ELi1ELi2EEZN7Sampler3getILi0ELi3EEEDavEUlT_E_EEvSt16integer_sequenceIS3_JXspT0_EEEOT1_
	.cfi_startproc
# %bb.0:                                # %entry
	addi	sp, sp, -64
	.cfi_def_cfa_offset 64
	sd	ra, 56(sp)
	sd	s0, 48(sp)
	.cfi_offset ra, -8
	.cfi_offset s0, -16
	addi	s0, sp, 64
	.cfi_def_cfa s0, 0
	sd	a0, -32(s0)
	ld	a0, -32(s0)
	call	_ZZN7Sampler3getILi0ELi3EEEDavENKUlT_E_clISt17integral_constantIiLi0EEEEDaS1_
	ld	a0, -32(s0)
	call	_ZZN7Sampler3getILi0ELi3EEEDavENKUlT_E_clISt17integral_constantIiLi1EEEEDaS1_
	ld	a0, -32(s0)
	call	_ZZN7Sampler3getILi0ELi3EEEDavENKUlT_E_clISt17integral_constantIiLi2EEEEDaS1_
	ld	s0, 48(sp)
	.cfi_def_cfa sp, 64
	ld	ra, 56(sp)
	.cfi_restore ra
	.cfi_restore s0
	addi	sp, sp, 64
	.cfi_def_cfa_offset 0
	ret
.Lfunc_end78:
	.size	_ZN6detail12unrolledLoopIiJLi0ELi1ELi2EEZN7Sampler3getILi0ELi3EEEDavEUlT_E_EEvSt16integer_sequenceIS3_JXspT0_EEEOT1_, .Lfunc_end78-_ZN6detail12unrolledLoopIiJLi0ELi1ELi2EEZN7Sampler3getILi0ELi3EEEDavEUlT_E_EEvSt16integer_sequenceIS3_JXspT0_EEEOT1_
	.cfi_endproc
                                        # -- End function
	.section	.text._ZSt7forwardIZN7Sampler3getILi0ELi3EEEDavEUlT_E_EOS2_RNSt16remove_referenceIS2_E4typeE,"axG",@progbits,_ZSt7forwardIZN7Sampler3getILi0ELi3EEEDavEUlT_E_EOS2_RNSt16remove_referenceIS2_E4typeE,comdat
	.weak	_ZSt7forwardIZN7Sampler3getILi0ELi3EEEDavEUlT_E_EOS2_RNSt16remove_referenceIS2_E4typeE # -- Begin function _ZSt7forwardIZN7Sampler3getILi0ELi3EEEDavEUlT_E_EOS2_RNSt16remove_referenceIS2_E4typeE
	.p2align	2
	.type	_ZSt7forwardIZN7Sampler3getILi0ELi3EEEDavEUlT_E_EOS2_RNSt16remove_referenceIS2_E4typeE,@function
_ZSt7forwardIZN7Sampler3getILi0ELi3EEEDavEUlT_E_EOS2_RNSt16remove_referenceIS2_E4typeE: # @_ZSt7forwardIZN7Sampler3getILi0ELi3EEEDavEUlT_E_EOS2_RNSt16remove_referenceIS2_E4typeE
# %bb.0:                                # %entry
	addi	sp, sp, -32
	sd	ra, 24(sp)
	sd	s0, 16(sp)
	addi	s0, sp, 32
	sd	a0, -24(s0)
	ld	a0, -24(s0)
	ld	s0, 16(sp)
	ld	ra, 24(sp)
	addi	sp, sp, 32
	ret
.Lfunc_end79:
	.size	_ZSt7forwardIZN7Sampler3getILi0ELi3EEEDavEUlT_E_EOS2_RNSt16remove_referenceIS2_E4typeE, .Lfunc_end79-_ZSt7forwardIZN7Sampler3getILi0ELi3EEEDavEUlT_E_EOS2_RNSt16remove_referenceIS2_E4typeE
                                        # -- End function
	.section	.sdata,"aw",@progbits
	.p2align	3               # -- Begin function _ZZN7Sampler3getILi0ELi3EEEDavENKUlT_E_clISt17integral_constantIiLi0EEEEDaS1_
.LCPI80_0:
	.quad	4463067230724161536     # double 2.3283064365386963E-10
	.section	.text._ZZN7Sampler3getILi0ELi3EEEDavENKUlT_E_clISt17integral_constantIiLi0EEEEDaS1_,"axG",@progbits,_ZZN7Sampler3getILi0ELi3EEEDavENKUlT_E_clISt17integral_constantIiLi0EEEEDaS1_,comdat
	.weak	_ZZN7Sampler3getILi0ELi3EEEDavENKUlT_E_clISt17integral_constantIiLi0EEEEDaS1_
	.p2align	2
	.type	_ZZN7Sampler3getILi0ELi3EEEDavENKUlT_E_clISt17integral_constantIiLi0EEEEDaS1_,@function
_ZZN7Sampler3getILi0ELi3EEEDavENKUlT_E_clISt17integral_constantIiLi0EEEEDaS1_: # @_ZZN7Sampler3getILi0ELi3EEEDavENKUlT_E_clISt17integral_constantIiLi0EEEEDaS1_
	.cfi_startproc
# %bb.0:                                # %entry
	addi	sp, sp, -80
	.cfi_def_cfa_offset 80
	sd	ra, 72(sp)
	sd	s0, 64(sp)
	sd	s1, 56(sp)
	sd	s2, 48(sp)
	sd	s3, 40(sp)
	.cfi_offset ra, -8
	.cfi_offset s0, -16
	.cfi_offset s1, -24
	.cfi_offset s2, -32
	.cfi_offset s3, -40
	addi	s0, sp, 80
	.cfi_def_cfa s0, 0
	sd	a0, -56(s0)
	ld	s3, -56(s0)
	sw	zero, -60(s0)
	call	_ZTWN7Sampler14shuffled_indexE
	lw	a0, 0(a0)
	call	_ZN5Sobol17bitReversedSampleILi0EEEjj
	mv	s2, a0
	call	_ZTWN7Sampler4seedE
	lw	s1, 0(a0)
	mv	a0, zero
	call	_ZN7Sampler4hashEj
	mv	a1, a0
	mv	a0, s1
	call	_ZN7Sampler11hashCombineEjj
	mv	a1, a0
	mv	a0, s2
	call	_ZN7Sampler8scrambleEjj
	fcvt.d.wu	ft0, a0
	lui	a0, %hi(.LCPI80_0)
	addi	a0, a0, %lo(.LCPI80_0)
	fld	ft1, 0(a0)
	fmul.d	ft0, ft0, ft1
	fsd	ft0, -72(s0)
	ld	s1, 0(s3)
	addi	a0, s0, -48
	call	_ZNKSt17integral_constantIiLi0EEcviEv
	mv	a1, a0
	mv	a0, s1
	call	_ZNSt5arrayIdLm3EEixEm
	fld	ft0, -72(s0)
	fsd	ft0, 0(a0)
	ld	s3, 40(sp)
	ld	s2, 48(sp)
	ld	s1, 56(sp)
	ld	s0, 64(sp)
	.cfi_def_cfa sp, 80
	ld	ra, 72(sp)
	.cfi_restore ra
	.cfi_restore s0
	.cfi_restore s1
	.cfi_restore s2
	.cfi_restore s3
	addi	sp, sp, 80
	.cfi_def_cfa_offset 0
	ret
.Lfunc_end80:
	.size	_ZZN7Sampler3getILi0ELi3EEEDavENKUlT_E_clISt17integral_constantIiLi0EEEEDaS1_, .Lfunc_end80-_ZZN7Sampler3getILi0ELi3EEEDavENKUlT_E_clISt17integral_constantIiLi0EEEEDaS1_
	.cfi_endproc
                                        # -- End function
	.section	.sdata,"aw",@progbits
	.p2align	3               # -- Begin function _ZZN7Sampler3getILi0ELi3EEEDavENKUlT_E_clISt17integral_constantIiLi1EEEEDaS1_
.LCPI81_0:
	.quad	4463067230724161536     # double 2.3283064365386963E-10
	.section	.text._ZZN7Sampler3getILi0ELi3EEEDavENKUlT_E_clISt17integral_constantIiLi1EEEEDaS1_,"axG",@progbits,_ZZN7Sampler3getILi0ELi3EEEDavENKUlT_E_clISt17integral_constantIiLi1EEEEDaS1_,comdat
	.weak	_ZZN7Sampler3getILi0ELi3EEEDavENKUlT_E_clISt17integral_constantIiLi1EEEEDaS1_
	.p2align	2
	.type	_ZZN7Sampler3getILi0ELi3EEEDavENKUlT_E_clISt17integral_constantIiLi1EEEEDaS1_,@function
_ZZN7Sampler3getILi0ELi3EEEDavENKUlT_E_clISt17integral_constantIiLi1EEEEDaS1_: # @_ZZN7Sampler3getILi0ELi3EEEDavENKUlT_E_clISt17integral_constantIiLi1EEEEDaS1_
	.cfi_startproc
# %bb.0:                                # %entry
	addi	sp, sp, -80
	.cfi_def_cfa_offset 80
	sd	ra, 72(sp)
	sd	s0, 64(sp)
	sd	s1, 56(sp)
	sd	s2, 48(sp)
	sd	s3, 40(sp)
	.cfi_offset ra, -8
	.cfi_offset s0, -16
	.cfi_offset s1, -24
	.cfi_offset s2, -32
	.cfi_offset s3, -40
	addi	s0, sp, 80
	.cfi_def_cfa s0, 0
	sd	a0, -56(s0)
	ld	s3, -56(s0)
	addi	a0, zero, 1
	sw	a0, -60(s0)
	call	_ZTWN7Sampler14shuffled_indexE
	lw	a0, 0(a0)
	call	_ZN5Sobol17bitReversedSampleILi1EEEjj
	mv	s2, a0
	call	_ZTWN7Sampler4seedE
	lw	s1, 0(a0)
	addi	a0, zero, 1
	call	_ZN7Sampler4hashEj
	mv	a1, a0
	mv	a0, s1
	call	_ZN7Sampler11hashCombineEjj
	mv	a1, a0
	mv	a0, s2
	call	_ZN7Sampler8scrambleEjj
	fcvt.d.wu	ft0, a0
	lui	a0, %hi(.LCPI81_0)
	addi	a0, a0, %lo(.LCPI81_0)
	fld	ft1, 0(a0)
	fmul.d	ft0, ft0, ft1
	fsd	ft0, -72(s0)
	ld	s1, 0(s3)
	addi	a0, s0, -48
	call	_ZNKSt17integral_constantIiLi1EEcviEv
	mv	a1, a0
	mv	a0, s1
	call	_ZNSt5arrayIdLm3EEixEm
	fld	ft0, -72(s0)
	fsd	ft0, 0(a0)
	ld	s3, 40(sp)
	ld	s2, 48(sp)
	ld	s1, 56(sp)
	ld	s0, 64(sp)
	.cfi_def_cfa sp, 80
	ld	ra, 72(sp)
	.cfi_restore ra
	.cfi_restore s0
	.cfi_restore s1
	.cfi_restore s2
	.cfi_restore s3
	addi	sp, sp, 80
	.cfi_def_cfa_offset 0
	ret
.Lfunc_end81:
	.size	_ZZN7Sampler3getILi0ELi3EEEDavENKUlT_E_clISt17integral_constantIiLi1EEEEDaS1_, .Lfunc_end81-_ZZN7Sampler3getILi0ELi3EEEDavENKUlT_E_clISt17integral_constantIiLi1EEEEDaS1_
	.cfi_endproc
                                        # -- End function
	.section	.sdata,"aw",@progbits
	.p2align	3               # -- Begin function _ZZN7Sampler3getILi0ELi3EEEDavENKUlT_E_clISt17integral_constantIiLi2EEEEDaS1_
.LCPI82_0:
	.quad	4463067230724161536     # double 2.3283064365386963E-10
	.section	.text._ZZN7Sampler3getILi0ELi3EEEDavENKUlT_E_clISt17integral_constantIiLi2EEEEDaS1_,"axG",@progbits,_ZZN7Sampler3getILi0ELi3EEEDavENKUlT_E_clISt17integral_constantIiLi2EEEEDaS1_,comdat
	.weak	_ZZN7Sampler3getILi0ELi3EEEDavENKUlT_E_clISt17integral_constantIiLi2EEEEDaS1_
	.p2align	2
	.type	_ZZN7Sampler3getILi0ELi3EEEDavENKUlT_E_clISt17integral_constantIiLi2EEEEDaS1_,@function
_ZZN7Sampler3getILi0ELi3EEEDavENKUlT_E_clISt17integral_constantIiLi2EEEEDaS1_: # @_ZZN7Sampler3getILi0ELi3EEEDavENKUlT_E_clISt17integral_constantIiLi2EEEEDaS1_
	.cfi_startproc
# %bb.0:                                # %entry
	addi	sp, sp, -80
	.cfi_def_cfa_offset 80
	sd	ra, 72(sp)
	sd	s0, 64(sp)
	sd	s1, 56(sp)
	sd	s2, 48(sp)
	sd	s3, 40(sp)
	.cfi_offset ra, -8
	.cfi_offset s0, -16
	.cfi_offset s1, -24
	.cfi_offset s2, -32
	.cfi_offset s3, -40
	addi	s0, sp, 80
	.cfi_def_cfa s0, 0
	sd	a0, -56(s0)
	ld	s3, -56(s0)
	addi	a0, zero, 2
	sw	a0, -60(s0)
	call	_ZTWN7Sampler14shuffled_indexE
	lw	a0, 0(a0)
	call	_ZN5Sobol17bitReversedSampleILi2EEEjj
	mv	s2, a0
	call	_ZTWN7Sampler4seedE
	lw	s1, 0(a0)
	addi	a0, zero, 2
	call	_ZN7Sampler4hashEj
	mv	a1, a0
	mv	a0, s1
	call	_ZN7Sampler11hashCombineEjj
	mv	a1, a0
	mv	a0, s2
	call	_ZN7Sampler8scrambleEjj
	fcvt.d.wu	ft0, a0
	lui	a0, %hi(.LCPI82_0)
	addi	a0, a0, %lo(.LCPI82_0)
	fld	ft1, 0(a0)
	fmul.d	ft0, ft0, ft1
	fsd	ft0, -72(s0)
	ld	s1, 0(s3)
	addi	a0, s0, -48
	call	_ZNKSt17integral_constantIiLi2EEcviEv
	mv	a1, a0
	mv	a0, s1
	call	_ZNSt5arrayIdLm3EEixEm
	fld	ft0, -72(s0)
	fsd	ft0, 0(a0)
	ld	s3, 40(sp)
	ld	s2, 48(sp)
	ld	s1, 56(sp)
	ld	s0, 64(sp)
	.cfi_def_cfa sp, 80
	ld	ra, 72(sp)
	.cfi_restore ra
	.cfi_restore s0
	.cfi_restore s1
	.cfi_restore s2
	.cfi_restore s3
	addi	sp, sp, 80
	.cfi_def_cfa_offset 0
	ret
.Lfunc_end82:
	.size	_ZZN7Sampler3getILi0ELi3EEEDavENKUlT_E_clISt17integral_constantIiLi2EEEEDaS1_, .Lfunc_end82-_ZZN7Sampler3getILi0ELi3EEEDavENKUlT_E_clISt17integral_constantIiLi2EEEEDaS1_
	.cfi_endproc
                                        # -- End function
	.section	.text._ZN7Sampler8scrambleEjj,"axG",@progbits,_ZN7Sampler8scrambleEjj,comdat
	.weak	_ZN7Sampler8scrambleEjj # -- Begin function _ZN7Sampler8scrambleEjj
	.p2align	2
	.type	_ZN7Sampler8scrambleEjj,@function
_ZN7Sampler8scrambleEjj:                # @_ZN7Sampler8scrambleEjj
	.cfi_startproc
# %bb.0:                                # %entry
	addi	sp, sp, -32
	.cfi_def_cfa_offset 32
	sd	ra, 24(sp)
	sd	s0, 16(sp)
	.cfi_offset ra, -8
	.cfi_offset s0, -16
	addi	s0, sp, 32
	.cfi_def_cfa s0, 0
	sw	a0, -20(s0)
	sw	a1, -24(s0)
	lw	a0, -20(s0)
	lui	a1, 250379
	addiw	a1, a1, -534
	mul	a1, a0, a1
	xor	a0, a0, a1
	sw	a0, -20(s0)
	lw	a0, -24(s0)
	lw	a1, -20(s0)
	add	a0, a1, a0
	sw	a0, -20(s0)
	lhu	a0, -22(s0)
	ori	a0, a0, 1
	lw	a1, -20(s0)
	mul	a0, a1, a0
	sw	a0, -20(s0)
	lw	a0, -20(s0)
	lui	a1, 21799
	addiw	a1, a1, -938
	mul	a1, a0, a1
	xor	a0, a0, a1
	sw	a0, -20(s0)
	lw	a0, -20(s0)
	lui	a1, 342563
	addiw	a1, a1, -1948
	mul	a1, a0, a1
	xor	a0, a0, a1
	sw	a0, -20(s0)
	lw	a0, -20(s0)
	call	_ZN5Sobol11reverseBitsEj
	ld	s0, 16(sp)
	.cfi_def_cfa sp, 32
	ld	ra, 24(sp)
	.cfi_restore ra
	.cfi_restore s0
	addi	sp, sp, 32
	.cfi_def_cfa_offset 0
	ret
.Lfunc_end83:
	.size	_ZN7Sampler8scrambleEjj, .Lfunc_end83-_ZN7Sampler8scrambleEjj
	.cfi_endproc
                                        # -- End function
	.section	.text._ZN5Sobol17bitReversedSampleILi0EEEjj,"axG",@progbits,_ZN5Sobol17bitReversedSampleILi0EEEjj,comdat
	.weak	_ZN5Sobol17bitReversedSampleILi0EEEjj # -- Begin function _ZN5Sobol17bitReversedSampleILi0EEEjj
	.p2align	2
	.type	_ZN5Sobol17bitReversedSampleILi0EEEjj,@function
_ZN5Sobol17bitReversedSampleILi0EEEjj:  # @_ZN5Sobol17bitReversedSampleILi0EEEjj
# %bb.0:                                # %entry
	addi	sp, sp, -32
	sd	ra, 24(sp)
	sd	s0, 16(sp)
	addi	s0, sp, 32
	sw	a0, -20(s0)
	lw	a0, -20(s0)
	ld	s0, 16(sp)
	ld	ra, 24(sp)
	addi	sp, sp, 32
	ret
.Lfunc_end84:
	.size	_ZN5Sobol17bitReversedSampleILi0EEEjj, .Lfunc_end84-_ZN5Sobol17bitReversedSampleILi0EEEjj
                                        # -- End function
	.text
	.hidden	_ZTWN7Sampler14shuffled_indexE # -- Begin function _ZTWN7Sampler14shuffled_indexE
	.weak	_ZTWN7Sampler14shuffled_indexE
	.p2align	2
	.type	_ZTWN7Sampler14shuffled_indexE,@function
_ZTWN7Sampler14shuffled_indexE:         # @_ZTWN7Sampler14shuffled_indexE
	.cfi_startproc
# %bb.0:
	addi	sp, sp, -16
	.cfi_def_cfa_offset 16
	sd	ra, 8(sp)
	sd	s0, 0(sp)
	.cfi_offset ra, -8
	.cfi_offset s0, -16
	addi	s0, sp, 16
	.cfi_def_cfa s0, 0
	call	_ZTHN7Sampler14shuffled_indexE
	lui	a0, %tprel_hi(_ZN7Sampler14shuffled_indexE)
	add	a0, a0, tp, %tprel_add(_ZN7Sampler14shuffled_indexE)
	addi	a0, a0, %tprel_lo(_ZN7Sampler14shuffled_indexE)
	ld	s0, 0(sp)
	.cfi_def_cfa sp, 16
	ld	ra, 8(sp)
	.cfi_restore ra
	.cfi_restore s0
	addi	sp, sp, 16
	.cfi_def_cfa_offset 0
	ret
.Lfunc_end85:
	.size	_ZTWN7Sampler14shuffled_indexE, .Lfunc_end85-_ZTWN7Sampler14shuffled_indexE
	.cfi_endproc
                                        # -- End function
	.section	.text._ZN7Sampler11hashCombineEjj,"axG",@progbits,_ZN7Sampler11hashCombineEjj,comdat
	.weak	_ZN7Sampler11hashCombineEjj # -- Begin function _ZN7Sampler11hashCombineEjj
	.p2align	2
	.type	_ZN7Sampler11hashCombineEjj,@function
_ZN7Sampler11hashCombineEjj:            # @_ZN7Sampler11hashCombineEjj
# %bb.0:                                # %entry
	addi	sp, sp, -32
	sd	ra, 24(sp)
	sd	s0, 16(sp)
	addi	s0, sp, 32
	sw	a0, -20(s0)
	sw	a1, -24(s0)
	lwu	a0, -20(s0)
	lw	a1, -24(s0)
	slli	a2, a0, 6
	add	a1, a1, a2
	srli	a2, a0, 2
	add	a1, a1, a2
	lui	a2, 648056
	addiw	a2, a2, -1607
	add	a1, a1, a2
	xor	a0, a0, a1
	sext.w	a0, a0
	ld	s0, 16(sp)
	ld	ra, 24(sp)
	addi	sp, sp, 32
	ret
.Lfunc_end86:
	.size	_ZN7Sampler11hashCombineEjj, .Lfunc_end86-_ZN7Sampler11hashCombineEjj
                                        # -- End function
	.text
	.hidden	_ZTWN7Sampler4seedE     # -- Begin function _ZTWN7Sampler4seedE
	.weak	_ZTWN7Sampler4seedE
	.p2align	2
	.type	_ZTWN7Sampler4seedE,@function
_ZTWN7Sampler4seedE:                    # @_ZTWN7Sampler4seedE
	.cfi_startproc
# %bb.0:
	addi	sp, sp, -16
	.cfi_def_cfa_offset 16
	sd	ra, 8(sp)
	sd	s0, 0(sp)
	.cfi_offset ra, -8
	.cfi_offset s0, -16
	addi	s0, sp, 16
	.cfi_def_cfa s0, 0
	call	_ZTHN7Sampler4seedE
	lui	a0, %tprel_hi(_ZN7Sampler4seedE)
	add	a0, a0, tp, %tprel_add(_ZN7Sampler4seedE)
	addi	a0, a0, %tprel_lo(_ZN7Sampler4seedE)
	ld	s0, 0(sp)
	.cfi_def_cfa sp, 16
	ld	ra, 8(sp)
	.cfi_restore ra
	.cfi_restore s0
	addi	sp, sp, 16
	.cfi_def_cfa_offset 0
	ret
.Lfunc_end87:
	.size	_ZTWN7Sampler4seedE, .Lfunc_end87-_ZTWN7Sampler4seedE
	.cfi_endproc
                                        # -- End function
	.section	.text._ZN7Sampler4hashEj,"axG",@progbits,_ZN7Sampler4hashEj,comdat
	.weak	_ZN7Sampler4hashEj      # -- Begin function _ZN7Sampler4hashEj
	.p2align	2
	.type	_ZN7Sampler4hashEj,@function
_ZN7Sampler4hashEj:                     # @_ZN7Sampler4hashEj
# %bb.0:                                # %entry
	addi	sp, sp, -32
	sd	ra, 24(sp)
	sd	s0, 16(sp)
	addi	s0, sp, 32
	sw	a0, -20(s0)
	lwu	a0, -20(s0)
	srli	a1, a0, 15
	xor	a0, a0, a1
	sw	a0, -20(s0)
	lw	a0, -20(s0)
	lui	a1, 857739
	addiw	a1, a1, -1363
	mul	a0, a0, a1
	sw	a0, -20(s0)
	lwu	a0, -20(s0)
	srli	a1, a0, 15
	xor	a0, a0, a1
	sw	a0, -20(s0)
	lw	a0, -20(s0)
	lui	a1, 718627
	addiw	a1, a1, 1431
	mul	a0, a0, a1
	sw	a0, -20(s0)
	lwu	a0, -20(s0)
	srli	a1, a0, 15
	xor	a0, a0, a1
	sw	a0, -20(s0)
	lw	a0, -20(s0)
	ld	s0, 16(sp)
	ld	ra, 24(sp)
	addi	sp, sp, 32
	ret
.Lfunc_end88:
	.size	_ZN7Sampler4hashEj, .Lfunc_end88-_ZN7Sampler4hashEj
                                        # -- End function
	.section	.text._ZNKSt17integral_constantIiLi0EEcviEv,"axG",@progbits,_ZNKSt17integral_constantIiLi0EEcviEv,comdat
	.weak	_ZNKSt17integral_constantIiLi0EEcviEv # -- Begin function _ZNKSt17integral_constantIiLi0EEcviEv
	.p2align	2
	.type	_ZNKSt17integral_constantIiLi0EEcviEv,@function
_ZNKSt17integral_constantIiLi0EEcviEv:  # @_ZNKSt17integral_constantIiLi0EEcviEv
# %bb.0:                                # %entry
	addi	sp, sp, -32
	sd	ra, 24(sp)
	sd	s0, 16(sp)
	addi	s0, sp, 32
	sd	a0, -24(s0)
	mv	a0, zero
	ld	s0, 16(sp)
	ld	ra, 24(sp)
	addi	sp, sp, 32
	ret
.Lfunc_end89:
	.size	_ZNKSt17integral_constantIiLi0EEcviEv, .Lfunc_end89-_ZNKSt17integral_constantIiLi0EEcviEv
                                        # -- End function
	.section	.text._ZN5Sobol11reverseBitsEj,"axG",@progbits,_ZN5Sobol11reverseBitsEj,comdat
	.weak	_ZN5Sobol11reverseBitsEj # -- Begin function _ZN5Sobol11reverseBitsEj
	.p2align	2
	.type	_ZN5Sobol11reverseBitsEj,@function
_ZN5Sobol11reverseBitsEj:               # @_ZN5Sobol11reverseBitsEj
# %bb.0:                                # %entry
	addi	sp, sp, -32
	sd	ra, 24(sp)
	sd	s0, 16(sp)
	addi	s0, sp, 32
	sw	a0, -20(s0)
	lwu	a0, -20(s0)
	lui	a1, 171
	addiw	a1, a1, -1365
	slli	a1, a1, 12
	addi	a1, a1, -1366
	and	a1, a0, a1
	srli	a1, a1, 1
	lui	a2, 349525
	addiw	a2, a2, 1365
	and	a0, a0, a2
	slli	a0, a0, 1
	or	a0, a1, a0
	sw	a0, -20(s0)
	lwu	a0, -20(s0)
	lui	a1, 205
	addiw	a1, a1, -819
	slli	a1, a1, 12
	addi	a1, a1, -820
	and	a1, a0, a1
	srli	a1, a1, 2
	lui	a2, 209715
	addiw	a2, a2, 819
	and	a0, a0, a2
	slli	a0, a0, 2
	or	a0, a1, a0
	sw	a0, -20(s0)
	lwu	a0, -20(s0)
	lui	a1, 241
	addiw	a1, a1, -241
	slli	a1, a1, 12
	addi	a1, a1, 240
	and	a1, a0, a1
	srli	a1, a1, 4
	lui	a2, 61681
	addiw	a2, a2, -241
	and	a0, a0, a2
	slli	a0, a0, 4
	or	a0, a1, a0
	sw	a0, -20(s0)
	lwu	a0, -20(s0)
	lui	a1, 16
	addiw	a1, a1, -255
	slli	a1, a1, 16
	addi	a1, a1, -256
	and	a1, a0, a1
	srli	a1, a1, 8
	lui	a2, 4080
	addiw	a2, a2, 255
	and	a0, a0, a2
	slli	a0, a0, 8
	or	a0, a1, a0
	sw	a0, -20(s0)
	lwu	a0, -20(s0)
	srli	a1, a0, 16
	slli	a0, a0, 16
	or	a0, a1, a0
	sext.w	a0, a0
	ld	s0, 16(sp)
	ld	ra, 24(sp)
	addi	sp, sp, 32
	ret
.Lfunc_end90:
	.size	_ZN5Sobol11reverseBitsEj, .Lfunc_end90-_ZN5Sobol11reverseBitsEj
                                        # -- End function
	.section	.text._ZN5Sobol17bitReversedSampleILi1EEEjj,"axG",@progbits,_ZN5Sobol17bitReversedSampleILi1EEEjj,comdat
	.weak	_ZN5Sobol17bitReversedSampleILi1EEEjj # -- Begin function _ZN5Sobol17bitReversedSampleILi1EEEjj
	.p2align	2
	.type	_ZN5Sobol17bitReversedSampleILi1EEEjj,@function
_ZN5Sobol17bitReversedSampleILi1EEEjj:  # @_ZN5Sobol17bitReversedSampleILi1EEEjj
# %bb.0:                                # %entry
	addi	sp, sp, -48
	sd	ra, 40(sp)
	sd	s0, 32(sp)
	sd	s1, 24(sp)
	addi	s0, sp, 48
	sw	a0, -28(s0)
	sw	zero, -32(s0)
	sw	zero, -36(s0)
	j	.LBB91_1
.LBB91_1:                               # %for.cond
                                        # =>This Inner Loop Header: Depth=1
	lw	a0, -28(s0)
	beqz	a0, .LBB91_4
	j	.LBB91_2
.LBB91_2:                               # %for.body
                                        #   in Loop: Header=BB91_1 Depth=1
	lwu	a0, -28(s0)
	andi	s1, a0, 1
	lui	a0, %hi(_ZN5SobolL23BIT_REVERSED_DIRECTIONSE)
	addi	a0, a0, %lo(_ZN5SobolL23BIT_REVERSED_DIRECTIONSE)
	mv	a1, zero
	call	_ZNKSt5arrayIS_IjLm32EELm6EEixEm
	lw	a1, -36(s0)
	call	_ZNKSt5arrayIjLm32EEixEm
	lw	a0, 0(a0)
	mul	a0, s1, a0
	lw	a1, -32(s0)
	xor	a0, a1, a0
	sw	a0, -32(s0)
	j	.LBB91_3
.LBB91_3:                               # %for.inc
                                        #   in Loop: Header=BB91_1 Depth=1
	lwu	a0, -28(s0)
	srli	a0, a0, 1
	sw	a0, -28(s0)
	lw	a0, -36(s0)
	addi	a0, a0, 1
	sw	a0, -36(s0)
	j	.LBB91_1
.LBB91_4:                               # %for.end
	lw	a0, -32(s0)
	ld	s1, 24(sp)
	ld	s0, 32(sp)
	ld	ra, 40(sp)
	addi	sp, sp, 48
	ret
.Lfunc_end91:
	.size	_ZN5Sobol17bitReversedSampleILi1EEEjj, .Lfunc_end91-_ZN5Sobol17bitReversedSampleILi1EEEjj
                                        # -- End function
	.section	.text._ZNKSt17integral_constantIiLi1EEcviEv,"axG",@progbits,_ZNKSt17integral_constantIiLi1EEcviEv,comdat
	.weak	_ZNKSt17integral_constantIiLi1EEcviEv # -- Begin function _ZNKSt17integral_constantIiLi1EEcviEv
	.p2align	2
	.type	_ZNKSt17integral_constantIiLi1EEcviEv,@function
_ZNKSt17integral_constantIiLi1EEcviEv:  # @_ZNKSt17integral_constantIiLi1EEcviEv
# %bb.0:                                # %entry
	addi	sp, sp, -32
	sd	ra, 24(sp)
	sd	s0, 16(sp)
	addi	s0, sp, 32
	sd	a0, -24(s0)
	addi	a0, zero, 1
	ld	s0, 16(sp)
	ld	ra, 24(sp)
	addi	sp, sp, 32
	ret
.Lfunc_end92:
	.size	_ZNKSt17integral_constantIiLi1EEcviEv, .Lfunc_end92-_ZNKSt17integral_constantIiLi1EEcviEv
                                        # -- End function
	.section	.text._ZNKSt5arrayIS_IjLm32EELm6EEixEm,"axG",@progbits,_ZNKSt5arrayIS_IjLm32EELm6EEixEm,comdat
	.weak	_ZNKSt5arrayIS_IjLm32EELm6EEixEm # -- Begin function _ZNKSt5arrayIS_IjLm32EELm6EEixEm
	.p2align	2
	.type	_ZNKSt5arrayIS_IjLm32EELm6EEixEm,@function
_ZNKSt5arrayIS_IjLm32EELm6EEixEm:       # @_ZNKSt5arrayIS_IjLm32EELm6EEixEm
# %bb.0:                                # %entry
	addi	sp, sp, -32
	sd	ra, 24(sp)
	sd	s0, 16(sp)
	addi	s0, sp, 32
	sd	a0, -24(s0)
	sd	a1, -32(s0)
	ld	a0, -24(s0)
	ld	a1, -32(s0)
	call	_ZNSt14__array_traitsISt5arrayIjLm32EELm6EE6_S_refERA6_KS1_m
	ld	s0, 16(sp)
	ld	ra, 24(sp)
	addi	sp, sp, 32
	ret
.Lfunc_end93:
	.size	_ZNKSt5arrayIS_IjLm32EELm6EEixEm, .Lfunc_end93-_ZNKSt5arrayIS_IjLm32EELm6EEixEm
                                        # -- End function
	.section	.text._ZNKSt5arrayIjLm32EEixEm,"axG",@progbits,_ZNKSt5arrayIjLm32EEixEm,comdat
	.weak	_ZNKSt5arrayIjLm32EEixEm # -- Begin function _ZNKSt5arrayIjLm32EEixEm
	.p2align	2
	.type	_ZNKSt5arrayIjLm32EEixEm,@function
_ZNKSt5arrayIjLm32EEixEm:               # @_ZNKSt5arrayIjLm32EEixEm
# %bb.0:                                # %entry
	addi	sp, sp, -32
	sd	ra, 24(sp)
	sd	s0, 16(sp)
	addi	s0, sp, 32
	sd	a0, -24(s0)
	sd	a1, -32(s0)
	ld	a0, -24(s0)
	ld	a1, -32(s0)
	call	_ZNSt14__array_traitsIjLm32EE6_S_refERA32_Kjm
	ld	s0, 16(sp)
	ld	ra, 24(sp)
	addi	sp, sp, 32
	ret
.Lfunc_end94:
	.size	_ZNKSt5arrayIjLm32EEixEm, .Lfunc_end94-_ZNKSt5arrayIjLm32EEixEm
                                        # -- End function
	.section	.text._ZNSt14__array_traitsISt5arrayIjLm32EELm6EE6_S_refERA6_KS1_m,"axG",@progbits,_ZNSt14__array_traitsISt5arrayIjLm32EELm6EE6_S_refERA6_KS1_m,comdat
	.weak	_ZNSt14__array_traitsISt5arrayIjLm32EELm6EE6_S_refERA6_KS1_m # -- Begin function _ZNSt14__array_traitsISt5arrayIjLm32EELm6EE6_S_refERA6_KS1_m
	.p2align	2
	.type	_ZNSt14__array_traitsISt5arrayIjLm32EELm6EE6_S_refERA6_KS1_m,@function
_ZNSt14__array_traitsISt5arrayIjLm32EELm6EE6_S_refERA6_KS1_m: # @_ZNSt14__array_traitsISt5arrayIjLm32EELm6EE6_S_refERA6_KS1_m
# %bb.0:                                # %entry
	addi	sp, sp, -32
	sd	ra, 24(sp)
	sd	s0, 16(sp)
	addi	s0, sp, 32
	sd	a0, -24(s0)
	sd	a1, -32(s0)
	ld	a0, -24(s0)
	ld	a1, -32(s0)
	slli	a1, a1, 7
	add	a0, a0, a1
	ld	s0, 16(sp)
	ld	ra, 24(sp)
	addi	sp, sp, 32
	ret
.Lfunc_end95:
	.size	_ZNSt14__array_traitsISt5arrayIjLm32EELm6EE6_S_refERA6_KS1_m, .Lfunc_end95-_ZNSt14__array_traitsISt5arrayIjLm32EELm6EE6_S_refERA6_KS1_m
                                        # -- End function
	.section	.text._ZNSt14__array_traitsIjLm32EE6_S_refERA32_Kjm,"axG",@progbits,_ZNSt14__array_traitsIjLm32EE6_S_refERA32_Kjm,comdat
	.weak	_ZNSt14__array_traitsIjLm32EE6_S_refERA32_Kjm # -- Begin function _ZNSt14__array_traitsIjLm32EE6_S_refERA32_Kjm
	.p2align	2
	.type	_ZNSt14__array_traitsIjLm32EE6_S_refERA32_Kjm,@function
_ZNSt14__array_traitsIjLm32EE6_S_refERA32_Kjm: # @_ZNSt14__array_traitsIjLm32EE6_S_refERA32_Kjm
# %bb.0:                                # %entry
	addi	sp, sp, -32
	sd	ra, 24(sp)
	sd	s0, 16(sp)
	addi	s0, sp, 32
	sd	a0, -24(s0)
	sd	a1, -32(s0)
	ld	a0, -24(s0)
	ld	a1, -32(s0)
	slli	a1, a1, 2
	add	a0, a0, a1
	ld	s0, 16(sp)
	ld	ra, 24(sp)
	addi	sp, sp, 32
	ret
.Lfunc_end96:
	.size	_ZNSt14__array_traitsIjLm32EE6_S_refERA32_Kjm, .Lfunc_end96-_ZNSt14__array_traitsIjLm32EE6_S_refERA32_Kjm
                                        # -- End function
	.section	.text._ZN5Sobol17bitReversedSampleILi2EEEjj,"axG",@progbits,_ZN5Sobol17bitReversedSampleILi2EEEjj,comdat
	.weak	_ZN5Sobol17bitReversedSampleILi2EEEjj # -- Begin function _ZN5Sobol17bitReversedSampleILi2EEEjj
	.p2align	2
	.type	_ZN5Sobol17bitReversedSampleILi2EEEjj,@function
_ZN5Sobol17bitReversedSampleILi2EEEjj:  # @_ZN5Sobol17bitReversedSampleILi2EEEjj
# %bb.0:                                # %entry
	addi	sp, sp, -48
	sd	ra, 40(sp)
	sd	s0, 32(sp)
	sd	s1, 24(sp)
	addi	s0, sp, 48
	sw	a0, -28(s0)
	sw	zero, -32(s0)
	sw	zero, -36(s0)
	j	.LBB97_1
.LBB97_1:                               # %for.cond
                                        # =>This Inner Loop Header: Depth=1
	lw	a0, -28(s0)
	beqz	a0, .LBB97_4
	j	.LBB97_2
.LBB97_2:                               # %for.body
                                        #   in Loop: Header=BB97_1 Depth=1
	lwu	a0, -28(s0)
	andi	s1, a0, 1
	lui	a0, %hi(_ZN5SobolL23BIT_REVERSED_DIRECTIONSE)
	addi	a0, a0, %lo(_ZN5SobolL23BIT_REVERSED_DIRECTIONSE)
	addi	a1, zero, 1
	call	_ZNKSt5arrayIS_IjLm32EELm6EEixEm
	lw	a1, -36(s0)
	call	_ZNKSt5arrayIjLm32EEixEm
	lw	a0, 0(a0)
	mul	a0, s1, a0
	lw	a1, -32(s0)
	xor	a0, a1, a0
	sw	a0, -32(s0)
	j	.LBB97_3
.LBB97_3:                               # %for.inc
                                        #   in Loop: Header=BB97_1 Depth=1
	lwu	a0, -28(s0)
	srli	a0, a0, 1
	sw	a0, -28(s0)
	lw	a0, -36(s0)
	addi	a0, a0, 1
	sw	a0, -36(s0)
	j	.LBB97_1
.LBB97_4:                               # %for.end
	lw	a0, -32(s0)
	ld	s1, 24(sp)
	ld	s0, 32(sp)
	ld	ra, 40(sp)
	addi	sp, sp, 48
	ret
.Lfunc_end97:
	.size	_ZN5Sobol17bitReversedSampleILi2EEEjj, .Lfunc_end97-_ZN5Sobol17bitReversedSampleILi2EEEjj
                                        # -- End function
	.section	.text._ZNKSt17integral_constantIiLi2EEcviEv,"axG",@progbits,_ZNKSt17integral_constantIiLi2EEcviEv,comdat
	.weak	_ZNKSt17integral_constantIiLi2EEcviEv # -- Begin function _ZNKSt17integral_constantIiLi2EEcviEv
	.p2align	2
	.type	_ZNKSt17integral_constantIiLi2EEcviEv,@function
_ZNKSt17integral_constantIiLi2EEcviEv:  # @_ZNKSt17integral_constantIiLi2EEcviEv
# %bb.0:                                # %entry
	addi	sp, sp, -32
	sd	ra, 24(sp)
	sd	s0, 16(sp)
	addi	s0, sp, 32
	sd	a0, -24(s0)
	addi	a0, zero, 2
	ld	s0, 16(sp)
	ld	ra, 24(sp)
	addi	sp, sp, 32
	ret
.Lfunc_end98:
	.size	_ZNKSt17integral_constantIiLi2EEcviEv, .Lfunc_end98-_ZNKSt17integral_constantIiLi2EEcviEv
                                        # -- End function
	.section	.text._ZNSt14__array_traitsIdLm3EE6_S_refERA3_Kdm,"axG",@progbits,_ZNSt14__array_traitsIdLm3EE6_S_refERA3_Kdm,comdat
	.weak	_ZNSt14__array_traitsIdLm3EE6_S_refERA3_Kdm # -- Begin function _ZNSt14__array_traitsIdLm3EE6_S_refERA3_Kdm
	.p2align	2
	.type	_ZNSt14__array_traitsIdLm3EE6_S_refERA3_Kdm,@function
_ZNSt14__array_traitsIdLm3EE6_S_refERA3_Kdm: # @_ZNSt14__array_traitsIdLm3EE6_S_refERA3_Kdm
# %bb.0:                                # %entry
	addi	sp, sp, -32
	sd	ra, 24(sp)
	sd	s0, 16(sp)
	addi	s0, sp, 32
	sd	a0, -24(s0)
	sd	a1, -32(s0)
	ld	a0, -24(s0)
	ld	a1, -32(s0)
	slli	a1, a1, 3
	add	a0, a0, a1
	ld	s0, 16(sp)
	ld	ra, 24(sp)
	addi	sp, sp, 32
	ret
.Lfunc_end99:
	.size	_ZNSt14__array_traitsIdLm3EE6_S_refERA3_Kdm, .Lfunc_end99-_ZNSt14__array_traitsIdLm3EE6_S_refERA3_Kdm
                                        # -- End function
	.section	.text._ZN3glm3vecILi3EdLNS_9qualifierE0EEC2Eddd,"axG",@progbits,_ZN3glm3vecILi3EdLNS_9qualifierE0EEC2Eddd,comdat
	.weak	_ZN3glm3vecILi3EdLNS_9qualifierE0EEC2Eddd # -- Begin function _ZN3glm3vecILi3EdLNS_9qualifierE0EEC2Eddd
	.p2align	2
	.type	_ZN3glm3vecILi3EdLNS_9qualifierE0EEC2Eddd,@function
_ZN3glm3vecILi3EdLNS_9qualifierE0EEC2Eddd: # @_ZN3glm3vecILi3EdLNS_9qualifierE0EEC2Eddd
# %bb.0:                                # %entry
	addi	sp, sp, -48
	sd	ra, 40(sp)
	sd	s0, 32(sp)
	addi	s0, sp, 48
	fmv.d.x	ft0, a3
	fmv.d.x	ft0, a2
	fmv.d.x	ft0, a1
	sd	a0, -24(s0)
	sd	a1, -32(s0)
	sd	a2, -40(s0)
	sd	a3, -48(s0)
	ld	a0, -24(s0)
	fld	ft0, -32(s0)
	fsd	ft0, 0(a0)
	fld	ft0, -40(s0)
	fsd	ft0, 8(a0)
	fld	ft0, -48(s0)
	fsd	ft0, 16(a0)
	ld	s0, 32(sp)
	ld	ra, 40(sp)
	addi	sp, sp, 48
	ret
.Lfunc_end100:
	.size	_ZN3glm3vecILi3EdLNS_9qualifierE0EEC2Eddd, .Lfunc_end100-_ZN3glm3vecILi3EdLNS_9qualifierE0EEC2Eddd
                                        # -- End function
	.section	.text._ZNKSt12__shared_ptrIN7Surface4BaseELN9__gnu_cxx12_Lock_policyE0EEcvbEv,"axG",@progbits,_ZNKSt12__shared_ptrIN7Surface4BaseELN9__gnu_cxx12_Lock_policyE0EEcvbEv,comdat
	.weak	_ZNKSt12__shared_ptrIN7Surface4BaseELN9__gnu_cxx12_Lock_policyE0EEcvbEv # -- Begin function _ZNKSt12__shared_ptrIN7Surface4BaseELN9__gnu_cxx12_Lock_policyE0EEcvbEv
	.p2align	2
	.type	_ZNKSt12__shared_ptrIN7Surface4BaseELN9__gnu_cxx12_Lock_policyE0EEcvbEv,@function
_ZNKSt12__shared_ptrIN7Surface4BaseELN9__gnu_cxx12_Lock_policyE0EEcvbEv: # @_ZNKSt12__shared_ptrIN7Surface4BaseELN9__gnu_cxx12_Lock_policyE0EEcvbEv
# %bb.0:                                # %entry
	addi	sp, sp, -32
	sd	ra, 24(sp)
	sd	s0, 16(sp)
	addi	s0, sp, 32
	sd	a0, -24(s0)
	ld	a0, -24(s0)
	ld	a0, 0(a0)
	snez	a0, a0
	ld	s0, 16(sp)
	ld	ra, 24(sp)
	addi	sp, sp, 32
	ret
.Lfunc_end101:
	.size	_ZNKSt12__shared_ptrIN7Surface4BaseELN9__gnu_cxx12_Lock_policyE0EEcvbEv, .Lfunc_end101-_ZNKSt12__shared_ptrIN7Surface4BaseELN9__gnu_cxx12_Lock_policyE0EEcvbEv
                                        # -- End function
	.section	.text._Z12unrolledLoopIiLi1EZN7Sampler3getILi6ELi1EEEDavEUlT_E_EvOT1_,"axG",@progbits,_Z12unrolledLoopIiLi1EZN7Sampler3getILi6ELi1EEEDavEUlT_E_EvOT1_,comdat
	.weak	_Z12unrolledLoopIiLi1EZN7Sampler3getILi6ELi1EEEDavEUlT_E_EvOT1_ # -- Begin function _Z12unrolledLoopIiLi1EZN7Sampler3getILi6ELi1EEEDavEUlT_E_EvOT1_
	.p2align	2
	.type	_Z12unrolledLoopIiLi1EZN7Sampler3getILi6ELi1EEEDavEUlT_E_EvOT1_,@function
_Z12unrolledLoopIiLi1EZN7Sampler3getILi6ELi1EEEDavEUlT_E_EvOT1_: # @_Z12unrolledLoopIiLi1EZN7Sampler3getILi6ELi1EEEDavEUlT_E_EvOT1_
	.cfi_startproc
# %bb.0:                                # %entry
	addi	sp, sp, -32
	.cfi_def_cfa_offset 32
	sd	ra, 24(sp)
	sd	s0, 16(sp)
	.cfi_offset ra, -8
	.cfi_offset s0, -16
	addi	s0, sp, 32
	.cfi_def_cfa s0, 0
	sd	a0, -24(s0)
	ld	a0, -24(s0)
	call	_ZSt7forwardIZN7Sampler3getILi6ELi1EEEDavEUlT_E_EOS2_RNSt16remove_referenceIS2_E4typeE
	call	_ZN6detail12unrolledLoopIiJLi0EEZN7Sampler3getILi6ELi1EEEDavEUlT_E_EEvSt16integer_sequenceIS3_JXspT0_EEEOT1_
	ld	s0, 16(sp)
	.cfi_def_cfa sp, 32
	ld	ra, 24(sp)
	.cfi_restore ra
	.cfi_restore s0
	addi	sp, sp, 32
	.cfi_def_cfa_offset 0
	ret
.Lfunc_end102:
	.size	_Z12unrolledLoopIiLi1EZN7Sampler3getILi6ELi1EEEDavEUlT_E_EvOT1_, .Lfunc_end102-_Z12unrolledLoopIiLi1EZN7Sampler3getILi6ELi1EEEDavEUlT_E_EvOT1_
	.cfi_endproc
                                        # -- End function
	.section	.text._ZN6detail12unrolledLoopIiJLi0EEZN7Sampler3getILi6ELi1EEEDavEUlT_E_EEvSt16integer_sequenceIS3_JXspT0_EEEOT1_,"axG",@progbits,_ZN6detail12unrolledLoopIiJLi0EEZN7Sampler3getILi6ELi1EEEDavEUlT_E_EEvSt16integer_sequenceIS3_JXspT0_EEEOT1_,comdat
	.weak	_ZN6detail12unrolledLoopIiJLi0EEZN7Sampler3getILi6ELi1EEEDavEUlT_E_EEvSt16integer_sequenceIS3_JXspT0_EEEOT1_ # -- Begin function _ZN6detail12unrolledLoopIiJLi0EEZN7Sampler3getILi6ELi1EEEDavEUlT_E_EEvSt16integer_sequenceIS3_JXspT0_EEEOT1_
	.p2align	2
	.type	_ZN6detail12unrolledLoopIiJLi0EEZN7Sampler3getILi6ELi1EEEDavEUlT_E_EEvSt16integer_sequenceIS3_JXspT0_EEEOT1_,@function
_ZN6detail12unrolledLoopIiJLi0EEZN7Sampler3getILi6ELi1EEEDavEUlT_E_EEvSt16integer_sequenceIS3_JXspT0_EEEOT1_: # @_ZN6detail12unrolledLoopIiJLi0EEZN7Sampler3getILi6ELi1EEEDavEUlT_E_EEvSt16integer_sequenceIS3_JXspT0_EEEOT1_
	.cfi_startproc
# %bb.0:                                # %entry
	addi	sp, sp, -48
	.cfi_def_cfa_offset 48
	sd	ra, 40(sp)
	sd	s0, 32(sp)
	.cfi_offset ra, -8
	.cfi_offset s0, -16
	addi	s0, sp, 48
	.cfi_def_cfa s0, 0
	sd	a0, -32(s0)
	ld	a0, -32(s0)
	call	_ZZN7Sampler3getILi6ELi1EEEDavENKUlT_E_clISt17integral_constantIiLi0EEEEDaS1_
	ld	s0, 32(sp)
	.cfi_def_cfa sp, 48
	ld	ra, 40(sp)
	.cfi_restore ra
	.cfi_restore s0
	addi	sp, sp, 48
	.cfi_def_cfa_offset 0
	ret
.Lfunc_end103:
	.size	_ZN6detail12unrolledLoopIiJLi0EEZN7Sampler3getILi6ELi1EEEDavEUlT_E_EEvSt16integer_sequenceIS3_JXspT0_EEEOT1_, .Lfunc_end103-_ZN6detail12unrolledLoopIiJLi0EEZN7Sampler3getILi6ELi1EEEDavEUlT_E_EEvSt16integer_sequenceIS3_JXspT0_EEEOT1_
	.cfi_endproc
                                        # -- End function
	.section	.text._ZSt7forwardIZN7Sampler3getILi6ELi1EEEDavEUlT_E_EOS2_RNSt16remove_referenceIS2_E4typeE,"axG",@progbits,_ZSt7forwardIZN7Sampler3getILi6ELi1EEEDavEUlT_E_EOS2_RNSt16remove_referenceIS2_E4typeE,comdat
	.weak	_ZSt7forwardIZN7Sampler3getILi6ELi1EEEDavEUlT_E_EOS2_RNSt16remove_referenceIS2_E4typeE # -- Begin function _ZSt7forwardIZN7Sampler3getILi6ELi1EEEDavEUlT_E_EOS2_RNSt16remove_referenceIS2_E4typeE
	.p2align	2
	.type	_ZSt7forwardIZN7Sampler3getILi6ELi1EEEDavEUlT_E_EOS2_RNSt16remove_referenceIS2_E4typeE,@function
_ZSt7forwardIZN7Sampler3getILi6ELi1EEEDavEUlT_E_EOS2_RNSt16remove_referenceIS2_E4typeE: # @_ZSt7forwardIZN7Sampler3getILi6ELi1EEEDavEUlT_E_EOS2_RNSt16remove_referenceIS2_E4typeE
# %bb.0:                                # %entry
	addi	sp, sp, -32
	sd	ra, 24(sp)
	sd	s0, 16(sp)
	addi	s0, sp, 32
	sd	a0, -24(s0)
	ld	a0, -24(s0)
	ld	s0, 16(sp)
	ld	ra, 24(sp)
	addi	sp, sp, 32
	ret
.Lfunc_end104:
	.size	_ZSt7forwardIZN7Sampler3getILi6ELi1EEEDavEUlT_E_EOS2_RNSt16remove_referenceIS2_E4typeE, .Lfunc_end104-_ZSt7forwardIZN7Sampler3getILi6ELi1EEEDavEUlT_E_EOS2_RNSt16remove_referenceIS2_E4typeE
                                        # -- End function
	.section	.sdata,"aw",@progbits
	.p2align	3               # -- Begin function _ZZN7Sampler3getILi6ELi1EEEDavENKUlT_E_clISt17integral_constantIiLi0EEEEDaS1_
.LCPI105_0:
	.quad	4463067230724161536     # double 2.3283064365386963E-10
	.section	.text._ZZN7Sampler3getILi6ELi1EEEDavENKUlT_E_clISt17integral_constantIiLi0EEEEDaS1_,"axG",@progbits,_ZZN7Sampler3getILi6ELi1EEEDavENKUlT_E_clISt17integral_constantIiLi0EEEEDaS1_,comdat
	.weak	_ZZN7Sampler3getILi6ELi1EEEDavENKUlT_E_clISt17integral_constantIiLi0EEEEDaS1_
	.p2align	2
	.type	_ZZN7Sampler3getILi6ELi1EEEDavENKUlT_E_clISt17integral_constantIiLi0EEEEDaS1_,@function
_ZZN7Sampler3getILi6ELi1EEEDavENKUlT_E_clISt17integral_constantIiLi0EEEEDaS1_: # @_ZZN7Sampler3getILi6ELi1EEEDavENKUlT_E_clISt17integral_constantIiLi0EEEEDaS1_
	.cfi_startproc
# %bb.0:                                # %entry
	addi	sp, sp, -80
	.cfi_def_cfa_offset 80
	sd	ra, 72(sp)
	sd	s0, 64(sp)
	sd	s1, 56(sp)
	sd	s2, 48(sp)
	sd	s3, 40(sp)
	.cfi_offset ra, -8
	.cfi_offset s0, -16
	.cfi_offset s1, -24
	.cfi_offset s2, -32
	.cfi_offset s3, -40
	addi	s0, sp, 80
	.cfi_def_cfa s0, 0
	sd	a0, -56(s0)
	ld	s3, -56(s0)
	addi	a0, zero, 6
	sw	a0, -60(s0)
	call	_ZTWN7Sampler14shuffled_indexE
	lw	a0, 0(a0)
	call	_ZN5Sobol17bitReversedSampleILi6EEEjj
	mv	s2, a0
	call	_ZTWN7Sampler4seedE
	lw	s1, 0(a0)
	addi	a0, zero, 6
	call	_ZN7Sampler4hashEj
	mv	a1, a0
	mv	a0, s1
	call	_ZN7Sampler11hashCombineEjj
	mv	a1, a0
	mv	a0, s2
	call	_ZN7Sampler8scrambleEjj
	fcvt.d.wu	ft0, a0
	lui	a0, %hi(.LCPI105_0)
	addi	a0, a0, %lo(.LCPI105_0)
	fld	ft1, 0(a0)
	fmul.d	ft0, ft0, ft1
	fsd	ft0, -72(s0)
	ld	s1, 0(s3)
	addi	a0, s0, -48
	call	_ZNKSt17integral_constantIiLi0EEcviEv
	mv	a1, a0
	mv	a0, s1
	call	_ZNSt5arrayIdLm1EEixEm
	fld	ft0, -72(s0)
	fsd	ft0, 0(a0)
	ld	s3, 40(sp)
	ld	s2, 48(sp)
	ld	s1, 56(sp)
	ld	s0, 64(sp)
	.cfi_def_cfa sp, 80
	ld	ra, 72(sp)
	.cfi_restore ra
	.cfi_restore s0
	.cfi_restore s1
	.cfi_restore s2
	.cfi_restore s3
	addi	sp, sp, 80
	.cfi_def_cfa_offset 0
	ret
.Lfunc_end105:
	.size	_ZZN7Sampler3getILi6ELi1EEEDavENKUlT_E_clISt17integral_constantIiLi0EEEEDaS1_, .Lfunc_end105-_ZZN7Sampler3getILi6ELi1EEEDavENKUlT_E_clISt17integral_constantIiLi0EEEEDaS1_
	.cfi_endproc
                                        # -- End function
	.section	.text._ZN5Sobol17bitReversedSampleILi6EEEjj,"axG",@progbits,_ZN5Sobol17bitReversedSampleILi6EEEjj,comdat
	.weak	_ZN5Sobol17bitReversedSampleILi6EEEjj # -- Begin function _ZN5Sobol17bitReversedSampleILi6EEEjj
	.p2align	2
	.type	_ZN5Sobol17bitReversedSampleILi6EEEjj,@function
_ZN5Sobol17bitReversedSampleILi6EEEjj:  # @_ZN5Sobol17bitReversedSampleILi6EEEjj
# %bb.0:                                # %entry
	addi	sp, sp, -48
	sd	ra, 40(sp)
	sd	s0, 32(sp)
	sd	s1, 24(sp)
	addi	s0, sp, 48
	sw	a0, -28(s0)
	sw	zero, -32(s0)
	sw	zero, -36(s0)
	j	.LBB106_1
.LBB106_1:                              # %for.cond
                                        # =>This Inner Loop Header: Depth=1
	lw	a0, -28(s0)
	beqz	a0, .LBB106_4
	j	.LBB106_2
.LBB106_2:                              # %for.body
                                        #   in Loop: Header=BB106_1 Depth=1
	lwu	a0, -28(s0)
	andi	s1, a0, 1
	lui	a0, %hi(_ZN5SobolL23BIT_REVERSED_DIRECTIONSE)
	addi	a0, a0, %lo(_ZN5SobolL23BIT_REVERSED_DIRECTIONSE)
	addi	a1, zero, 5
	call	_ZNKSt5arrayIS_IjLm32EELm6EEixEm
	lw	a1, -36(s0)
	call	_ZNKSt5arrayIjLm32EEixEm
	lw	a0, 0(a0)
	mul	a0, s1, a0
	lw	a1, -32(s0)
	xor	a0, a1, a0
	sw	a0, -32(s0)
	j	.LBB106_3
.LBB106_3:                              # %for.inc
                                        #   in Loop: Header=BB106_1 Depth=1
	lwu	a0, -28(s0)
	srli	a0, a0, 1
	sw	a0, -28(s0)
	lw	a0, -36(s0)
	addi	a0, a0, 1
	sw	a0, -36(s0)
	j	.LBB106_1
.LBB106_4:                              # %for.end
	lw	a0, -32(s0)
	ld	s1, 24(sp)
	ld	s0, 32(sp)
	ld	ra, 40(sp)
	addi	sp, sp, 48
	ret
.Lfunc_end106:
	.size	_ZN5Sobol17bitReversedSampleILi6EEEjj, .Lfunc_end106-_ZN5Sobol17bitReversedSampleILi6EEEjj
                                        # -- End function
	.section	.text._ZNSt14__array_traitsIdLm1EE6_S_refERA1_Kdm,"axG",@progbits,_ZNSt14__array_traitsIdLm1EE6_S_refERA1_Kdm,comdat
	.weak	_ZNSt14__array_traitsIdLm1EE6_S_refERA1_Kdm # -- Begin function _ZNSt14__array_traitsIdLm1EE6_S_refERA1_Kdm
	.p2align	2
	.type	_ZNSt14__array_traitsIdLm1EE6_S_refERA1_Kdm,@function
_ZNSt14__array_traitsIdLm1EE6_S_refERA1_Kdm: # @_ZNSt14__array_traitsIdLm1EE6_S_refERA1_Kdm
# %bb.0:                                # %entry
	addi	sp, sp, -32
	sd	ra, 24(sp)
	sd	s0, 16(sp)
	addi	s0, sp, 32
	sd	a0, -24(s0)
	sd	a1, -32(s0)
	ld	a0, -24(s0)
	ld	a1, -32(s0)
	slli	a1, a1, 3
	add	a0, a0, a1
	ld	s0, 16(sp)
	ld	ra, 24(sp)
	addi	sp, sp, 32
	ret
.Lfunc_end107:
	.size	_ZNSt14__array_traitsIdLm1EE6_S_refERA1_Kdm, .Lfunc_end107-_ZNSt14__array_traitsIdLm1EE6_S_refERA1_Kdm
                                        # -- End function
	.section	.text._ZNSt7__cxx1112basic_stringIcSt11char_traitsIcESaIcEE12_M_constructIPKcEEvT_S8_,"axG",@progbits,_ZNSt7__cxx1112basic_stringIcSt11char_traitsIcESaIcEE12_M_constructIPKcEEvT_S8_,comdat
	.weak	_ZNSt7__cxx1112basic_stringIcSt11char_traitsIcESaIcEE12_M_constructIPKcEEvT_S8_ # -- Begin function _ZNSt7__cxx1112basic_stringIcSt11char_traitsIcESaIcEE12_M_constructIPKcEEvT_S8_
	.p2align	2
	.type	_ZNSt7__cxx1112basic_stringIcSt11char_traitsIcESaIcEE12_M_constructIPKcEEvT_S8_,@function
_ZNSt7__cxx1112basic_stringIcSt11char_traitsIcESaIcEE12_M_constructIPKcEEvT_S8_: # @_ZNSt7__cxx1112basic_stringIcSt11char_traitsIcESaIcEE12_M_constructIPKcEEvT_S8_
	.cfi_startproc
# %bb.0:                                # %entry
	addi	sp, sp, -48
	.cfi_def_cfa_offset 48
	sd	ra, 40(sp)
	sd	s0, 32(sp)
	.cfi_offset ra, -8
	.cfi_offset s0, -16
	addi	s0, sp, 48
	.cfi_def_cfa s0, 0
	sd	a0, -24(s0)
	sd	a1, -32(s0)
	sd	a2, -40(s0)
	ld	a0, -24(s0)
	ld	a1, -32(s0)
	ld	a2, -40(s0)
	call	_ZNSt7__cxx1112basic_stringIcSt11char_traitsIcESaIcEE16_M_construct_auxIPKcEEvT_S8_St12__false_type
	ld	s0, 32(sp)
	.cfi_def_cfa sp, 48
	ld	ra, 40(sp)
	.cfi_restore ra
	.cfi_restore s0
	addi	sp, sp, 48
	.cfi_def_cfa_offset 0
	ret
.Lfunc_end108:
	.size	_ZNSt7__cxx1112basic_stringIcSt11char_traitsIcESaIcEE12_M_constructIPKcEEvT_S8_, .Lfunc_end108-_ZNSt7__cxx1112basic_stringIcSt11char_traitsIcESaIcEE12_M_constructIPKcEEvT_S8_
	.cfi_endproc
                                        # -- End function
	.section	.text._ZNSt11char_traitsIcE6lengthEPKc,"axG",@progbits,_ZNSt11char_traitsIcE6lengthEPKc,comdat
	.weak	_ZNSt11char_traitsIcE6lengthEPKc # -- Begin function _ZNSt11char_traitsIcE6lengthEPKc
	.p2align	2
	.type	_ZNSt11char_traitsIcE6lengthEPKc,@function
_ZNSt11char_traitsIcE6lengthEPKc:       # @_ZNSt11char_traitsIcE6lengthEPKc
	.cfi_startproc
# %bb.0:                                # %entry
	addi	sp, sp, -48
	.cfi_def_cfa_offset 48
	sd	ra, 40(sp)
	sd	s0, 32(sp)
	.cfi_offset ra, -8
	.cfi_offset s0, -16
	addi	s0, sp, 48
	.cfi_def_cfa s0, 0
	sd	a0, -40(s0)
	ld	a0, -40(s0)
	sd	a0, -24(s0)
	addi	a0, zero, 1
	bnez	a0, .LBB109_2
	j	.LBB109_1
.LBB109_1:                              # %if.then
	ld	a0, -40(s0)
	call	_ZN9__gnu_cxx11char_traitsIcE6lengthEPKc
	sd	a0, -32(s0)
	j	.LBB109_3
.LBB109_2:                              # %if.end
	ld	a0, -40(s0)
	call	strlen
	sd	a0, -32(s0)
	j	.LBB109_3
.LBB109_3:                              # %return
	ld	a0, -32(s0)
	ld	s0, 32(sp)
	.cfi_def_cfa sp, 48
	ld	ra, 40(sp)
	.cfi_restore ra
	.cfi_restore s0
	addi	sp, sp, 48
	.cfi_def_cfa_offset 0
	ret
.Lfunc_end109:
	.size	_ZNSt11char_traitsIcE6lengthEPKc, .Lfunc_end109-_ZNSt11char_traitsIcE6lengthEPKc
	.cfi_endproc
                                        # -- End function
	.section	.text._ZNSt7__cxx1112basic_stringIcSt11char_traitsIcESaIcEE12_Alloc_hiderD2Ev,"axG",@progbits,_ZNSt7__cxx1112basic_stringIcSt11char_traitsIcESaIcEE12_Alloc_hiderD2Ev,comdat
	.weak	_ZNSt7__cxx1112basic_stringIcSt11char_traitsIcESaIcEE12_Alloc_hiderD2Ev # -- Begin function _ZNSt7__cxx1112basic_stringIcSt11char_traitsIcESaIcEE12_Alloc_hiderD2Ev
	.p2align	2
	.type	_ZNSt7__cxx1112basic_stringIcSt11char_traitsIcESaIcEE12_Alloc_hiderD2Ev,@function
_ZNSt7__cxx1112basic_stringIcSt11char_traitsIcESaIcEE12_Alloc_hiderD2Ev: # @_ZNSt7__cxx1112basic_stringIcSt11char_traitsIcESaIcEE12_Alloc_hiderD2Ev
# %bb.0:                                # %entry
	addi	sp, sp, -32
	sd	ra, 24(sp)
	sd	s0, 16(sp)
	addi	s0, sp, 32
	sd	a0, -24(s0)
	ld	a0, -24(s0)
	call	_ZNSaIcED2Ev
	ld	s0, 16(sp)
	ld	ra, 24(sp)
	addi	sp, sp, 32
	ret
.Lfunc_end110:
	.size	_ZNSt7__cxx1112basic_stringIcSt11char_traitsIcESaIcEE12_Alloc_hiderD2Ev, .Lfunc_end110-_ZNSt7__cxx1112basic_stringIcSt11char_traitsIcESaIcEE12_Alloc_hiderD2Ev
                                        # -- End function
	.section	.text._ZNSt7__cxx1112basic_stringIcSt11char_traitsIcESaIcEE16_M_construct_auxIPKcEEvT_S8_St12__false_type,"axG",@progbits,_ZNSt7__cxx1112basic_stringIcSt11char_traitsIcESaIcEE16_M_construct_auxIPKcEEvT_S8_St12__false_type,comdat
	.weak	_ZNSt7__cxx1112basic_stringIcSt11char_traitsIcESaIcEE16_M_construct_auxIPKcEEvT_S8_St12__false_type # -- Begin function _ZNSt7__cxx1112basic_stringIcSt11char_traitsIcESaIcEE16_M_construct_auxIPKcEEvT_S8_St12__false_type
	.p2align	2
	.type	_ZNSt7__cxx1112basic_stringIcSt11char_traitsIcESaIcEE16_M_construct_auxIPKcEEvT_S8_St12__false_type,@function
_ZNSt7__cxx1112basic_stringIcSt11char_traitsIcESaIcEE16_M_construct_auxIPKcEEvT_S8_St12__false_type: # @_ZNSt7__cxx1112basic_stringIcSt11char_traitsIcESaIcEE16_M_construct_auxIPKcEEvT_S8_St12__false_type
	.cfi_startproc
# %bb.0:                                # %entry
	addi	sp, sp, -64
	.cfi_def_cfa_offset 64
	sd	ra, 56(sp)
	sd	s0, 48(sp)
	.cfi_offset ra, -8
	.cfi_offset s0, -16
	addi	s0, sp, 64
	.cfi_def_cfa s0, 0
	sd	a0, -32(s0)
	sd	a1, -40(s0)
	sd	a2, -48(s0)
	ld	a0, -32(s0)
	ld	a1, -40(s0)
	ld	a2, -48(s0)
	call	_ZNSt7__cxx1112basic_stringIcSt11char_traitsIcESaIcEE12_M_constructIPKcEEvT_S8_St20forward_iterator_tag
	ld	s0, 48(sp)
	.cfi_def_cfa sp, 64
	ld	ra, 56(sp)
	.cfi_restore ra
	.cfi_restore s0
	addi	sp, sp, 64
	.cfi_def_cfa_offset 0
	ret
.Lfunc_end111:
	.size	_ZNSt7__cxx1112basic_stringIcSt11char_traitsIcESaIcEE16_M_construct_auxIPKcEEvT_S8_St12__false_type, .Lfunc_end111-_ZNSt7__cxx1112basic_stringIcSt11char_traitsIcESaIcEE16_M_construct_auxIPKcEEvT_S8_St12__false_type
	.cfi_endproc
                                        # -- End function
	.section	.text._ZNSt7__cxx1112basic_stringIcSt11char_traitsIcESaIcEE12_M_constructIPKcEEvT_S8_St20forward_iterator_tag,"axG",@progbits,_ZNSt7__cxx1112basic_stringIcSt11char_traitsIcESaIcEE12_M_constructIPKcEEvT_S8_St20forward_iterator_tag,comdat
	.weak	_ZNSt7__cxx1112basic_stringIcSt11char_traitsIcESaIcEE12_M_constructIPKcEEvT_S8_St20forward_iterator_tag # -- Begin function _ZNSt7__cxx1112basic_stringIcSt11char_traitsIcESaIcEE12_M_constructIPKcEEvT_S8_St20forward_iterator_tag
	.p2align	2
	.type	_ZNSt7__cxx1112basic_stringIcSt11char_traitsIcESaIcEE12_M_constructIPKcEEvT_S8_St20forward_iterator_tag,@function
_ZNSt7__cxx1112basic_stringIcSt11char_traitsIcESaIcEE12_M_constructIPKcEEvT_S8_St20forward_iterator_tag: # @_ZNSt7__cxx1112basic_stringIcSt11char_traitsIcESaIcEE12_M_constructIPKcEEvT_S8_St20forward_iterator_tag
.Lfunc_begin9:
	.cfi_startproc
	.cfi_personality 155, DW.ref.__gxx_personality_v0
	.cfi_lsda 27, .Lexception9
# %bb.0:                                # %entry
	addi	sp, sp, -80
	.cfi_def_cfa_offset 80
	sd	ra, 72(sp)
	sd	s0, 64(sp)
	sd	s1, 56(sp)
	.cfi_offset ra, -8
	.cfi_offset s0, -16
	.cfi_offset s1, -24
	addi	s0, sp, 80
	.cfi_def_cfa s0, 0
	sd	a0, -40(s0)
	sd	a1, -48(s0)
	sd	a2, -56(s0)
	ld	s1, -40(s0)
	ld	a0, -48(s0)
	call	_ZN9__gnu_cxx17__is_null_pointerIKcEEbPT_
	beqz	a0, .LBB112_3
	j	.LBB112_1
.LBB112_1:                              # %land.lhs.true
	ld	a0, -48(s0)
	ld	a1, -56(s0)
	beq	a0, a1, .LBB112_3
	j	.LBB112_2
.LBB112_2:                              # %if.then
	lui	a0, %hi(.L.str.3)
	addi	a0, a0, %lo(.L.str.3)
	call	_ZSt19__throw_logic_errorPKc
.LBB112_3:                              # %if.end
	ld	a0, -48(s0)
	ld	a1, -56(s0)
	call	_ZSt8distanceIPKcENSt15iterator_traitsIT_E15difference_typeES3_S3_
	sd	a0, -64(s0)
	ld	a0, -64(s0)
	addi	a1, zero, 16
	bltu	a0, a1, .LBB112_5
	j	.LBB112_4
.LBB112_4:                              # %if.then4
	addi	a1, s0, -64
	mv	a0, s1
	mv	a2, zero
	call	_ZNSt7__cxx1112basic_stringIcSt11char_traitsIcESaIcEE9_M_createERmm
	mv	a1, a0
	mv	a0, s1
	call	_ZNSt7__cxx1112basic_stringIcSt11char_traitsIcESaIcEE7_M_dataEPc
	ld	a1, -64(s0)
	mv	a0, s1
	call	_ZNSt7__cxx1112basic_stringIcSt11char_traitsIcESaIcEE11_M_capacityEm
	j	.LBB112_5
.LBB112_5:                              # %if.end6
.Ltmp55:
	mv	a0, s1
	call	_ZNKSt7__cxx1112basic_stringIcSt11char_traitsIcESaIcEE7_M_dataEv
.Ltmp56:
	j	.LBB112_6
.LBB112_6:                              # %invoke.cont
	ld	a1, -48(s0)
	ld	a2, -56(s0)
	call	_ZNSt7__cxx1112basic_stringIcSt11char_traitsIcESaIcEE13_S_copy_charsEPcPKcS7_
	j	.LBB112_12
.LBB112_7:                              # %lpad
.Ltmp57:
	sd	a0, -72(s0)
	sw	a1, -76(s0)
	j	.LBB112_8
.LBB112_8:                              # %catch
	ld	a0, -72(s0)
	call	__cxa_begin_catch
.Ltmp58:
	mv	a0, s1
	call	_ZNSt7__cxx1112basic_stringIcSt11char_traitsIcESaIcEE10_M_disposeEv
.Ltmp59:
	j	.LBB112_9
.LBB112_9:                              # %invoke.cont9
.Ltmp60:
	call	__cxa_rethrow
.Ltmp61:
	j	.LBB112_15
.LBB112_10:                             # %lpad8
.Ltmp62:
	sd	a0, -72(s0)
	sw	a1, -76(s0)
.Ltmp63:
	call	__cxa_end_catch
.Ltmp64:
	j	.LBB112_11
.LBB112_11:                             # %invoke.cont10
	j	.LBB112_13
.LBB112_12:                             # %try.cont
	ld	a1, -64(s0)
	mv	a0, s1
	call	_ZNSt7__cxx1112basic_stringIcSt11char_traitsIcESaIcEE13_M_set_lengthEm
	ld	s1, 56(sp)
	ld	s0, 64(sp)
	.cfi_def_cfa sp, 80
	ld	ra, 72(sp)
	.cfi_restore ra
	.cfi_restore s0
	.cfi_restore s1
	addi	sp, sp, 80
	.cfi_def_cfa_offset 0
	ret
.LBB112_13:                             # %eh.resume
	ld	a0, -72(s0)
	call	_Unwind_Resume
.LBB112_14:                             # %terminate.lpad
.Ltmp65:
	call	__clang_call_terminate
.LBB112_15:                             # %unreachable
.Lfunc_end112:
	.size	_ZNSt7__cxx1112basic_stringIcSt11char_traitsIcESaIcEE12_M_constructIPKcEEvT_S8_St20forward_iterator_tag, .Lfunc_end112-_ZNSt7__cxx1112basic_stringIcSt11char_traitsIcESaIcEE12_M_constructIPKcEEvT_S8_St20forward_iterator_tag
	.cfi_endproc
	.section	.gcc_except_table,"a",@progbits
	.p2align	2
GCC_except_table112:
.Lexception9:
	.byte	255                     # @LPStart Encoding = omit
	.byte	155                     # @TType Encoding = indirect pcrel sdata4
	.uleb128 .Lttbase4-.Lttbaseref4
.Lttbaseref4:
	.byte	3                       # Call site Encoding = udata4
	.uleb128 .Lcst_end9-.Lcst_begin9
.Lcst_begin9:
	.word	.Lfunc_begin9-.Lfunc_begin9 # >> Call Site 1 <<
	.word	.Ltmp55-.Lfunc_begin9   #   Call between .Lfunc_begin9 and .Ltmp55
	.word	0                       #     has no landing pad
	.byte	0                       #   On action: cleanup
	.word	.Ltmp55-.Lfunc_begin9   # >> Call Site 2 <<
	.word	.Ltmp56-.Ltmp55         #   Call between .Ltmp55 and .Ltmp56
	.word	.Ltmp57-.Lfunc_begin9   #     jumps to .Ltmp57
	.byte	1                       #   On action: 1
	.word	.Ltmp56-.Lfunc_begin9   # >> Call Site 3 <<
	.word	.Ltmp58-.Ltmp56         #   Call between .Ltmp56 and .Ltmp58
	.word	0                       #     has no landing pad
	.byte	0                       #   On action: cleanup
	.word	.Ltmp58-.Lfunc_begin9   # >> Call Site 4 <<
	.word	.Ltmp61-.Ltmp58         #   Call between .Ltmp58 and .Ltmp61
	.word	.Ltmp62-.Lfunc_begin9   #     jumps to .Ltmp62
	.byte	0                       #   On action: cleanup
	.word	.Ltmp63-.Lfunc_begin9   # >> Call Site 5 <<
	.word	.Ltmp64-.Ltmp63         #   Call between .Ltmp63 and .Ltmp64
	.word	.Ltmp65-.Lfunc_begin9   #     jumps to .Ltmp65
	.byte	1                       #   On action: 1
	.word	.Ltmp64-.Lfunc_begin9   # >> Call Site 6 <<
	.word	.Lfunc_end112-.Ltmp64   #   Call between .Ltmp64 and .Lfunc_end112
	.word	0                       #     has no landing pad
	.byte	0                       #   On action: cleanup
.Lcst_end9:
	.byte	1                       # >> Action Record 1 <<
                                        #   Catch TypeInfo 1
	.byte	0                       #   No further actions
	.p2align	2
                                        # >> Catch TypeInfos <<
	.word	0                       # TypeInfo 1
.Lttbase4:
	.p2align	2
                                        # -- End function
	.section	.text._ZN9__gnu_cxx17__is_null_pointerIKcEEbPT_,"axG",@progbits,_ZN9__gnu_cxx17__is_null_pointerIKcEEbPT_,comdat
	.weak	_ZN9__gnu_cxx17__is_null_pointerIKcEEbPT_ # -- Begin function _ZN9__gnu_cxx17__is_null_pointerIKcEEbPT_
	.p2align	2
	.type	_ZN9__gnu_cxx17__is_null_pointerIKcEEbPT_,@function
_ZN9__gnu_cxx17__is_null_pointerIKcEEbPT_: # @_ZN9__gnu_cxx17__is_null_pointerIKcEEbPT_
# %bb.0:                                # %entry
	addi	sp, sp, -32
	sd	ra, 24(sp)
	sd	s0, 16(sp)
	addi	s0, sp, 32
	sd	a0, -24(s0)
	ld	a0, -24(s0)
	seqz	a0, a0
	ld	s0, 16(sp)
	ld	ra, 24(sp)
	addi	sp, sp, 32
	ret
.Lfunc_end113:
	.size	_ZN9__gnu_cxx17__is_null_pointerIKcEEbPT_, .Lfunc_end113-_ZN9__gnu_cxx17__is_null_pointerIKcEEbPT_
                                        # -- End function
	.section	.text._ZSt8distanceIPKcENSt15iterator_traitsIT_E15difference_typeES3_S3_,"axG",@progbits,_ZSt8distanceIPKcENSt15iterator_traitsIT_E15difference_typeES3_S3_,comdat
	.weak	_ZSt8distanceIPKcENSt15iterator_traitsIT_E15difference_typeES3_S3_ # -- Begin function _ZSt8distanceIPKcENSt15iterator_traitsIT_E15difference_typeES3_S3_
	.p2align	2
	.type	_ZSt8distanceIPKcENSt15iterator_traitsIT_E15difference_typeES3_S3_,@function
_ZSt8distanceIPKcENSt15iterator_traitsIT_E15difference_typeES3_S3_: # @_ZSt8distanceIPKcENSt15iterator_traitsIT_E15difference_typeES3_S3_
	.cfi_startproc
# %bb.0:                                # %entry
	addi	sp, sp, -64
	.cfi_def_cfa_offset 64
	sd	ra, 56(sp)
	sd	s0, 48(sp)
	sd	s1, 40(sp)
	sd	s2, 32(sp)
	.cfi_offset ra, -8
	.cfi_offset s0, -16
	.cfi_offset s1, -24
	.cfi_offset s2, -32
	addi	s0, sp, 64
	.cfi_def_cfa s0, 0
	sd	a0, -40(s0)
	sd	a1, -48(s0)
	ld	s1, -40(s0)
	ld	s2, -48(s0)
	addi	a0, s0, -40
	call	_ZSt19__iterator_categoryIPKcENSt15iterator_traitsIT_E17iterator_categoryERKS3_
	mv	a0, s1
	mv	a1, s2
	call	_ZSt10__distanceIPKcENSt15iterator_traitsIT_E15difference_typeES3_S3_St26random_access_iterator_tag
	ld	s2, 32(sp)
	ld	s1, 40(sp)
	ld	s0, 48(sp)
	.cfi_def_cfa sp, 64
	ld	ra, 56(sp)
	.cfi_restore ra
	.cfi_restore s0
	.cfi_restore s1
	.cfi_restore s2
	addi	sp, sp, 64
	.cfi_def_cfa_offset 0
	ret
.Lfunc_end114:
	.size	_ZSt8distanceIPKcENSt15iterator_traitsIT_E15difference_typeES3_S3_, .Lfunc_end114-_ZSt8distanceIPKcENSt15iterator_traitsIT_E15difference_typeES3_S3_
	.cfi_endproc
                                        # -- End function
	.section	.text._ZSt10__distanceIPKcENSt15iterator_traitsIT_E15difference_typeES3_S3_St26random_access_iterator_tag,"axG",@progbits,_ZSt10__distanceIPKcENSt15iterator_traitsIT_E15difference_typeES3_S3_St26random_access_iterator_tag,comdat
	.weak	_ZSt10__distanceIPKcENSt15iterator_traitsIT_E15difference_typeES3_S3_St26random_access_iterator_tag # -- Begin function _ZSt10__distanceIPKcENSt15iterator_traitsIT_E15difference_typeES3_S3_St26random_access_iterator_tag
	.p2align	2
	.type	_ZSt10__distanceIPKcENSt15iterator_traitsIT_E15difference_typeES3_S3_St26random_access_iterator_tag,@function
_ZSt10__distanceIPKcENSt15iterator_traitsIT_E15difference_typeES3_S3_St26random_access_iterator_tag: # @_ZSt10__distanceIPKcENSt15iterator_traitsIT_E15difference_typeES3_S3_St26random_access_iterator_tag
# %bb.0:                                # %entry
	addi	sp, sp, -48
	sd	ra, 40(sp)
	sd	s0, 32(sp)
	addi	s0, sp, 48
	sd	a0, -32(s0)
	sd	a1, -40(s0)
	ld	a0, -40(s0)
	ld	a1, -32(s0)
	sub	a0, a0, a1
	ld	s0, 32(sp)
	ld	ra, 40(sp)
	addi	sp, sp, 48
	ret
.Lfunc_end115:
	.size	_ZSt10__distanceIPKcENSt15iterator_traitsIT_E15difference_typeES3_S3_St26random_access_iterator_tag, .Lfunc_end115-_ZSt10__distanceIPKcENSt15iterator_traitsIT_E15difference_typeES3_S3_St26random_access_iterator_tag
                                        # -- End function
	.section	.text._ZSt19__iterator_categoryIPKcENSt15iterator_traitsIT_E17iterator_categoryERKS3_,"axG",@progbits,_ZSt19__iterator_categoryIPKcENSt15iterator_traitsIT_E17iterator_categoryERKS3_,comdat
	.weak	_ZSt19__iterator_categoryIPKcENSt15iterator_traitsIT_E17iterator_categoryERKS3_ # -- Begin function _ZSt19__iterator_categoryIPKcENSt15iterator_traitsIT_E17iterator_categoryERKS3_
	.p2align	2
	.type	_ZSt19__iterator_categoryIPKcENSt15iterator_traitsIT_E17iterator_categoryERKS3_,@function
_ZSt19__iterator_categoryIPKcENSt15iterator_traitsIT_E17iterator_categoryERKS3_: # @_ZSt19__iterator_categoryIPKcENSt15iterator_traitsIT_E17iterator_categoryERKS3_
# %bb.0:                                # %entry
	addi	sp, sp, -32
	sd	ra, 24(sp)
	sd	s0, 16(sp)
	addi	s0, sp, 32
	sd	a0, -24(s0)
	ld	s0, 16(sp)
	ld	ra, 24(sp)
	addi	sp, sp, 32
	ret
.Lfunc_end116:
	.size	_ZSt19__iterator_categoryIPKcENSt15iterator_traitsIT_E17iterator_categoryERKS3_, .Lfunc_end116-_ZSt19__iterator_categoryIPKcENSt15iterator_traitsIT_E17iterator_categoryERKS3_
                                        # -- End function
	.section	.text._ZN9__gnu_cxx11char_traitsIcE6lengthEPKc,"axG",@progbits,_ZN9__gnu_cxx11char_traitsIcE6lengthEPKc,comdat
	.weak	_ZN9__gnu_cxx11char_traitsIcE6lengthEPKc # -- Begin function _ZN9__gnu_cxx11char_traitsIcE6lengthEPKc
	.p2align	2
	.type	_ZN9__gnu_cxx11char_traitsIcE6lengthEPKc,@function
_ZN9__gnu_cxx11char_traitsIcE6lengthEPKc: # @_ZN9__gnu_cxx11char_traitsIcE6lengthEPKc
	.cfi_startproc
# %bb.0:                                # %entry
	addi	sp, sp, -48
	.cfi_def_cfa_offset 48
	sd	ra, 40(sp)
	sd	s0, 32(sp)
	.cfi_offset ra, -8
	.cfi_offset s0, -16
	addi	s0, sp, 48
	.cfi_def_cfa s0, 0
	sd	a0, -24(s0)
	sd	zero, -32(s0)
	j	.LBB117_1
.LBB117_1:                              # %while.cond
                                        # =>This Inner Loop Header: Depth=1
	ld	a0, -24(s0)
	ld	a1, -32(s0)
	add	a0, a0, a1
	sb	zero, -33(s0)
	addi	a1, s0, -33
	call	_ZN9__gnu_cxx11char_traitsIcE2eqERKcS3_
	bnez	a0, .LBB117_3
	j	.LBB117_2
.LBB117_2:                              # %while.body
                                        #   in Loop: Header=BB117_1 Depth=1
	ld	a0, -32(s0)
	addi	a0, a0, 1
	sd	a0, -32(s0)
	j	.LBB117_1
.LBB117_3:                              # %while.end
	ld	a0, -32(s0)
	ld	s0, 32(sp)
	.cfi_def_cfa sp, 48
	ld	ra, 40(sp)
	.cfi_restore ra
	.cfi_restore s0
	addi	sp, sp, 48
	.cfi_def_cfa_offset 0
	ret
.Lfunc_end117:
	.size	_ZN9__gnu_cxx11char_traitsIcE6lengthEPKc, .Lfunc_end117-_ZN9__gnu_cxx11char_traitsIcE6lengthEPKc
	.cfi_endproc
                                        # -- End function
	.section	.text._ZN9__gnu_cxx11char_traitsIcE2eqERKcS3_,"axG",@progbits,_ZN9__gnu_cxx11char_traitsIcE2eqERKcS3_,comdat
	.weak	_ZN9__gnu_cxx11char_traitsIcE2eqERKcS3_ # -- Begin function _ZN9__gnu_cxx11char_traitsIcE2eqERKcS3_
	.p2align	2
	.type	_ZN9__gnu_cxx11char_traitsIcE2eqERKcS3_,@function
_ZN9__gnu_cxx11char_traitsIcE2eqERKcS3_: # @_ZN9__gnu_cxx11char_traitsIcE2eqERKcS3_
# %bb.0:                                # %entry
	addi	sp, sp, -32
	sd	ra, 24(sp)
	sd	s0, 16(sp)
	addi	s0, sp, 32
	sd	a0, -24(s0)
	sd	a1, -32(s0)
	ld	a0, -24(s0)
	lbu	a0, 0(a0)
	ld	a1, -32(s0)
	lbu	a1, 0(a1)
	xor	a0, a0, a1
	seqz	a0, a0
	ld	s0, 16(sp)
	ld	ra, 24(sp)
	addi	sp, sp, 32
	ret
.Lfunc_end118:
	.size	_ZN9__gnu_cxx11char_traitsIcE2eqERKcS3_, .Lfunc_end118-_ZN9__gnu_cxx11char_traitsIcE2eqERKcS3_
                                        # -- End function
	.section	.text._ZNSt23mersenne_twister_engineImLm64ELm312ELm156ELm31ELm13043109905998158313ELm29ELm6148914691236517205ELm17ELm8202884508482404352ELm37ELm18444473444759240704ELm43ELm6364136223846793005EE4seedEm,"axG",@progbits,_ZNSt23mersenne_twister_engineImLm64ELm312ELm156ELm31ELm13043109905998158313ELm29ELm6148914691236517205ELm17ELm8202884508482404352ELm37ELm18444473444759240704ELm43ELm6364136223846793005EE4seedEm,comdat
	.weak	_ZNSt23mersenne_twister_engineImLm64ELm312ELm156ELm31ELm13043109905998158313ELm29ELm6148914691236517205ELm17ELm8202884508482404352ELm37ELm18444473444759240704ELm43ELm6364136223846793005EE4seedEm # -- Begin function _ZNSt23mersenne_twister_engineImLm64ELm312ELm156ELm31ELm13043109905998158313ELm29ELm6148914691236517205ELm17ELm8202884508482404352ELm37ELm18444473444759240704ELm43ELm6364136223846793005EE4seedEm
	.p2align	2
	.type	_ZNSt23mersenne_twister_engineImLm64ELm312ELm156ELm31ELm13043109905998158313ELm29ELm6148914691236517205ELm17ELm8202884508482404352ELm37ELm18444473444759240704ELm43ELm6364136223846793005EE4seedEm,@function
_ZNSt23mersenne_twister_engineImLm64ELm312ELm156ELm31ELm13043109905998158313ELm29ELm6148914691236517205ELm17ELm8202884508482404352ELm37ELm18444473444759240704ELm43ELm6364136223846793005EE4seedEm: # @_ZNSt23mersenne_twister_engineImLm64ELm312ELm156ELm31ELm13043109905998158313ELm29ELm6148914691236517205ELm17ELm8202884508482404352ELm37ELm18444473444759240704ELm43ELm6364136223846793005EE4seedEm
	.cfi_startproc
# %bb.0:                                # %entry
	addi	sp, sp, -64
	.cfi_def_cfa_offset 64
	sd	ra, 56(sp)
	sd	s0, 48(sp)
	sd	s1, 40(sp)
	.cfi_offset ra, -8
	.cfi_offset s0, -16
	.cfi_offset s1, -24
	addi	s0, sp, 64
	.cfi_def_cfa s0, 0
	sd	a0, -32(s0)
	sd	a1, -40(s0)
	ld	s1, -32(s0)
	ld	a0, -40(s0)
	call	_ZNSt8__detail5__modImLm0ELm1ELm0EEET_S1_
	sd	a0, 0(s1)
	addi	a0, zero, 1
	sd	a0, -48(s0)
	j	.LBB119_1
.LBB119_1:                              # %for.cond
                                        # =>This Inner Loop Header: Depth=1
	ld	a0, -48(s0)
	addi	a1, zero, 311
	bltu	a1, a0, .LBB119_4
	j	.LBB119_2
.LBB119_2:                              # %for.body
                                        #   in Loop: Header=BB119_1 Depth=1
	ld	a0, -48(s0)
	slli	a0, a0, 3
	add	a0, a0, s1
	ld	a0, -8(a0)
	sd	a0, -56(s0)
	ld	a0, -56(s0)
	srli	a1, a0, 62
	xor	a0, a0, a1
	sd	a0, -56(s0)
	ld	a0, -56(s0)
	lui	a1, 353
	addiw	a1, a1, 1149
	slli	a1, a1, 14
	addi	a1, a1, 725
	slli	a1, a1, 13
	addi	a1, a1, -1749
	slli	a1, a1, 15
	addi	a1, a1, -211
	mul	a0, a0, a1
	sd	a0, -56(s0)
	ld	a0, -48(s0)
	call	_ZNSt8__detail5__modImLm312ELm1ELm0EEET_S1_
	ld	a1, -56(s0)
	add	a0, a1, a0
	sd	a0, -56(s0)
	ld	a0, -56(s0)
	call	_ZNSt8__detail5__modImLm0ELm1ELm0EEET_S1_
	ld	a1, -48(s0)
	slli	a1, a1, 3
	add	a1, s1, a1
	sd	a0, 0(a1)
	j	.LBB119_3
.LBB119_3:                              # %for.inc
                                        #   in Loop: Header=BB119_1 Depth=1
	ld	a0, -48(s0)
	addi	a0, a0, 1
	sd	a0, -48(s0)
	j	.LBB119_1
.LBB119_4:                              # %for.end
	lui	a0, 1
	addiw	a0, a0, -1600
	add	a0, s1, a0
	addi	a1, zero, 312
	sd	a1, 0(a0)
	ld	s1, 40(sp)
	ld	s0, 48(sp)
	.cfi_def_cfa sp, 64
	ld	ra, 56(sp)
	.cfi_restore ra
	.cfi_restore s0
	.cfi_restore s1
	addi	sp, sp, 64
	.cfi_def_cfa_offset 0
	ret
.Lfunc_end119:
	.size	_ZNSt23mersenne_twister_engineImLm64ELm312ELm156ELm31ELm13043109905998158313ELm29ELm6148914691236517205ELm17ELm8202884508482404352ELm37ELm18444473444759240704ELm43ELm6364136223846793005EE4seedEm, .Lfunc_end119-_ZNSt23mersenne_twister_engineImLm64ELm312ELm156ELm31ELm13043109905998158313ELm29ELm6148914691236517205ELm17ELm8202884508482404352ELm37ELm18444473444759240704ELm43ELm6364136223846793005EE4seedEm
	.cfi_endproc
                                        # -- End function
	.section	.text._ZNSt8__detail5__modImLm0ELm1ELm0EEET_S1_,"axG",@progbits,_ZNSt8__detail5__modImLm0ELm1ELm0EEET_S1_,comdat
	.weak	_ZNSt8__detail5__modImLm0ELm1ELm0EEET_S1_ # -- Begin function _ZNSt8__detail5__modImLm0ELm1ELm0EEET_S1_
	.p2align	2
	.type	_ZNSt8__detail5__modImLm0ELm1ELm0EEET_S1_,@function
_ZNSt8__detail5__modImLm0ELm1ELm0EEET_S1_: # @_ZNSt8__detail5__modImLm0ELm1ELm0EEET_S1_
	.cfi_startproc
# %bb.0:                                # %entry
	addi	sp, sp, -32
	.cfi_def_cfa_offset 32
	sd	ra, 24(sp)
	sd	s0, 16(sp)
	.cfi_offset ra, -8
	.cfi_offset s0, -16
	addi	s0, sp, 32
	.cfi_def_cfa s0, 0
	sd	a0, -24(s0)
	addi	a0, zero, 1
	sd	a0, -32(s0)
	ld	a0, -24(s0)
	call	_ZNSt8__detail4_ModImLm0ELm1ELm0ELb1ELb0EE6__calcEm
	ld	s0, 16(sp)
	.cfi_def_cfa sp, 32
	ld	ra, 24(sp)
	.cfi_restore ra
	.cfi_restore s0
	addi	sp, sp, 32
	.cfi_def_cfa_offset 0
	ret
.Lfunc_end120:
	.size	_ZNSt8__detail5__modImLm0ELm1ELm0EEET_S1_, .Lfunc_end120-_ZNSt8__detail5__modImLm0ELm1ELm0EEET_S1_
	.cfi_endproc
                                        # -- End function
	.section	.text._ZNSt8__detail5__modImLm312ELm1ELm0EEET_S1_,"axG",@progbits,_ZNSt8__detail5__modImLm312ELm1ELm0EEET_S1_,comdat
	.weak	_ZNSt8__detail5__modImLm312ELm1ELm0EEET_S1_ # -- Begin function _ZNSt8__detail5__modImLm312ELm1ELm0EEET_S1_
	.p2align	2
	.type	_ZNSt8__detail5__modImLm312ELm1ELm0EEET_S1_,@function
_ZNSt8__detail5__modImLm312ELm1ELm0EEET_S1_: # @_ZNSt8__detail5__modImLm312ELm1ELm0EEET_S1_
	.cfi_startproc
# %bb.0:                                # %entry
	addi	sp, sp, -32
	.cfi_def_cfa_offset 32
	sd	ra, 24(sp)
	sd	s0, 16(sp)
	.cfi_offset ra, -8
	.cfi_offset s0, -16
	addi	s0, sp, 32
	.cfi_def_cfa s0, 0
	sd	a0, -24(s0)
	addi	a0, zero, 1
	sd	a0, -32(s0)
	ld	a0, -24(s0)
	call	_ZNSt8__detail4_ModImLm312ELm1ELm0ELb1ELb1EE6__calcEm
	ld	s0, 16(sp)
	.cfi_def_cfa sp, 32
	ld	ra, 24(sp)
	.cfi_restore ra
	.cfi_restore s0
	addi	sp, sp, 32
	.cfi_def_cfa_offset 0
	ret
.Lfunc_end121:
	.size	_ZNSt8__detail5__modImLm312ELm1ELm0EEET_S1_, .Lfunc_end121-_ZNSt8__detail5__modImLm312ELm1ELm0EEET_S1_
	.cfi_endproc
                                        # -- End function
	.section	.text._ZNSt8__detail4_ModImLm0ELm1ELm0ELb1ELb0EE6__calcEm,"axG",@progbits,_ZNSt8__detail4_ModImLm0ELm1ELm0ELb1ELb0EE6__calcEm,comdat
	.weak	_ZNSt8__detail4_ModImLm0ELm1ELm0ELb1ELb0EE6__calcEm # -- Begin function _ZNSt8__detail4_ModImLm0ELm1ELm0ELb1ELb0EE6__calcEm
	.p2align	2
	.type	_ZNSt8__detail4_ModImLm0ELm1ELm0ELb1ELb0EE6__calcEm,@function
_ZNSt8__detail4_ModImLm0ELm1ELm0ELb1ELb0EE6__calcEm: # @_ZNSt8__detail4_ModImLm0ELm1ELm0ELb1ELb0EE6__calcEm
# %bb.0:                                # %entry
	addi	sp, sp, -32
	sd	ra, 24(sp)
	sd	s0, 16(sp)
	addi	s0, sp, 32
	sd	a0, -24(s0)
	ld	a0, -24(s0)
	sd	a0, -32(s0)
	ld	a0, -32(s0)
	ld	s0, 16(sp)
	ld	ra, 24(sp)
	addi	sp, sp, 32
	ret
.Lfunc_end122:
	.size	_ZNSt8__detail4_ModImLm0ELm1ELm0ELb1ELb0EE6__calcEm, .Lfunc_end122-_ZNSt8__detail4_ModImLm0ELm1ELm0ELb1ELb0EE6__calcEm
                                        # -- End function
	.section	.text._ZNSt8__detail4_ModImLm312ELm1ELm0ELb1ELb1EE6__calcEm,"axG",@progbits,_ZNSt8__detail4_ModImLm312ELm1ELm0ELb1ELb1EE6__calcEm,comdat
	.weak	_ZNSt8__detail4_ModImLm312ELm1ELm0ELb1ELb1EE6__calcEm # -- Begin function _ZNSt8__detail4_ModImLm312ELm1ELm0ELb1ELb1EE6__calcEm
	.p2align	2
	.type	_ZNSt8__detail4_ModImLm312ELm1ELm0ELb1ELb1EE6__calcEm,@function
_ZNSt8__detail4_ModImLm312ELm1ELm0ELb1ELb1EE6__calcEm: # @_ZNSt8__detail4_ModImLm312ELm1ELm0ELb1ELb1EE6__calcEm
# %bb.0:                                # %entry
	addi	sp, sp, -32
	sd	ra, 24(sp)
	sd	s0, 16(sp)
	addi	s0, sp, 32
	sd	a0, -24(s0)
	ld	a0, -24(s0)
	sd	a0, -32(s0)
	ld	a0, -32(s0)
	srli	a1, a0, 3
	lui	a2, 3361
	addiw	a2, a2, -735
	slli	a2, a2, 12
	addi	a2, a2, -735
	slli	a2, a2, 12
	addi	a2, a2, -735
	slli	a2, a2, 12
	addi	a2, a2, -735
	mulhu	a1, a1, a2
	srli	a1, a1, 1
	addi	a2, zero, 312
	mul	a1, a1, a2
	sub	a0, a0, a1
	sd	a0, -32(s0)
	ld	a0, -32(s0)
	ld	s0, 16(sp)
	ld	ra, 24(sp)
	addi	sp, sp, 32
	ret
.Lfunc_end123:
	.size	_ZNSt8__detail4_ModImLm312ELm1ELm0ELb1ELb1EE6__calcEm, .Lfunc_end123-_ZNSt8__detail4_ModImLm312ELm1ELm0ELb1ELb1EE6__calcEm
                                        # -- End function
	.section	.text._ZNK8nlohmann10basic_jsonISt3mapSt6vectorNSt7__cxx1112basic_stringIcSt11char_traitsIcESaIcEEEblmdSaNS_14adl_serializerEE4findIRS8_EENS_6detail9iter_implIKSA_EEOT_,"axG",@progbits,_ZNK8nlohmann10basic_jsonISt3mapSt6vectorNSt7__cxx1112basic_stringIcSt11char_traitsIcESaIcEEEblmdSaNS_14adl_serializerEE4findIRS8_EENS_6detail9iter_implIKSA_EEOT_,comdat
	.weak	_ZNK8nlohmann10basic_jsonISt3mapSt6vectorNSt7__cxx1112basic_stringIcSt11char_traitsIcESaIcEEEblmdSaNS_14adl_serializerEE4findIRS8_EENS_6detail9iter_implIKSA_EEOT_ # -- Begin function _ZNK8nlohmann10basic_jsonISt3mapSt6vectorNSt7__cxx1112basic_stringIcSt11char_traitsIcESaIcEEEblmdSaNS_14adl_serializerEE4findIRS8_EENS_6detail9iter_implIKSA_EEOT_
	.p2align	2
	.type	_ZNK8nlohmann10basic_jsonISt3mapSt6vectorNSt7__cxx1112basic_stringIcSt11char_traitsIcESaIcEEEblmdSaNS_14adl_serializerEE4findIRS8_EENS_6detail9iter_implIKSA_EEOT_,@function
_ZNK8nlohmann10basic_jsonISt3mapSt6vectorNSt7__cxx1112basic_stringIcSt11char_traitsIcESaIcEEEblmdSaNS_14adl_serializerEE4findIRS8_EENS_6detail9iter_implIKSA_EEOT_: # @_ZNK8nlohmann10basic_jsonISt3mapSt6vectorNSt7__cxx1112basic_stringIcSt11char_traitsIcESaIcEEEblmdSaNS_14adl_serializerEE4findIRS8_EENS_6detail9iter_implIKSA_EEOT_
	.cfi_startproc
# %bb.0:                                # %entry
	addi	sp, sp, -64
	.cfi_def_cfa_offset 64
	sd	ra, 56(sp)
	sd	s0, 48(sp)
	sd	s1, 40(sp)
	sd	s2, 32(sp)
	.cfi_offset ra, -8
	.cfi_offset s0, -16
	.cfi_offset s1, -24
	.cfi_offset s2, -32
	addi	s0, sp, 64
	.cfi_def_cfa s0, 0
	mv	s2, a0
	sd	s2, -40(s0)
	sd	a1, -48(s0)
	sd	a2, -56(s0)
	ld	s1, -48(s0)
	mv	a0, s2
	mv	a1, s1
	call	_ZNK8nlohmann10basic_jsonISt3mapSt6vectorNSt7__cxx1112basic_stringIcSt11char_traitsIcESaIcEEEblmdSaNS_14adl_serializerEE4cendEv
	mv	a0, s1
	call	_ZNK8nlohmann10basic_jsonISt3mapSt6vectorNSt7__cxx1112basic_stringIcSt11char_traitsIcESaIcEEEblmdSaNS_14adl_serializerEE9is_objectEv
	beqz	a0, .LBB124_2
	j	.LBB124_1
.LBB124_1:                              # %if.then
	ld	s1, 8(s1)
	ld	a0, -56(s0)
	call	_ZSt7forwardIRNSt7__cxx1112basic_stringIcSt11char_traitsIcESaIcEEEEOT_RNSt16remove_referenceIS7_E4typeE
	mv	a1, a0
	mv	a0, s1
	call	_ZNSt3mapINSt7__cxx1112basic_stringIcSt11char_traitsIcESaIcEEEN8nlohmann10basic_jsonIS_St6vectorS5_blmdSaNS6_14adl_serializerEEESt4lessIvESaISt4pairIKS5_SA_EEE4findERSE_
	sd	a0, -64(s0)
	ld	a0, -64(s0)
	sd	a0, 8(s2)
	j	.LBB124_2
.LBB124_2:                              # %if.end
	ld	s2, 32(sp)
	ld	s1, 40(sp)
	ld	s0, 48(sp)
	.cfi_def_cfa sp, 64
	ld	ra, 56(sp)
	.cfi_restore ra
	.cfi_restore s0
	.cfi_restore s1
	.cfi_restore s2
	addi	sp, sp, 64
	.cfi_def_cfa_offset 0
	ret
.Lfunc_end124:
	.size	_ZNK8nlohmann10basic_jsonISt3mapSt6vectorNSt7__cxx1112basic_stringIcSt11char_traitsIcESaIcEEEblmdSaNS_14adl_serializerEE4findIRS8_EENS_6detail9iter_implIKSA_EEOT_, .Lfunc_end124-_ZNK8nlohmann10basic_jsonISt3mapSt6vectorNSt7__cxx1112basic_stringIcSt11char_traitsIcESaIcEEEblmdSaNS_14adl_serializerEE4findIRS8_EENS_6detail9iter_implIKSA_EEOT_
	.cfi_endproc
                                        # -- End function
	.section	.text._ZNK8nlohmann6detail9iter_implIKNS_10basic_jsonISt3mapSt6vectorNSt7__cxx1112basic_stringIcSt11char_traitsIcESaIcEEEblmdSaNS_14adl_serializerEEEEneERKSE_,"axG",@progbits,_ZNK8nlohmann6detail9iter_implIKNS_10basic_jsonISt3mapSt6vectorNSt7__cxx1112basic_stringIcSt11char_traitsIcESaIcEEEblmdSaNS_14adl_serializerEEEEneERKSE_,comdat
	.weak	_ZNK8nlohmann6detail9iter_implIKNS_10basic_jsonISt3mapSt6vectorNSt7__cxx1112basic_stringIcSt11char_traitsIcESaIcEEEblmdSaNS_14adl_serializerEEEEneERKSE_ # -- Begin function _ZNK8nlohmann6detail9iter_implIKNS_10basic_jsonISt3mapSt6vectorNSt7__cxx1112basic_stringIcSt11char_traitsIcESaIcEEEblmdSaNS_14adl_serializerEEEEneERKSE_
	.p2align	2
	.type	_ZNK8nlohmann6detail9iter_implIKNS_10basic_jsonISt3mapSt6vectorNSt7__cxx1112basic_stringIcSt11char_traitsIcESaIcEEEblmdSaNS_14adl_serializerEEEEneERKSE_,@function
_ZNK8nlohmann6detail9iter_implIKNS_10basic_jsonISt3mapSt6vectorNSt7__cxx1112basic_stringIcSt11char_traitsIcESaIcEEEblmdSaNS_14adl_serializerEEEEneERKSE_: # @_ZNK8nlohmann6detail9iter_implIKNS_10basic_jsonISt3mapSt6vectorNSt7__cxx1112basic_stringIcSt11char_traitsIcESaIcEEEblmdSaNS_14adl_serializerEEEEneERKSE_
	.cfi_startproc
# %bb.0:                                # %entry
	addi	sp, sp, -32
	.cfi_def_cfa_offset 32
	sd	ra, 24(sp)
	sd	s0, 16(sp)
	.cfi_offset ra, -8
	.cfi_offset s0, -16
	addi	s0, sp, 32
	.cfi_def_cfa s0, 0
	sd	a0, -24(s0)
	sd	a1, -32(s0)
	ld	a0, -24(s0)
	ld	a1, -32(s0)
	call	_ZNK8nlohmann6detail9iter_implIKNS_10basic_jsonISt3mapSt6vectorNSt7__cxx1112basic_stringIcSt11char_traitsIcESaIcEEEblmdSaNS_14adl_serializerEEEEeqERKSE_
	xori	a0, a0, 1
	ld	s0, 16(sp)
	.cfi_def_cfa sp, 32
	ld	ra, 24(sp)
	.cfi_restore ra
	.cfi_restore s0
	addi	sp, sp, 32
	.cfi_def_cfa_offset 0
	ret
.Lfunc_end125:
	.size	_ZNK8nlohmann6detail9iter_implIKNS_10basic_jsonISt3mapSt6vectorNSt7__cxx1112basic_stringIcSt11char_traitsIcESaIcEEEblmdSaNS_14adl_serializerEEEEneERKSE_, .Lfunc_end125-_ZNK8nlohmann6detail9iter_implIKNS_10basic_jsonISt3mapSt6vectorNSt7__cxx1112basic_stringIcSt11char_traitsIcESaIcEEEblmdSaNS_14adl_serializerEEEEneERKSE_
	.cfi_endproc
                                        # -- End function
	.section	.text._ZNK8nlohmann10basic_jsonISt3mapSt6vectorNSt7__cxx1112basic_stringIcSt11char_traitsIcESaIcEEEblmdSaNS_14adl_serializerEE3endEv,"axG",@progbits,_ZNK8nlohmann10basic_jsonISt3mapSt6vectorNSt7__cxx1112basic_stringIcSt11char_traitsIcESaIcEEEblmdSaNS_14adl_serializerEE3endEv,comdat
	.weak	_ZNK8nlohmann10basic_jsonISt3mapSt6vectorNSt7__cxx1112basic_stringIcSt11char_traitsIcESaIcEEEblmdSaNS_14adl_serializerEE3endEv # -- Begin function _ZNK8nlohmann10basic_jsonISt3mapSt6vectorNSt7__cxx1112basic_stringIcSt11char_traitsIcESaIcEEEblmdSaNS_14adl_serializerEE3endEv
	.p2align	2
	.type	_ZNK8nlohmann10basic_jsonISt3mapSt6vectorNSt7__cxx1112basic_stringIcSt11char_traitsIcESaIcEEEblmdSaNS_14adl_serializerEE3endEv,@function
_ZNK8nlohmann10basic_jsonISt3mapSt6vectorNSt7__cxx1112basic_stringIcSt11char_traitsIcESaIcEEEblmdSaNS_14adl_serializerEE3endEv: # @_ZNK8nlohmann10basic_jsonISt3mapSt6vectorNSt7__cxx1112basic_stringIcSt11char_traitsIcESaIcEEEblmdSaNS_14adl_serializerEE3endEv
# %bb.0:                                # %entry
	addi	sp, sp, -32
	sd	ra, 24(sp)
	sd	s0, 16(sp)
	addi	s0, sp, 32
	sd	a0, -24(s0)
	sd	a1, -32(s0)
	ld	a1, -32(s0)
	call	_ZNK8nlohmann10basic_jsonISt3mapSt6vectorNSt7__cxx1112basic_stringIcSt11char_traitsIcESaIcEEEblmdSaNS_14adl_serializerEE4cendEv
	ld	s0, 16(sp)
	ld	ra, 24(sp)
	addi	sp, sp, 32
	ret
.Lfunc_end126:
	.size	_ZNK8nlohmann10basic_jsonISt3mapSt6vectorNSt7__cxx1112basic_stringIcSt11char_traitsIcESaIcEEEblmdSaNS_14adl_serializerEE3endEv, .Lfunc_end126-_ZNK8nlohmann10basic_jsonISt3mapSt6vectorNSt7__cxx1112basic_stringIcSt11char_traitsIcESaIcEEEblmdSaNS_14adl_serializerEE3endEv
                                        # -- End function
	.section	.text._ZNK8nlohmann10basic_jsonISt3mapSt6vectorNSt7__cxx1112basic_stringIcSt11char_traitsIcESaIcEEEblmdSaNS_14adl_serializerEE2atERKS8_,"axG",@progbits,_ZNK8nlohmann10basic_jsonISt3mapSt6vectorNSt7__cxx1112basic_stringIcSt11char_traitsIcESaIcEEEblmdSaNS_14adl_serializerEE2atERKS8_,comdat
	.weak	_ZNK8nlohmann10basic_jsonISt3mapSt6vectorNSt7__cxx1112basic_stringIcSt11char_traitsIcESaIcEEEblmdSaNS_14adl_serializerEE2atERKS8_ # -- Begin function _ZNK8nlohmann10basic_jsonISt3mapSt6vectorNSt7__cxx1112basic_stringIcSt11char_traitsIcESaIcEEEblmdSaNS_14adl_serializerEE2atERKS8_
	.p2align	2
	.type	_ZNK8nlohmann10basic_jsonISt3mapSt6vectorNSt7__cxx1112basic_stringIcSt11char_traitsIcESaIcEEEblmdSaNS_14adl_serializerEE2atERKS8_,@function
_ZNK8nlohmann10basic_jsonISt3mapSt6vectorNSt7__cxx1112basic_stringIcSt11char_traitsIcESaIcEEEblmdSaNS_14adl_serializerEE2atERKS8_: # @_ZNK8nlohmann10basic_jsonISt3mapSt6vectorNSt7__cxx1112basic_stringIcSt11char_traitsIcESaIcEEEblmdSaNS_14adl_serializerEE2atERKS8_
.Lfunc_begin10:
	.cfi_startproc
	.cfi_personality 155, DW.ref.__gxx_personality_v0
	.cfi_lsda 27, .Lexception10
# %bb.0:                                # %entry
	addi	sp, sp, -240
	.cfi_def_cfa_offset 240
	sd	ra, 232(sp)
	sd	s0, 224(sp)
	sd	s1, 216(sp)
	sd	s2, 208(sp)
	sd	s3, 200(sp)
	.cfi_offset ra, -8
	.cfi_offset s0, -16
	.cfi_offset s1, -24
	.cfi_offset s2, -32
	.cfi_offset s3, -40
	addi	s0, sp, 240
	.cfi_def_cfa s0, 0
	sd	a0, -48(s0)
	sd	a1, -56(s0)
	ld	s1, -48(s0)
	mv	a0, s1
	call	_ZNK8nlohmann10basic_jsonISt3mapSt6vectorNSt7__cxx1112basic_stringIcSt11char_traitsIcESaIcEEEblmdSaNS_14adl_serializerEE9is_objectEv
	beqz	a0, .LBB127_17
	j	.LBB127_1
.LBB127_1:                              # %if.then
	ld	a0, 8(s1)
	ld	a1, -56(s0)
.Ltmp77:
	call	_ZNSt3mapINSt7__cxx1112basic_stringIcSt11char_traitsIcESaIcEEEN8nlohmann10basic_jsonIS_St6vectorS5_blmdSaNS6_14adl_serializerEEESt4lessIvESaISt4pairIKS5_SA_EEE2atERSE_
.Ltmp78:
	j	.LBB127_2
.LBB127_2:                              # %invoke.cont
	ld	s3, 200(sp)
	ld	s2, 208(sp)
	ld	s1, 216(sp)
	ld	s0, 224(sp)
	.cfi_def_cfa sp, 240
	ld	ra, 232(sp)
	.cfi_restore ra
	.cfi_restore s0
	.cfi_restore s1
	.cfi_restore s2
	.cfi_restore s3
	addi	sp, sp, 240
	.cfi_def_cfa_offset 0
	ret
.LBB127_3:                              # %lpad
.Ltmp79:
	sd	a0, -64(s0)
	sw	a1, -68(s0)
	j	.LBB127_4
.LBB127_4:                              # %catch.dispatch
	lw	a0, -68(s0)
	addi	a1, zero, 1
	bne	a0, a1, .LBB127_28
	j	.LBB127_5
.LBB127_5:                              # %catch
	ld	a0, -64(s0)
	call	__cxa_begin_catch
	sd	a0, -80(s0)
	addi	a0, zero, 32
	call	__cxa_allocate_exception
	mv	s1, a0
	addi	a0, zero, 1
	sb	a0, -145(s0)
	ld	a2, -56(s0)
.Ltmp80:
	lui	a0, %hi(.L.str.9)
	addi	a1, a0, %lo(.L.str.9)
	addi	a0, s0, -144
	call	_ZStplIcSt11char_traitsIcESaIcEENSt7__cxx1112basic_stringIT_T0_T1_EEPKS5_RKS8_
.Ltmp81:
	j	.LBB127_6
.LBB127_6:                              # %invoke.cont6
.Ltmp83:
	lui	a0, %hi(.L.str.10)
	addi	a2, a0, %lo(.L.str.10)
	addi	a0, s0, -112
	addi	a1, s0, -144
	call	_ZStplIcSt11char_traitsIcESaIcEENSt7__cxx1112basic_stringIT_T0_T1_EEOS8_PKS5_
.Ltmp84:
	j	.LBB127_7
.LBB127_7:                              # %invoke.cont8
.Ltmp86:
	addi	a2, s0, -112
	mv	a0, s1
	addi	a1, zero, 403
	call	_ZN8nlohmann6detail12out_of_range6createEiRKNSt7__cxx1112basic_stringIcSt11char_traitsIcESaIcEEE
.Ltmp87:
	j	.LBB127_8
.LBB127_8:                              # %invoke.cont10
	sb	zero, -145(s0)
.Ltmp88:
	lui	a0, %hi(_ZTIN8nlohmann6detail12out_of_rangeE)
	addi	a1, a0, %lo(_ZTIN8nlohmann6detail12out_of_rangeE)
	lui	a0, %hi(_ZN8nlohmann6detail12out_of_rangeD2Ev)
	addi	a2, a0, %lo(_ZN8nlohmann6detail12out_of_rangeD2Ev)
	mv	a0, s1
	call	__cxa_throw
.Ltmp89:
	j	.LBB127_30
.LBB127_9:                              # %lpad5
.Ltmp82:
	sd	a0, -64(s0)
	sw	a1, -68(s0)
	j	.LBB127_13
.LBB127_10:                             # %lpad7
.Ltmp85:
	sd	a0, -64(s0)
	sw	a1, -68(s0)
	j	.LBB127_12
.LBB127_11:                             # %lpad9
.Ltmp90:
	sd	a0, -64(s0)
	sw	a1, -68(s0)
	addi	a0, s0, -112
	call	_ZNSt7__cxx1112basic_stringIcSt11char_traitsIcESaIcEED1Ev
	j	.LBB127_12
.LBB127_12:                             # %ehcleanup
	addi	a0, s0, -144
	call	_ZNSt7__cxx1112basic_stringIcSt11char_traitsIcESaIcEED1Ev
	j	.LBB127_13
.LBB127_13:                             # %ehcleanup11
	lbu	a0, -145(s0)
	beqz	a0, .LBB127_15
	j	.LBB127_14
.LBB127_14:                             # %cleanup.action
	mv	a0, s1
	call	__cxa_free_exception
	j	.LBB127_15
.LBB127_15:                             # %cleanup.done
.Ltmp91:
	call	__cxa_end_catch
.Ltmp92:
	j	.LBB127_16
.LBB127_16:                             # %invoke.cont13
	j	.LBB127_28
.LBB127_17:                             # %if.else
	addi	a0, zero, 32
	call	__cxa_allocate_exception
	mv	s2, a0
	addi	a0, zero, 1
	sb	a0, -225(s0)
	mv	a0, s1
	call	_ZNK8nlohmann10basic_jsonISt3mapSt6vectorNSt7__cxx1112basic_stringIcSt11char_traitsIcESaIcEEEblmdSaNS_14adl_serializerEE9type_nameEv
	mv	s1, a0
	addi	s3, s0, -224
	mv	a0, s3
	call	_ZNSaIcEC1Ev
.Ltmp66:
	addi	a0, s0, -216
	mv	a1, s1
	mv	a2, s3
	call	_ZNSt7__cxx1112basic_stringIcSt11char_traitsIcESaIcEEC2IS3_EEPKcRKS3_
.Ltmp67:
	j	.LBB127_18
.LBB127_18:                             # %invoke.cont20
.Ltmp69:
	lui	a0, %hi(.L.str.11)
	addi	a1, a0, %lo(.L.str.11)
	addi	a0, s0, -184
	addi	a2, s0, -216
	call	_ZStplIcSt11char_traitsIcESaIcEENSt7__cxx1112basic_stringIT_T0_T1_EEPKS5_OS8_
.Ltmp70:
	j	.LBB127_19
.LBB127_19:                             # %invoke.cont22
.Ltmp72:
	addi	a2, s0, -184
	mv	a0, s2
	addi	a1, zero, 304
	call	_ZN8nlohmann6detail10type_error6createEiRKNSt7__cxx1112basic_stringIcSt11char_traitsIcESaIcEEE
.Ltmp73:
	j	.LBB127_20
.LBB127_20:                             # %invoke.cont24
	sb	zero, -225(s0)
.Ltmp74:
	lui	a0, %hi(_ZTIN8nlohmann6detail10type_errorE)
	addi	a1, a0, %lo(_ZTIN8nlohmann6detail10type_errorE)
	lui	a0, %hi(_ZN8nlohmann6detail10type_errorD2Ev)
	addi	a2, a0, %lo(_ZN8nlohmann6detail10type_errorD2Ev)
	mv	a0, s2
	call	__cxa_throw
.Ltmp75:
	j	.LBB127_30
.LBB127_21:                             # %lpad19
.Ltmp68:
	sd	a0, -64(s0)
	sw	a1, -68(s0)
	j	.LBB127_25
.LBB127_22:                             # %lpad21
.Ltmp71:
	sd	a0, -64(s0)
	sw	a1, -68(s0)
	j	.LBB127_24
.LBB127_23:                             # %lpad23
.Ltmp76:
	sd	a0, -64(s0)
	sw	a1, -68(s0)
	addi	a0, s0, -184
	call	_ZNSt7__cxx1112basic_stringIcSt11char_traitsIcESaIcEED1Ev
	j	.LBB127_24
.LBB127_24:                             # %ehcleanup27
	addi	a0, s0, -216
	call	_ZNSt7__cxx1112basic_stringIcSt11char_traitsIcESaIcEED1Ev
	j	.LBB127_25
.LBB127_25:                             # %ehcleanup28
	addi	a0, s0, -224
	call	_ZNSaIcED1Ev
	lbu	a0, -225(s0)
	beqz	a0, .LBB127_27
	j	.LBB127_26
.LBB127_26:                             # %cleanup.action31
	mv	a0, s2
	call	__cxa_free_exception
	j	.LBB127_27
.LBB127_27:                             # %cleanup.done32
	j	.LBB127_28
.LBB127_28:                             # %eh.resume
	ld	a0, -64(s0)
	call	_Unwind_Resume
.LBB127_29:                             # %terminate.lpad
.Ltmp93:
	call	__clang_call_terminate
.LBB127_30:                             # %unreachable
.Lfunc_end127:
	.size	_ZNK8nlohmann10basic_jsonISt3mapSt6vectorNSt7__cxx1112basic_stringIcSt11char_traitsIcESaIcEEEblmdSaNS_14adl_serializerEE2atERKS8_, .Lfunc_end127-_ZNK8nlohmann10basic_jsonISt3mapSt6vectorNSt7__cxx1112basic_stringIcSt11char_traitsIcESaIcEEEblmdSaNS_14adl_serializerEE2atERKS8_
	.cfi_endproc
	.section	.gcc_except_table,"a",@progbits
	.p2align	2
GCC_except_table127:
.Lexception10:
	.byte	255                     # @LPStart Encoding = omit
	.byte	155                     # @TType Encoding = indirect pcrel sdata4
	.uleb128 .Lttbase5-.Lttbaseref5
.Lttbaseref5:
	.byte	3                       # Call site Encoding = udata4
	.uleb128 .Lcst_end10-.Lcst_begin10
.Lcst_begin10:
	.word	.Ltmp77-.Lfunc_begin10  # >> Call Site 1 <<
	.word	.Ltmp78-.Ltmp77         #   Call between .Ltmp77 and .Ltmp78
	.word	.Ltmp79-.Lfunc_begin10  #     jumps to .Ltmp79
	.byte	1                       #   On action: 1
	.word	.Ltmp78-.Lfunc_begin10  # >> Call Site 2 <<
	.word	.Ltmp80-.Ltmp78         #   Call between .Ltmp78 and .Ltmp80
	.word	0                       #     has no landing pad
	.byte	0                       #   On action: cleanup
	.word	.Ltmp80-.Lfunc_begin10  # >> Call Site 3 <<
	.word	.Ltmp81-.Ltmp80         #   Call between .Ltmp80 and .Ltmp81
	.word	.Ltmp82-.Lfunc_begin10  #     jumps to .Ltmp82
	.byte	0                       #   On action: cleanup
	.word	.Ltmp83-.Lfunc_begin10  # >> Call Site 4 <<
	.word	.Ltmp84-.Ltmp83         #   Call between .Ltmp83 and .Ltmp84
	.word	.Ltmp85-.Lfunc_begin10  #     jumps to .Ltmp85
	.byte	0                       #   On action: cleanup
	.word	.Ltmp86-.Lfunc_begin10  # >> Call Site 5 <<
	.word	.Ltmp89-.Ltmp86         #   Call between .Ltmp86 and .Ltmp89
	.word	.Ltmp90-.Lfunc_begin10  #     jumps to .Ltmp90
	.byte	0                       #   On action: cleanup
	.word	.Ltmp89-.Lfunc_begin10  # >> Call Site 6 <<
	.word	.Ltmp91-.Ltmp89         #   Call between .Ltmp89 and .Ltmp91
	.word	0                       #     has no landing pad
	.byte	0                       #   On action: cleanup
	.word	.Ltmp91-.Lfunc_begin10  # >> Call Site 7 <<
	.word	.Ltmp92-.Ltmp91         #   Call between .Ltmp91 and .Ltmp92
	.word	.Ltmp93-.Lfunc_begin10  #     jumps to .Ltmp93
	.byte	3                       #   On action: 2
	.word	.Ltmp92-.Lfunc_begin10  # >> Call Site 8 <<
	.word	.Ltmp66-.Ltmp92         #   Call between .Ltmp92 and .Ltmp66
	.word	0                       #     has no landing pad
	.byte	0                       #   On action: cleanup
	.word	.Ltmp66-.Lfunc_begin10  # >> Call Site 9 <<
	.word	.Ltmp67-.Ltmp66         #   Call between .Ltmp66 and .Ltmp67
	.word	.Ltmp68-.Lfunc_begin10  #     jumps to .Ltmp68
	.byte	0                       #   On action: cleanup
	.word	.Ltmp69-.Lfunc_begin10  # >> Call Site 10 <<
	.word	.Ltmp70-.Ltmp69         #   Call between .Ltmp69 and .Ltmp70
	.word	.Ltmp71-.Lfunc_begin10  #     jumps to .Ltmp71
	.byte	0                       #   On action: cleanup
	.word	.Ltmp72-.Lfunc_begin10  # >> Call Site 11 <<
	.word	.Ltmp75-.Ltmp72         #   Call between .Ltmp72 and .Ltmp75
	.word	.Ltmp76-.Lfunc_begin10  #     jumps to .Ltmp76
	.byte	0                       #   On action: cleanup
	.word	.Ltmp75-.Lfunc_begin10  # >> Call Site 12 <<
	.word	.Lfunc_end127-.Ltmp75   #   Call between .Ltmp75 and .Lfunc_end127
	.word	0                       #     has no landing pad
	.byte	0                       #   On action: cleanup
.Lcst_end10:
	.byte	1                       # >> Action Record 1 <<
                                        #   Catch TypeInfo 1
	.byte	0                       #   No further actions
	.byte	2                       # >> Action Record 2 <<
                                        #   Catch TypeInfo 2
	.byte	0                       #   No further actions
	.p2align	2
                                        # >> Catch TypeInfos <<
	.word	0                       # TypeInfo 2
.Ltmp94:                                # TypeInfo 1
	.word	.L_ZTISt12out_of_range.DW.stub-.Ltmp94
.Lttbase5:
	.p2align	2
                                        # -- End function
	.section	.text._ZNK8nlohmann10basic_jsonISt3mapSt6vectorNSt7__cxx1112basic_stringIcSt11char_traitsIcESaIcEEEblmdSaNS_14adl_serializerEE3getIiiLi0EEET0_v,"axG",@progbits,_ZNK8nlohmann10basic_jsonISt3mapSt6vectorNSt7__cxx1112basic_stringIcSt11char_traitsIcESaIcEEEblmdSaNS_14adl_serializerEE3getIiiLi0EEET0_v,comdat
	.weak	_ZNK8nlohmann10basic_jsonISt3mapSt6vectorNSt7__cxx1112basic_stringIcSt11char_traitsIcESaIcEEEblmdSaNS_14adl_serializerEE3getIiiLi0EEET0_v # -- Begin function _ZNK8nlohmann10basic_jsonISt3mapSt6vectorNSt7__cxx1112basic_stringIcSt11char_traitsIcESaIcEEEblmdSaNS_14adl_serializerEE3getIiiLi0EEET0_v
	.p2align	2
	.type	_ZNK8nlohmann10basic_jsonISt3mapSt6vectorNSt7__cxx1112basic_stringIcSt11char_traitsIcESaIcEEEblmdSaNS_14adl_serializerEE3getIiiLi0EEET0_v,@function
_ZNK8nlohmann10basic_jsonISt3mapSt6vectorNSt7__cxx1112basic_stringIcSt11char_traitsIcESaIcEEEblmdSaNS_14adl_serializerEE3getIiiLi0EEET0_v: # @_ZNK8nlohmann10basic_jsonISt3mapSt6vectorNSt7__cxx1112basic_stringIcSt11char_traitsIcESaIcEEEblmdSaNS_14adl_serializerEE3getIiiLi0EEET0_v
	.cfi_startproc
# %bb.0:                                # %entry
	addi	sp, sp, -32
	.cfi_def_cfa_offset 32
	sd	ra, 24(sp)
	sd	s0, 16(sp)
	.cfi_offset ra, -8
	.cfi_offset s0, -16
	addi	s0, sp, 32
	.cfi_def_cfa s0, 0
	sd	a0, -24(s0)
	ld	a0, -24(s0)
	addi	a1, s0, -28
	call	_ZN8nlohmann14adl_serializerIivE9from_jsonIRKNS_10basic_jsonISt3mapSt6vectorNSt7__cxx1112basic_stringIcSt11char_traitsIcESaIcEEEblmdSaS0_EEiEEDTcmclL_ZNS_12_GLOBAL__N_19from_jsonEEclsr3stdE7forwardIT_Efp_Efp0_Ecvv_EEOSG_RT0_
	lw	a0, -28(s0)
	ld	s0, 16(sp)
	.cfi_def_cfa sp, 32
	ld	ra, 24(sp)
	.cfi_restore ra
	.cfi_restore s0
	addi	sp, sp, 32
	.cfi_def_cfa_offset 0
	ret
.Lfunc_end128:
	.size	_ZNK8nlohmann10basic_jsonISt3mapSt6vectorNSt7__cxx1112basic_stringIcSt11char_traitsIcESaIcEEEblmdSaNS_14adl_serializerEE3getIiiLi0EEET0_v, .Lfunc_end128-_ZNK8nlohmann10basic_jsonISt3mapSt6vectorNSt7__cxx1112basic_stringIcSt11char_traitsIcESaIcEEEblmdSaNS_14adl_serializerEE3getIiiLi0EEET0_v
	.cfi_endproc
                                        # -- End function
	.section	.text._ZNK8nlohmann10basic_jsonISt3mapSt6vectorNSt7__cxx1112basic_stringIcSt11char_traitsIcESaIcEEEblmdSaNS_14adl_serializerEE4cendEv,"axG",@progbits,_ZNK8nlohmann10basic_jsonISt3mapSt6vectorNSt7__cxx1112basic_stringIcSt11char_traitsIcESaIcEEEblmdSaNS_14adl_serializerEE4cendEv,comdat
	.weak	_ZNK8nlohmann10basic_jsonISt3mapSt6vectorNSt7__cxx1112basic_stringIcSt11char_traitsIcESaIcEEEblmdSaNS_14adl_serializerEE4cendEv # -- Begin function _ZNK8nlohmann10basic_jsonISt3mapSt6vectorNSt7__cxx1112basic_stringIcSt11char_traitsIcESaIcEEEblmdSaNS_14adl_serializerEE4cendEv
	.p2align	2
	.type	_ZNK8nlohmann10basic_jsonISt3mapSt6vectorNSt7__cxx1112basic_stringIcSt11char_traitsIcESaIcEEEblmdSaNS_14adl_serializerEE4cendEv,@function
_ZNK8nlohmann10basic_jsonISt3mapSt6vectorNSt7__cxx1112basic_stringIcSt11char_traitsIcESaIcEEEblmdSaNS_14adl_serializerEE4cendEv: # @_ZNK8nlohmann10basic_jsonISt3mapSt6vectorNSt7__cxx1112basic_stringIcSt11char_traitsIcESaIcEEEblmdSaNS_14adl_serializerEE4cendEv
# %bb.0:                                # %entry
	addi	sp, sp, -48
	sd	ra, 40(sp)
	sd	s0, 32(sp)
	sd	s1, 24(sp)
	addi	s0, sp, 48
	mv	s1, a0
	sd	s1, -32(s0)
	sd	a1, -40(s0)
	ld	a1, -40(s0)
	mv	a0, s1
	call	_ZN8nlohmann6detail9iter_implIKNS_10basic_jsonISt3mapSt6vectorNSt7__cxx1112basic_stringIcSt11char_traitsIcESaIcEEEblmdSaNS_14adl_serializerEEEEC2EPSD_
	mv	a0, s1
	call	_ZN8nlohmann6detail9iter_implIKNS_10basic_jsonISt3mapSt6vectorNSt7__cxx1112basic_stringIcSt11char_traitsIcESaIcEEEblmdSaNS_14adl_serializerEEEE7set_endEv
	ld	s1, 24(sp)
	ld	s0, 32(sp)
	ld	ra, 40(sp)
	addi	sp, sp, 48
	ret
.Lfunc_end129:
	.size	_ZNK8nlohmann10basic_jsonISt3mapSt6vectorNSt7__cxx1112basic_stringIcSt11char_traitsIcESaIcEEEblmdSaNS_14adl_serializerEE4cendEv, .Lfunc_end129-_ZNK8nlohmann10basic_jsonISt3mapSt6vectorNSt7__cxx1112basic_stringIcSt11char_traitsIcESaIcEEEblmdSaNS_14adl_serializerEE4cendEv
                                        # -- End function
	.section	.text._ZNK8nlohmann10basic_jsonISt3mapSt6vectorNSt7__cxx1112basic_stringIcSt11char_traitsIcESaIcEEEblmdSaNS_14adl_serializerEE9is_objectEv,"axG",@progbits,_ZNK8nlohmann10basic_jsonISt3mapSt6vectorNSt7__cxx1112basic_stringIcSt11char_traitsIcESaIcEEEblmdSaNS_14adl_serializerEE9is_objectEv,comdat
	.weak	_ZNK8nlohmann10basic_jsonISt3mapSt6vectorNSt7__cxx1112basic_stringIcSt11char_traitsIcESaIcEEEblmdSaNS_14adl_serializerEE9is_objectEv # -- Begin function _ZNK8nlohmann10basic_jsonISt3mapSt6vectorNSt7__cxx1112basic_stringIcSt11char_traitsIcESaIcEEEblmdSaNS_14adl_serializerEE9is_objectEv
	.p2align	2
	.type	_ZNK8nlohmann10basic_jsonISt3mapSt6vectorNSt7__cxx1112basic_stringIcSt11char_traitsIcESaIcEEEblmdSaNS_14adl_serializerEE9is_objectEv,@function
_ZNK8nlohmann10basic_jsonISt3mapSt6vectorNSt7__cxx1112basic_stringIcSt11char_traitsIcESaIcEEEblmdSaNS_14adl_serializerEE9is_objectEv: # @_ZNK8nlohmann10basic_jsonISt3mapSt6vectorNSt7__cxx1112basic_stringIcSt11char_traitsIcESaIcEEEblmdSaNS_14adl_serializerEE9is_objectEv
# %bb.0:                                # %entry
	addi	sp, sp, -32
	sd	ra, 24(sp)
	sd	s0, 16(sp)
	addi	s0, sp, 32
	sd	a0, -24(s0)
	ld	a0, -24(s0)
	lbu	a0, 0(a0)
	xori	a0, a0, 1
	seqz	a0, a0
	ld	s0, 16(sp)
	ld	ra, 24(sp)
	addi	sp, sp, 32
	ret
.Lfunc_end130:
	.size	_ZNK8nlohmann10basic_jsonISt3mapSt6vectorNSt7__cxx1112basic_stringIcSt11char_traitsIcESaIcEEEblmdSaNS_14adl_serializerEE9is_objectEv, .Lfunc_end130-_ZNK8nlohmann10basic_jsonISt3mapSt6vectorNSt7__cxx1112basic_stringIcSt11char_traitsIcESaIcEEEblmdSaNS_14adl_serializerEE9is_objectEv
                                        # -- End function
	.section	.text._ZNSt3mapINSt7__cxx1112basic_stringIcSt11char_traitsIcESaIcEEEN8nlohmann10basic_jsonIS_St6vectorS5_blmdSaNS6_14adl_serializerEEESt4lessIvESaISt4pairIKS5_SA_EEE4findERSE_,"axG",@progbits,_ZNSt3mapINSt7__cxx1112basic_stringIcSt11char_traitsIcESaIcEEEN8nlohmann10basic_jsonIS_St6vectorS5_blmdSaNS6_14adl_serializerEEESt4lessIvESaISt4pairIKS5_SA_EEE4findERSE_,comdat
	.weak	_ZNSt3mapINSt7__cxx1112basic_stringIcSt11char_traitsIcESaIcEEEN8nlohmann10basic_jsonIS_St6vectorS5_blmdSaNS6_14adl_serializerEEESt4lessIvESaISt4pairIKS5_SA_EEE4findERSE_ # -- Begin function _ZNSt3mapINSt7__cxx1112basic_stringIcSt11char_traitsIcESaIcEEEN8nlohmann10basic_jsonIS_St6vectorS5_blmdSaNS6_14adl_serializerEEESt4lessIvESaISt4pairIKS5_SA_EEE4findERSE_
	.p2align	2
	.type	_ZNSt3mapINSt7__cxx1112basic_stringIcSt11char_traitsIcESaIcEEEN8nlohmann10basic_jsonIS_St6vectorS5_blmdSaNS6_14adl_serializerEEESt4lessIvESaISt4pairIKS5_SA_EEE4findERSE_,@function
_ZNSt3mapINSt7__cxx1112basic_stringIcSt11char_traitsIcESaIcEEEN8nlohmann10basic_jsonIS_St6vectorS5_blmdSaNS6_14adl_serializerEEESt4lessIvESaISt4pairIKS5_SA_EEE4findERSE_: # @_ZNSt3mapINSt7__cxx1112basic_stringIcSt11char_traitsIcESaIcEEEN8nlohmann10basic_jsonIS_St6vectorS5_blmdSaNS6_14adl_serializerEEESt4lessIvESaISt4pairIKS5_SA_EEE4findERSE_
	.cfi_startproc
# %bb.0:                                # %entry
	addi	sp, sp, -48
	.cfi_def_cfa_offset 48
	sd	ra, 40(sp)
	sd	s0, 32(sp)
	.cfi_offset ra, -8
	.cfi_offset s0, -16
	addi	s0, sp, 48
	.cfi_def_cfa s0, 0
	sd	a0, -32(s0)
	sd	a1, -40(s0)
	ld	a0, -32(s0)
	ld	a1, -40(s0)
	call	_ZNSt8_Rb_treeINSt7__cxx1112basic_stringIcSt11char_traitsIcESaIcEEESt4pairIKS5_N8nlohmann10basic_jsonISt3mapSt6vectorS5_blmdSaNS8_14adl_serializerEEEESt10_Select1stISE_ESt4lessIvESaISE_EE4findERS7_
	sd	a0, -24(s0)
	ld	a0, -24(s0)
	ld	s0, 32(sp)
	.cfi_def_cfa sp, 48
	ld	ra, 40(sp)
	.cfi_restore ra
	.cfi_restore s0
	addi	sp, sp, 48
	.cfi_def_cfa_offset 0
	ret
.Lfunc_end131:
	.size	_ZNSt3mapINSt7__cxx1112basic_stringIcSt11char_traitsIcESaIcEEEN8nlohmann10basic_jsonIS_St6vectorS5_blmdSaNS6_14adl_serializerEEESt4lessIvESaISt4pairIKS5_SA_EEE4findERSE_, .Lfunc_end131-_ZNSt3mapINSt7__cxx1112basic_stringIcSt11char_traitsIcESaIcEEEN8nlohmann10basic_jsonIS_St6vectorS5_blmdSaNS6_14adl_serializerEEESt4lessIvESaISt4pairIKS5_SA_EEE4findERSE_
	.cfi_endproc
                                        # -- End function
	.section	.text._ZSt7forwardIRNSt7__cxx1112basic_stringIcSt11char_traitsIcESaIcEEEEOT_RNSt16remove_referenceIS7_E4typeE,"axG",@progbits,_ZSt7forwardIRNSt7__cxx1112basic_stringIcSt11char_traitsIcESaIcEEEEOT_RNSt16remove_referenceIS7_E4typeE,comdat
	.weak	_ZSt7forwardIRNSt7__cxx1112basic_stringIcSt11char_traitsIcESaIcEEEEOT_RNSt16remove_referenceIS7_E4typeE # -- Begin function _ZSt7forwardIRNSt7__cxx1112basic_stringIcSt11char_traitsIcESaIcEEEEOT_RNSt16remove_referenceIS7_E4typeE
	.p2align	2
	.type	_ZSt7forwardIRNSt7__cxx1112basic_stringIcSt11char_traitsIcESaIcEEEEOT_RNSt16remove_referenceIS7_E4typeE,@function
_ZSt7forwardIRNSt7__cxx1112basic_stringIcSt11char_traitsIcESaIcEEEEOT_RNSt16remove_referenceIS7_E4typeE: # @_ZSt7forwardIRNSt7__cxx1112basic_stringIcSt11char_traitsIcESaIcEEEEOT_RNSt16remove_referenceIS7_E4typeE
# %bb.0:                                # %entry
	addi	sp, sp, -32
	sd	ra, 24(sp)
	sd	s0, 16(sp)
	addi	s0, sp, 32
	sd	a0, -24(s0)
	ld	a0, -24(s0)
	ld	s0, 16(sp)
	ld	ra, 24(sp)
	addi	sp, sp, 32
	ret
.Lfunc_end132:
	.size	_ZSt7forwardIRNSt7__cxx1112basic_stringIcSt11char_traitsIcESaIcEEEEOT_RNSt16remove_referenceIS7_E4typeE, .Lfunc_end132-_ZSt7forwardIRNSt7__cxx1112basic_stringIcSt11char_traitsIcESaIcEEEEOT_RNSt16remove_referenceIS7_E4typeE
                                        # -- End function
	.section	.text._ZN8nlohmann6detail9iter_implIKNS_10basic_jsonISt3mapSt6vectorNSt7__cxx1112basic_stringIcSt11char_traitsIcESaIcEEEblmdSaNS_14adl_serializerEEEEC2EPSD_,"axG",@progbits,_ZN8nlohmann6detail9iter_implIKNS_10basic_jsonISt3mapSt6vectorNSt7__cxx1112basic_stringIcSt11char_traitsIcESaIcEEEblmdSaNS_14adl_serializerEEEEC2EPSD_,comdat
	.weak	_ZN8nlohmann6detail9iter_implIKNS_10basic_jsonISt3mapSt6vectorNSt7__cxx1112basic_stringIcSt11char_traitsIcESaIcEEEblmdSaNS_14adl_serializerEEEEC2EPSD_ # -- Begin function _ZN8nlohmann6detail9iter_implIKNS_10basic_jsonISt3mapSt6vectorNSt7__cxx1112basic_stringIcSt11char_traitsIcESaIcEEEblmdSaNS_14adl_serializerEEEEC2EPSD_
	.p2align	2
	.type	_ZN8nlohmann6detail9iter_implIKNS_10basic_jsonISt3mapSt6vectorNSt7__cxx1112basic_stringIcSt11char_traitsIcESaIcEEEblmdSaNS_14adl_serializerEEEEC2EPSD_,@function
_ZN8nlohmann6detail9iter_implIKNS_10basic_jsonISt3mapSt6vectorNSt7__cxx1112basic_stringIcSt11char_traitsIcESaIcEEEblmdSaNS_14adl_serializerEEEEC2EPSD_: # @_ZN8nlohmann6detail9iter_implIKNS_10basic_jsonISt3mapSt6vectorNSt7__cxx1112basic_stringIcSt11char_traitsIcESaIcEEEblmdSaNS_14adl_serializerEEEEC2EPSD_
# %bb.0:                                # %entry
	addi	sp, sp, -64
	sd	ra, 56(sp)
	sd	s0, 48(sp)
	sd	s1, 40(sp)
	addi	s0, sp, 64
	sd	a0, -32(s0)
	sd	a1, -40(s0)
	ld	s1, -32(s0)
	ld	a0, -40(s0)
	sd	a0, 0(s1)
	addi	a0, s1, 8
	call	_ZNSt17_Rb_tree_iteratorISt4pairIKNSt7__cxx1112basic_stringIcSt11char_traitsIcESaIcEEEN8nlohmann10basic_jsonISt3mapSt6vectorS6_blmdSaNS8_14adl_serializerEEEEEC2Ev
	addi	a0, s1, 16
	call	_ZN9__gnu_cxx17__normal_iteratorIPN8nlohmann10basic_jsonISt3mapSt6vectorNSt7__cxx1112basic_stringIcSt11char_traitsIcESaIcEEEblmdSaNS1_14adl_serializerEEES4_ISC_SaISC_EEEC2Ev
	addi	a0, s1, 24
	sd	zero, 24(s1)
	call	_ZN8nlohmann6detail20primitive_iterator_tC2Ev
	ld	a0, 0(s1)
	lbu	a0, 0(a0)
	addi	a1, zero, 1
	beq	a0, a1, .LBB133_2
	j	.LBB133_1
.LBB133_1:                              # %entry
	andi	a0, a0, 255
	addi	a1, zero, 2
	beq	a0, a1, .LBB133_3
	j	.LBB133_4
.LBB133_2:                              # %sw.bb
	addi	a0, s0, -48
	call	_ZNSt17_Rb_tree_iteratorISt4pairIKNSt7__cxx1112basic_stringIcSt11char_traitsIcESaIcEEEN8nlohmann10basic_jsonISt3mapSt6vectorS6_blmdSaNS8_14adl_serializerEEEEEC2Ev
	ld	a0, -48(s0)
	sd	a0, 8(s1)
	j	.LBB133_5
.LBB133_3:                              # %sw.bb5
	addi	a0, s0, -56
	call	_ZN9__gnu_cxx17__normal_iteratorIPN8nlohmann10basic_jsonISt3mapSt6vectorNSt7__cxx1112basic_stringIcSt11char_traitsIcESaIcEEEblmdSaNS1_14adl_serializerEEES4_ISC_SaISC_EEEC2Ev
	ld	a0, -56(s0)
	sd	a0, 16(s1)
	j	.LBB133_5
.LBB133_4:                              # %sw.default
	sd	zero, -64(s0)
	addi	a0, s0, -64
	call	_ZN8nlohmann6detail20primitive_iterator_tC2Ev
	ld	a0, -64(s0)
	sd	a0, 24(s1)
	j	.LBB133_5
.LBB133_5:                              # %sw.epilog
	ld	s1, 40(sp)
	ld	s0, 48(sp)
	ld	ra, 56(sp)
	addi	sp, sp, 64
	ret
.Lfunc_end133:
	.size	_ZN8nlohmann6detail9iter_implIKNS_10basic_jsonISt3mapSt6vectorNSt7__cxx1112basic_stringIcSt11char_traitsIcESaIcEEEblmdSaNS_14adl_serializerEEEEC2EPSD_, .Lfunc_end133-_ZN8nlohmann6detail9iter_implIKNS_10basic_jsonISt3mapSt6vectorNSt7__cxx1112basic_stringIcSt11char_traitsIcESaIcEEEblmdSaNS_14adl_serializerEEEEC2EPSD_
                                        # -- End function
	.section	.text._ZN8nlohmann6detail9iter_implIKNS_10basic_jsonISt3mapSt6vectorNSt7__cxx1112basic_stringIcSt11char_traitsIcESaIcEEEblmdSaNS_14adl_serializerEEEE7set_endEv,"axG",@progbits,_ZN8nlohmann6detail9iter_implIKNS_10basic_jsonISt3mapSt6vectorNSt7__cxx1112basic_stringIcSt11char_traitsIcESaIcEEEblmdSaNS_14adl_serializerEEEE7set_endEv,comdat
	.weak	_ZN8nlohmann6detail9iter_implIKNS_10basic_jsonISt3mapSt6vectorNSt7__cxx1112basic_stringIcSt11char_traitsIcESaIcEEEblmdSaNS_14adl_serializerEEEE7set_endEv # -- Begin function _ZN8nlohmann6detail9iter_implIKNS_10basic_jsonISt3mapSt6vectorNSt7__cxx1112basic_stringIcSt11char_traitsIcESaIcEEEblmdSaNS_14adl_serializerEEEE7set_endEv
	.p2align	2
	.type	_ZN8nlohmann6detail9iter_implIKNS_10basic_jsonISt3mapSt6vectorNSt7__cxx1112basic_stringIcSt11char_traitsIcESaIcEEEblmdSaNS_14adl_serializerEEEE7set_endEv,@function
_ZN8nlohmann6detail9iter_implIKNS_10basic_jsonISt3mapSt6vectorNSt7__cxx1112basic_stringIcSt11char_traitsIcESaIcEEEblmdSaNS_14adl_serializerEEEE7set_endEv: # @_ZN8nlohmann6detail9iter_implIKNS_10basic_jsonISt3mapSt6vectorNSt7__cxx1112basic_stringIcSt11char_traitsIcESaIcEEEblmdSaNS_14adl_serializerEEEE7set_endEv
# %bb.0:                                # %entry
	addi	sp, sp, -48
	sd	ra, 40(sp)
	sd	s0, 32(sp)
	sd	s1, 24(sp)
	addi	s0, sp, 48
	sd	a0, -32(s0)
	ld	s1, -32(s0)
	ld	a0, 0(s1)
	lbu	a0, 0(a0)
	addi	a1, zero, 1
	beq	a0, a1, .LBB134_2
	j	.LBB134_1
.LBB134_1:                              # %entry
	andi	a0, a0, 255
	addi	a1, zero, 2
	beq	a0, a1, .LBB134_3
	j	.LBB134_4
.LBB134_2:                              # %sw.bb
	ld	a0, 0(s1)
	ld	a0, 8(a0)
	call	_ZNSt3mapINSt7__cxx1112basic_stringIcSt11char_traitsIcESaIcEEEN8nlohmann10basic_jsonIS_St6vectorS5_blmdSaNS6_14adl_serializerEEESt4lessIvESaISt4pairIKS5_SA_EEE3endEv
	sd	a0, -40(s0)
	ld	a0, -40(s0)
	sd	a0, 8(s1)
	j	.LBB134_5
.LBB134_3:                              # %sw.bb3
	ld	a0, 0(s1)
	ld	a0, 8(a0)
	call	_ZNSt6vectorIN8nlohmann10basic_jsonISt3mapS_NSt7__cxx1112basic_stringIcSt11char_traitsIcESaIcEEEblmdSaNS0_14adl_serializerEEESaISA_EE3endEv
	sd	a0, -48(s0)
	ld	a0, -48(s0)
	sd	a0, 16(s1)
	j	.LBB134_5
.LBB134_4:                              # %sw.default
	addi	a0, s1, 24
	call	_ZN8nlohmann6detail20primitive_iterator_t7set_endEv
	j	.LBB134_5
.LBB134_5:                              # %sw.epilog
	ld	s1, 24(sp)
	ld	s0, 32(sp)
	ld	ra, 40(sp)
	addi	sp, sp, 48
	ret
.Lfunc_end134:
	.size	_ZN8nlohmann6detail9iter_implIKNS_10basic_jsonISt3mapSt6vectorNSt7__cxx1112basic_stringIcSt11char_traitsIcESaIcEEEblmdSaNS_14adl_serializerEEEE7set_endEv, .Lfunc_end134-_ZN8nlohmann6detail9iter_implIKNS_10basic_jsonISt3mapSt6vectorNSt7__cxx1112basic_stringIcSt11char_traitsIcESaIcEEEblmdSaNS_14adl_serializerEEEE7set_endEv
                                        # -- End function
	.section	.text._ZNSt17_Rb_tree_iteratorISt4pairIKNSt7__cxx1112basic_stringIcSt11char_traitsIcESaIcEEEN8nlohmann10basic_jsonISt3mapSt6vectorS6_blmdSaNS8_14adl_serializerEEEEEC2Ev,"axG",@progbits,_ZNSt17_Rb_tree_iteratorISt4pairIKNSt7__cxx1112basic_stringIcSt11char_traitsIcESaIcEEEN8nlohmann10basic_jsonISt3mapSt6vectorS6_blmdSaNS8_14adl_serializerEEEEEC2Ev,comdat
	.weak	_ZNSt17_Rb_tree_iteratorISt4pairIKNSt7__cxx1112basic_stringIcSt11char_traitsIcESaIcEEEN8nlohmann10basic_jsonISt3mapSt6vectorS6_blmdSaNS8_14adl_serializerEEEEEC2Ev # -- Begin function _ZNSt17_Rb_tree_iteratorISt4pairIKNSt7__cxx1112basic_stringIcSt11char_traitsIcESaIcEEEN8nlohmann10basic_jsonISt3mapSt6vectorS6_blmdSaNS8_14adl_serializerEEEEEC2Ev
	.p2align	2
	.type	_ZNSt17_Rb_tree_iteratorISt4pairIKNSt7__cxx1112basic_stringIcSt11char_traitsIcESaIcEEEN8nlohmann10basic_jsonISt3mapSt6vectorS6_blmdSaNS8_14adl_serializerEEEEEC2Ev,@function
_ZNSt17_Rb_tree_iteratorISt4pairIKNSt7__cxx1112basic_stringIcSt11char_traitsIcESaIcEEEN8nlohmann10basic_jsonISt3mapSt6vectorS6_blmdSaNS8_14adl_serializerEEEEEC2Ev: # @_ZNSt17_Rb_tree_iteratorISt4pairIKNSt7__cxx1112basic_stringIcSt11char_traitsIcESaIcEEEN8nlohmann10basic_jsonISt3mapSt6vectorS6_blmdSaNS8_14adl_serializerEEEEEC2Ev
# %bb.0:                                # %entry
	addi	sp, sp, -32
	sd	ra, 24(sp)
	sd	s0, 16(sp)
	addi	s0, sp, 32
	sd	a0, -24(s0)
	ld	a0, -24(s0)
	sd	zero, 0(a0)
	ld	s0, 16(sp)
	ld	ra, 24(sp)
	addi	sp, sp, 32
	ret
.Lfunc_end135:
	.size	_ZNSt17_Rb_tree_iteratorISt4pairIKNSt7__cxx1112basic_stringIcSt11char_traitsIcESaIcEEEN8nlohmann10basic_jsonISt3mapSt6vectorS6_blmdSaNS8_14adl_serializerEEEEEC2Ev, .Lfunc_end135-_ZNSt17_Rb_tree_iteratorISt4pairIKNSt7__cxx1112basic_stringIcSt11char_traitsIcESaIcEEEN8nlohmann10basic_jsonISt3mapSt6vectorS6_blmdSaNS8_14adl_serializerEEEEEC2Ev
                                        # -- End function
	.section	.text._ZN9__gnu_cxx17__normal_iteratorIPN8nlohmann10basic_jsonISt3mapSt6vectorNSt7__cxx1112basic_stringIcSt11char_traitsIcESaIcEEEblmdSaNS1_14adl_serializerEEES4_ISC_SaISC_EEEC2Ev,"axG",@progbits,_ZN9__gnu_cxx17__normal_iteratorIPN8nlohmann10basic_jsonISt3mapSt6vectorNSt7__cxx1112basic_stringIcSt11char_traitsIcESaIcEEEblmdSaNS1_14adl_serializerEEES4_ISC_SaISC_EEEC2Ev,comdat
	.weak	_ZN9__gnu_cxx17__normal_iteratorIPN8nlohmann10basic_jsonISt3mapSt6vectorNSt7__cxx1112basic_stringIcSt11char_traitsIcESaIcEEEblmdSaNS1_14adl_serializerEEES4_ISC_SaISC_EEEC2Ev # -- Begin function _ZN9__gnu_cxx17__normal_iteratorIPN8nlohmann10basic_jsonISt3mapSt6vectorNSt7__cxx1112basic_stringIcSt11char_traitsIcESaIcEEEblmdSaNS1_14adl_serializerEEES4_ISC_SaISC_EEEC2Ev
	.p2align	2
	.type	_ZN9__gnu_cxx17__normal_iteratorIPN8nlohmann10basic_jsonISt3mapSt6vectorNSt7__cxx1112basic_stringIcSt11char_traitsIcESaIcEEEblmdSaNS1_14adl_serializerEEES4_ISC_SaISC_EEEC2Ev,@function
_ZN9__gnu_cxx17__normal_iteratorIPN8nlohmann10basic_jsonISt3mapSt6vectorNSt7__cxx1112basic_stringIcSt11char_traitsIcESaIcEEEblmdSaNS1_14adl_serializerEEES4_ISC_SaISC_EEEC2Ev: # @_ZN9__gnu_cxx17__normal_iteratorIPN8nlohmann10basic_jsonISt3mapSt6vectorNSt7__cxx1112basic_stringIcSt11char_traitsIcESaIcEEEblmdSaNS1_14adl_serializerEEES4_ISC_SaISC_EEEC2Ev
# %bb.0:                                # %entry
	addi	sp, sp, -32
	sd	ra, 24(sp)
	sd	s0, 16(sp)
	addi	s0, sp, 32
	sd	a0, -24(s0)
	ld	a0, -24(s0)
	sd	zero, 0(a0)
	ld	s0, 16(sp)
	ld	ra, 24(sp)
	addi	sp, sp, 32
	ret
.Lfunc_end136:
	.size	_ZN9__gnu_cxx17__normal_iteratorIPN8nlohmann10basic_jsonISt3mapSt6vectorNSt7__cxx1112basic_stringIcSt11char_traitsIcESaIcEEEblmdSaNS1_14adl_serializerEEES4_ISC_SaISC_EEEC2Ev, .Lfunc_end136-_ZN9__gnu_cxx17__normal_iteratorIPN8nlohmann10basic_jsonISt3mapSt6vectorNSt7__cxx1112basic_stringIcSt11char_traitsIcESaIcEEEblmdSaNS1_14adl_serializerEEES4_ISC_SaISC_EEEC2Ev
                                        # -- End function
	.section	.text._ZN8nlohmann6detail20primitive_iterator_tC2Ev,"axG",@progbits,_ZN8nlohmann6detail20primitive_iterator_tC2Ev,comdat
	.weak	_ZN8nlohmann6detail20primitive_iterator_tC2Ev # -- Begin function _ZN8nlohmann6detail20primitive_iterator_tC2Ev
	.p2align	2
	.type	_ZN8nlohmann6detail20primitive_iterator_tC2Ev,@function
_ZN8nlohmann6detail20primitive_iterator_tC2Ev: # @_ZN8nlohmann6detail20primitive_iterator_tC2Ev
# %bb.0:                                # %entry
	addi	sp, sp, -32
	sd	ra, 24(sp)
	sd	s0, 16(sp)
	sd	s1, 8(sp)
	addi	s0, sp, 32
	sd	a0, -32(s0)
	ld	s1, -32(s0)
	call	_ZNSt14numeric_limitsIlE3minEv
	sd	a0, 0(s1)
	ld	s1, 8(sp)
	ld	s0, 16(sp)
	ld	ra, 24(sp)
	addi	sp, sp, 32
	ret
.Lfunc_end137:
	.size	_ZN8nlohmann6detail20primitive_iterator_tC2Ev, .Lfunc_end137-_ZN8nlohmann6detail20primitive_iterator_tC2Ev
                                        # -- End function
	.section	.text._ZNSt14numeric_limitsIlE3minEv,"axG",@progbits,_ZNSt14numeric_limitsIlE3minEv,comdat
	.weak	_ZNSt14numeric_limitsIlE3minEv # -- Begin function _ZNSt14numeric_limitsIlE3minEv
	.p2align	2
	.type	_ZNSt14numeric_limitsIlE3minEv,@function
_ZNSt14numeric_limitsIlE3minEv:         # @_ZNSt14numeric_limitsIlE3minEv
# %bb.0:                                # %entry
	addi	sp, sp, -16
	sd	ra, 8(sp)
	sd	s0, 0(sp)
	addi	s0, sp, 16
	addi	a0, zero, -1
	slli	a0, a0, 63
	ld	s0, 0(sp)
	ld	ra, 8(sp)
	addi	sp, sp, 16
	ret
.Lfunc_end138:
	.size	_ZNSt14numeric_limitsIlE3minEv, .Lfunc_end138-_ZNSt14numeric_limitsIlE3minEv
                                        # -- End function
	.section	.text._ZNSt3mapINSt7__cxx1112basic_stringIcSt11char_traitsIcESaIcEEEN8nlohmann10basic_jsonIS_St6vectorS5_blmdSaNS6_14adl_serializerEEESt4lessIvESaISt4pairIKS5_SA_EEE3endEv,"axG",@progbits,_ZNSt3mapINSt7__cxx1112basic_stringIcSt11char_traitsIcESaIcEEEN8nlohmann10basic_jsonIS_St6vectorS5_blmdSaNS6_14adl_serializerEEESt4lessIvESaISt4pairIKS5_SA_EEE3endEv,comdat
	.weak	_ZNSt3mapINSt7__cxx1112basic_stringIcSt11char_traitsIcESaIcEEEN8nlohmann10basic_jsonIS_St6vectorS5_blmdSaNS6_14adl_serializerEEESt4lessIvESaISt4pairIKS5_SA_EEE3endEv # -- Begin function _ZNSt3mapINSt7__cxx1112basic_stringIcSt11char_traitsIcESaIcEEEN8nlohmann10basic_jsonIS_St6vectorS5_blmdSaNS6_14adl_serializerEEESt4lessIvESaISt4pairIKS5_SA_EEE3endEv
	.p2align	2
	.type	_ZNSt3mapINSt7__cxx1112basic_stringIcSt11char_traitsIcESaIcEEEN8nlohmann10basic_jsonIS_St6vectorS5_blmdSaNS6_14adl_serializerEEESt4lessIvESaISt4pairIKS5_SA_EEE3endEv,@function
_ZNSt3mapINSt7__cxx1112basic_stringIcSt11char_traitsIcESaIcEEEN8nlohmann10basic_jsonIS_St6vectorS5_blmdSaNS6_14adl_serializerEEESt4lessIvESaISt4pairIKS5_SA_EEE3endEv: # @_ZNSt3mapINSt7__cxx1112basic_stringIcSt11char_traitsIcESaIcEEEN8nlohmann10basic_jsonIS_St6vectorS5_blmdSaNS6_14adl_serializerEEESt4lessIvESaISt4pairIKS5_SA_EEE3endEv
# %bb.0:                                # %entry
	addi	sp, sp, -32
	sd	ra, 24(sp)
	sd	s0, 16(sp)
	addi	s0, sp, 32
	sd	a0, -32(s0)
	ld	a0, -32(s0)
	call	_ZNSt8_Rb_treeINSt7__cxx1112basic_stringIcSt11char_traitsIcESaIcEEESt4pairIKS5_N8nlohmann10basic_jsonISt3mapSt6vectorS5_blmdSaNS8_14adl_serializerEEEESt10_Select1stISE_ESt4lessIvESaISE_EE3endEv
	sd	a0, -24(s0)
	ld	a0, -24(s0)
	ld	s0, 16(sp)
	ld	ra, 24(sp)
	addi	sp, sp, 32
	ret
.Lfunc_end139:
	.size	_ZNSt3mapINSt7__cxx1112basic_stringIcSt11char_traitsIcESaIcEEEN8nlohmann10basic_jsonIS_St6vectorS5_blmdSaNS6_14adl_serializerEEESt4lessIvESaISt4pairIKS5_SA_EEE3endEv, .Lfunc_end139-_ZNSt3mapINSt7__cxx1112basic_stringIcSt11char_traitsIcESaIcEEEN8nlohmann10basic_jsonIS_St6vectorS5_blmdSaNS6_14adl_serializerEEESt4lessIvESaISt4pairIKS5_SA_EEE3endEv
                                        # -- End function
	.section	.text._ZNSt6vectorIN8nlohmann10basic_jsonISt3mapS_NSt7__cxx1112basic_stringIcSt11char_traitsIcESaIcEEEblmdSaNS0_14adl_serializerEEESaISA_EE3endEv,"axG",@progbits,_ZNSt6vectorIN8nlohmann10basic_jsonISt3mapS_NSt7__cxx1112basic_stringIcSt11char_traitsIcESaIcEEEblmdSaNS0_14adl_serializerEEESaISA_EE3endEv,comdat
	.weak	_ZNSt6vectorIN8nlohmann10basic_jsonISt3mapS_NSt7__cxx1112basic_stringIcSt11char_traitsIcESaIcEEEblmdSaNS0_14adl_serializerEEESaISA_EE3endEv # -- Begin function _ZNSt6vectorIN8nlohmann10basic_jsonISt3mapS_NSt7__cxx1112basic_stringIcSt11char_traitsIcESaIcEEEblmdSaNS0_14adl_serializerEEESaISA_EE3endEv
	.p2align	2
	.type	_ZNSt6vectorIN8nlohmann10basic_jsonISt3mapS_NSt7__cxx1112basic_stringIcSt11char_traitsIcESaIcEEEblmdSaNS0_14adl_serializerEEESaISA_EE3endEv,@function
_ZNSt6vectorIN8nlohmann10basic_jsonISt3mapS_NSt7__cxx1112basic_stringIcSt11char_traitsIcESaIcEEEblmdSaNS0_14adl_serializerEEESaISA_EE3endEv: # @_ZNSt6vectorIN8nlohmann10basic_jsonISt3mapS_NSt7__cxx1112basic_stringIcSt11char_traitsIcESaIcEEEblmdSaNS0_14adl_serializerEEESaISA_EE3endEv
# %bb.0:                                # %entry
	addi	sp, sp, -32
	sd	ra, 24(sp)
	sd	s0, 16(sp)
	addi	s0, sp, 32
	sd	a0, -32(s0)
	ld	a0, -32(s0)
	addi	a1, a0, 8
	addi	a0, s0, -24
	call	_ZN9__gnu_cxx17__normal_iteratorIPN8nlohmann10basic_jsonISt3mapSt6vectorNSt7__cxx1112basic_stringIcSt11char_traitsIcESaIcEEEblmdSaNS1_14adl_serializerEEES4_ISC_SaISC_EEEC2ERKSD_
	ld	a0, -24(s0)
	ld	s0, 16(sp)
	ld	ra, 24(sp)
	addi	sp, sp, 32
	ret
.Lfunc_end140:
	.size	_ZNSt6vectorIN8nlohmann10basic_jsonISt3mapS_NSt7__cxx1112basic_stringIcSt11char_traitsIcESaIcEEEblmdSaNS0_14adl_serializerEEESaISA_EE3endEv, .Lfunc_end140-_ZNSt6vectorIN8nlohmann10basic_jsonISt3mapS_NSt7__cxx1112basic_stringIcSt11char_traitsIcESaIcEEEblmdSaNS0_14adl_serializerEEESaISA_EE3endEv
                                        # -- End function
	.section	.text._ZN8nlohmann6detail20primitive_iterator_t7set_endEv,"axG",@progbits,_ZN8nlohmann6detail20primitive_iterator_t7set_endEv,comdat
	.weak	_ZN8nlohmann6detail20primitive_iterator_t7set_endEv # -- Begin function _ZN8nlohmann6detail20primitive_iterator_t7set_endEv
	.p2align	2
	.type	_ZN8nlohmann6detail20primitive_iterator_t7set_endEv,@function
_ZN8nlohmann6detail20primitive_iterator_t7set_endEv: # @_ZN8nlohmann6detail20primitive_iterator_t7set_endEv
# %bb.0:                                # %entry
	addi	sp, sp, -32
	sd	ra, 24(sp)
	sd	s0, 16(sp)
	addi	s0, sp, 32
	sd	a0, -24(s0)
	ld	a0, -24(s0)
	addi	a1, zero, 1
	sd	a1, 0(a0)
	ld	s0, 16(sp)
	ld	ra, 24(sp)
	addi	sp, sp, 32
	ret
.Lfunc_end141:
	.size	_ZN8nlohmann6detail20primitive_iterator_t7set_endEv, .Lfunc_end141-_ZN8nlohmann6detail20primitive_iterator_t7set_endEv
                                        # -- End function
	.section	.text._ZNSt8_Rb_treeINSt7__cxx1112basic_stringIcSt11char_traitsIcESaIcEEESt4pairIKS5_N8nlohmann10basic_jsonISt3mapSt6vectorS5_blmdSaNS8_14adl_serializerEEEESt10_Select1stISE_ESt4lessIvESaISE_EE3endEv,"axG",@progbits,_ZNSt8_Rb_treeINSt7__cxx1112basic_stringIcSt11char_traitsIcESaIcEEESt4pairIKS5_N8nlohmann10basic_jsonISt3mapSt6vectorS5_blmdSaNS8_14adl_serializerEEEESt10_Select1stISE_ESt4lessIvESaISE_EE3endEv,comdat
	.weak	_ZNSt8_Rb_treeINSt7__cxx1112basic_stringIcSt11char_traitsIcESaIcEEESt4pairIKS5_N8nlohmann10basic_jsonISt3mapSt6vectorS5_blmdSaNS8_14adl_serializerEEEESt10_Select1stISE_ESt4lessIvESaISE_EE3endEv # -- Begin function _ZNSt8_Rb_treeINSt7__cxx1112basic_stringIcSt11char_traitsIcESaIcEEESt4pairIKS5_N8nlohmann10basic_jsonISt3mapSt6vectorS5_blmdSaNS8_14adl_serializerEEEESt10_Select1stISE_ESt4lessIvESaISE_EE3endEv
	.p2align	2
	.type	_ZNSt8_Rb_treeINSt7__cxx1112basic_stringIcSt11char_traitsIcESaIcEEESt4pairIKS5_N8nlohmann10basic_jsonISt3mapSt6vectorS5_blmdSaNS8_14adl_serializerEEEESt10_Select1stISE_ESt4lessIvESaISE_EE3endEv,@function
_ZNSt8_Rb_treeINSt7__cxx1112basic_stringIcSt11char_traitsIcESaIcEEESt4pairIKS5_N8nlohmann10basic_jsonISt3mapSt6vectorS5_blmdSaNS8_14adl_serializerEEEESt10_Select1stISE_ESt4lessIvESaISE_EE3endEv: # @_ZNSt8_Rb_treeINSt7__cxx1112basic_stringIcSt11char_traitsIcESaIcEEESt4pairIKS5_N8nlohmann10basic_jsonISt3mapSt6vectorS5_blmdSaNS8_14adl_serializerEEEESt10_Select1stISE_ESt4lessIvESaISE_EE3endEv
# %bb.0:                                # %entry
	addi	sp, sp, -32
	sd	ra, 24(sp)
	sd	s0, 16(sp)
	addi	s0, sp, 32
	sd	a0, -32(s0)
	ld	a0, -32(s0)
	addi	a1, a0, 8
	addi	a0, s0, -24
	call	_ZNSt17_Rb_tree_iteratorISt4pairIKNSt7__cxx1112basic_stringIcSt11char_traitsIcESaIcEEEN8nlohmann10basic_jsonISt3mapSt6vectorS6_blmdSaNS8_14adl_serializerEEEEEC2EPSt18_Rb_tree_node_base
	ld	a0, -24(s0)
	ld	s0, 16(sp)
	ld	ra, 24(sp)
	addi	sp, sp, 32
	ret
.Lfunc_end142:
	.size	_ZNSt8_Rb_treeINSt7__cxx1112basic_stringIcSt11char_traitsIcESaIcEEESt4pairIKS5_N8nlohmann10basic_jsonISt3mapSt6vectorS5_blmdSaNS8_14adl_serializerEEEESt10_Select1stISE_ESt4lessIvESaISE_EE3endEv, .Lfunc_end142-_ZNSt8_Rb_treeINSt7__cxx1112basic_stringIcSt11char_traitsIcESaIcEEESt4pairIKS5_N8nlohmann10basic_jsonISt3mapSt6vectorS5_blmdSaNS8_14adl_serializerEEEESt10_Select1stISE_ESt4lessIvESaISE_EE3endEv
                                        # -- End function
	.section	.text._ZNSt17_Rb_tree_iteratorISt4pairIKNSt7__cxx1112basic_stringIcSt11char_traitsIcESaIcEEEN8nlohmann10basic_jsonISt3mapSt6vectorS6_blmdSaNS8_14adl_serializerEEEEEC2EPSt18_Rb_tree_node_base,"axG",@progbits,_ZNSt17_Rb_tree_iteratorISt4pairIKNSt7__cxx1112basic_stringIcSt11char_traitsIcESaIcEEEN8nlohmann10basic_jsonISt3mapSt6vectorS6_blmdSaNS8_14adl_serializerEEEEEC2EPSt18_Rb_tree_node_base,comdat
	.weak	_ZNSt17_Rb_tree_iteratorISt4pairIKNSt7__cxx1112basic_stringIcSt11char_traitsIcESaIcEEEN8nlohmann10basic_jsonISt3mapSt6vectorS6_blmdSaNS8_14adl_serializerEEEEEC2EPSt18_Rb_tree_node_base # -- Begin function _ZNSt17_Rb_tree_iteratorISt4pairIKNSt7__cxx1112basic_stringIcSt11char_traitsIcESaIcEEEN8nlohmann10basic_jsonISt3mapSt6vectorS6_blmdSaNS8_14adl_serializerEEEEEC2EPSt18_Rb_tree_node_base
	.p2align	2
	.type	_ZNSt17_Rb_tree_iteratorISt4pairIKNSt7__cxx1112basic_stringIcSt11char_traitsIcESaIcEEEN8nlohmann10basic_jsonISt3mapSt6vectorS6_blmdSaNS8_14adl_serializerEEEEEC2EPSt18_Rb_tree_node_base,@function
_ZNSt17_Rb_tree_iteratorISt4pairIKNSt7__cxx1112basic_stringIcSt11char_traitsIcESaIcEEEN8nlohmann10basic_jsonISt3mapSt6vectorS6_blmdSaNS8_14adl_serializerEEEEEC2EPSt18_Rb_tree_node_base: # @_ZNSt17_Rb_tree_iteratorISt4pairIKNSt7__cxx1112basic_stringIcSt11char_traitsIcESaIcEEEN8nlohmann10basic_jsonISt3mapSt6vectorS6_blmdSaNS8_14adl_serializerEEEEEC2EPSt18_Rb_tree_node_base
# %bb.0:                                # %entry
	addi	sp, sp, -32
	sd	ra, 24(sp)
	sd	s0, 16(sp)
	addi	s0, sp, 32
	sd	a0, -24(s0)
	sd	a1, -32(s0)
	ld	a0, -24(s0)
	ld	a1, -32(s0)
	sd	a1, 0(a0)
	ld	s0, 16(sp)
	ld	ra, 24(sp)
	addi	sp, sp, 32
	ret
.Lfunc_end143:
	.size	_ZNSt17_Rb_tree_iteratorISt4pairIKNSt7__cxx1112basic_stringIcSt11char_traitsIcESaIcEEEN8nlohmann10basic_jsonISt3mapSt6vectorS6_blmdSaNS8_14adl_serializerEEEEEC2EPSt18_Rb_tree_node_base, .Lfunc_end143-_ZNSt17_Rb_tree_iteratorISt4pairIKNSt7__cxx1112basic_stringIcSt11char_traitsIcESaIcEEEN8nlohmann10basic_jsonISt3mapSt6vectorS6_blmdSaNS8_14adl_serializerEEEEEC2EPSt18_Rb_tree_node_base
                                        # -- End function
	.section	.text._ZN9__gnu_cxx17__normal_iteratorIPN8nlohmann10basic_jsonISt3mapSt6vectorNSt7__cxx1112basic_stringIcSt11char_traitsIcESaIcEEEblmdSaNS1_14adl_serializerEEES4_ISC_SaISC_EEEC2ERKSD_,"axG",@progbits,_ZN9__gnu_cxx17__normal_iteratorIPN8nlohmann10basic_jsonISt3mapSt6vectorNSt7__cxx1112basic_stringIcSt11char_traitsIcESaIcEEEblmdSaNS1_14adl_serializerEEES4_ISC_SaISC_EEEC2ERKSD_,comdat
	.weak	_ZN9__gnu_cxx17__normal_iteratorIPN8nlohmann10basic_jsonISt3mapSt6vectorNSt7__cxx1112basic_stringIcSt11char_traitsIcESaIcEEEblmdSaNS1_14adl_serializerEEES4_ISC_SaISC_EEEC2ERKSD_ # -- Begin function _ZN9__gnu_cxx17__normal_iteratorIPN8nlohmann10basic_jsonISt3mapSt6vectorNSt7__cxx1112basic_stringIcSt11char_traitsIcESaIcEEEblmdSaNS1_14adl_serializerEEES4_ISC_SaISC_EEEC2ERKSD_
	.p2align	2
	.type	_ZN9__gnu_cxx17__normal_iteratorIPN8nlohmann10basic_jsonISt3mapSt6vectorNSt7__cxx1112basic_stringIcSt11char_traitsIcESaIcEEEblmdSaNS1_14adl_serializerEEES4_ISC_SaISC_EEEC2ERKSD_,@function
_ZN9__gnu_cxx17__normal_iteratorIPN8nlohmann10basic_jsonISt3mapSt6vectorNSt7__cxx1112basic_stringIcSt11char_traitsIcESaIcEEEblmdSaNS1_14adl_serializerEEES4_ISC_SaISC_EEEC2ERKSD_: # @_ZN9__gnu_cxx17__normal_iteratorIPN8nlohmann10basic_jsonISt3mapSt6vectorNSt7__cxx1112basic_stringIcSt11char_traitsIcESaIcEEEblmdSaNS1_14adl_serializerEEES4_ISC_SaISC_EEEC2ERKSD_
# %bb.0:                                # %entry
	addi	sp, sp, -32
	sd	ra, 24(sp)
	sd	s0, 16(sp)
	addi	s0, sp, 32
	sd	a0, -24(s0)
	sd	a1, -32(s0)
	ld	a0, -24(s0)
	ld	a1, -32(s0)
	ld	a1, 0(a1)
	sd	a1, 0(a0)
	ld	s0, 16(sp)
	ld	ra, 24(sp)
	addi	sp, sp, 32
	ret
.Lfunc_end144:
	.size	_ZN9__gnu_cxx17__normal_iteratorIPN8nlohmann10basic_jsonISt3mapSt6vectorNSt7__cxx1112basic_stringIcSt11char_traitsIcESaIcEEEblmdSaNS1_14adl_serializerEEES4_ISC_SaISC_EEEC2ERKSD_, .Lfunc_end144-_ZN9__gnu_cxx17__normal_iteratorIPN8nlohmann10basic_jsonISt3mapSt6vectorNSt7__cxx1112basic_stringIcSt11char_traitsIcESaIcEEEblmdSaNS1_14adl_serializerEEES4_ISC_SaISC_EEEC2ERKSD_
                                        # -- End function
	.section	.text._ZNSt8_Rb_treeINSt7__cxx1112basic_stringIcSt11char_traitsIcESaIcEEESt4pairIKS5_N8nlohmann10basic_jsonISt3mapSt6vectorS5_blmdSaNS8_14adl_serializerEEEESt10_Select1stISE_ESt4lessIvESaISE_EE4findERS7_,"axG",@progbits,_ZNSt8_Rb_treeINSt7__cxx1112basic_stringIcSt11char_traitsIcESaIcEEESt4pairIKS5_N8nlohmann10basic_jsonISt3mapSt6vectorS5_blmdSaNS8_14adl_serializerEEEESt10_Select1stISE_ESt4lessIvESaISE_EE4findERS7_,comdat
	.weak	_ZNSt8_Rb_treeINSt7__cxx1112basic_stringIcSt11char_traitsIcESaIcEEESt4pairIKS5_N8nlohmann10basic_jsonISt3mapSt6vectorS5_blmdSaNS8_14adl_serializerEEEESt10_Select1stISE_ESt4lessIvESaISE_EE4findERS7_ # -- Begin function _ZNSt8_Rb_treeINSt7__cxx1112basic_stringIcSt11char_traitsIcESaIcEEESt4pairIKS5_N8nlohmann10basic_jsonISt3mapSt6vectorS5_blmdSaNS8_14adl_serializerEEEESt10_Select1stISE_ESt4lessIvESaISE_EE4findERS7_
	.p2align	2
	.type	_ZNSt8_Rb_treeINSt7__cxx1112basic_stringIcSt11char_traitsIcESaIcEEESt4pairIKS5_N8nlohmann10basic_jsonISt3mapSt6vectorS5_blmdSaNS8_14adl_serializerEEEESt10_Select1stISE_ESt4lessIvESaISE_EE4findERS7_,@function
_ZNSt8_Rb_treeINSt7__cxx1112basic_stringIcSt11char_traitsIcESaIcEEESt4pairIKS5_N8nlohmann10basic_jsonISt3mapSt6vectorS5_blmdSaNS8_14adl_serializerEEEESt10_Select1stISE_ESt4lessIvESaISE_EE4findERS7_: # @_ZNSt8_Rb_treeINSt7__cxx1112basic_stringIcSt11char_traitsIcESaIcEEESt4pairIKS5_N8nlohmann10basic_jsonISt3mapSt6vectorS5_blmdSaNS8_14adl_serializerEEEESt10_Select1stISE_ESt4lessIvESaISE_EE4findERS7_
	.cfi_startproc
# %bb.0:                                # %entry
	addi	sp, sp, -80
	.cfi_def_cfa_offset 80
	sd	ra, 72(sp)
	sd	s0, 64(sp)
	sd	s1, 56(sp)
	sd	s2, 48(sp)
	.cfi_offset ra, -8
	.cfi_offset s0, -16
	.cfi_offset s1, -24
	.cfi_offset s2, -32
	addi	s0, sp, 80
	.cfi_def_cfa s0, 0
	sd	a0, -48(s0)
	sd	a1, -56(s0)
	ld	s1, -48(s0)
	mv	a0, s1
	call	_ZNSt8_Rb_treeINSt7__cxx1112basic_stringIcSt11char_traitsIcESaIcEEESt4pairIKS5_N8nlohmann10basic_jsonISt3mapSt6vectorS5_blmdSaNS8_14adl_serializerEEEESt10_Select1stISE_ESt4lessIvESaISE_EE8_M_beginEv
	mv	s2, a0
	mv	a0, s1
	call	_ZNSt8_Rb_treeINSt7__cxx1112basic_stringIcSt11char_traitsIcESaIcEEESt4pairIKS5_N8nlohmann10basic_jsonISt3mapSt6vectorS5_blmdSaNS8_14adl_serializerEEEESt10_Select1stISE_ESt4lessIvESaISE_EE6_M_endEv
	mv	a2, a0
	ld	a3, -56(s0)
	mv	a0, s1
	mv	a1, s2
	call	_ZNSt8_Rb_treeINSt7__cxx1112basic_stringIcSt11char_traitsIcESaIcEEESt4pairIKS5_N8nlohmann10basic_jsonISt3mapSt6vectorS5_blmdSaNS8_14adl_serializerEEEESt10_Select1stISE_ESt4lessIvESaISE_EE14_M_lower_boundEPSt13_Rb_tree_nodeISE_EPSt18_Rb_tree_node_baseRS7_
	sd	a0, -64(s0)
	mv	a0, s1
	call	_ZNSt8_Rb_treeINSt7__cxx1112basic_stringIcSt11char_traitsIcESaIcEEESt4pairIKS5_N8nlohmann10basic_jsonISt3mapSt6vectorS5_blmdSaNS8_14adl_serializerEEEESt10_Select1stISE_ESt4lessIvESaISE_EE3endEv
	sd	a0, -72(s0)
	addi	a0, s0, -64
	addi	a1, s0, -72
	call	_ZSteqRKSt17_Rb_tree_iteratorISt4pairIKNSt7__cxx1112basic_stringIcSt11char_traitsIcESaIcEEEN8nlohmann10basic_jsonISt3mapSt6vectorS6_blmdSaNS8_14adl_serializerEEEEESH_
	bnez	a0, .LBB145_2
	j	.LBB145_1
.LBB145_1:                              # %lor.lhs.false
	ld	s2, -56(s0)
	ld	a0, -64(s0)
	call	_ZNSt8_Rb_treeINSt7__cxx1112basic_stringIcSt11char_traitsIcESaIcEEESt4pairIKS5_N8nlohmann10basic_jsonISt3mapSt6vectorS5_blmdSaNS8_14adl_serializerEEEESt10_Select1stISE_ESt4lessIvESaISE_EE6_S_keyEPKSt18_Rb_tree_node_base
	mv	a2, a0
	mv	a0, s1
	mv	a1, s2
	call	_ZNKSt4lessIvEclIRKNSt7__cxx1112basic_stringIcSt11char_traitsIcESaIcEEES9_EEDTltclsr3stdE7forwardIT_Efp_Eclsr3stdE7forwardIT0_Efp0_EEOSA_OSB_
	beqz	a0, .LBB145_3
	j	.LBB145_2
.LBB145_2:                              # %cond.true
	mv	a0, s1
	call	_ZNSt8_Rb_treeINSt7__cxx1112basic_stringIcSt11char_traitsIcESaIcEEESt4pairIKS5_N8nlohmann10basic_jsonISt3mapSt6vectorS5_blmdSaNS8_14adl_serializerEEEESt10_Select1stISE_ESt4lessIvESaISE_EE3endEv
	sd	a0, -40(s0)
	j	.LBB145_4
.LBB145_3:                              # %cond.false
	ld	a0, -64(s0)
	sd	a0, -40(s0)
	j	.LBB145_4
.LBB145_4:                              # %cond.end
	ld	a0, -40(s0)
	ld	s2, 48(sp)
	ld	s1, 56(sp)
	ld	s0, 64(sp)
	.cfi_def_cfa sp, 80
	ld	ra, 72(sp)
	.cfi_restore ra
	.cfi_restore s0
	.cfi_restore s1
	.cfi_restore s2
	addi	sp, sp, 80
	.cfi_def_cfa_offset 0
	ret
.Lfunc_end145:
	.size	_ZNSt8_Rb_treeINSt7__cxx1112basic_stringIcSt11char_traitsIcESaIcEEESt4pairIKS5_N8nlohmann10basic_jsonISt3mapSt6vectorS5_blmdSaNS8_14adl_serializerEEEESt10_Select1stISE_ESt4lessIvESaISE_EE4findERS7_, .Lfunc_end145-_ZNSt8_Rb_treeINSt7__cxx1112basic_stringIcSt11char_traitsIcESaIcEEESt4pairIKS5_N8nlohmann10basic_jsonISt3mapSt6vectorS5_blmdSaNS8_14adl_serializerEEEESt10_Select1stISE_ESt4lessIvESaISE_EE4findERS7_
	.cfi_endproc
                                        # -- End function
	.section	.text._ZNSt8_Rb_treeINSt7__cxx1112basic_stringIcSt11char_traitsIcESaIcEEESt4pairIKS5_N8nlohmann10basic_jsonISt3mapSt6vectorS5_blmdSaNS8_14adl_serializerEEEESt10_Select1stISE_ESt4lessIvESaISE_EE14_M_lower_boundEPSt13_Rb_tree_nodeISE_EPSt18_Rb_tree_node_baseRS7_,"axG",@progbits,_ZNSt8_Rb_treeINSt7__cxx1112basic_stringIcSt11char_traitsIcESaIcEEESt4pairIKS5_N8nlohmann10basic_jsonISt3mapSt6vectorS5_blmdSaNS8_14adl_serializerEEEESt10_Select1stISE_ESt4lessIvESaISE_EE14_M_lower_boundEPSt13_Rb_tree_nodeISE_EPSt18_Rb_tree_node_baseRS7_,comdat
	.weak	_ZNSt8_Rb_treeINSt7__cxx1112basic_stringIcSt11char_traitsIcESaIcEEESt4pairIKS5_N8nlohmann10basic_jsonISt3mapSt6vectorS5_blmdSaNS8_14adl_serializerEEEESt10_Select1stISE_ESt4lessIvESaISE_EE14_M_lower_boundEPSt13_Rb_tree_nodeISE_EPSt18_Rb_tree_node_baseRS7_ # -- Begin function _ZNSt8_Rb_treeINSt7__cxx1112basic_stringIcSt11char_traitsIcESaIcEEESt4pairIKS5_N8nlohmann10basic_jsonISt3mapSt6vectorS5_blmdSaNS8_14adl_serializerEEEESt10_Select1stISE_ESt4lessIvESaISE_EE14_M_lower_boundEPSt13_Rb_tree_nodeISE_EPSt18_Rb_tree_node_baseRS7_
	.p2align	2
	.type	_ZNSt8_Rb_treeINSt7__cxx1112basic_stringIcSt11char_traitsIcESaIcEEESt4pairIKS5_N8nlohmann10basic_jsonISt3mapSt6vectorS5_blmdSaNS8_14adl_serializerEEEESt10_Select1stISE_ESt4lessIvESaISE_EE14_M_lower_boundEPSt13_Rb_tree_nodeISE_EPSt18_Rb_tree_node_baseRS7_,@function
_ZNSt8_Rb_treeINSt7__cxx1112basic_stringIcSt11char_traitsIcESaIcEEESt4pairIKS5_N8nlohmann10basic_jsonISt3mapSt6vectorS5_blmdSaNS8_14adl_serializerEEEESt10_Select1stISE_ESt4lessIvESaISE_EE14_M_lower_boundEPSt13_Rb_tree_nodeISE_EPSt18_Rb_tree_node_baseRS7_: # @_ZNSt8_Rb_treeINSt7__cxx1112basic_stringIcSt11char_traitsIcESaIcEEESt4pairIKS5_N8nlohmann10basic_jsonISt3mapSt6vectorS5_blmdSaNS8_14adl_serializerEEEESt10_Select1stISE_ESt4lessIvESaISE_EE14_M_lower_boundEPSt13_Rb_tree_nodeISE_EPSt18_Rb_tree_node_baseRS7_
	.cfi_startproc
# %bb.0:                                # %entry
	addi	sp, sp, -64
	.cfi_def_cfa_offset 64
	sd	ra, 56(sp)
	sd	s0, 48(sp)
	sd	s1, 40(sp)
	.cfi_offset ra, -8
	.cfi_offset s0, -16
	.cfi_offset s1, -24
	addi	s0, sp, 64
	.cfi_def_cfa s0, 0
	sd	a0, -40(s0)
	sd	a1, -48(s0)
	sd	a2, -56(s0)
	sd	a3, -64(s0)
	ld	s1, -40(s0)
	j	.LBB146_1
.LBB146_1:                              # %while.cond
                                        # =>This Inner Loop Header: Depth=1
	ld	a0, -48(s0)
	beqz	a0, .LBB146_6
	j	.LBB146_2
.LBB146_2:                              # %while.body
                                        #   in Loop: Header=BB146_1 Depth=1
	ld	a0, -48(s0)
	call	_ZNSt8_Rb_treeINSt7__cxx1112basic_stringIcSt11char_traitsIcESaIcEEESt4pairIKS5_N8nlohmann10basic_jsonISt3mapSt6vectorS5_blmdSaNS8_14adl_serializerEEEESt10_Select1stISE_ESt4lessIvESaISE_EE6_S_keyEPKSt13_Rb_tree_nodeISE_E
	mv	a1, a0
	ld	a2, -64(s0)
	mv	a0, s1
	call	_ZNKSt4lessIvEclIRKNSt7__cxx1112basic_stringIcSt11char_traitsIcESaIcEEES9_EEDTltclsr3stdE7forwardIT_Efp_Eclsr3stdE7forwardIT0_Efp0_EEOSA_OSB_
	bnez	a0, .LBB146_4
	j	.LBB146_3
.LBB146_3:                              # %if.then
                                        #   in Loop: Header=BB146_1 Depth=1
	ld	a0, -48(s0)
	sd	a0, -56(s0)
	ld	a0, -48(s0)
	call	_ZNSt8_Rb_treeINSt7__cxx1112basic_stringIcSt11char_traitsIcESaIcEEESt4pairIKS5_N8nlohmann10basic_jsonISt3mapSt6vectorS5_blmdSaNS8_14adl_serializerEEEESt10_Select1stISE_ESt4lessIvESaISE_EE7_S_leftEPSt18_Rb_tree_node_base
	sd	a0, -48(s0)
	j	.LBB146_5
.LBB146_4:                              # %if.else
                                        #   in Loop: Header=BB146_1 Depth=1
	ld	a0, -48(s0)
	call	_ZNSt8_Rb_treeINSt7__cxx1112basic_stringIcSt11char_traitsIcESaIcEEESt4pairIKS5_N8nlohmann10basic_jsonISt3mapSt6vectorS5_blmdSaNS8_14adl_serializerEEEESt10_Select1stISE_ESt4lessIvESaISE_EE8_S_rightEPSt18_Rb_tree_node_base
	sd	a0, -48(s0)
	j	.LBB146_5
.LBB146_5:                              # %if.end
                                        #   in Loop: Header=BB146_1 Depth=1
	j	.LBB146_1
.LBB146_6:                              # %while.end
	ld	a1, -56(s0)
	addi	a0, s0, -32
	call	_ZNSt17_Rb_tree_iteratorISt4pairIKNSt7__cxx1112basic_stringIcSt11char_traitsIcESaIcEEEN8nlohmann10basic_jsonISt3mapSt6vectorS6_blmdSaNS8_14adl_serializerEEEEEC2EPSt18_Rb_tree_node_base
	ld	a0, -32(s0)
	ld	s1, 40(sp)
	ld	s0, 48(sp)
	.cfi_def_cfa sp, 64
	ld	ra, 56(sp)
	.cfi_restore ra
	.cfi_restore s0
	.cfi_restore s1
	addi	sp, sp, 64
	.cfi_def_cfa_offset 0
	ret
.Lfunc_end146:
	.size	_ZNSt8_Rb_treeINSt7__cxx1112basic_stringIcSt11char_traitsIcESaIcEEESt4pairIKS5_N8nlohmann10basic_jsonISt3mapSt6vectorS5_blmdSaNS8_14adl_serializerEEEESt10_Select1stISE_ESt4lessIvESaISE_EE14_M_lower_boundEPSt13_Rb_tree_nodeISE_EPSt18_Rb_tree_node_baseRS7_, .Lfunc_end146-_ZNSt8_Rb_treeINSt7__cxx1112basic_stringIcSt11char_traitsIcESaIcEEESt4pairIKS5_N8nlohmann10basic_jsonISt3mapSt6vectorS5_blmdSaNS8_14adl_serializerEEEESt10_Select1stISE_ESt4lessIvESaISE_EE14_M_lower_boundEPSt13_Rb_tree_nodeISE_EPSt18_Rb_tree_node_baseRS7_
	.cfi_endproc
                                        # -- End function
	.section	.text._ZNSt8_Rb_treeINSt7__cxx1112basic_stringIcSt11char_traitsIcESaIcEEESt4pairIKS5_N8nlohmann10basic_jsonISt3mapSt6vectorS5_blmdSaNS8_14adl_serializerEEEESt10_Select1stISE_ESt4lessIvESaISE_EE8_M_beginEv,"axG",@progbits,_ZNSt8_Rb_treeINSt7__cxx1112basic_stringIcSt11char_traitsIcESaIcEEESt4pairIKS5_N8nlohmann10basic_jsonISt3mapSt6vectorS5_blmdSaNS8_14adl_serializerEEEESt10_Select1stISE_ESt4lessIvESaISE_EE8_M_beginEv,comdat
	.weak	_ZNSt8_Rb_treeINSt7__cxx1112basic_stringIcSt11char_traitsIcESaIcEEESt4pairIKS5_N8nlohmann10basic_jsonISt3mapSt6vectorS5_blmdSaNS8_14adl_serializerEEEESt10_Select1stISE_ESt4lessIvESaISE_EE8_M_beginEv # -- Begin function _ZNSt8_Rb_treeINSt7__cxx1112basic_stringIcSt11char_traitsIcESaIcEEESt4pairIKS5_N8nlohmann10basic_jsonISt3mapSt6vectorS5_blmdSaNS8_14adl_serializerEEEESt10_Select1stISE_ESt4lessIvESaISE_EE8_M_beginEv
	.p2align	2
	.type	_ZNSt8_Rb_treeINSt7__cxx1112basic_stringIcSt11char_traitsIcESaIcEEESt4pairIKS5_N8nlohmann10basic_jsonISt3mapSt6vectorS5_blmdSaNS8_14adl_serializerEEEESt10_Select1stISE_ESt4lessIvESaISE_EE8_M_beginEv,@function
_ZNSt8_Rb_treeINSt7__cxx1112basic_stringIcSt11char_traitsIcESaIcEEESt4pairIKS5_N8nlohmann10basic_jsonISt3mapSt6vectorS5_blmdSaNS8_14adl_serializerEEEESt10_Select1stISE_ESt4lessIvESaISE_EE8_M_beginEv: # @_ZNSt8_Rb_treeINSt7__cxx1112basic_stringIcSt11char_traitsIcESaIcEEESt4pairIKS5_N8nlohmann10basic_jsonISt3mapSt6vectorS5_blmdSaNS8_14adl_serializerEEEESt10_Select1stISE_ESt4lessIvESaISE_EE8_M_beginEv
# %bb.0:                                # %entry
	addi	sp, sp, -32
	sd	ra, 24(sp)
	sd	s0, 16(sp)
	addi	s0, sp, 32
	sd	a0, -24(s0)
	ld	a0, -24(s0)
	call	_ZNKSt8_Rb_treeINSt7__cxx1112basic_stringIcSt11char_traitsIcESaIcEEESt4pairIKS5_N8nlohmann10basic_jsonISt3mapSt6vectorS5_blmdSaNS8_14adl_serializerEEEESt10_Select1stISE_ESt4lessIvESaISE_EE9_M_mbeginEv
	ld	s0, 16(sp)
	ld	ra, 24(sp)
	addi	sp, sp, 32
	ret
.Lfunc_end147:
	.size	_ZNSt8_Rb_treeINSt7__cxx1112basic_stringIcSt11char_traitsIcESaIcEEESt4pairIKS5_N8nlohmann10basic_jsonISt3mapSt6vectorS5_blmdSaNS8_14adl_serializerEEEESt10_Select1stISE_ESt4lessIvESaISE_EE8_M_beginEv, .Lfunc_end147-_ZNSt8_Rb_treeINSt7__cxx1112basic_stringIcSt11char_traitsIcESaIcEEESt4pairIKS5_N8nlohmann10basic_jsonISt3mapSt6vectorS5_blmdSaNS8_14adl_serializerEEEESt10_Select1stISE_ESt4lessIvESaISE_EE8_M_beginEv
                                        # -- End function
	.section	.text._ZNSt8_Rb_treeINSt7__cxx1112basic_stringIcSt11char_traitsIcESaIcEEESt4pairIKS5_N8nlohmann10basic_jsonISt3mapSt6vectorS5_blmdSaNS8_14adl_serializerEEEESt10_Select1stISE_ESt4lessIvESaISE_EE6_M_endEv,"axG",@progbits,_ZNSt8_Rb_treeINSt7__cxx1112basic_stringIcSt11char_traitsIcESaIcEEESt4pairIKS5_N8nlohmann10basic_jsonISt3mapSt6vectorS5_blmdSaNS8_14adl_serializerEEEESt10_Select1stISE_ESt4lessIvESaISE_EE6_M_endEv,comdat
	.weak	_ZNSt8_Rb_treeINSt7__cxx1112basic_stringIcSt11char_traitsIcESaIcEEESt4pairIKS5_N8nlohmann10basic_jsonISt3mapSt6vectorS5_blmdSaNS8_14adl_serializerEEEESt10_Select1stISE_ESt4lessIvESaISE_EE6_M_endEv # -- Begin function _ZNSt8_Rb_treeINSt7__cxx1112basic_stringIcSt11char_traitsIcESaIcEEESt4pairIKS5_N8nlohmann10basic_jsonISt3mapSt6vectorS5_blmdSaNS8_14adl_serializerEEEESt10_Select1stISE_ESt4lessIvESaISE_EE6_M_endEv
	.p2align	2
	.type	_ZNSt8_Rb_treeINSt7__cxx1112basic_stringIcSt11char_traitsIcESaIcEEESt4pairIKS5_N8nlohmann10basic_jsonISt3mapSt6vectorS5_blmdSaNS8_14adl_serializerEEEESt10_Select1stISE_ESt4lessIvESaISE_EE6_M_endEv,@function
_ZNSt8_Rb_treeINSt7__cxx1112basic_stringIcSt11char_traitsIcESaIcEEESt4pairIKS5_N8nlohmann10basic_jsonISt3mapSt6vectorS5_blmdSaNS8_14adl_serializerEEEESt10_Select1stISE_ESt4lessIvESaISE_EE6_M_endEv: # @_ZNSt8_Rb_treeINSt7__cxx1112basic_stringIcSt11char_traitsIcESaIcEEESt4pairIKS5_N8nlohmann10basic_jsonISt3mapSt6vectorS5_blmdSaNS8_14adl_serializerEEEESt10_Select1stISE_ESt4lessIvESaISE_EE6_M_endEv
# %bb.0:                                # %entry
	addi	sp, sp, -32
	sd	ra, 24(sp)
	sd	s0, 16(sp)
	addi	s0, sp, 32
	sd	a0, -24(s0)
	ld	a0, -24(s0)
	addi	a0, a0, 8
	ld	s0, 16(sp)
	ld	ra, 24(sp)
	addi	sp, sp, 32
	ret
.Lfunc_end148:
	.size	_ZNSt8_Rb_treeINSt7__cxx1112basic_stringIcSt11char_traitsIcESaIcEEESt4pairIKS5_N8nlohmann10basic_jsonISt3mapSt6vectorS5_blmdSaNS8_14adl_serializerEEEESt10_Select1stISE_ESt4lessIvESaISE_EE6_M_endEv, .Lfunc_end148-_ZNSt8_Rb_treeINSt7__cxx1112basic_stringIcSt11char_traitsIcESaIcEEESt4pairIKS5_N8nlohmann10basic_jsonISt3mapSt6vectorS5_blmdSaNS8_14adl_serializerEEEESt10_Select1stISE_ESt4lessIvESaISE_EE6_M_endEv
                                        # -- End function
	.section	.text._ZSteqRKSt17_Rb_tree_iteratorISt4pairIKNSt7__cxx1112basic_stringIcSt11char_traitsIcESaIcEEEN8nlohmann10basic_jsonISt3mapSt6vectorS6_blmdSaNS8_14adl_serializerEEEEESH_,"axG",@progbits,_ZSteqRKSt17_Rb_tree_iteratorISt4pairIKNSt7__cxx1112basic_stringIcSt11char_traitsIcESaIcEEEN8nlohmann10basic_jsonISt3mapSt6vectorS6_blmdSaNS8_14adl_serializerEEEEESH_,comdat
	.weak	_ZSteqRKSt17_Rb_tree_iteratorISt4pairIKNSt7__cxx1112basic_stringIcSt11char_traitsIcESaIcEEEN8nlohmann10basic_jsonISt3mapSt6vectorS6_blmdSaNS8_14adl_serializerEEEEESH_ # -- Begin function _ZSteqRKSt17_Rb_tree_iteratorISt4pairIKNSt7__cxx1112basic_stringIcSt11char_traitsIcESaIcEEEN8nlohmann10basic_jsonISt3mapSt6vectorS6_blmdSaNS8_14adl_serializerEEEEESH_
	.p2align	2
	.type	_ZSteqRKSt17_Rb_tree_iteratorISt4pairIKNSt7__cxx1112basic_stringIcSt11char_traitsIcESaIcEEEN8nlohmann10basic_jsonISt3mapSt6vectorS6_blmdSaNS8_14adl_serializerEEEEESH_,@function
_ZSteqRKSt17_Rb_tree_iteratorISt4pairIKNSt7__cxx1112basic_stringIcSt11char_traitsIcESaIcEEEN8nlohmann10basic_jsonISt3mapSt6vectorS6_blmdSaNS8_14adl_serializerEEEEESH_: # @_ZSteqRKSt17_Rb_tree_iteratorISt4pairIKNSt7__cxx1112basic_stringIcSt11char_traitsIcESaIcEEEN8nlohmann10basic_jsonISt3mapSt6vectorS6_blmdSaNS8_14adl_serializerEEEEESH_
# %bb.0:                                # %entry
	addi	sp, sp, -32
	sd	ra, 24(sp)
	sd	s0, 16(sp)
	addi	s0, sp, 32
	sd	a0, -24(s0)
	sd	a1, -32(s0)
	ld	a0, -24(s0)
	ld	a0, 0(a0)
	ld	a1, -32(s0)
	ld	a1, 0(a1)
	xor	a0, a0, a1
	seqz	a0, a0
	ld	s0, 16(sp)
	ld	ra, 24(sp)
	addi	sp, sp, 32
	ret
.Lfunc_end149:
