	.text
	.file	"fresnel.cpp"
	.section	.sdata,"aw",@progbits
	.p2align	3               # -- Begin function _ZN7Fresnel10dielectricEddd
.LCPI0_0:
	.quad	-4616189618054758400    # double -1
.LCPI0_1:
	.quad	0                       # double 0
.LCPI0_2:
	.quad	4602678819172646912     # double 0.5
.LCPI0_3:
	.quad	4607182418800017408     # double 1
	.text
	.globl	_ZN7Fresnel10dielectricEddd
	.p2align	2
	.type	_ZN7Fresnel10dielectricEddd,@function
_ZN7Fresnel10dielectricEddd:            # @_ZN7Fresnel10dielectricEddd
	.cfi_startproc
# %bb.0:                                # %entry
	addi	sp, sp, -112
	.cfi_def_cfa_offset 112
	sd	ra, 104(sp)
	sd	s0, 96(sp)
	.cfi_offset ra, -8
	.cfi_offset s0, -16
	addi	s0, sp, 112
	.cfi_def_cfa s0, 0
	fmv.d.x	ft0, a2
	fmv.d.x	ft0, a1
	fmv.d.x	ft0, a0
	sd	a0, -32(s0)
	sd	a1, -40(s0)
	sd	a2, -48(s0)
	fld	ft0, -40(s0)
	fld	ft1, -32(s0)
	fdiv.d	ft0, ft0, ft1
	fmv.x.d	a0, ft0
	call	_Z4pow2IdET_S0_
	fmv.d.x	ft0, a0
	fsd	ft0, -104(s0)
	ld	a0, -48(s0)
	call	_Z4pow2IdET_S0_
	fmv.d.x	ft0, a0
	fld	ft1, -104(s0)
	fadd.d	ft0, ft1, ft0
	lui	a0, %hi(.LCPI0_0)
	addi	a0, a0, %lo(.LCPI0_0)
	fld	ft1, 0(a0)
	fadd.d	ft0, ft0, ft1
	fsd	ft0, -56(s0)
	fld	ft0, -56(s0)
	lui	a0, %hi(.LCPI0_1)
	addi	a0, a0, %lo(.LCPI0_1)
	fld	ft1, 0(a0)
	flt.d	a0, ft0, ft1
	xori	a0, a0, 1
	bnez	a0, .LBB0_2
	j	.LBB0_1
.LBB0_1:                                # %if.then
	addi	a0, zero, 1023
	slli	a0, a0, 52
	sd	a0, -24(s0)
	j	.LBB0_3
.LBB0_2:                                # %if.end
	ld	a0, -56(s0)
	call	sqrt
	sd	a0, -64(s0)
	fld	ft0, -64(s0)
	fld	ft1, -48(s0)
	fadd.d	ft0, ft0, ft1
	fsd	ft0, -72(s0)
	fld	ft0, -64(s0)
	fld	ft1, -48(s0)
	fsub.d	ft0, ft0, ft1
	fsd	ft0, -80(s0)
	fld	ft0, -80(s0)
	fld	ft1, -72(s0)
	fdiv.d	ft0, ft0, ft1
	fmv.x.d	a0, ft0
	call	_Z4pow2IdET_S0_
	fmv.d.x	ft0, a0
	lui	a0, %hi(.LCPI0_2)
	addi	a0, a0, %lo(.LCPI0_2)
	fld	ft1, 0(a0)
	fmul.d	ft0, ft0, ft1
	fsd	ft0, -88(s0)
	fld	ft0, -72(s0)
	fld	ft1, -48(s0)
	fmul.d	ft0, ft0, ft1
	lui	a0, %hi(.LCPI0_3)
	addi	a0, a0, %lo(.LCPI0_3)
	fld	ft3, 0(a0)
	fsd	ft3, -96(s0)
	fsub.d	ft0, ft0, ft3
	fld	ft2, -80(s0)
	fmul.d	ft1, ft2, ft1
	fadd.d	ft1, ft1, ft3
	fdiv.d	ft0, ft0, ft1
	fmv.x.d	a0, ft0
	call	_Z4pow2IdET_S0_
	fmv.d.x	ft0, a0
	fld	ft1, -96(s0)
	fadd.d	ft0, ft0, ft1
	fld	ft1, -88(s0)
	fmul.d	ft0, ft1, ft0
	fsd	ft0, -24(s0)
	j	.LBB0_3
.LBB0_3:                                # %return
	ld	a0, -24(s0)
	ld	s0, 96(sp)
	.cfi_def_cfa sp, 112
	ld	ra, 104(sp)
	.cfi_restore ra
	.cfi_restore s0
	addi	sp, sp, 112
	.cfi_def_cfa_offset 0
	ret
.Lfunc_end0:
	.size	_ZN7Fresnel10dielectricEddd, .Lfunc_end0-_ZN7Fresnel10dielectricEddd
	.cfi_endproc
                                        # -- End function
	.section	.text._Z4pow2IdET_S0_,"axG",@progbits,_Z4pow2IdET_S0_,comdat
	.weak	_Z4pow2IdET_S0_         # -- Begin function _Z4pow2IdET_S0_
	.p2align	2
	.type	_Z4pow2IdET_S0_,@function
_Z4pow2IdET_S0_:                        # @_Z4pow2IdET_S0_
# %bb.0:                                # %entry
	addi	sp, sp, -32
	sd	ra, 24(sp)
	sd	s0, 16(sp)
	addi	s0, sp, 32
	fmv.d.x	ft0, a0
	sd	a0, -24(s0)
	fld	ft0, -24(s0)
	fmul.d	ft0, ft0, ft0
	fmv.x.d	a0, ft0
	ld	s0, 16(sp)
	ld	ra, 24(sp)
	addi	sp, sp, 32
	ret
.Lfunc_end1:
	.size	_Z4pow2IdET_S0_, .Lfunc_end1-_Z4pow2IdET_S0_
                                        # -- End function
	.section	.sdata,"aw",@progbits
	.p2align	3               # -- Begin function _ZN7Fresnel9conductorEdP10ComplexIORd
.LCPI2_0:
	.quad	4607182418800017408     # double 1
	.text
	.globl	_ZN7Fresnel9conductorEdP10ComplexIORd
	.p2align	2
	.type	_ZN7Fresnel9conductorEdP10ComplexIORd,@function
_ZN7Fresnel9conductorEdP10ComplexIORd:  # @_ZN7Fresnel9conductorEdP10ComplexIORd
	.cfi_startproc
# %bb.0:                                # %entry
	addi	sp, sp, -816
	.cfi_def_cfa_offset 816
	sd	ra, 808(sp)
	sd	s0, 800(sp)
	sd	s1, 792(sp)
	sd	s2, 784(sp)
	sd	s3, 776(sp)
	sd	s4, 768(sp)
	sd	s5, 760(sp)
	sd	s6, 752(sp)
	sd	s7, 744(sp)
	sd	s8, 736(sp)
	.cfi_offset ra, -8
	.cfi_offset s0, -16
	.cfi_offset s1, -24
	.cfi_offset s2, -32
	.cfi_offset s3, -40
	.cfi_offset s4, -48
	.cfi_offset s5, -56
	.cfi_offset s6, -64
	.cfi_offset s7, -72
	.cfi_offset s8, -80
	addi	s0, sp, 816
	.cfi_def_cfa s0, 0
	mv	s2, a0
	fmv.d.x	ft0, a3
	fmv.d.x	ft0, a1
	sd	s2, -88(s0)
	sd	a1, -96(s0)
	sd	a2, -104(s0)
	sd	a3, -112(s0)
	ld	a0, -112(s0)
	call	_Z4pow2IdET_S0_
	sd	a0, -120(s0)
	fld	ft0, -120(s0)
	lui	a0, %hi(.LCPI2_0)
	addi	a0, a0, %lo(.LCPI2_0)
	fld	ft1, 0(a0)
	fsub.d	ft0, ft1, ft0
	fsd	ft0, -128(s0)
	ld	a1, -104(s0)
	ld	a2, -96(s0)
	addi	s1, s0, -176
	mv	a0, s1
	call	_ZN3glmdvIdLNS_9qualifierE0EEENS_3vecILi3ET_XT0_EEERKS4_S3_
	addi	s3, s0, -152
	mv	a0, s3
	mv	a1, s1
	call	_Z4pow2IN3glm3vecILi3EdLNS0_9qualifierE0EEEET_S4_
	ld	a0, -104(s0)
	addi	a1, a0, 24
	ld	a2, -96(s0)
	addi	s1, s0, -224
	mv	a0, s1
	call	_ZN3glmdvIdLNS_9qualifierE0EEENS_3vecILi3ET_XT0_EEERKS4_S3_
	addi	s4, s0, -200
	mv	a0, s4
	mv	a1, s1
	call	_Z4pow2IN3glm3vecILi3EdLNS0_9qualifierE0EEEET_S4_
	addi	s1, s0, -272
	mv	a0, s1
	mv	a1, s3
	mv	a2, s4
	call	_ZN3glmmiIdLNS_9qualifierE0EEENS_3vecILi3ET_XT0_EEERKS4_S6_
	ld	a2, -128(s0)
	addi	s5, s0, -248
	mv	a0, s5
	mv	a1, s1
	call	_ZN3glmmiIdLNS_9qualifierE0EEENS_3vecILi3ET_XT0_EEERKS4_S3_
	ld	a0, -232(s0)
	sd	a0, -352(s0)
	ld	a0, -240(s0)
	sd	a0, -360(s0)
	ld	a0, -248(s0)
	sd	a0, -368(s0)
	addi	s6, s0, -344
	addi	a1, s0, -368
	mv	a0, s6
	call	_Z4pow2IN3glm3vecILi3EdLNS0_9qualifierE0EEEET_S4_
	addi	a0, zero, 1025
	slli	a1, a0, 52
	addi	s1, s0, -416
	mv	a0, s1
	mv	a2, s3
	call	_ZN3glmmlIdLNS_9qualifierE0EEENS_3vecILi3ET_XT0_EEES3_RKS4_
	addi	s3, s0, -392
	mv	a0, s3
	mv	a1, s1
	mv	a2, s4
	call	_ZN3glmmlIdLNS_9qualifierE0EEENS_3vecILi3ET_XT0_EEERKS4_S6_
	addi	s1, s0, -320
	mv	a0, s1
	mv	a1, s6
	mv	a2, s3
	call	_ZN3glmplIdLNS_9qualifierE0EEENS_3vecILi3ET_XT0_EEERKS4_S6_
	addi	s6, s0, -296
	mv	a0, s6
	mv	a1, s1
	call	_ZN3glm4sqrtILi3EdLNS_9qualifierE0EEENS_3vecIXT_ET0_XT1_EEERKS4_
	ld	a2, -120(s0)
	addi	s4, s0, -440
	mv	a0, s4
	mv	a1, s6
	call	_ZN3glmplIdLNS_9qualifierE0EEENS_3vecILi3ET_XT0_EEERKS4_S3_
	fld	ft0, -112(s0)
	fadd.d	ft0, ft0, ft0
	fsd	ft0, -808(s0)
	addi	s7, s0, -536
	mv	a0, s7
	mv	a1, s6
	mv	a2, s5
	call	_ZN3glmplIdLNS_9qualifierE0EEENS_3vecILi3ET_XT0_EEERKS4_S6_
	addi	a0, zero, 511
	slli	s3, a0, 53
	addi	s1, s0, -512
	mv	a0, s1
	mv	a1, s3
	mv	a2, s7
	call	_ZN3glmmlIdLNS_9qualifierE0EEENS_3vecILi3ET_XT0_EEES3_RKS4_
	addi	s5, s0, -488
	mv	a0, s5
	mv	a1, s1
	call	_ZN3glm4sqrtILi3EdLNS_9qualifierE0EEENS_3vecIXT_ET0_XT1_EEERKS4_
	fld	ft0, -808(s0)
	fmv.x.d	a1, ft0
	addi	s7, s0, -464
	mv	a0, s7
	mv	a2, s5
	call	_ZN3glmmlIdLNS_9qualifierE0EEENS_3vecILi3ET_XT0_EEES3_RKS4_
	addi	s5, s0, -584
	mv	a0, s5
	mv	a1, s4
	mv	a2, s7
	call	_ZN3glmmiIdLNS_9qualifierE0EEENS_3vecILi3ET_XT0_EEERKS4_S6_
	addi	s1, s0, -608
	mv	a0, s1
	mv	a1, s4
	mv	a2, s7
	call	_ZN3glmplIdLNS_9qualifierE0EEENS_3vecILi3ET_XT0_EEERKS4_S6_
	addi	s4, s0, -560
	mv	a0, s4
	mv	a1, s5
	mv	a2, s1
	call	_ZN3glmdvIdLNS_9qualifierE0EEENS_3vecILi3ET_XT0_EEERKS4_S6_
	ld	a1, -120(s0)
	addi	s1, s0, -656
	mv	a0, s1
	mv	a2, s6
	call	_ZN3glmmlIdLNS_9qualifierE0EEENS_3vecILi3ET_XT0_EEES3_RKS4_
	ld	a0, -128(s0)
	call	_Z4pow2IdET_S0_
	mv	a2, a0
	addi	s5, s0, -632
	mv	a0, s5
	mv	a1, s1
	call	_ZN3glmplIdLNS_9qualifierE0EEENS_3vecILi3ET_XT0_EEERKS4_S3_
	ld	a2, -128(s0)
	addi	s6, s0, -680
	mv	a0, s6
	mv	a1, s7
	call	_ZN3glmmlIdLNS_9qualifierE0EEENS_3vecILi3ET_XT0_EEERKS4_S3_
	addi	s1, s0, -752
	mv	a0, s1
	mv	a1, s5
	mv	a2, s6
	call	_ZN3glmmiIdLNS_9qualifierE0EEENS_3vecILi3ET_XT0_EEERKS4_S6_
	addi	s7, s0, -728
	mv	a0, s7
	mv	a1, s4
	mv	a2, s1
	call	_ZN3glmmlIdLNS_9qualifierE0EEENS_3vecILi3ET_XT0_EEERKS4_S6_
	addi	s8, s0, -776
	mv	a0, s8
	mv	a1, s5
	mv	a2, s6
	call	_ZN3glmplIdLNS_9qualifierE0EEENS_3vecILi3ET_XT0_EEERKS4_S6_
	addi	s5, s0, -704
	mv	a0, s5
	mv	a1, s7
	mv	a2, s8
	call	_ZN3glmdvIdLNS_9qualifierE0EEENS_3vecILi3ET_XT0_EEERKS4_S6_
	addi	s1, s0, -800
	mv	a0, s1
	mv	a1, s5
	mv	a2, s4
	call	_ZN3glmplIdLNS_9qualifierE0EEENS_3vecILi3ET_XT0_EEERKS4_S6_
	mv	a0, s2
	mv	a1, s1
	mv	a2, s3
	call	_ZN3glmmlIdLNS_9qualifierE0EEENS_3vecILi3ET_XT0_EEERKS4_S3_
	ld	s8, 736(sp)
	ld	s7, 744(sp)
	ld	s6, 752(sp)
	ld	s5, 760(sp)
	ld	s4, 768(sp)
	ld	s3, 776(sp)
	ld	s2, 784(sp)
	ld	s1, 792(sp)
	ld	s0, 800(sp)
	.cfi_def_cfa sp, 816
	ld	ra, 808(sp)
	.cfi_restore ra
	.cfi_restore s0
	.cfi_restore s1
	.cfi_restore s2
	.cfi_restore s3
	.cfi_restore s4
	.cfi_restore s5
	.cfi_restore s6
	.cfi_restore s7
	.cfi_restore s8
	addi	sp, sp, 816
	.cfi_def_cfa_offset 0
	ret
.Lfunc_end2:
	.size	_ZN7Fresnel9conductorEdP10ComplexIORd, .Lfunc_end2-_ZN7Fresnel9conductorEdP10ComplexIORd
	.cfi_endproc
                                        # -- End function
	.section	.text._Z4pow2IN3glm3vecILi3EdLNS0_9qualifierE0EEEET_S4_,"axG",@progbits,_Z4pow2IN3glm3vecILi3EdLNS0_9qualifierE0EEEET_S4_,comdat
	.weak	_Z4pow2IN3glm3vecILi3EdLNS0_9qualifierE0EEEET_S4_ # -- Begin function _Z4pow2IN3glm3vecILi3EdLNS0_9qualifierE0EEEET_S4_
	.p2align	2
	.type	_Z4pow2IN3glm3vecILi3EdLNS0_9qualifierE0EEEET_S4_,@function
_Z4pow2IN3glm3vecILi3EdLNS0_9qualifierE0EEEET_S4_: # @_Z4pow2IN3glm3vecILi3EdLNS0_9qualifierE0EEEET_S4_
	.cfi_startproc
# %bb.0:                                # %entry
	addi	sp, sp, -32
	.cfi_def_cfa_offset 32
	sd	ra, 24(sp)
	sd	s0, 16(sp)
	.cfi_offset ra, -8
	.cfi_offset s0, -16
	addi	s0, sp, 32
	.cfi_def_cfa s0, 0
	sd	a0, -24(s0)
	mv	a2, a1
	call	_ZN3glmmlIdLNS_9qualifierE0EEENS_3vecILi3ET_XT0_EEERKS4_S6_
	ld	s0, 16(sp)
	.cfi_def_cfa sp, 32
	ld	ra, 24(sp)
	.cfi_restore ra
	.cfi_restore s0
	addi	sp, sp, 32
	.cfi_def_cfa_offset 0
	ret
.Lfunc_end3:
	.size	_Z4pow2IN3glm3vecILi3EdLNS0_9qualifierE0EEEET_S4_, .Lfunc_end3-_Z4pow2IN3glm3vecILi3EdLNS0_9qualifierE0EEEET_S4_
	.cfi_endproc
                                        # -- End function
	.section	.text._ZN3glmdvIdLNS_9qualifierE0EEENS_3vecILi3ET_XT0_EEERKS4_S3_,"axG",@progbits,_ZN3glmdvIdLNS_9qualifierE0EEENS_3vecILi3ET_XT0_EEERKS4_S3_,comdat
	.weak	_ZN3glmdvIdLNS_9qualifierE0EEENS_3vecILi3ET_XT0_EEERKS4_S3_ # -- Begin function _ZN3glmdvIdLNS_9qualifierE0EEENS_3vecILi3ET_XT0_EEERKS4_S3_
	.p2align	2
	.type	_ZN3glmdvIdLNS_9qualifierE0EEENS_3vecILi3ET_XT0_EEERKS4_S3_,@function
_ZN3glmdvIdLNS_9qualifierE0EEENS_3vecILi3ET_XT0_EEERKS4_S3_: # @_ZN3glmdvIdLNS_9qualifierE0EEENS_3vecILi3ET_XT0_EEERKS4_S3_
	.cfi_startproc
# %bb.0:                                # %entry
	addi	sp, sp, -48
	.cfi_def_cfa_offset 48
	sd	ra, 40(sp)
	sd	s0, 32(sp)
	.cfi_offset ra, -8
	.cfi_offset s0, -16
	addi	s0, sp, 48
	.cfi_def_cfa s0, 0
	fmv.d.x	ft0, a2
	sd	a0, -24(s0)
	sd	a1, -32(s0)
	sd	a2, -40(s0)
	ld	a1, -32(s0)
	fld	ft0, 0(a1)
	fld	ft1, -40(s0)
	fdiv.d	ft0, ft0, ft1
	fld	ft2, 8(a1)
	fdiv.d	ft2, ft2, ft1
	fld	ft3, 16(a1)
	fdiv.d	ft1, ft3, ft1
	fmv.x.d	a1, ft0
	fmv.x.d	a2, ft2
	fmv.x.d	a3, ft1
	call	_ZN3glm3vecILi3EdLNS_9qualifierE0EEC2Eddd
	ld	s0, 32(sp)
	.cfi_def_cfa sp, 48
	ld	ra, 40(sp)
	.cfi_restore ra
	.cfi_restore s0
	addi	sp, sp, 48
	.cfi_def_cfa_offset 0
	ret
.Lfunc_end4:
	.size	_ZN3glmdvIdLNS_9qualifierE0EEENS_3vecILi3ET_XT0_EEERKS4_S3_, .Lfunc_end4-_ZN3glmdvIdLNS_9qualifierE0EEENS_3vecILi3ET_XT0_EEERKS4_S3_
	.cfi_endproc
                                        # -- End function
	.section	.text._ZN3glmmiIdLNS_9qualifierE0EEENS_3vecILi3ET_XT0_EEERKS4_S3_,"axG",@progbits,_ZN3glmmiIdLNS_9qualifierE0EEENS_3vecILi3ET_XT0_EEERKS4_S3_,comdat
	.weak	_ZN3glmmiIdLNS_9qualifierE0EEENS_3vecILi3ET_XT0_EEERKS4_S3_ # -- Begin function _ZN3glmmiIdLNS_9qualifierE0EEENS_3vecILi3ET_XT0_EEERKS4_S3_
	.p2align	2
	.type	_ZN3glmmiIdLNS_9qualifierE0EEENS_3vecILi3ET_XT0_EEERKS4_S3_,@function
_ZN3glmmiIdLNS_9qualifierE0EEENS_3vecILi3ET_XT0_EEERKS4_S3_: # @_ZN3glmmiIdLNS_9qualifierE0EEENS_3vecILi3ET_XT0_EEERKS4_S3_
	.cfi_startproc
# %bb.0:                                # %entry
	addi	sp, sp, -48
	.cfi_def_cfa_offset 48
	sd	ra, 40(sp)
	sd	s0, 32(sp)
	.cfi_offset ra, -8
	.cfi_offset s0, -16
	addi	s0, sp, 48
	.cfi_def_cfa s0, 0
	fmv.d.x	ft0, a2
	sd	a0, -24(s0)
	sd	a1, -32(s0)
	sd	a2, -40(s0)
	ld	a1, -32(s0)
	fld	ft0, 0(a1)
	fld	ft1, -40(s0)
	fsub.d	ft0, ft0, ft1
	fld	ft2, 8(a1)
	fsub.d	ft2, ft2, ft1
	fld	ft3, 16(a1)
	fsub.d	ft1, ft3, ft1
	fmv.x.d	a1, ft0
	fmv.x.d	a2, ft2
	fmv.x.d	a3, ft1
	call	_ZN3glm3vecILi3EdLNS_9qualifierE0EEC2Eddd
	ld	s0, 32(sp)
	.cfi_def_cfa sp, 48
	ld	ra, 40(sp)
	.cfi_restore ra
	.cfi_restore s0
	addi	sp, sp, 48
	.cfi_def_cfa_offset 0
	ret
.Lfunc_end5:
	.size	_ZN3glmmiIdLNS_9qualifierE0EEENS_3vecILi3ET_XT0_EEERKS4_S3_, .Lfunc_end5-_ZN3glmmiIdLNS_9qualifierE0EEENS_3vecILi3ET_XT0_EEERKS4_S3_
	.cfi_endproc
                                        # -- End function
	.section	.text._ZN3glmmiIdLNS_9qualifierE0EEENS_3vecILi3ET_XT0_EEERKS4_S6_,"axG",@progbits,_ZN3glmmiIdLNS_9qualifierE0EEENS_3vecILi3ET_XT0_EEERKS4_S6_,comdat
	.weak	_ZN3glmmiIdLNS_9qualifierE0EEENS_3vecILi3ET_XT0_EEERKS4_S6_ # -- Begin function _ZN3glmmiIdLNS_9qualifierE0EEENS_3vecILi3ET_XT0_EEERKS4_S6_
	.p2align	2
	.type	_ZN3glmmiIdLNS_9qualifierE0EEENS_3vecILi3ET_XT0_EEERKS4_S6_,@function
_ZN3glmmiIdLNS_9qualifierE0EEENS_3vecILi3ET_XT0_EEERKS4_S6_: # @_ZN3glmmiIdLNS_9qualifierE0EEENS_3vecILi3ET_XT0_EEERKS4_S6_
	.cfi_startproc
# %bb.0:                                # %entry
	addi	sp, sp, -48
	.cfi_def_cfa_offset 48
	sd	ra, 40(sp)
	sd	s0, 32(sp)
	.cfi_offset ra, -8
	.cfi_offset s0, -16
	addi	s0, sp, 48
	.cfi_def_cfa s0, 0
	sd	a0, -24(s0)
	sd	a1, -32(s0)
	sd	a2, -40(s0)
	ld	a1, -32(s0)
	fld	ft0, 0(a1)
	ld	a2, -40(s0)
	fld	ft1, 0(a2)
	fsub.d	ft0, ft0, ft1
	fld	ft1, 8(a1)
	fld	ft2, 8(a2)
	fsub.d	ft1, ft1, ft2
	fld	ft2, 16(a1)
	fld	ft3, 16(a2)
	fsub.d	ft2, ft2, ft3
	fmv.x.d	a1, ft0
	fmv.x.d	a2, ft1
	fmv.x.d	a3, ft2
	call	_ZN3glm3vecILi3EdLNS_9qualifierE0EEC2Eddd
	ld	s0, 32(sp)
	.cfi_def_cfa sp, 48
	ld	ra, 40(sp)
	.cfi_restore ra
	.cfi_restore s0
	addi	sp, sp, 48
	.cfi_def_cfa_offset 0
	ret
.Lfunc_end6:
	.size	_ZN3glmmiIdLNS_9qualifierE0EEENS_3vecILi3ET_XT0_EEERKS4_S6_, .Lfunc_end6-_ZN3glmmiIdLNS_9qualifierE0EEENS_3vecILi3ET_XT0_EEERKS4_S6_
	.cfi_endproc
                                        # -- End function
	.section	.text._ZN3glm4sqrtILi3EdLNS_9qualifierE0EEENS_3vecIXT_ET0_XT1_EEERKS4_,"axG",@progbits,_ZN3glm4sqrtILi3EdLNS_9qualifierE0EEENS_3vecIXT_ET0_XT1_EEERKS4_,comdat
	.weak	_ZN3glm4sqrtILi3EdLNS_9qualifierE0EEENS_3vecIXT_ET0_XT1_EEERKS4_ # -- Begin function _ZN3glm4sqrtILi3EdLNS_9qualifierE0EEENS_3vecIXT_ET0_XT1_EEERKS4_
	.p2align	2
	.type	_ZN3glm4sqrtILi3EdLNS_9qualifierE0EEENS_3vecIXT_ET0_XT1_EEERKS4_,@function
_ZN3glm4sqrtILi3EdLNS_9qualifierE0EEENS_3vecIXT_ET0_XT1_EEERKS4_: # @_ZN3glm4sqrtILi3EdLNS_9qualifierE0EEENS_3vecIXT_ET0_XT1_EEERKS4_
	.cfi_startproc
# %bb.0:                                # %entry
	addi	sp, sp, -32
	.cfi_def_cfa_offset 32
	sd	ra, 24(sp)
	sd	s0, 16(sp)
	.cfi_offset ra, -8
	.cfi_offset s0, -16
	addi	s0, sp, 32
	.cfi_def_cfa s0, 0
	sd	a0, -24(s0)
	sd	a1, -32(s0)
	ld	a1, -32(s0)
	call	_ZN3glm6detail12compute_sqrtILi3EdLNS_9qualifierE0ELb0EE4callERKNS_3vecILi3EdLS2_0EEE
	ld	s0, 16(sp)
	.cfi_def_cfa sp, 32
	ld	ra, 24(sp)
	.cfi_restore ra
	.cfi_restore s0
	addi	sp, sp, 32
	.cfi_def_cfa_offset 0
	ret
.Lfunc_end7:
	.size	_ZN3glm4sqrtILi3EdLNS_9qualifierE0EEENS_3vecIXT_ET0_XT1_EEERKS4_, .Lfunc_end7-_ZN3glm4sqrtILi3EdLNS_9qualifierE0EEENS_3vecIXT_ET0_XT1_EEERKS4_
	.cfi_endproc
                                        # -- End function
	.section	.text._ZN3glmplIdLNS_9qualifierE0EEENS_3vecILi3ET_XT0_EEERKS4_S6_,"axG",@progbits,_ZN3glmplIdLNS_9qualifierE0EEENS_3vecILi3ET_XT0_EEERKS4_S6_,comdat
	.weak	_ZN3glmplIdLNS_9qualifierE0EEENS_3vecILi3ET_XT0_EEERKS4_S6_ # -- Begin function _ZN3glmplIdLNS_9qualifierE0EEENS_3vecILi3ET_XT0_EEERKS4_S6_
	.p2align	2
	.type	_ZN3glmplIdLNS_9qualifierE0EEENS_3vecILi3ET_XT0_EEERKS4_S6_,@function
_ZN3glmplIdLNS_9qualifierE0EEENS_3vecILi3ET_XT0_EEERKS4_S6_: # @_ZN3glmplIdLNS_9qualifierE0EEENS_3vecILi3ET_XT0_EEERKS4_S6_
	.cfi_startproc
# %bb.0:                                # %entry
	addi	sp, sp, -48
	.cfi_def_cfa_offset 48
	sd	ra, 40(sp)
	sd	s0, 32(sp)
	.cfi_offset ra, -8
	.cfi_offset s0, -16
	addi	s0, sp, 48
	.cfi_def_cfa s0, 0
	sd	a0, -24(s0)
	sd	a1, -32(s0)
	sd	a2, -40(s0)
	ld	a1, -32(s0)
	fld	ft0, 0(a1)
	ld	a2, -40(s0)
	fld	ft1, 0(a2)
	fadd.d	ft0, ft0, ft1
	fld	ft1, 8(a1)
	fld	ft2, 8(a2)
	fadd.d	ft1, ft1, ft2
	fld	ft2, 16(a1)
	fld	ft3, 16(a2)
	fadd.d	ft2, ft2, ft3
	fmv.x.d	a1, ft0
	fmv.x.d	a2, ft1
	fmv.x.d	a3, ft2
	call	_ZN3glm3vecILi3EdLNS_9qualifierE0EEC2Eddd
	ld	s0, 32(sp)
	.cfi_def_cfa sp, 48
	ld	ra, 40(sp)
	.cfi_restore ra
	.cfi_restore s0
	addi	sp, sp, 48
	.cfi_def_cfa_offset 0
	ret
.Lfunc_end8:
	.size	_ZN3glmplIdLNS_9qualifierE0EEENS_3vecILi3ET_XT0_EEERKS4_S6_, .Lfunc_end8-_ZN3glmplIdLNS_9qualifierE0EEENS_3vecILi3ET_XT0_EEERKS4_S6_
	.cfi_endproc
                                        # -- End function
	.section	.text._ZN3glmmlIdLNS_9qualifierE0EEENS_3vecILi3ET_XT0_EEERKS4_S6_,"axG",@progbits,_ZN3glmmlIdLNS_9qualifierE0EEENS_3vecILi3ET_XT0_EEERKS4_S6_,comdat
	.weak	_ZN3glmmlIdLNS_9qualifierE0EEENS_3vecILi3ET_XT0_EEERKS4_S6_ # -- Begin function _ZN3glmmlIdLNS_9qualifierE0EEENS_3vecILi3ET_XT0_EEERKS4_S6_
	.p2align	2
	.type	_ZN3glmmlIdLNS_9qualifierE0EEENS_3vecILi3ET_XT0_EEERKS4_S6_,@function
_ZN3glmmlIdLNS_9qualifierE0EEENS_3vecILi3ET_XT0_EEERKS4_S6_: # @_ZN3glmmlIdLNS_9qualifierE0EEENS_3vecILi3ET_XT0_EEERKS4_S6_
	.cfi_startproc
# %bb.0:                                # %entry
	addi	sp, sp, -48
	.cfi_def_cfa_offset 48
	sd	ra, 40(sp)
	sd	s0, 32(sp)
	.cfi_offset ra, -8
	.cfi_offset s0, -16
	addi	s0, sp, 48
	.cfi_def_cfa s0, 0
	sd	a0, -24(s0)
	sd	a1, -32(s0)
	sd	a2, -40(s0)
	ld	a1, -32(s0)
	fld	ft0, 0(a1)
	ld	a2, -40(s0)
	fld	ft1, 0(a2)
	fmul.d	ft0, ft0, ft1
	fld	ft1, 8(a1)
	fld	ft2, 8(a2)
	fmul.d	ft1, ft1, ft2
	fld	ft2, 16(a1)
	fld	ft3, 16(a2)
	fmul.d	ft2, ft2, ft3
	fmv.x.d	a1, ft0
	fmv.x.d	a2, ft1
	fmv.x.d	a3, ft2
	call	_ZN3glm3vecILi3EdLNS_9qualifierE0EEC2Eddd
	ld	s0, 32(sp)
	.cfi_def_cfa sp, 48
	ld	ra, 40(sp)
	.cfi_restore ra
	.cfi_restore s0
	addi	sp, sp, 48
	.cfi_def_cfa_offset 0
	ret
.Lfunc_end9:
	.size	_ZN3glmmlIdLNS_9qualifierE0EEENS_3vecILi3ET_XT0_EEERKS4_S6_, .Lfunc_end9-_ZN3glmmlIdLNS_9qualifierE0EEENS_3vecILi3ET_XT0_EEERKS4_S6_
	.cfi_endproc
                                        # -- End function
	.section	.text._ZN3glmmlIdLNS_9qualifierE0EEENS_3vecILi3ET_XT0_EEES3_RKS4_,"axG",@progbits,_ZN3glmmlIdLNS_9qualifierE0EEENS_3vecILi3ET_XT0_EEES3_RKS4_,comdat
	.weak	_ZN3glmmlIdLNS_9qualifierE0EEENS_3vecILi3ET_XT0_EEES3_RKS4_ # -- Begin function _ZN3glmmlIdLNS_9qualifierE0EEENS_3vecILi3ET_XT0_EEES3_RKS4_
	.p2align	2
	.type	_ZN3glmmlIdLNS_9qualifierE0EEENS_3vecILi3ET_XT0_EEES3_RKS4_,@function
_ZN3glmmlIdLNS_9qualifierE0EEENS_3vecILi3ET_XT0_EEES3_RKS4_: # @_ZN3glmmlIdLNS_9qualifierE0EEENS_3vecILi3ET_XT0_EEES3_RKS4_
	.cfi_startproc
# %bb.0:                                # %entry
	addi	sp, sp, -48
	.cfi_def_cfa_offset 48
	sd	ra, 40(sp)
	sd	s0, 32(sp)
	.cfi_offset ra, -8
	.cfi_offset s0, -16
	addi	s0, sp, 48
	.cfi_def_cfa s0, 0
	fmv.d.x	ft0, a1
	sd	a0, -24(s0)
	sd	a1, -32(s0)
	sd	a2, -40(s0)
	fld	ft0, -32(s0)
	ld	a1, -40(s0)
	fld	ft1, 0(a1)
	fmul.d	ft1, ft0, ft1
	fld	ft2, 8(a1)
	fmul.d	ft2, ft0, ft2
	fld	ft3, 16(a1)
	fmul.d	ft0, ft0, ft3
	fmv.x.d	a1, ft1
	fmv.x.d	a2, ft2
	fmv.x.d	a3, ft0
	call	_ZN3glm3vecILi3EdLNS_9qualifierE0EEC2Eddd
	ld	s0, 32(sp)
	.cfi_def_cfa sp, 48
	ld	ra, 40(sp)
	.cfi_restore ra
	.cfi_restore s0
	addi	sp, sp, 48
	.cfi_def_cfa_offset 0
	ret
.Lfunc_end10:
	.size	_ZN3glmmlIdLNS_9qualifierE0EEENS_3vecILi3ET_XT0_EEES3_RKS4_, .Lfunc_end10-_ZN3glmmlIdLNS_9qualifierE0EEENS_3vecILi3ET_XT0_EEES3_RKS4_
	.cfi_endproc
                                        # -- End function
	.section	.text._ZN3glmplIdLNS_9qualifierE0EEENS_3vecILi3ET_XT0_EEERKS4_S3_,"axG",@progbits,_ZN3glmplIdLNS_9qualifierE0EEENS_3vecILi3ET_XT0_EEERKS4_S3_,comdat
	.weak	_ZN3glmplIdLNS_9qualifierE0EEENS_3vecILi3ET_XT0_EEERKS4_S3_ # -- Begin function _ZN3glmplIdLNS_9qualifierE0EEENS_3vecILi3ET_XT0_EEERKS4_S3_
	.p2align	2
	.type	_ZN3glmplIdLNS_9qualifierE0EEENS_3vecILi3ET_XT0_EEERKS4_S3_,@function
_ZN3glmplIdLNS_9qualifierE0EEENS_3vecILi3ET_XT0_EEERKS4_S3_: # @_ZN3glmplIdLNS_9qualifierE0EEENS_3vecILi3ET_XT0_EEERKS4_S3_
	.cfi_startproc
# %bb.0:                                # %entry
	addi	sp, sp, -48
	.cfi_def_cfa_offset 48
	sd	ra, 40(sp)
	sd	s0, 32(sp)
	.cfi_offset ra, -8
	.cfi_offset s0, -16
	addi	s0, sp, 48
	.cfi_def_cfa s0, 0
	fmv.d.x	ft0, a2
	sd	a0, -24(s0)
	sd	a1, -32(s0)
	sd	a2, -40(s0)
	ld	a1, -32(s0)
	fld	ft0, 0(a1)
	fld	ft1, -40(s0)
	fadd.d	ft0, ft0, ft1
	fld	ft2, 8(a1)
	fadd.d	ft2, ft2, ft1
	fld	ft3, 16(a1)
	fadd.d	ft1, ft3, ft1
	fmv.x.d	a1, ft0
	fmv.x.d	a2, ft2
	fmv.x.d	a3, ft1
	call	_ZN3glm3vecILi3EdLNS_9qualifierE0EEC2Eddd
	ld	s0, 32(sp)
	.cfi_def_cfa sp, 48
	ld	ra, 40(sp)
	.cfi_restore ra
	.cfi_restore s0
	addi	sp, sp, 48
	.cfi_def_cfa_offset 0
	ret
.Lfunc_end11:
	.size	_ZN3glmplIdLNS_9qualifierE0EEENS_3vecILi3ET_XT0_EEERKS4_S3_, .Lfunc_end11-_ZN3glmplIdLNS_9qualifierE0EEENS_3vecILi3ET_XT0_EEERKS4_S3_
	.cfi_endproc
                                        # -- End function
	.section	.text._ZN3glmdvIdLNS_9qualifierE0EEENS_3vecILi3ET_XT0_EEERKS4_S6_,"axG",@progbits,_ZN3glmdvIdLNS_9qualifierE0EEENS_3vecILi3ET_XT0_EEERKS4_S6_,comdat
	.weak	_ZN3glmdvIdLNS_9qualifierE0EEENS_3vecILi3ET_XT0_EEERKS4_S6_ # -- Begin function _ZN3glmdvIdLNS_9qualifierE0EEENS_3vecILi3ET_XT0_EEERKS4_S6_
	.p2align	2
	.type	_ZN3glmdvIdLNS_9qualifierE0EEENS_3vecILi3ET_XT0_EEERKS4_S6_,@function
_ZN3glmdvIdLNS_9qualifierE0EEENS_3vecILi3ET_XT0_EEERKS4_S6_: # @_ZN3glmdvIdLNS_9qualifierE0EEENS_3vecILi3ET_XT0_EEERKS4_S6_
	.cfi_startproc
# %bb.0:                                # %entry
	addi	sp, sp, -48
	.cfi_def_cfa_offset 48
	sd	ra, 40(sp)
	sd	s0, 32(sp)
	.cfi_offset ra, -8
	.cfi_offset s0, -16
	addi	s0, sp, 48
	.cfi_def_cfa s0, 0
	sd	a0, -24(s0)
	sd	a1, -32(s0)
	sd	a2, -40(s0)
	ld	a1, -32(s0)
	fld	ft0, 0(a1)
	ld	a2, -40(s0)
	fld	ft1, 0(a2)
	fdiv.d	ft0, ft0, ft1
	fld	ft1, 8(a1)
	fld	ft2, 8(a2)
	fdiv.d	ft1, ft1, ft2
	fld	ft2, 16(a1)
	fld	ft3, 16(a2)
	fdiv.d	ft2, ft2, ft3
	fmv.x.d	a1, ft0
	fmv.x.d	a2, ft1
	fmv.x.d	a3, ft2
	call	_ZN3glm3vecILi3EdLNS_9qualifierE0EEC2Eddd
	ld	s0, 32(sp)
	.cfi_def_cfa sp, 48
	ld	ra, 40(sp)
	.cfi_restore ra
	.cfi_restore s0
	addi	sp, sp, 48
	.cfi_def_cfa_offset 0
	ret
.Lfunc_end12:
	.size	_ZN3glmdvIdLNS_9qualifierE0EEENS_3vecILi3ET_XT0_EEERKS4_S6_, .Lfunc_end12-_ZN3glmdvIdLNS_9qualifierE0EEENS_3vecILi3ET_XT0_EEERKS4_S6_
	.cfi_endproc
                                        # -- End function
	.section	.text._ZN3glmmlIdLNS_9qualifierE0EEENS_3vecILi3ET_XT0_EEERKS4_S3_,"axG",@progbits,_ZN3glmmlIdLNS_9qualifierE0EEENS_3vecILi3ET_XT0_EEERKS4_S3_,comdat
	.weak	_ZN3glmmlIdLNS_9qualifierE0EEENS_3vecILi3ET_XT0_EEERKS4_S3_ # -- Begin function _ZN3glmmlIdLNS_9qualifierE0EEENS_3vecILi3ET_XT0_EEERKS4_S3_
	.p2align	2
	.type	_ZN3glmmlIdLNS_9qualifierE0EEENS_3vecILi3ET_XT0_EEERKS4_S3_,@function
_ZN3glmmlIdLNS_9qualifierE0EEENS_3vecILi3ET_XT0_EEERKS4_S3_: # @_ZN3glmmlIdLNS_9qualifierE0EEENS_3vecILi3ET_XT0_EEERKS4_S3_
	.cfi_startproc
# %bb.0:                                # %entry
	addi	sp, sp, -48
	.cfi_def_cfa_offset 48
	sd	ra, 40(sp)
	sd	s0, 32(sp)
	.cfi_offset ra, -8
	.cfi_offset s0, -16
	addi	s0, sp, 48
	.cfi_def_cfa s0, 0
	fmv.d.x	ft0, a2
	sd	a0, -24(s0)
	sd	a1, -32(s0)
	sd	a2, -40(s0)
	ld	a1, -32(s0)
	fld	ft0, 0(a1)
	fld	ft1, -40(s0)
	fmul.d	ft0, ft0, ft1
	fld	ft2, 8(a1)
	fmul.d	ft2, ft2, ft1
	fld	ft3, 16(a1)
	fmul.d	ft1, ft3, ft1
	fmv.x.d	a1, ft0
	fmv.x.d	a2, ft2
	fmv.x.d	a3, ft1
	call	_ZN3glm3vecILi3EdLNS_9qualifierE0EEC2Eddd
	ld	s0, 32(sp)
	.cfi_def_cfa sp, 48
	ld	ra, 40(sp)
	.cfi_restore ra
	.cfi_restore s0
	addi	sp, sp, 48
	.cfi_def_cfa_offset 0
	ret
.Lfunc_end13:
	.size	_ZN3glmmlIdLNS_9qualifierE0EEENS_3vecILi3ET_XT0_EEERKS4_S3_, .Lfunc_end13-_ZN3glmmlIdLNS_9qualifierE0EEENS_3vecILi3ET_XT0_EEERKS4_S3_
	.cfi_endproc
                                        # -- End function
	.section	.sdata,"aw",@progbits
	.p2align	3               # -- Begin function _Z9from_jsonRKN8nlohmann10basic_jsonISt3mapSt6vectorNSt7__cxx1112basic_stringIcSt11char_traitsIcESaIcEEEblmdSaNS_14adl_serializerEEER10ComplexIOR
.LCPI14_0:
	.quad	4652007308841189376     # double 1000
	.text
	.globl	_Z9from_jsonRKN8nlohmann10basic_jsonISt3mapSt6vectorNSt7__cxx1112basic_stringIcSt11char_traitsIcESaIcEEEblmdSaNS_14adl_serializerEEER10ComplexIOR
	.p2align	2
	.type	_Z9from_jsonRKN8nlohmann10basic_jsonISt3mapSt6vectorNSt7__cxx1112basic_stringIcSt11char_traitsIcESaIcEEEblmdSaNS_14adl_serializerEEER10ComplexIOR,@function
_Z9from_jsonRKN8nlohmann10basic_jsonISt3mapSt6vectorNSt7__cxx1112basic_stringIcSt11char_traitsIcESaIcEEEblmdSaNS_14adl_serializerEEER10ComplexIOR: # @_Z9from_jsonRKN8nlohmann10basic_jsonISt3mapSt6vectorNSt7__cxx1112basic_stringIcSt11char_traitsIcESaIcEEEblmdSaNS_14adl_serializerEEER10ComplexIOR
.Lfunc_begin0:
	.cfi_startproc
	.cfi_personality 155, DW.ref.__gxx_personality_v0
	.cfi_lsda 27, .Lexception0
# %bb.0:                                # %entry
	addi	sp, sp, -1360
	.cfi_def_cfa_offset 1360
	sd	ra, 1352(sp)
	sd	s0, 1344(sp)
	sd	s1, 1336(sp)
	.cfi_offset ra, -8
	.cfi_offset s0, -16
	.cfi_offset s1, -24
	addi	s0, sp, 1360
	.cfi_def_cfa s0, 0
	sd	a0, -104(s0)
	sd	a1, -112(s0)
	ld	a0, -104(s0)
	call	_ZNK8nlohmann10basic_jsonISt3mapSt6vectorNSt7__cxx1112basic_stringIcSt11char_traitsIcESaIcEEEblmdSaNS_14adl_serializerEE4typeEv
	addi	a1, zero, 1
	bne	a0, a1, .LBB14_14
	j	.LBB14_1
.LBB14_1:                               # %if.then
	ld	s1, -104(s0)
	addi	a2, s0, -176
	sd	a2, -96(s0)
	ld	a0, -96(s0)
	sd	a0, -88(s0)
.Ltmp47:
	lui	a0, %hi(.L.str)
	addi	a1, a0, %lo(.L.str)
	addi	a0, s0, -168
	call	_ZNSt7__cxx1112basic_stringIcSt11char_traitsIcESaIcEEC2IS3_EEPKcRKS3_
.Ltmp48:
	j	.LBB14_2
.LBB14_2:                               # %invoke.cont
.Ltmp50:
	addi	a0, zero, 1023
	slli	a1, a0, 52
	addi	a0, s0, -216
	call	_ZN3glm3vecILi3EdLNS_9qualifierE0EEC2Ed
.Ltmp51:
	j	.LBB14_3
.LBB14_3:                               # %invoke.cont4
.Ltmp52:
	addi	a0, s0, -136
	addi	a2, s0, -168
	addi	a3, s0, -216
	mv	a1, s1
	call	_Z11getOptionalIN3glm3vecILi3EdLNS0_9qualifierE0EEEET_RKN8nlohmann10basic_jsonISt3mapSt6vectorNSt7__cxx1112basic_stringIcSt11char_traitsIcESaIcEEEblmdSaNS5_14adl_serializerEEESE_S4_
.Ltmp53:
	j	.LBB14_4
.LBB14_4:                               # %invoke.cont5
	ld	a0, -112(s0)
	ld	a1, -120(s0)
	sd	a1, 16(a0)
	ld	a1, -128(s0)
	sd	a1, 8(a0)
	ld	a1, -136(s0)
	sd	a1, 0(a0)
	addi	a0, s0, -168
	call	_ZNSt7__cxx1112basic_stringIcSt11char_traitsIcESaIcEED1Ev
	addi	a0, s0, -176
	sd	a0, -80(s0)
	ld	a0, -80(s0)
	call	_ZNSt15__new_allocatorIcED2Ev
	ld	s1, -104(s0)
	addi	a2, s0, -280
	sd	a2, -72(s0)
	ld	a0, -72(s0)
	sd	a0, -64(s0)
.Ltmp55:
	lui	a0, %hi(.L.str.1)
	addi	a1, a0, %lo(.L.str.1)
	addi	a0, s0, -272
	call	_ZNSt7__cxx1112basic_stringIcSt11char_traitsIcESaIcEEC2IS3_EEPKcRKS3_
.Ltmp56:
	j	.LBB14_5
.LBB14_5:                               # %invoke.cont10
.Ltmp58:
	addi	a0, s0, -304
	mv	a1, zero
	call	_ZN3glm3vecILi3EdLNS_9qualifierE0EEC2Ed
.Ltmp59:
	j	.LBB14_6
.LBB14_6:                               # %invoke.cont13
.Ltmp60:
	addi	a0, s0, -240
	addi	a2, s0, -272
	addi	a3, s0, -304
	mv	a1, s1
	call	_Z11getOptionalIN3glm3vecILi3EdLNS0_9qualifierE0EEEET_RKN8nlohmann10basic_jsonISt3mapSt6vectorNSt7__cxx1112basic_stringIcSt11char_traitsIcESaIcEEEblmdSaNS5_14adl_serializerEEESE_S4_
.Ltmp61:
	j	.LBB14_7
.LBB14_7:                               # %invoke.cont14
	ld	a0, -112(s0)
	ld	a1, -224(s0)
	sd	a1, 40(a0)
	ld	a1, -232(s0)
	sd	a1, 32(a0)
	ld	a1, -240(s0)
	sd	a1, 24(a0)
	addi	a0, s0, -272
	call	_ZNSt7__cxx1112basic_stringIcSt11char_traitsIcESaIcEED1Ev
	addi	a0, s0, -280
	sd	a0, -56(s0)
	ld	a0, -56(s0)
	call	_ZNSt15__new_allocatorIcED2Ev
	j	.LBB14_65
.LBB14_8:                               # %lpad
.Ltmp49:
	sd	a0, -184(s0)
	sw	a1, -188(s0)
	j	.LBB14_10
.LBB14_9:                               # %lpad3
.Ltmp54:
	sd	a0, -184(s0)
	sw	a1, -188(s0)
	addi	a0, s0, -168
	call	_ZNSt7__cxx1112basic_stringIcSt11char_traitsIcESaIcEED1Ev
	j	.LBB14_10
.LBB14_10:                              # %ehcleanup
	addi	a0, s0, -176
	sd	a0, -48(s0)
	ld	a0, -48(s0)
	call	_ZNSt15__new_allocatorIcED2Ev
	j	.LBB14_66
.LBB14_11:                              # %lpad9
.Ltmp57:
	sd	a0, -184(s0)
	sw	a1, -188(s0)
	j	.LBB14_13
.LBB14_12:                              # %lpad12
.Ltmp62:
	sd	a0, -184(s0)
	sw	a1, -188(s0)
	addi	a0, s0, -272
	call	_ZNSt7__cxx1112basic_stringIcSt11char_traitsIcESaIcEED1Ev
	j	.LBB14_13
.LBB14_13:                              # %ehcleanup16
	addi	a0, s0, -280
	sd	a0, -40(s0)
	ld	a0, -40(s0)
	call	_ZNSt15__new_allocatorIcED2Ev
	j	.LBB14_66
.LBB14_14:                              # %if.else
	ld	a0, -104(s0)
	call	_ZNK8nlohmann10basic_jsonISt3mapSt6vectorNSt7__cxx1112basic_stringIcSt11char_traitsIcESaIcEEEblmdSaNS_14adl_serializerEE4typeEv
	addi	a1, zero, 3
	bne	a0, a1, .LBB14_64
	j	.LBB14_15
.LBB14_15:                              # %if.then19
	lui	a0, %hi(_ZN5Scene4pathB5cxx11E)
	addi	a1, a0, %lo(_ZN5Scene4pathB5cxx11E)
	lui	a0, %hi(.L.str.2)
	addi	a2, a0, %lo(.L.str.2)
	addi	a0, s0, -368
	call	_ZStplIcSt11char_traitsIcESaIcEENSt7__cxx1112basic_stringIT_T0_T1_EERKS8_PKS5_
	ld	a1, -104(s0)
.Ltmp0:
	addi	a0, s0, -400
	call	_ZNK8nlohmann10basic_jsonISt3mapSt6vectorNSt7__cxx1112basic_stringIcSt11char_traitsIcESaIcEEEblmdSaNS_14adl_serializerEE3getIS8_S8_Li0EEET0_v
.Ltmp1:
	j	.LBB14_16
.LBB14_16:                              # %invoke.cont23
.Ltmp3:
	addi	a0, s0, -336
	addi	a1, s0, -368
	addi	a2, s0, -400
	call	_ZStplIcSt11char_traitsIcESaIcEENSt7__cxx1112basic_stringIT_T0_T1_EEOS8_S9_
.Ltmp4:
	j	.LBB14_17
.LBB14_17:                              # %invoke.cont25
	addi	a0, s0, -400
	call	_ZNSt7__cxx1112basic_stringIcSt11char_traitsIcESaIcEED1Ev
	addi	a0, s0, -368
	call	_ZNSt7__cxx1112basic_stringIcSt11char_traitsIcESaIcEED1Ev
	addi	a0, s0, -448
	call	_ZNSt3setIN8Spectral5ValueIdEESt4lessIS2_ESaIS2_EEC2Ev
	addi	a0, s0, -496
	call	_ZNSt3setIN8Spectral5ValueIdEESt4lessIS2_ESaIS2_EEC2Ev
	addi	a0, zero, 110
	sb	a0, -497(s0)
.Ltmp6:
	addi	a0, s0, -992
	addi	a1, s0, -336
	addi	a2, zero, 8
	call	_ZNSt14basic_ifstreamIcSt11char_traitsIcEEC1ERKNSt7__cxx1112basic_stringIcS1_SaIcEEESt13_Ios_Openmode
.Ltmp7:
	j	.LBB14_18
.LBB14_18:                              # %invoke.cont31
	addi	a0, s0, -1024
	call	_ZNSt7__cxx1112basic_stringIcSt11char_traitsIcESaIcEEC1Ev
	j	.LBB14_19
.LBB14_19:                              # %while.cond
                                        # =>This Inner Loop Header: Depth=1
.Ltmp9:
	addi	a0, s0, -992
	addi	a1, s0, -1024
	call	_ZSt7getlineIcSt11char_traitsIcESaIcEERSt13basic_istreamIT_T0_ES7_RNSt7__cxx1112basic_stringIS4_S5_T1_EE
.Ltmp10:
	j	.LBB14_20
.LBB14_20:                              # %invoke.cont33
                                        #   in Loop: Header=BB14_19 Depth=1
	ld	a1, 0(a0)
	ld	a1, -24(a1)
	add	a0, a0, a1
.Ltmp11:
	call	_ZNKSt9basic_iosIcSt11char_traitsIcEEcvbEv
.Ltmp12:
	j	.LBB14_21
.LBB14_21:                              # %invoke.cont35
                                        #   in Loop: Header=BB14_19 Depth=1
	andi	a0, a0, 1
	beqz	a0, .LBB14_59
	j	.LBB14_22
.LBB14_22:                              # %while.body
                                        #   in Loop: Header=BB14_19 Depth=1
	addi	a0, s0, -1024
	addi	a1, zero, 44
	mv	a2, zero
	call	_ZNKSt7__cxx1112basic_stringIcSt11char_traitsIcESaIcEE4findEcm
	sd	a0, -1032(s0)
	ld	a0, -1032(s0)
	addi	a1, zero, -1
	beq	a0, a1, .LBB14_58
	j	.LBB14_23
.LBB14_23:                              # %if.then39
                                        #   in Loop: Header=BB14_19 Depth=1
	ld	a3, -1032(s0)
.Ltmp18:
	addi	a0, s0, -1064
	addi	a1, s0, -1024
	mv	a2, zero
	call	_ZNKSt7__cxx1112basic_stringIcSt11char_traitsIcESaIcEE6substrEmm
.Ltmp19:
	j	.LBB14_24
.LBB14_24:                              # %invoke.cont40
                                        #   in Loop: Header=BB14_19 Depth=1
	ld	a0, -1032(s0)
	addi	a2, a0, 1
.Ltmp21:
	addi	a0, s0, -1096
	addi	a1, s0, -1024
	addi	a3, zero, -1
	call	_ZNKSt7__cxx1112basic_stringIcSt11char_traitsIcESaIcEE6substrEmm
.Ltmp22:
	j	.LBB14_25
.LBB14_25:                              # %invoke.cont42
                                        #   in Loop: Header=BB14_19 Depth=1
	addi	s1, s0, -1064
	mv	a0, s1
	call	_ZNSt7__cxx1112basic_stringIcSt11char_traitsIcESaIcEE5beginEv
	sd	a0, -1120(s0)
	mv	a0, s1
	call	_ZNSt7__cxx1112basic_stringIcSt11char_traitsIcESaIcEE3endEv
	sd	a0, -1128(s0)
	addi	a0, zero, 32
	sb	a0, -1129(s0)
	ld	a0, -1120(s0)
	ld	a1, -1128(s0)
.Ltmp24:
	addi	a2, s0, -1129
	call	_ZSt6removeIN9__gnu_cxx17__normal_iteratorIPcNSt7__cxx1112basic_stringIcSt11char_traitsIcESaIcEEEEEcET_SA_SA_RKT0_
.Ltmp25:
	j	.LBB14_26
.LBB14_26:                              # %invoke.cont56
                                        #   in Loop: Header=BB14_19 Depth=1
	sd	a0, -1112(s0)
	addi	a0, s0, -1104
	addi	a1, s0, -1112
	call	_ZN9__gnu_cxx17__normal_iteratorIPKcNSt7__cxx1112basic_stringIcSt11char_traitsIcESaIcEEEEC2IPcvEERKNS0_IT_S8_EE
	addi	s1, s0, -1064
	mv	a0, s1
	call	_ZNSt7__cxx1112basic_stringIcSt11char_traitsIcESaIcEE3endEv
	sd	a0, -1152(s0)
	addi	a0, s0, -1144
	addi	a1, s0, -1152
	call	_ZN9__gnu_cxx17__normal_iteratorIPKcNSt7__cxx1112basic_stringIcSt11char_traitsIcESaIcEEEEC2IPcvEERKNS0_IT_S8_EE
	ld	a1, -1104(s0)
	ld	a2, -1144(s0)
.Ltmp26:
	mv	a0, s1
	call	_ZNSt7__cxx1112basic_stringIcSt11char_traitsIcESaIcEE5eraseEN9__gnu_cxx17__normal_iteratorIPKcS4_EES9_
.Ltmp27:
	j	.LBB14_27
.LBB14_27:                              # %invoke.cont69
                                        #   in Loop: Header=BB14_19 Depth=1
	sd	a0, -1160(s0)
	addi	s1, s0, -1096
	mv	a0, s1
	call	_ZNSt7__cxx1112basic_stringIcSt11char_traitsIcESaIcEE5beginEv
	sd	a0, -1184(s0)
	mv	a0, s1
	call	_ZNSt7__cxx1112basic_stringIcSt11char_traitsIcESaIcEE3endEv
	sd	a0, -1192(s0)
	addi	a0, zero, 32
	sb	a0, -1193(s0)
	ld	a0, -1184(s0)
	ld	a1, -1192(s0)
.Ltmp28:
	addi	a2, s0, -1193
	call	_ZSt6removeIN9__gnu_cxx17__normal_iteratorIPcNSt7__cxx1112basic_stringIcSt11char_traitsIcESaIcEEEEEcET_SA_SA_RKT0_
.Ltmp29:
	j	.LBB14_28
.LBB14_28:                              # %invoke.cont88
                                        #   in Loop: Header=BB14_19 Depth=1
	sd	a0, -1176(s0)
	addi	a0, s0, -1168
	addi	a1, s0, -1176
	call	_ZN9__gnu_cxx17__normal_iteratorIPKcNSt7__cxx1112basic_stringIcSt11char_traitsIcESaIcEEEEC2IPcvEERKNS0_IT_S8_EE
	addi	s1, s0, -1096
	mv	a0, s1
	call	_ZNSt7__cxx1112basic_stringIcSt11char_traitsIcESaIcEE3endEv
	sd	a0, -1216(s0)
	addi	a0, s0, -1208
	addi	a1, s0, -1216
	call	_ZN9__gnu_cxx17__normal_iteratorIPKcNSt7__cxx1112basic_stringIcSt11char_traitsIcESaIcEEEEC2IPcvEERKNS0_IT_S8_EE
	ld	a1, -1168(s0)
	ld	a2, -1208(s0)
.Ltmp30:
	mv	a0, s1
	call	_ZNSt7__cxx1112basic_stringIcSt11char_traitsIcESaIcEE5eraseEN9__gnu_cxx17__normal_iteratorIPKcS4_EES9_
.Ltmp31:
	j	.LBB14_29
.LBB14_29:                              # %invoke.cont101
                                        #   in Loop: Header=BB14_19 Depth=1
	sd	a0, -1224(s0)
.Ltmp32:
	lui	a0, %hi(.L.str.3)
	addi	a1, a0, %lo(.L.str.3)
	addi	a0, s0, -1064
	call	_ZSteqIcSt11char_traitsIcESaIcEEbRKNSt7__cxx1112basic_stringIT_T0_T1_EEPKS5_
.Ltmp33:
	j	.LBB14_30
.LBB14_30:                              # %invoke.cont106
                                        #   in Loop: Header=BB14_19 Depth=1
	andi	a0, a0, 1
	beqz	a0, .LBB14_47
	j	.LBB14_31
.LBB14_31:                              # %if.then108
                                        #   in Loop: Header=BB14_19 Depth=1
.Ltmp42:
	lui	a0, %hi(.L.str.4)
	addi	a1, a0, %lo(.L.str.4)
	addi	a0, s0, -1096
	call	_ZSteqIcSt11char_traitsIcESaIcEEbRKNSt7__cxx1112basic_stringIT_T0_T1_EEPKS5_
.Ltmp43:
	j	.LBB14_32
.LBB14_32:                              # %invoke.cont109
                                        #   in Loop: Header=BB14_19 Depth=1
	andi	a0, a0, 1
	beqz	a0, .LBB14_43
	j	.LBB14_33
.LBB14_33:                              # %if.then111
                                        #   in Loop: Header=BB14_19 Depth=1
	addi	a0, zero, 110
	sb	a0, -497(s0)
	j	.LBB14_43
.LBB14_34:                              # %lpad22
.Ltmp2:
	sd	a0, -184(s0)
	sw	a1, -188(s0)
	j	.LBB14_36
.LBB14_35:                              # %lpad24
.Ltmp5:
	sd	a0, -184(s0)
	sw	a1, -188(s0)
	addi	a0, s0, -400
	call	_ZNSt7__cxx1112basic_stringIcSt11char_traitsIcESaIcEED1Ev
	j	.LBB14_36
.LBB14_36:                              # %ehcleanup27
	addi	a0, s0, -368
	call	_ZNSt7__cxx1112basic_stringIcSt11char_traitsIcESaIcEED1Ev
	j	.LBB14_66
.LBB14_37:                              # %lpad30
.Ltmp8:
	sd	a0, -184(s0)
	sw	a1, -188(s0)
	j	.LBB14_63
.LBB14_38:                              # %lpad32.loopexit
.Ltmp20:
	j	.LBB14_40
.LBB14_39:                              # %lpad32.loopexit.split-lp
.Ltmp17:
	j	.LBB14_40
.LBB14_40:                              # %lpad32
	sd	a0, -184(s0)
	sw	a1, -188(s0)
	j	.LBB14_62
.LBB14_41:                              # %lpad41
.Ltmp23:
	sd	a0, -184(s0)
	sw	a1, -188(s0)
	j	.LBB14_57
.LBB14_42:                              # %lpad55
.Ltmp46:
	sd	a0, -184(s0)
	sw	a1, -188(s0)
	addi	a0, s0, -1096
	call	_ZNSt7__cxx1112basic_stringIcSt11char_traitsIcESaIcEED1Ev
	j	.LBB14_57
.LBB14_43:                              # %if.end
                                        #   in Loop: Header=BB14_19 Depth=1
.Ltmp44:
	lui	a0, %hi(.L.str.5)
	addi	a1, a0, %lo(.L.str.5)
	addi	a0, s0, -1096
	call	_ZSteqIcSt11char_traitsIcESaIcEEbRKNSt7__cxx1112basic_stringIT_T0_T1_EEPKS5_
.Ltmp45:
	j	.LBB14_44
.LBB14_44:                              # %invoke.cont112
                                        #   in Loop: Header=BB14_19 Depth=1
	andi	a0, a0, 1
	beqz	a0, .LBB14_46
	j	.LBB14_45
.LBB14_45:                              # %if.then114
                                        #   in Loop: Header=BB14_19 Depth=1
	addi	a0, zero, 107
	sb	a0, -497(s0)
	j	.LBB14_46
.LBB14_46:                              # %if.end115
                                        #   in Loop: Header=BB14_19 Depth=1
	j	.LBB14_56
.LBB14_47:                              # %if.else116
                                        #   in Loop: Header=BB14_19 Depth=1
.Ltmp34:
	addi	a0, s0, -1064
	mv	a1, zero
	call	_ZNSt7__cxx114stodERKNS_12basic_stringIcSt11char_traitsIcESaIcEEEPm
	fmv.d.x	ft0, a0
.Ltmp35:
	j	.LBB14_48
.LBB14_48:                              # %invoke.cont117
                                        #   in Loop: Header=BB14_19 Depth=1
	lui	a0, %hi(.LCPI14_0)
	addi	a0, a0, %lo(.LCPI14_0)
	fld	ft1, 0(a0)
	fmul.d	ft0, ft0, ft1
	fsd	ft0, -1232(s0)
.Ltmp36:
	addi	a0, s0, -1096
	mv	a1, zero
	call	_ZNSt7__cxx114stodERKNS_12basic_stringIcSt11char_traitsIcESaIcEEEPm
	fmv.d.x	ft0, a0
.Ltmp37:
	j	.LBB14_49
.LBB14_49:                              # %invoke.cont119
                                        #   in Loop: Header=BB14_19 Depth=1
	fsd	ft0, -1240(s0)
	lbu	a0, -497(s0)
	addi	a1, zero, 110
	bne	a0, a1, .LBB14_52
	j	.LBB14_50
.LBB14_50:                              # %if.then122
                                        #   in Loop: Header=BB14_19 Depth=1
	fld	ft0, -1232(s0)
	fsd	ft0, -1256(s0)
	fld	ft0, -1240(s0)
	fsd	ft0, -1248(s0)
.Ltmp38:
	addi	a0, s0, -448
	addi	a1, s0, -1256
	call	_ZNSt3setIN8Spectral5ValueIdEESt4lessIS2_ESaIS2_EE6insertEOS2_
.Ltmp39:
	j	.LBB14_51
.LBB14_51:                              # %invoke.cont125
                                        #   in Loop: Header=BB14_19 Depth=1
	sd	a0, -1272(s0)
	sd	a1, -1264(s0)
	j	.LBB14_52
.LBB14_52:                              # %if.end128
                                        #   in Loop: Header=BB14_19 Depth=1
	lbu	a0, -497(s0)
	addi	a1, zero, 107
	bne	a0, a1, .LBB14_55
	j	.LBB14_53
.LBB14_53:                              # %if.then131
                                        #   in Loop: Header=BB14_19 Depth=1
	fld	ft0, -1232(s0)
	fsd	ft0, -1288(s0)
	fld	ft0, -1240(s0)
	fsd	ft0, -1280(s0)
.Ltmp40:
	addi	a0, s0, -496
	addi	a1, s0, -1288
	call	_ZNSt3setIN8Spectral5ValueIdEESt4lessIS2_ESaIS2_EE6insertEOS2_
.Ltmp41:
	j	.LBB14_54
.LBB14_54:                              # %invoke.cont135
                                        #   in Loop: Header=BB14_19 Depth=1
	sd	a0, -1304(s0)
	sd	a1, -1296(s0)
	j	.LBB14_55
.LBB14_55:                              # %if.end138
                                        #   in Loop: Header=BB14_19 Depth=1
	j	.LBB14_56
.LBB14_56:                              # %if.end139
                                        #   in Loop: Header=BB14_19 Depth=1
	addi	a0, s0, -1096
	call	_ZNSt7__cxx1112basic_stringIcSt11char_traitsIcESaIcEED1Ev
	addi	a0, s0, -1064
	call	_ZNSt7__cxx1112basic_stringIcSt11char_traitsIcESaIcEED1Ev
	j	.LBB14_58
.LBB14_57:                              # %ehcleanup141
	addi	a0, s0, -1064
	call	_ZNSt7__cxx1112basic_stringIcSt11char_traitsIcESaIcEED1Ev
	j	.LBB14_62
.LBB14_58:                              # %if.end142
                                        #   in Loop: Header=BB14_19 Depth=1
	j	.LBB14_19
.LBB14_59:                              # %while.end
.Ltmp13:
	addi	a0, s0, -1328
	addi	a1, s0, -448
	mv	a2, zero
	call	_ZN4sRGB3RGBERKSt3setIN8Spectral5ValueIdEESt4lessIS3_ESaIS3_EENS1_4TypeE
.Ltmp14:
	j	.LBB14_60
.LBB14_60:                              # %invoke.cont144
	ld	a0, -112(s0)
	ld	a1, -1312(s0)
	sd	a1, 16(a0)
	ld	a1, -1320(s0)
	sd	a1, 8(a0)
	ld	a1, -1328(s0)
	sd	a1, 0(a0)
.Ltmp15:
	addi	a0, s0, -1352
	addi	a1, s0, -496
	mv	a2, zero
	call	_ZN4sRGB3RGBERKSt3setIN8Spectral5ValueIdEESt4lessIS3_ESaIS3_EENS1_4TypeE
.Ltmp16:
	j	.LBB14_61
.LBB14_61:                              # %invoke.cont147
	ld	a0, -112(s0)
	ld	a1, -1336(s0)
	sd	a1, 40(a0)
	ld	a1, -1344(s0)
	sd	a1, 32(a0)
	ld	a1, -1352(s0)
	sd	a1, 24(a0)
	addi	a0, s0, -1024
	call	_ZNSt7__cxx1112basic_stringIcSt11char_traitsIcESaIcEED1Ev
	addi	a0, s0, -992
	call	_ZNSt14basic_ifstreamIcSt11char_traitsIcEED1Ev
	addi	a0, s0, -496
	call	_ZNSt3setIN8Spectral5ValueIdEESt4lessIS2_ESaIS2_EED2Ev
	addi	a0, s0, -448
	call	_ZNSt3setIN8Spectral5ValueIdEESt4lessIS2_ESaIS2_EED2Ev
	addi	a0, s0, -336
	call	_ZNSt7__cxx1112basic_stringIcSt11char_traitsIcESaIcEED1Ev
	j	.LBB14_64
.LBB14_62:                              # %ehcleanup149
	addi	a0, s0, -1024
	call	_ZNSt7__cxx1112basic_stringIcSt11char_traitsIcESaIcEED1Ev
	addi	a0, s0, -992
	call	_ZNSt14basic_ifstreamIcSt11char_traitsIcEED1Ev
	j	.LBB14_63
.LBB14_63:                              # %ehcleanup151
	addi	a0, s0, -496
	call	_ZNSt3setIN8Spectral5ValueIdEESt4lessIS2_ESaIS2_EED2Ev
	addi	a0, s0, -448
	call	_ZNSt3setIN8Spectral5ValueIdEESt4lessIS2_ESaIS2_EED2Ev
	addi	a0, s0, -336
	call	_ZNSt7__cxx1112basic_stringIcSt11char_traitsIcESaIcEED1Ev
	j	.LBB14_66
.LBB14_64:                              # %if.end154
	j	.LBB14_65
.LBB14_65:                              # %if.end155
	ld	s1, 1336(sp)
	ld	s0, 1344(sp)
	.cfi_def_cfa sp, 1360
	ld	ra, 1352(sp)
	.cfi_restore ra
	.cfi_restore s0
	.cfi_restore s1
	addi	sp, sp, 1360
	.cfi_def_cfa_offset 0
	ret
.LBB14_66:                              # %eh.resume
	ld	a0, -184(s0)
	call	_Unwind_Resume
.Lfunc_end14:
	.size	_Z9from_jsonRKN8nlohmann10basic_jsonISt3mapSt6vectorNSt7__cxx1112basic_stringIcSt11char_traitsIcESaIcEEEblmdSaNS_14adl_serializerEEER10ComplexIOR, .Lfunc_end14-_Z9from_jsonRKN8nlohmann10basic_jsonISt3mapSt6vectorNSt7__cxx1112basic_stringIcSt11char_traitsIcESaIcEEEblmdSaNS_14adl_serializerEEER10ComplexIOR
	.cfi_endproc
	.section	.gcc_except_table,"a",@progbits
	.p2align	2
GCC_except_table14:
.Lexception0:
	.byte	255                     # @LPStart Encoding = omit
	.byte	255                     # @TType Encoding = omit
	.byte	3                       # Call site Encoding = udata4
	.uleb128 .Lcst_end0-.Lcst_begin0
.Lcst_begin0:
	.word	.Ltmp47-.Lfunc_begin0   # >> Call Site 1 <<
	.word	.Ltmp48-.Ltmp47         #   Call between .Ltmp47 and .Ltmp48
	.word	.Ltmp49-.Lfunc_begin0   #     jumps to .Ltmp49
	.byte	0                       #   On action: cleanup
	.word	.Ltmp50-.Lfunc_begin0   # >> Call Site 2 <<
	.word	.Ltmp53-.Ltmp50         #   Call between .Ltmp50 and .Ltmp53
	.word	.Ltmp54-.Lfunc_begin0   #     jumps to .Ltmp54
	.byte	0                       #   On action: cleanup
	.word	.Ltmp55-.Lfunc_begin0   # >> Call Site 3 <<
	.word	.Ltmp56-.Ltmp55         #   Call between .Ltmp55 and .Ltmp56
	.word	.Ltmp57-.Lfunc_begin0   #     jumps to .Ltmp57
	.byte	0                       #   On action: cleanup
	.word	.Ltmp58-.Lfunc_begin0   # >> Call Site 4 <<
	.word	.Ltmp61-.Ltmp58         #   Call between .Ltmp58 and .Ltmp61
	.word	.Ltmp62-.Lfunc_begin0   #     jumps to .Ltmp62
	.byte	0                       #   On action: cleanup
	.word	.Ltmp61-.Lfunc_begin0   # >> Call Site 5 <<
	.word	.Ltmp0-.Ltmp61          #   Call between .Ltmp61 and .Ltmp0
	.word	0                       #     has no landing pad
	.byte	0                       #   On action: cleanup
	.word	.Ltmp0-.Lfunc_begin0    # >> Call Site 6 <<
	.word	.Ltmp1-.Ltmp0           #   Call between .Ltmp0 and .Ltmp1
	.word	.Ltmp2-.Lfunc_begin0    #     jumps to .Ltmp2
	.byte	0                       #   On action: cleanup
	.word	.Ltmp3-.Lfunc_begin0    # >> Call Site 7 <<
	.word	.Ltmp4-.Ltmp3           #   Call between .Ltmp3 and .Ltmp4
	.word	.Ltmp5-.Lfunc_begin0    #     jumps to .Ltmp5
	.byte	0                       #   On action: cleanup
	.word	.Ltmp6-.Lfunc_begin0    # >> Call Site 8 <<
	.word	.Ltmp7-.Ltmp6           #   Call between .Ltmp6 and .Ltmp7
	.word	.Ltmp8-.Lfunc_begin0    #     jumps to .Ltmp8
	.byte	0                       #   On action: cleanup
	.word	.Ltmp9-.Lfunc_begin0    # >> Call Site 9 <<
	.word	.Ltmp19-.Ltmp9          #   Call between .Ltmp9 and .Ltmp19
	.word	.Ltmp20-.Lfunc_begin0   #     jumps to .Ltmp20
	.byte	0                       #   On action: cleanup
	.word	.Ltmp21-.Lfunc_begin0   # >> Call Site 10 <<
	.word	.Ltmp22-.Ltmp21         #   Call between .Ltmp21 and .Ltmp22
	.word	.Ltmp23-.Lfunc_begin0   #     jumps to .Ltmp23
	.byte	0                       #   On action: cleanup
	.word	.Ltmp24-.Lfunc_begin0   # >> Call Site 11 <<
	.word	.Ltmp41-.Ltmp24         #   Call between .Ltmp24 and .Ltmp41
	.word	.Ltmp46-.Lfunc_begin0   #     jumps to .Ltmp46
	.byte	0                       #   On action: cleanup
	.word	.Ltmp13-.Lfunc_begin0   # >> Call Site 12 <<
	.word	.Ltmp16-.Ltmp13         #   Call between .Ltmp13 and .Ltmp16
	.word	.Ltmp17-.Lfunc_begin0   #     jumps to .Ltmp17
	.byte	0                       #   On action: cleanup
	.word	.Ltmp16-.Lfunc_begin0   # >> Call Site 13 <<
	.word	.Lfunc_end14-.Ltmp16    #   Call between .Ltmp16 and .Lfunc_end14
	.word	0                       #     has no landing pad
	.byte	0                       #   On action: cleanup
.Lcst_end0:
	.p2align	2
                                        # -- End function
	.section	.text._ZNK8nlohmann10basic_jsonISt3mapSt6vectorNSt7__cxx1112basic_stringIcSt11char_traitsIcESaIcEEEblmdSaNS_14adl_serializerEE4typeEv,"axG",@progbits,_ZNK8nlohmann10basic_jsonISt3mapSt6vectorNSt7__cxx1112basic_stringIcSt11char_traitsIcESaIcEEEblmdSaNS_14adl_serializerEE4typeEv,comdat
	.weak	_ZNK8nlohmann10basic_jsonISt3mapSt6vectorNSt7__cxx1112basic_stringIcSt11char_traitsIcESaIcEEEblmdSaNS_14adl_serializerEE4typeEv # -- Begin function _ZNK8nlohmann10basic_jsonISt3mapSt6vectorNSt7__cxx1112basic_stringIcSt11char_traitsIcESaIcEEEblmdSaNS_14adl_serializerEE4typeEv
	.p2align	2
	.type	_ZNK8nlohmann10basic_jsonISt3mapSt6vectorNSt7__cxx1112basic_stringIcSt11char_traitsIcESaIcEEEblmdSaNS_14adl_serializerEE4typeEv,@function
_ZNK8nlohmann10basic_jsonISt3mapSt6vectorNSt7__cxx1112basic_stringIcSt11char_traitsIcESaIcEEEblmdSaNS_14adl_serializerEE4typeEv: # @_ZNK8nlohmann10basic_jsonISt3mapSt6vectorNSt7__cxx1112basic_stringIcSt11char_traitsIcESaIcEEEblmdSaNS_14adl_serializerEE4typeEv
# %bb.0:                                # %entry
	addi	sp, sp, -32
	sd	ra, 24(sp)
	sd	s0, 16(sp)
	addi	s0, sp, 32
	sd	a0, -24(s0)
	ld	a0, -24(s0)
	lbu	a0, 0(a0)
	ld	s0, 16(sp)
	ld	ra, 24(sp)
	addi	sp, sp, 32
	ret
.Lfunc_end15:
	.size	_ZNK8nlohmann10basic_jsonISt3mapSt6vectorNSt7__cxx1112basic_stringIcSt11char_traitsIcESaIcEEEblmdSaNS_14adl_serializerEE4typeEv, .Lfunc_end15-_ZNK8nlohmann10basic_jsonISt3mapSt6vectorNSt7__cxx1112basic_stringIcSt11char_traitsIcESaIcEEEblmdSaNS_14adl_serializerEE4typeEv
                                        # -- End function
	.section	.text._Z11getOptionalIN3glm3vecILi3EdLNS0_9qualifierE0EEEET_RKN8nlohmann10basic_jsonISt3mapSt6vectorNSt7__cxx1112basic_stringIcSt11char_traitsIcESaIcEEEblmdSaNS5_14adl_serializerEEESE_S4_,"axG",@progbits,_Z11getOptionalIN3glm3vecILi3EdLNS0_9qualifierE0EEEET_RKN8nlohmann10basic_jsonISt3mapSt6vectorNSt7__cxx1112basic_stringIcSt11char_traitsIcESaIcEEEblmdSaNS5_14adl_serializerEEESE_S4_,comdat
	.weak	_Z11getOptionalIN3glm3vecILi3EdLNS0_9qualifierE0EEEET_RKN8nlohmann10basic_jsonISt3mapSt6vectorNSt7__cxx1112basic_stringIcSt11char_traitsIcESaIcEEEblmdSaNS5_14adl_serializerEEESE_S4_ # -- Begin function _Z11getOptionalIN3glm3vecILi3EdLNS0_9qualifierE0EEEET_RKN8nlohmann10basic_jsonISt3mapSt6vectorNSt7__cxx1112basic_stringIcSt11char_traitsIcESaIcEEEblmdSaNS5_14adl_serializerEEESE_S4_
	.p2align	2
	.type	_Z11getOptionalIN3glm3vecILi3EdLNS0_9qualifierE0EEEET_RKN8nlohmann10basic_jsonISt3mapSt6vectorNSt7__cxx1112basic_stringIcSt11char_traitsIcESaIcEEEblmdSaNS5_14adl_serializerEEESE_S4_,@function
_Z11getOptionalIN3glm3vecILi3EdLNS0_9qualifierE0EEEET_RKN8nlohmann10basic_jsonISt3mapSt6vectorNSt7__cxx1112basic_stringIcSt11char_traitsIcESaIcEEEblmdSaNS5_14adl_serializerEEESE_S4_: # @_Z11getOptionalIN3glm3vecILi3EdLNS0_9qualifierE0EEEET_RKN8nlohmann10basic_jsonISt3mapSt6vectorNSt7__cxx1112basic_stringIcSt11char_traitsIcESaIcEEEblmdSaNS5_14adl_serializerEEESE_S4_
	.cfi_startproc
# %bb.0:                                # %entry
	addi	sp, sp, -160
	.cfi_def_cfa_offset 160
	sd	ra, 152(sp)
	sd	s0, 144(sp)
	sd	s1, 136(sp)
	sd	s2, 128(sp)
	sd	s3, 120(sp)
	sd	s4, 112(sp)
	.cfi_offset ra, -8
	.cfi_offset s0, -16
	.cfi_offset s1, -24
	.cfi_offset s2, -32
	.cfi_offset s3, -40
	.cfi_offset s4, -48
	addi	s0, sp, 160
	.cfi_def_cfa s0, 0
	mv	s2, a2
	mv	s1, a0
	sd	s1, -56(s0)
	sd	a1, -64(s0)
	ld	a0, 16(a3)
	sd	a0, 16(s1)
	ld	a0, 8(a3)
	sd	a0, 8(s1)
	ld	a0, 0(a3)
	sd	a0, 0(s1)
	ld	a1, -64(s0)
	addi	s3, s0, -96
	mv	a0, s3
	mv	a2, s2
	call	_ZNK8nlohmann10basic_jsonISt3mapSt6vectorNSt7__cxx1112basic_stringIcSt11char_traitsIcESaIcEEEblmdSaNS_14adl_serializerEE4findIRS8_EENS_6detail9iter_implIKSA_EEOT_
	ld	a1, -64(s0)
	addi	s4, s0, -128
	mv	a0, s4
	call	_ZNK8nlohmann10basic_jsonISt3mapSt6vectorNSt7__cxx1112basic_stringIcSt11char_traitsIcESaIcEEEblmdSaNS_14adl_serializerEE3endEv
	mv	a0, s3
	mv	a1, s4
	call	_ZNK8nlohmann6detail9iter_implIKNS_10basic_jsonISt3mapSt6vectorNSt7__cxx1112basic_stringIcSt11char_traitsIcESaIcEEEblmdSaNS_14adl_serializerEEEEneERKSE_
	beqz	a0, .LBB16_2
	j	.LBB16_1
.LBB16_1:                               # %if.then
	ld	a0, -64(s0)
	mv	a1, s2
	call	_ZNK8nlohmann10basic_jsonISt3mapSt6vectorNSt7__cxx1112basic_stringIcSt11char_traitsIcESaIcEEEblmdSaNS_14adl_serializerEE2atERKS8_
	mv	a1, a0
	addi	a0, s0, -152
	call	_ZNK8nlohmann10basic_jsonISt3mapSt6vectorNSt7__cxx1112basic_stringIcSt11char_traitsIcESaIcEEEblmdSaNS_14adl_serializerEE3getIN3glm3vecILi3EdLNSC_9qualifierE0EEESF_Li0EEET0_v
	ld	a0, -136(s0)
	sd	a0, 16(s1)
	ld	a0, -144(s0)
	sd	a0, 8(s1)
	ld	a0, -152(s0)
	sd	a0, 0(s1)
	j	.LBB16_2
.LBB16_2:                               # %if.end
	ld	s4, 112(sp)
	ld	s3, 120(sp)
	ld	s2, 128(sp)
	ld	s1, 136(sp)
	ld	s0, 144(sp)
	.cfi_def_cfa sp, 160
	ld	ra, 152(sp)
	.cfi_restore ra
	.cfi_restore s0
	.cfi_restore s1
	.cfi_restore s2
	.cfi_restore s3
	.cfi_restore s4
	addi	sp, sp, 160
	.cfi_def_cfa_offset 0
	ret
.Lfunc_end16:
	.size	_Z11getOptionalIN3glm3vecILi3EdLNS0_9qualifierE0EEEET_RKN8nlohmann10basic_jsonISt3mapSt6vectorNSt7__cxx1112basic_stringIcSt11char_traitsIcESaIcEEEblmdSaNS5_14adl_serializerEEESE_S4_, .Lfunc_end16-_Z11getOptionalIN3glm3vecILi3EdLNS0_9qualifierE0EEEET_RKN8nlohmann10basic_jsonISt3mapSt6vectorNSt7__cxx1112basic_stringIcSt11char_traitsIcESaIcEEEblmdSaNS5_14adl_serializerEEESE_S4_
	.cfi_endproc
                                        # -- End function
	.section	.text._ZNSt7__cxx1112basic_stringIcSt11char_traitsIcESaIcEEC2IS3_EEPKcRKS3_,"axG",@progbits,_ZNSt7__cxx1112basic_stringIcSt11char_traitsIcESaIcEEC2IS3_EEPKcRKS3_,comdat
	.weak	_ZNSt7__cxx1112basic_stringIcSt11char_traitsIcESaIcEEC2IS3_EEPKcRKS3_ # -- Begin function _ZNSt7__cxx1112basic_stringIcSt11char_traitsIcESaIcEEC2IS3_EEPKcRKS3_
	.p2align	2
	.type	_ZNSt7__cxx1112basic_stringIcSt11char_traitsIcESaIcEEC2IS3_EEPKcRKS3_,@function
_ZNSt7__cxx1112basic_stringIcSt11char_traitsIcESaIcEEC2IS3_EEPKcRKS3_: # @_ZNSt7__cxx1112basic_stringIcSt11char_traitsIcESaIcEEC2IS3_EEPKcRKS3_
.Lfunc_begin1:
	.cfi_startproc
	.cfi_personality 155, DW.ref.__gxx_personality_v0
	.cfi_lsda 27, .Lexception1
# %bb.0:                                # %entry
	addi	sp, sp, -96
	.cfi_def_cfa_offset 96
	sd	ra, 88(sp)
	sd	s0, 80(sp)
	sd	s1, 72(sp)
	sd	s2, 64(sp)
	.cfi_offset ra, -8
	.cfi_offset s0, -16
	.cfi_offset s1, -24
	.cfi_offset s2, -32
	addi	s0, sp, 96
	.cfi_def_cfa s0, 0
	sd	a0, -40(s0)
	sd	a1, -48(s0)
	sd	a2, -56(s0)
	ld	s1, -40(s0)
	mv	a0, s1
	call	_ZNSt7__cxx1112basic_stringIcSt11char_traitsIcESaIcEE13_M_local_dataEv
	mv	a1, a0
	ld	a2, -56(s0)
	mv	a0, s1
	call	_ZNSt7__cxx1112basic_stringIcSt11char_traitsIcESaIcEE12_Alloc_hiderC1EPcRKS3_
	ld	a0, -48(s0)
	bnez	a0, .LBB17_4
	j	.LBB17_1
.LBB17_1:                               # %if.then
.Ltmp67:
	lui	a0, %hi(.L.str.11)
	addi	a0, a0, %lo(.L.str.11)
	call	_ZSt19__throw_logic_errorPKc
.Ltmp68:
	j	.LBB17_2
.LBB17_2:                               # %invoke.cont
.LBB17_3:                               # %lpad
.Ltmp69:
	sd	a0, -64(s0)
	sw	a1, -68(s0)
	mv	a0, s1
	call	_ZNSt7__cxx1112basic_stringIcSt11char_traitsIcESaIcEE12_Alloc_hiderD2Ev
	j	.LBB17_7
.LBB17_4:                               # %if.end
	ld	s2, -48(s0)
.Ltmp63:
	mv	a0, s2
	call	_ZNSt11char_traitsIcE6lengthEPKc
.Ltmp64:
	j	.LBB17_5
.LBB17_5:                               # %invoke.cont2
	add	a0, s2, a0
	sd	a0, -80(s0)
	ld	a1, -48(s0)
	ld	a2, -80(s0)
.Ltmp65:
	mv	a0, s1
	call	_ZNSt7__cxx1112basic_stringIcSt11char_traitsIcESaIcEE12_M_constructIPKcEEvT_S8_St20forward_iterator_tag
.Ltmp66:
	j	.LBB17_6
.LBB17_6:                               # %invoke.cont4
	ld	s2, 64(sp)
	ld	s1, 72(sp)
	ld	s0, 80(sp)
	.cfi_def_cfa sp, 96
	ld	ra, 88(sp)
	.cfi_restore ra
	.cfi_restore s0
	.cfi_restore s1
	.cfi_restore s2
	addi	sp, sp, 96
	.cfi_def_cfa_offset 0
	ret
.LBB17_7:                               # %eh.resume
	ld	a0, -64(s0)
	call	_Unwind_Resume
.Lfunc_end17:
	.size	_ZNSt7__cxx1112basic_stringIcSt11char_traitsIcESaIcEEC2IS3_EEPKcRKS3_, .Lfunc_end17-_ZNSt7__cxx1112basic_stringIcSt11char_traitsIcESaIcEEC2IS3_EEPKcRKS3_
	.cfi_endproc
	.section	.gcc_except_table,"a",@progbits
	.p2align	2
GCC_except_table17:
.Lexception1:
	.byte	255                     # @LPStart Encoding = omit
	.byte	255                     # @TType Encoding = omit
	.byte	3                       # Call site Encoding = udata4
	.uleb128 .Lcst_end1-.Lcst_begin1
.Lcst_begin1:
	.word	.Lfunc_begin1-.Lfunc_begin1 # >> Call Site 1 <<
	.word	.Ltmp67-.Lfunc_begin1   #   Call between .Lfunc_begin1 and .Ltmp67
	.word	0                       #     has no landing pad
	.byte	0                       #   On action: cleanup
	.word	.Ltmp67-.Lfunc_begin1   # >> Call Site 2 <<
	.word	.Ltmp66-.Ltmp67         #   Call between .Ltmp67 and .Ltmp66
	.word	.Ltmp69-.Lfunc_begin1   #     jumps to .Ltmp69
	.byte	0                       #   On action: cleanup
	.word	.Ltmp66-.Lfunc_begin1   # >> Call Site 3 <<
	.word	.Lfunc_end17-.Ltmp66    #   Call between .Ltmp66 and .Lfunc_end17
	.word	0                       #     has no landing pad
	.byte	0                       #   On action: cleanup
.Lcst_end1:
	.p2align	2
                                        # -- End function
	.section	.text._ZN3glm3vecILi3EdLNS_9qualifierE0EEC2Ed,"axG",@progbits,_ZN3glm3vecILi3EdLNS_9qualifierE0EEC2Ed,comdat
	.weak	_ZN3glm3vecILi3EdLNS_9qualifierE0EEC2Ed # -- Begin function _ZN3glm3vecILi3EdLNS_9qualifierE0EEC2Ed
	.p2align	2
	.type	_ZN3glm3vecILi3EdLNS_9qualifierE0EEC2Ed,@function
_ZN3glm3vecILi3EdLNS_9qualifierE0EEC2Ed: # @_ZN3glm3vecILi3EdLNS_9qualifierE0EEC2Ed
# %bb.0:                                # %entry
	addi	sp, sp, -32
	sd	ra, 24(sp)
	sd	s0, 16(sp)
	addi	s0, sp, 32
	fmv.d.x	ft0, a1
	sd	a0, -24(s0)
	sd	a1, -32(s0)
	ld	a0, -24(s0)
	fld	ft0, -32(s0)
	fsd	ft0, 0(a0)
	fld	ft0, -32(s0)
	fsd	ft0, 8(a0)
	fld	ft0, -32(s0)
	fsd	ft0, 16(a0)
	ld	s0, 16(sp)
	ld	ra, 24(sp)
	addi	sp, sp, 32
	ret
.Lfunc_end18:
	.size	_ZN3glm3vecILi3EdLNS_9qualifierE0EEC2Ed, .Lfunc_end18-_ZN3glm3vecILi3EdLNS_9qualifierE0EEC2Ed
                                        # -- End function
	.section	.text._ZStplIcSt11char_traitsIcESaIcEENSt7__cxx1112basic_stringIT_T0_T1_EEOS8_S9_,"axG",@progbits,_ZStplIcSt11char_traitsIcESaIcEENSt7__cxx1112basic_stringIT_T0_T1_EEOS8_S9_,comdat
	.weak	_ZStplIcSt11char_traitsIcESaIcEENSt7__cxx1112basic_stringIT_T0_T1_EEOS8_S9_ # -- Begin function _ZStplIcSt11char_traitsIcESaIcEENSt7__cxx1112basic_stringIT_T0_T1_EEOS8_S9_
	.p2align	2
	.type	_ZStplIcSt11char_traitsIcESaIcEENSt7__cxx1112basic_stringIT_T0_T1_EEOS8_S9_,@function
_ZStplIcSt11char_traitsIcESaIcEENSt7__cxx1112basic_stringIT_T0_T1_EEOS8_S9_: # @_ZStplIcSt11char_traitsIcESaIcEENSt7__cxx1112basic_stringIT_T0_T1_EEOS8_S9_
	.cfi_startproc
# %bb.0:                                # %entry
	addi	sp, sp, -80
	.cfi_def_cfa_offset 80
	sd	ra, 72(sp)
	sd	s0, 64(sp)
	sd	s1, 56(sp)
	sd	s2, 48(sp)
	.cfi_offset ra, -8
	.cfi_offset s0, -16
	.cfi_offset s1, -24
	.cfi_offset s2, -32
	addi	s0, sp, 80
	.cfi_def_cfa s0, 0
	mv	s2, a0
	sd	s2, -40(s0)
	sd	a1, -48(s0)
	sd	a2, -56(s0)
	sb	zero, -57(s0)
	addi	a0, zero, 1
	sb	a0, -57(s0)
	lbu	a0, -57(s0)
	andi	a0, a0, 1
	beqz	a0, .LBB19_5
	j	.LBB19_1
.LBB19_1:                               # %if.then
	ld	a0, -48(s0)
	call	_ZNKSt7__cxx1112basic_stringIcSt11char_traitsIcESaIcEE4sizeEv
	mv	s1, a0
	ld	a0, -56(s0)
	call	_ZNKSt7__cxx1112basic_stringIcSt11char_traitsIcESaIcEE4sizeEv
	add	a0, s1, a0
	sd	a0, -72(s0)
	ld	s1, -72(s0)
	ld	a0, -48(s0)
	call	_ZNKSt7__cxx1112basic_stringIcSt11char_traitsIcESaIcEE8capacityEv
	bgeu	a0, s1, .LBB19_4
	j	.LBB19_2
.LBB19_2:                               # %land.lhs.true
	ld	s1, -72(s0)
	ld	a0, -56(s0)
	call	_ZNKSt7__cxx1112basic_stringIcSt11char_traitsIcESaIcEE8capacityEv
	bltu	a0, s1, .LBB19_4
	j	.LBB19_3
.LBB19_3:                               # %if.then5
	ld	a0, -56(s0)
	ld	a2, -48(s0)
	mv	a1, zero
	call	_ZNSt7__cxx1112basic_stringIcSt11char_traitsIcESaIcEE6insertEmRKS4_
	call	_ZSt4moveIRNSt7__cxx1112basic_stringIcSt11char_traitsIcESaIcEEEEONSt16remove_referenceIT_E4typeEOS8_
	mv	a1, a0
	mv	a0, s2
	call	_ZNSt7__cxx1112basic_stringIcSt11char_traitsIcESaIcEEC1EOS4_
	j	.LBB19_6
.LBB19_4:                               # %if.end
	j	.LBB19_5
.LBB19_5:                               # %if.end8
	ld	a0, -48(s0)
	ld	a1, -56(s0)
	call	_ZNSt7__cxx1112basic_stringIcSt11char_traitsIcESaIcEE6appendERKS4_
	call	_ZSt4moveIRNSt7__cxx1112basic_stringIcSt11char_traitsIcESaIcEEEEONSt16remove_referenceIT_E4typeEOS8_
	mv	a1, a0
	mv	a0, s2
	call	_ZNSt7__cxx1112basic_stringIcSt11char_traitsIcESaIcEEC1EOS4_
	j	.LBB19_6
.LBB19_6:                               # %return
	ld	s2, 48(sp)
	ld	s1, 56(sp)
	ld	s0, 64(sp)
	.cfi_def_cfa sp, 80
	ld	ra, 72(sp)
	.cfi_restore ra
	.cfi_restore s0
	.cfi_restore s1
	.cfi_restore s2
	addi	sp, sp, 80
	.cfi_def_cfa_offset 0
	ret
.Lfunc_end19:
	.size	_ZStplIcSt11char_traitsIcESaIcEENSt7__cxx1112basic_stringIT_T0_T1_EEOS8_S9_, .Lfunc_end19-_ZStplIcSt11char_traitsIcESaIcEENSt7__cxx1112basic_stringIT_T0_T1_EEOS8_S9_
	.cfi_endproc
                                        # -- End function
	.section	.text._ZStplIcSt11char_traitsIcESaIcEENSt7__cxx1112basic_stringIT_T0_T1_EERKS8_PKS5_,"axG",@progbits,_ZStplIcSt11char_traitsIcESaIcEENSt7__cxx1112basic_stringIT_T0_T1_EERKS8_PKS5_,comdat
	.weak	_ZStplIcSt11char_traitsIcESaIcEENSt7__cxx1112basic_stringIT_T0_T1_EERKS8_PKS5_ # -- Begin function _ZStplIcSt11char_traitsIcESaIcEENSt7__cxx1112basic_stringIT_T0_T1_EERKS8_PKS5_
	.p2align	2
	.type	_ZStplIcSt11char_traitsIcESaIcEENSt7__cxx1112basic_stringIT_T0_T1_EERKS8_PKS5_,@function
_ZStplIcSt11char_traitsIcESaIcEENSt7__cxx1112basic_stringIT_T0_T1_EERKS8_PKS5_: # @_ZStplIcSt11char_traitsIcESaIcEENSt7__cxx1112basic_stringIT_T0_T1_EERKS8_PKS5_
.Lfunc_begin2:
	.cfi_startproc
	.cfi_personality 155, DW.ref.__gxx_personality_v0
	.cfi_lsda 27, .Lexception2
# %bb.0:                                # %entry
	addi	sp, sp, -128
	.cfi_def_cfa_offset 128
	sd	ra, 120(sp)
	sd	s0, 112(sp)
	sd	s1, 104(sp)
	sd	s2, 96(sp)
	sd	s3, 88(sp)
	sd	s4, 80(sp)
	sd	s5, 72(sp)
	sd	s6, 64(sp)
	.cfi_offset ra, -8
	.cfi_offset s0, -16
	.cfi_offset s1, -24
	.cfi_offset s2, -32
	.cfi_offset s3, -40
	.cfi_offset s4, -48
	.cfi_offset s5, -56
	.cfi_offset s6, -64
	addi	s0, sp, 128
	.cfi_def_cfa s0, 0
	mv	s4, a0
	sd	s4, -88(s0)
	sd	a1, -96(s0)
	sd	a2, -104(s0)
	ld	a0, -96(s0)
	call	_ZNKSt7__cxx1112basic_stringIcSt11char_traitsIcESaIcEE5c_strEv
	mv	s2, a0
	ld	a0, -96(s0)
	call	_ZNKSt7__cxx1112basic_stringIcSt11char_traitsIcESaIcEE4sizeEv
	mv	s3, a0
	ld	s1, -104(s0)
	mv	a0, s1
	call	_ZNSt11char_traitsIcE6lengthEPKc
	mv	s5, a0
	ld	a1, -96(s0)
	addi	s6, s0, -112
	mv	a0, s6
	call	_ZNKSt7__cxx1112basic_stringIcSt11char_traitsIcESaIcEE13get_allocatorEv
.Ltmp70:
	mv	a0, s4
	mv	a1, s2
	mv	a2, s3
	mv	a3, s1
	mv	a4, s5
	mv	a5, s6
	call	_ZSt12__str_concatINSt7__cxx1112basic_stringIcSt11char_traitsIcESaIcEEEET_PKNS6_10value_typeENS6_9size_typeES9_SA_RKNS6_14allocator_typeE
.Ltmp71:
	j	.LBB20_1
.LBB20_1:                               # %invoke.cont
	addi	a0, s0, -112
	sd	a0, -80(s0)
	ld	a0, -80(s0)
	call	_ZNSt15__new_allocatorIcED2Ev
	ld	s6, 64(sp)
	ld	s5, 72(sp)
	ld	s4, 80(sp)
	ld	s3, 88(sp)
	ld	s2, 96(sp)
	ld	s1, 104(sp)
	ld	s0, 112(sp)
	.cfi_def_cfa sp, 128
	ld	ra, 120(sp)
	.cfi_restore ra
	.cfi_restore s0
	.cfi_restore s1
	.cfi_restore s2
	.cfi_restore s3
	.cfi_restore s4
	.cfi_restore s5
	.cfi_restore s6
	addi	sp, sp, 128
	.cfi_def_cfa_offset 0
	ret
.LBB20_2:                               # %lpad
.Ltmp72:
	sd	a0, -120(s0)
	sw	a1, -124(s0)
	addi	a0, s0, -112
	sd	a0, -72(s0)
	ld	a0, -72(s0)
	call	_ZNSt15__new_allocatorIcED2Ev
	j	.LBB20_3
.LBB20_3:                               # %eh.resume
	ld	a0, -120(s0)
	call	_Unwind_Resume
.Lfunc_end20:
	.size	_ZStplIcSt11char_traitsIcESaIcEENSt7__cxx1112basic_stringIT_T0_T1_EERKS8_PKS5_, .Lfunc_end20-_ZStplIcSt11char_traitsIcESaIcEENSt7__cxx1112basic_stringIT_T0_T1_EERKS8_PKS5_
	.cfi_endproc
	.section	.gcc_except_table,"a",@progbits
	.p2align	2
GCC_except_table20:
.Lexception2:
	.byte	255                     # @LPStart Encoding = omit
	.byte	255                     # @TType Encoding = omit
	.byte	3                       # Call site Encoding = udata4
	.uleb128 .Lcst_end2-.Lcst_begin2
.Lcst_begin2:
	.word	.Ltmp70-.Lfunc_begin2   # >> Call Site 1 <<
	.word	.Ltmp71-.Ltmp70         #   Call between .Ltmp70 and .Ltmp71
	.word	.Ltmp72-.Lfunc_begin2   #     jumps to .Ltmp72
	.byte	0                       #   On action: cleanup
	.word	.Ltmp71-.Lfunc_begin2   # >> Call Site 2 <<
	.word	.Lfunc_end20-.Ltmp71    #   Call between .Ltmp71 and .Lfunc_end20
	.word	0                       #     has no landing pad
	.byte	0                       #   On action: cleanup
.Lcst_end2:
	.p2align	2
                                        # -- End function
	.section	.text._ZNK8nlohmann10basic_jsonISt3mapSt6vectorNSt7__cxx1112basic_stringIcSt11char_traitsIcESaIcEEEblmdSaNS_14adl_serializerEE3getIS8_S8_Li0EEET0_v,"axG",@progbits,_ZNK8nlohmann10basic_jsonISt3mapSt6vectorNSt7__cxx1112basic_stringIcSt11char_traitsIcESaIcEEEblmdSaNS_14adl_serializerEE3getIS8_S8_Li0EEET0_v,comdat
	.weak	_ZNK8nlohmann10basic_jsonISt3mapSt6vectorNSt7__cxx1112basic_stringIcSt11char_traitsIcESaIcEEEblmdSaNS_14adl_serializerEE3getIS8_S8_Li0EEET0_v # -- Begin function _ZNK8nlohmann10basic_jsonISt3mapSt6vectorNSt7__cxx1112basic_stringIcSt11char_traitsIcESaIcEEEblmdSaNS_14adl_serializerEE3getIS8_S8_Li0EEET0_v
	.p2align	2
	.type	_ZNK8nlohmann10basic_jsonISt3mapSt6vectorNSt7__cxx1112basic_stringIcSt11char_traitsIcESaIcEEEblmdSaNS_14adl_serializerEE3getIS8_S8_Li0EEET0_v,@function
_ZNK8nlohmann10basic_jsonISt3mapSt6vectorNSt7__cxx1112basic_stringIcSt11char_traitsIcESaIcEEEblmdSaNS_14adl_serializerEE3getIS8_S8_Li0EEET0_v: # @_ZNK8nlohmann10basic_jsonISt3mapSt6vectorNSt7__cxx1112basic_stringIcSt11char_traitsIcESaIcEEEblmdSaNS_14adl_serializerEE3getIS8_S8_Li0EEET0_v
.Lfunc_begin3:
	.cfi_startproc
	.cfi_personality 155, DW.ref.__gxx_personality_v0
	.cfi_lsda 27, .Lexception3
# %bb.0:                                # %entry
	addi	sp, sp, -80
	.cfi_def_cfa_offset 80
	sd	ra, 72(sp)
	sd	s0, 64(sp)
	sd	s1, 56(sp)
	sd	s2, 48(sp)
	.cfi_offset ra, -8
	.cfi_offset s0, -16
	.cfi_offset s1, -24
	.cfi_offset s2, -32
	addi	s0, sp, 80
	.cfi_def_cfa s0, 0
	mv	s1, a0
	sd	s1, -40(s0)
	sd	a1, -48(s0)
	ld	s2, -48(s0)
	sb	zero, -49(s0)
	mv	a0, s1
	call	_ZNSt7__cxx1112basic_stringIcSt11char_traitsIcESaIcEEC1Ev
.Ltmp73:
	mv	a0, s2
	mv	a1, s1
	call	_ZN8nlohmann14adl_serializerINSt7__cxx1112basic_stringIcSt11char_traitsIcESaIcEEEvE9from_jsonIRKNS_10basic_jsonISt3mapSt6vectorS6_blmdSaS0_EES6_EEDTcmclL_ZNS_12_GLOBAL__N_19from_jsonEEclsr3stdE7forwardIT_Efp_Efp0_Ecvv_EEOSG_RT0_
.Ltmp74:
	j	.LBB21_1
.LBB21_1:                               # %invoke.cont
	addi	a0, zero, 1
	sb	a0, -49(s0)
	lbu	a0, -49(s0)
	bnez	a0, .LBB21_4
	j	.LBB21_3
.LBB21_2:                               # %lpad
.Ltmp75:
	sd	a0, -64(s0)
	sw	a1, -68(s0)
	mv	a0, s1
	call	_ZNSt7__cxx1112basic_stringIcSt11char_traitsIcESaIcEED1Ev
	j	.LBB21_5
.LBB21_3:                               # %nrvo.unused
	mv	a0, s1
	call	_ZNSt7__cxx1112basic_stringIcSt11char_traitsIcESaIcEED1Ev
	j	.LBB21_4
.LBB21_4:                               # %nrvo.skipdtor
	ld	s2, 48(sp)
	ld	s1, 56(sp)
	ld	s0, 64(sp)
	.cfi_def_cfa sp, 80
	ld	ra, 72(sp)
	.cfi_restore ra
	.cfi_restore s0
	.cfi_restore s1
	.cfi_restore s2
	addi	sp, sp, 80
	.cfi_def_cfa_offset 0
	ret
.LBB21_5:                               # %eh.resume
	ld	a0, -64(s0)
	call	_Unwind_Resume
.Lfunc_end21:
	.size	_ZNK8nlohmann10basic_jsonISt3mapSt6vectorNSt7__cxx1112basic_stringIcSt11char_traitsIcESaIcEEEblmdSaNS_14adl_serializerEE3getIS8_S8_Li0EEET0_v, .Lfunc_end21-_ZNK8nlohmann10basic_jsonISt3mapSt6vectorNSt7__cxx1112basic_stringIcSt11char_traitsIcESaIcEEEblmdSaNS_14adl_serializerEE3getIS8_S8_Li0EEET0_v
	.cfi_endproc
	.section	.gcc_except_table,"a",@progbits
	.p2align	2
GCC_except_table21:
.Lexception3:
	.byte	255                     # @LPStart Encoding = omit
	.byte	255                     # @TType Encoding = omit
	.byte	3                       # Call site Encoding = udata4
	.uleb128 .Lcst_end3-.Lcst_begin3
.Lcst_begin3:
	.word	.Ltmp73-.Lfunc_begin3   # >> Call Site 1 <<
	.word	.Ltmp74-.Ltmp73         #   Call between .Ltmp73 and .Ltmp74
	.word	.Ltmp75-.Lfunc_begin3   #     jumps to .Ltmp75
	.byte	0                       #   On action: cleanup
	.word	.Ltmp74-.Lfunc_begin3   # >> Call Site 2 <<
	.word	.Lfunc_end21-.Ltmp74    #   Call between .Ltmp74 and .Lfunc_end21
	.word	0                       #     has no landing pad
	.byte	0                       #   On action: cleanup
.Lcst_end3:
	.p2align	2
                                        # -- End function
	.section	.text._ZNSt3setIN8Spectral5ValueIdEESt4lessIS2_ESaIS2_EEC2Ev,"axG",@progbits,_ZNSt3setIN8Spectral5ValueIdEESt4lessIS2_ESaIS2_EEC2Ev,comdat
	.weak	_ZNSt3setIN8Spectral5ValueIdEESt4lessIS2_ESaIS2_EEC2Ev # -- Begin function _ZNSt3setIN8Spectral5ValueIdEESt4lessIS2_ESaIS2_EEC2Ev
	.p2align	2
	.type	_ZNSt3setIN8Spectral5ValueIdEESt4lessIS2_ESaIS2_EEC2Ev,@function
_ZNSt3setIN8Spectral5ValueIdEESt4lessIS2_ESaIS2_EEC2Ev: # @_ZNSt3setIN8Spectral5ValueIdEESt4lessIS2_ESaIS2_EEC2Ev
# %bb.0:                                # %entry
	addi	sp, sp, -32
	sd	ra, 24(sp)
	sd	s0, 16(sp)
	addi	s0, sp, 32
	sd	a0, -24(s0)
	ld	a0, -24(s0)
	call	_ZNSt8_Rb_treeIN8Spectral5ValueIdEES2_St9_IdentityIS2_ESt4lessIS2_ESaIS2_EEC2Ev
	ld	s0, 16(sp)
	ld	ra, 24(sp)
	addi	sp, sp, 32
	ret
.Lfunc_end22:
	.size	_ZNSt3setIN8Spectral5ValueIdEESt4lessIS2_ESaIS2_EEC2Ev, .Lfunc_end22-_ZNSt3setIN8Spectral5ValueIdEESt4lessIS2_ESaIS2_EEC2Ev
                                        # -- End function
	.section	.text._ZSt6removeIN9__gnu_cxx17__normal_iteratorIPcNSt7__cxx1112basic_stringIcSt11char_traitsIcESaIcEEEEEcET_SA_SA_RKT0_,"axG",@progbits,_ZSt6removeIN9__gnu_cxx17__normal_iteratorIPcNSt7__cxx1112basic_stringIcSt11char_traitsIcESaIcEEEEEcET_SA_SA_RKT0_,comdat
	.weak	_ZSt6removeIN9__gnu_cxx17__normal_iteratorIPcNSt7__cxx1112basic_stringIcSt11char_traitsIcESaIcEEEEEcET_SA_SA_RKT0_ # -- Begin function _ZSt6removeIN9__gnu_cxx17__normal_iteratorIPcNSt7__cxx1112basic_stringIcSt11char_traitsIcESaIcEEEEEcET_SA_SA_RKT0_
	.p2align	2
	.type	_ZSt6removeIN9__gnu_cxx17__normal_iteratorIPcNSt7__cxx1112basic_stringIcSt11char_traitsIcESaIcEEEEEcET_SA_SA_RKT0_,@function
_ZSt6removeIN9__gnu_cxx17__normal_iteratorIPcNSt7__cxx1112basic_stringIcSt11char_traitsIcESaIcEEEEEcET_SA_SA_RKT0_: # @_ZSt6removeIN9__gnu_cxx17__normal_iteratorIPcNSt7__cxx1112basic_stringIcSt11char_traitsIcESaIcEEEEEcET_SA_SA_RKT0_
	.cfi_startproc
# %bb.0:                                # %entry
	addi	sp, sp, -80
	.cfi_def_cfa_offset 80
	sd	ra, 72(sp)
	sd	s0, 64(sp)
	.cfi_offset ra, -8
	.cfi_offset s0, -16
	addi	s0, sp, 80
	.cfi_def_cfa s0, 0
	sd	a0, -32(s0)
	sd	a1, -40(s0)
	sd	a2, -48(s0)
	ld	a0, -32(s0)
	sd	a0, -56(s0)
	ld	a0, -40(s0)
	sd	a0, -64(s0)
	ld	a0, -48(s0)
	call	_ZN9__gnu_cxx5__ops17__iter_equals_valIKcEENS0_16_Iter_equals_valIT_EERS4_
	sd	a0, -72(s0)
	ld	a0, -56(s0)
	ld	a1, -64(s0)
	ld	a2, -72(s0)
	call	_ZSt11__remove_ifIN9__gnu_cxx17__normal_iteratorIPcNSt7__cxx1112basic_stringIcSt11char_traitsIcESaIcEEEEENS0_5__ops16_Iter_equals_valIKcEEET_SE_SE_T0_
	sd	a0, -24(s0)
	ld	a0, -24(s0)
	ld	s0, 64(sp)
	.cfi_def_cfa sp, 80
	ld	ra, 72(sp)
	.cfi_restore ra
	.cfi_restore s0
	addi	sp, sp, 80
	.cfi_def_cfa_offset 0
	ret
.Lfunc_end23:
	.size	_ZSt6removeIN9__gnu_cxx17__normal_iteratorIPcNSt7__cxx1112basic_stringIcSt11char_traitsIcESaIcEEEEEcET_SA_SA_RKT0_, .Lfunc_end23-_ZSt6removeIN9__gnu_cxx17__normal_iteratorIPcNSt7__cxx1112basic_stringIcSt11char_traitsIcESaIcEEEEEcET_SA_SA_RKT0_
	.cfi_endproc
                                        # -- End function
	.section	.text._ZN9__gnu_cxx17__normal_iteratorIPKcNSt7__cxx1112basic_stringIcSt11char_traitsIcESaIcEEEEC2IPcvEERKNS0_IT_S8_EE,"axG",@progbits,_ZN9__gnu_cxx17__normal_iteratorIPKcNSt7__cxx1112basic_stringIcSt11char_traitsIcESaIcEEEEC2IPcvEERKNS0_IT_S8_EE,comdat
	.weak	_ZN9__gnu_cxx17__normal_iteratorIPKcNSt7__cxx1112basic_stringIcSt11char_traitsIcESaIcEEEEC2IPcvEERKNS0_IT_S8_EE # -- Begin function _ZN9__gnu_cxx17__normal_iteratorIPKcNSt7__cxx1112basic_stringIcSt11char_traitsIcESaIcEEEEC2IPcvEERKNS0_IT_S8_EE
	.p2align	2
	.type	_ZN9__gnu_cxx17__normal_iteratorIPKcNSt7__cxx1112basic_stringIcSt11char_traitsIcESaIcEEEEC2IPcvEERKNS0_IT_S8_EE,@function
_ZN9__gnu_cxx17__normal_iteratorIPKcNSt7__cxx1112basic_stringIcSt11char_traitsIcESaIcEEEEC2IPcvEERKNS0_IT_S8_EE: # @_ZN9__gnu_cxx17__normal_iteratorIPKcNSt7__cxx1112basic_stringIcSt11char_traitsIcESaIcEEEEC2IPcvEERKNS0_IT_S8_EE
# %bb.0:                                # %entry
	addi	sp, sp, -48
	sd	ra, 40(sp)
	sd	s0, 32(sp)
	sd	s1, 24(sp)
	addi	s0, sp, 48
	sd	a0, -32(s0)
	sd	a1, -40(s0)
	ld	s1, -32(s0)
	ld	a0, -40(s0)
	call	_ZNK9__gnu_cxx17__normal_iteratorIPcNSt7__cxx1112basic_stringIcSt11char_traitsIcESaIcEEEE4baseEv
	ld	a0, 0(a0)
	sd	a0, 0(s1)
	ld	s1, 24(sp)
	ld	s0, 32(sp)
	ld	ra, 40(sp)
	addi	sp, sp, 48
	ret
.Lfunc_end24:
	.size	_ZN9__gnu_cxx17__normal_iteratorIPKcNSt7__cxx1112basic_stringIcSt11char_traitsIcESaIcEEEEC2IPcvEERKNS0_IT_S8_EE, .Lfunc_end24-_ZN9__gnu_cxx17__normal_iteratorIPKcNSt7__cxx1112basic_stringIcSt11char_traitsIcESaIcEEEEC2IPcvEERKNS0_IT_S8_EE
                                        # -- End function
	.section	.text._ZSteqIcSt11char_traitsIcESaIcEEbRKNSt7__cxx1112basic_stringIT_T0_T1_EEPKS5_,"axG",@progbits,_ZSteqIcSt11char_traitsIcESaIcEEbRKNSt7__cxx1112basic_stringIT_T0_T1_EEPKS5_,comdat
	.weak	_ZSteqIcSt11char_traitsIcESaIcEEbRKNSt7__cxx1112basic_stringIT_T0_T1_EEPKS5_ # -- Begin function _ZSteqIcSt11char_traitsIcESaIcEEbRKNSt7__cxx1112basic_stringIT_T0_T1_EEPKS5_
	.p2align	2
	.type	_ZSteqIcSt11char_traitsIcESaIcEEbRKNSt7__cxx1112basic_stringIT_T0_T1_EEPKS5_,@function
_ZSteqIcSt11char_traitsIcESaIcEEbRKNSt7__cxx1112basic_stringIT_T0_T1_EEPKS5_: # @_ZSteqIcSt11char_traitsIcESaIcEEbRKNSt7__cxx1112basic_stringIT_T0_T1_EEPKS5_
	.cfi_startproc
# %bb.0:                                # %entry
	addi	sp, sp, -48
	.cfi_def_cfa_offset 48
	sd	ra, 40(sp)
	sd	s0, 32(sp)
	sd	s1, 24(sp)
	sd	s2, 16(sp)
	.cfi_offset ra, -8
	.cfi_offset s0, -16
	.cfi_offset s1, -24
	.cfi_offset s2, -32
	addi	s0, sp, 48
	.cfi_def_cfa s0, 0
	sd	a0, -40(s0)
	sd	a1, -48(s0)
	ld	a0, -40(s0)
	call	_ZNKSt7__cxx1112basic_stringIcSt11char_traitsIcESaIcEE4sizeEv
	mv	s1, a0
	ld	a0, -48(s0)
	call	_ZNSt11char_traitsIcE6lengthEPKc
	mv	a1, zero
	bne	s1, a0, .LBB25_2
	j	.LBB25_1
.LBB25_1:                               # %land.rhs
	ld	a0, -40(s0)
	call	_ZNKSt7__cxx1112basic_stringIcSt11char_traitsIcESaIcEE4dataEv
	mv	s1, a0
	ld	s2, -48(s0)
	ld	a0, -40(s0)
	call	_ZNKSt7__cxx1112basic_stringIcSt11char_traitsIcESaIcEE4sizeEv
	mv	a2, a0
	mv	a0, s1
	mv	a1, s2
	call	_ZNSt11char_traitsIcE7compareEPKcS2_m
	seqz	a1, a0
	j	.LBB25_2
.LBB25_2:                               # %land.end
	andi	a0, a1, 1
	ld	s2, 16(sp)
	ld	s1, 24(sp)
	ld	s0, 32(sp)
	.cfi_def_cfa sp, 48
	ld	ra, 40(sp)
	.cfi_restore ra
	.cfi_restore s0
	.cfi_restore s1
	.cfi_restore s2
	addi	sp, sp, 48
	.cfi_def_cfa_offset 0
	ret
.Lfunc_end25:
	.size	_ZSteqIcSt11char_traitsIcESaIcEEbRKNSt7__cxx1112basic_stringIT_T0_T1_EEPKS5_, .Lfunc_end25-_ZSteqIcSt11char_traitsIcESaIcEEbRKNSt7__cxx1112basic_stringIT_T0_T1_EEPKS5_
	.cfi_endproc
                                        # -- End function
	.section	.text._ZNSt7__cxx114stodERKNS_12basic_stringIcSt11char_traitsIcESaIcEEEPm,"axG",@progbits,_ZNSt7__cxx114stodERKNS_12basic_stringIcSt11char_traitsIcESaIcEEEPm,comdat
	.weak	_ZNSt7__cxx114stodERKNS_12basic_stringIcSt11char_traitsIcESaIcEEEPm # -- Begin function _ZNSt7__cxx114stodERKNS_12basic_stringIcSt11char_traitsIcESaIcEEEPm
	.p2align	2
	.type	_ZNSt7__cxx114stodERKNS_12basic_stringIcSt11char_traitsIcESaIcEEEPm,@function
_ZNSt7__cxx114stodERKNS_12basic_stringIcSt11char_traitsIcESaIcEEEPm: # @_ZNSt7__cxx114stodERKNS_12basic_stringIcSt11char_traitsIcESaIcEEEPm
	.cfi_startproc
# %bb.0:                                # %entry
	addi	sp, sp, -32
	.cfi_def_cfa_offset 32
	sd	ra, 24(sp)
	sd	s0, 16(sp)
	.cfi_offset ra, -8
	.cfi_offset s0, -16
	addi	s0, sp, 32
	.cfi_def_cfa s0, 0
	sd	a0, -24(s0)
	sd	a1, -32(s0)
	ld	a0, -24(s0)
	call	_ZNKSt7__cxx1112basic_stringIcSt11char_traitsIcESaIcEE5c_strEv
	mv	a2, a0
	ld	a3, -32(s0)
	lui	a0, %hi(strtod)
	addi	a0, a0, %lo(strtod)
	lui	a1, %hi(.L.str.6)
	addi	a1, a1, %lo(.L.str.6)
	call	_ZN9__gnu_cxx6__stoaIddcJEEET0_PFT_PKT1_PPS3_DpT2_EPKcS5_PmS9_
	ld	s0, 16(sp)
	.cfi_def_cfa sp, 32
	ld	ra, 24(sp)
	.cfi_restore ra
	.cfi_restore s0
	addi	sp, sp, 32
	.cfi_def_cfa_offset 0
	ret
.Lfunc_end26:
	.size	_ZNSt7__cxx114stodERKNS_12basic_stringIcSt11char_traitsIcESaIcEEEPm, .Lfunc_end26-_ZNSt7__cxx114stodERKNS_12basic_stringIcSt11char_traitsIcESaIcEEEPm
	.cfi_endproc
                                        # -- End function
	.section	.text._ZNSt3setIN8Spectral5ValueIdEESt4lessIS2_ESaIS2_EE6insertEOS2_,"axG",@progbits,_ZNSt3setIN8Spectral5ValueIdEESt4lessIS2_ESaIS2_EE6insertEOS2_,comdat
	.weak	_ZNSt3setIN8Spectral5ValueIdEESt4lessIS2_ESaIS2_EE6insertEOS2_ # -- Begin function _ZNSt3setIN8Spectral5ValueIdEESt4lessIS2_ESaIS2_EE6insertEOS2_
	.p2align	2
	.type	_ZNSt3setIN8Spectral5ValueIdEESt4lessIS2_ESaIS2_EE6insertEOS2_,@function
_ZNSt3setIN8Spectral5ValueIdEESt4lessIS2_ESaIS2_EE6insertEOS2_: # @_ZNSt3setIN8Spectral5ValueIdEESt4lessIS2_ESaIS2_EE6insertEOS2_
	.cfi_startproc
# %bb.0:                                # %entry
	addi	sp, sp, -80
	.cfi_def_cfa_offset 80
	sd	ra, 72(sp)
	sd	s0, 64(sp)
	sd	s1, 56(sp)
	.cfi_offset ra, -8
	.cfi_offset s0, -16
	.cfi_offset s1, -24
	addi	s0, sp, 80
	.cfi_def_cfa s0, 0
	sd	a0, -48(s0)
	sd	a1, -56(s0)
	ld	s1, -48(s0)
	ld	a0, -56(s0)
	call	_ZSt4moveIRN8Spectral5ValueIdEEEONSt16remove_referenceIT_E4typeEOS5_
	mv	a1, a0
	mv	a0, s1
	call	_ZNSt8_Rb_treeIN8Spectral5ValueIdEES2_St9_IdentityIS2_ESt4lessIS2_ESaIS2_EE16_M_insert_uniqueIS2_EESt4pairISt17_Rb_tree_iteratorIS2_EbEOT_
	sd	a1, -64(s0)
	sd	a0, -72(s0)
	addi	a1, s0, -72
	addi	a2, a1, 8
	addi	a0, s0, -40
	call	_ZNSt4pairISt23_Rb_tree_const_iteratorIN8Spectral5ValueIdEEEbEC2IRSt17_Rb_tree_iteratorIS3_ERbLb1EEEOT_OT0_
	ld	a0, -40(s0)
	ld	a1, -32(s0)
	ld	s1, 56(sp)
	ld	s0, 64(sp)
	.cfi_def_cfa sp, 80
	ld	ra, 72(sp)
	.cfi_restore ra
	.cfi_restore s0
	.cfi_restore s1
	addi	sp, sp, 80
	.cfi_def_cfa_offset 0
	ret
.Lfunc_end27:
	.size	_ZNSt3setIN8Spectral5ValueIdEESt4lessIS2_ESaIS2_EE6insertEOS2_, .Lfunc_end27-_ZNSt3setIN8Spectral5ValueIdEESt4lessIS2_ESaIS2_EE6insertEOS2_
	.cfi_endproc
                                        # -- End function
	.section	.text._ZN4sRGB3RGBERKSt3setIN8Spectral5ValueIdEESt4lessIS3_ESaIS3_EENS1_4TypeE,"axG",@progbits,_ZN4sRGB3RGBERKSt3setIN8Spectral5ValueIdEESt4lessIS3_ESaIS3_EENS1_4TypeE,comdat
	.weak	_ZN4sRGB3RGBERKSt3setIN8Spectral5ValueIdEESt4lessIS3_ESaIS3_EENS1_4TypeE # -- Begin function _ZN4sRGB3RGBERKSt3setIN8Spectral5ValueIdEESt4lessIS3_ESaIS3_EENS1_4TypeE
	.p2align	2
	.type	_ZN4sRGB3RGBERKSt3setIN8Spectral5ValueIdEESt4lessIS3_ESaIS3_EENS1_4TypeE,@function
_ZN4sRGB3RGBERKSt3setIN8Spectral5ValueIdEESt4lessIS3_ESaIS3_EENS1_4TypeE: # @_ZN4sRGB3RGBERKSt3setIN8Spectral5ValueIdEESt4lessIS3_ESaIS3_EENS1_4TypeE
	.cfi_startproc
# %bb.0:                                # %entry
	addi	sp, sp, -80
	.cfi_def_cfa_offset 80
	sd	ra, 72(sp)
	sd	s0, 64(sp)
	sd	s1, 56(sp)
	sd	s2, 48(sp)
	.cfi_offset ra, -8
	.cfi_offset s0, -16
	.cfi_offset s1, -24
	.cfi_offset s2, -32
	addi	s0, sp, 80
	.cfi_def_cfa s0, 0
	mv	s1, a0
	sd	s1, -40(s0)
	sd	a1, -48(s0)
	sw	a2, -52(s0)
	ld	a1, -48(s0)
	lw	a2, -52(s0)
	addi	s2, s0, -80
	mv	a0, s2
	call	_ZN3CIE3XYZERKSt3setIN8Spectral5ValueIdEESt4lessIS3_ESaIS3_EENS1_4TypeE
	mv	a0, s1
	mv	a1, s2
	call	_ZN4sRGB3RGBERKN3glm3vecILi3EdLNS0_9qualifierE0EEE
	ld	s2, 48(sp)
	ld	s1, 56(sp)
	ld	s0, 64(sp)
	.cfi_def_cfa sp, 80
	ld	ra, 72(sp)
	.cfi_restore ra
	.cfi_restore s0
	.cfi_restore s1
	.cfi_restore s2
	addi	sp, sp, 80
	.cfi_def_cfa_offset 0
	ret
.Lfunc_end28:
	.size	_ZN4sRGB3RGBERKSt3setIN8Spectral5ValueIdEESt4lessIS3_ESaIS3_EENS1_4TypeE, .Lfunc_end28-_ZN4sRGB3RGBERKSt3setIN8Spectral5ValueIdEESt4lessIS3_ESaIS3_EENS1_4TypeE
	.cfi_endproc
                                        # -- End function
	.section	.text._ZNSt3setIN8Spectral5ValueIdEESt4lessIS2_ESaIS2_EED2Ev,"axG",@progbits,_ZNSt3setIN8Spectral5ValueIdEESt4lessIS2_ESaIS2_EED2Ev,comdat
	.weak	_ZNSt3setIN8Spectral5ValueIdEESt4lessIS2_ESaIS2_EED2Ev # -- Begin function _ZNSt3setIN8Spectral5ValueIdEESt4lessIS2_ESaIS2_EED2Ev
	.p2align	2
	.type	_ZNSt3setIN8Spectral5ValueIdEESt4lessIS2_ESaIS2_EED2Ev,@function
_ZNSt3setIN8Spectral5ValueIdEESt4lessIS2_ESaIS2_EED2Ev: # @_ZNSt3setIN8Spectral5ValueIdEESt4lessIS2_ESaIS2_EED2Ev
# %bb.0:                                # %entry
	addi	sp, sp, -32
	sd	ra, 24(sp)
	sd	s0, 16(sp)
	addi	s0, sp, 32
	sd	a0, -24(s0)
	ld	a0, -24(s0)
	call	_ZNSt8_Rb_treeIN8Spectral5ValueIdEES2_St9_IdentityIS2_ESt4lessIS2_ESaIS2_EED2Ev
	ld	s0, 16(sp)
	ld	ra, 24(sp)
	addi	sp, sp, 32
	ret
.Lfunc_end29:
	.size	_ZNSt3setIN8Spectral5ValueIdEESt4lessIS2_ESaIS2_EED2Ev, .Lfunc_end29-_ZNSt3setIN8Spectral5ValueIdEESt4lessIS2_ESaIS2_EED2Ev
                                        # -- End function
	.section	.text._ZN3glm3vecILi3EdLNS_9qualifierE0EEC2Eddd,"axG",@progbits,_ZN3glm3vecILi3EdLNS_9qualifierE0EEC2Eddd,comdat
	.weak	_ZN3glm3vecILi3EdLNS_9qualifierE0EEC2Eddd # -- Begin function _ZN3glm3vecILi3EdLNS_9qualifierE0EEC2Eddd
	.p2align	2
	.type	_ZN3glm3vecILi3EdLNS_9qualifierE0EEC2Eddd,@function
_ZN3glm3vecILi3EdLNS_9qualifierE0EEC2Eddd: # @_ZN3glm3vecILi3EdLNS_9qualifierE0EEC2Eddd
# %bb.0:                                # %entry
	addi	sp, sp, -48
	sd	ra, 40(sp)
	sd	s0, 32(sp)
	addi	s0, sp, 48
	fmv.d.x	ft0, a3
	fmv.d.x	ft0, a2
	fmv.d.x	ft0, a1
	sd	a0, -24(s0)
	sd	a1, -32(s0)
	sd	a2, -40(s0)
	sd	a3, -48(s0)
	ld	a0, -24(s0)
	fld	ft0, -32(s0)
	fsd	ft0, 0(a0)
	fld	ft0, -40(s0)
	fsd	ft0, 8(a0)
	fld	ft0, -48(s0)
	fsd	ft0, 16(a0)
	ld	s0, 32(sp)
	ld	ra, 40(sp)
	addi	sp, sp, 48
	ret
.Lfunc_end30:
	.size	_ZN3glm3vecILi3EdLNS_9qualifierE0EEC2Eddd, .Lfunc_end30-_ZN3glm3vecILi3EdLNS_9qualifierE0EEC2Eddd
                                        # -- End function
	.section	.text._ZNSt8_Rb_treeIN8Spectral5ValueIdEES2_St9_IdentityIS2_ESt4lessIS2_ESaIS2_EEC2Ev,"axG",@progbits,_ZNSt8_Rb_treeIN8Spectral5ValueIdEES2_St9_IdentityIS2_ESt4lessIS2_ESaIS2_EEC2Ev,comdat
	.weak	_ZNSt8_Rb_treeIN8Spectral5ValueIdEES2_St9_IdentityIS2_ESt4lessIS2_ESaIS2_EEC2Ev # -- Begin function _ZNSt8_Rb_treeIN8Spectral5ValueIdEES2_St9_IdentityIS2_ESt4lessIS2_ESaIS2_EEC2Ev
	.p2align	2
	.type	_ZNSt8_Rb_treeIN8Spectral5ValueIdEES2_St9_IdentityIS2_ESt4lessIS2_ESaIS2_EEC2Ev,@function
_ZNSt8_Rb_treeIN8Spectral5ValueIdEES2_St9_IdentityIS2_ESt4lessIS2_ESaIS2_EEC2Ev: # @_ZNSt8_Rb_treeIN8Spectral5ValueIdEES2_St9_IdentityIS2_ESt4lessIS2_ESaIS2_EEC2Ev
# %bb.0:                                # %entry
	addi	sp, sp, -32
	sd	ra, 24(sp)
	sd	s0, 16(sp)
	addi	s0, sp, 32
	sd	a0, -24(s0)
	ld	a0, -24(s0)
	call	_ZNSt8_Rb_treeIN8Spectral5ValueIdEES2_St9_IdentityIS2_ESt4lessIS2_ESaIS2_EE13_Rb_tree_implIS6_Lb1EEC2Ev
	ld	s0, 16(sp)
	ld	ra, 24(sp)
	addi	sp, sp, 32
	ret
.Lfunc_end31:
	.size	_ZNSt8_Rb_treeIN8Spectral5ValueIdEES2_St9_IdentityIS2_ESt4lessIS2_ESaIS2_EEC2Ev, .Lfunc_end31-_ZNSt8_Rb_treeIN8Spectral5ValueIdEES2_St9_IdentityIS2_ESt4lessIS2_ESaIS2_EEC2Ev
                                        # -- End function
	.section	.text._ZNSt8_Rb_treeIN8Spectral5ValueIdEES2_St9_IdentityIS2_ESt4lessIS2_ESaIS2_EE13_Rb_tree_implIS6_Lb1EEC2Ev,"axG",@progbits,_ZNSt8_Rb_treeIN8Spectral5ValueIdEES2_St9_IdentityIS2_ESt4lessIS2_ESaIS2_EE13_Rb_tree_implIS6_Lb1EEC2Ev,comdat
	.weak	_ZNSt8_Rb_treeIN8Spectral5ValueIdEES2_St9_IdentityIS2_ESt4lessIS2_ESaIS2_EE13_Rb_tree_implIS6_Lb1EEC2Ev # -- Begin function _ZNSt8_Rb_treeIN8Spectral5ValueIdEES2_St9_IdentityIS2_ESt4lessIS2_ESaIS2_EE13_Rb_tree_implIS6_Lb1EEC2Ev
	.p2align	2
	.type	_ZNSt8_Rb_treeIN8Spectral5ValueIdEES2_St9_IdentityIS2_ESt4lessIS2_ESaIS2_EE13_Rb_tree_implIS6_Lb1EEC2Ev,@function
_ZNSt8_Rb_treeIN8Spectral5ValueIdEES2_St9_IdentityIS2_ESt4lessIS2_ESaIS2_EE13_Rb_tree_implIS6_Lb1EEC2Ev: # @_ZNSt8_Rb_treeIN8Spectral5ValueIdEES2_St9_IdentityIS2_ESt4lessIS2_ESaIS2_EE13_Rb_tree_implIS6_Lb1EEC2Ev
# %bb.0:                                # %entry
	addi	sp, sp, -48
	sd	ra, 40(sp)
	sd	s0, 32(sp)
	sd	s1, 24(sp)
	addi	s0, sp, 48
	sd	a0, -48(s0)
	ld	s1, -48(s0)
	sd	s1, -40(s0)
	ld	a0, -40(s0)
	sd	a0, -32(s0)
	mv	a0, s1
	call	_ZNSt20_Rb_tree_key_compareISt4lessIN8Spectral5ValueIdEEEEC2Ev
	addi	a0, s1, 8
	call	_ZNSt15_Rb_tree_headerC2Ev
	ld	s1, 24(sp)
	ld	s0, 32(sp)
	ld	ra, 40(sp)
	addi	sp, sp, 48
	ret
.Lfunc_end32:
	.size	_ZNSt8_Rb_treeIN8Spectral5ValueIdEES2_St9_IdentityIS2_ESt4lessIS2_ESaIS2_EE13_Rb_tree_implIS6_Lb1EEC2Ev, .Lfunc_end32-_ZNSt8_Rb_treeIN8Spectral5ValueIdEES2_St9_IdentityIS2_ESt4lessIS2_ESaIS2_EE13_Rb_tree_implIS6_Lb1EEC2Ev
                                        # -- End function
	.section	.text._ZNSt20_Rb_tree_key_compareISt4lessIN8Spectral5ValueIdEEEEC2Ev,"axG",@progbits,_ZNSt20_Rb_tree_key_compareISt4lessIN8Spectral5ValueIdEEEEC2Ev,comdat
	.weak	_ZNSt20_Rb_tree_key_compareISt4lessIN8Spectral5ValueIdEEEEC2Ev # -- Begin function _ZNSt20_Rb_tree_key_compareISt4lessIN8Spectral5ValueIdEEEEC2Ev
	.p2align	2
	.type	_ZNSt20_Rb_tree_key_compareISt4lessIN8Spectral5ValueIdEEEEC2Ev,@function
_ZNSt20_Rb_tree_key_compareISt4lessIN8Spectral5ValueIdEEEEC2Ev: # @_ZNSt20_Rb_tree_key_compareISt4lessIN8Spectral5ValueIdEEEEC2Ev
# %bb.0:                                # %entry
	addi	sp, sp, -32
	sd	ra, 24(sp)
	sd	s0, 16(sp)
	addi	s0, sp, 32
	sd	a0, -24(s0)
	ld	s0, 16(sp)
	ld	ra, 24(sp)
	addi	sp, sp, 32
	ret
.Lfunc_end33:
	.size	_ZNSt20_Rb_tree_key_compareISt4lessIN8Spectral5ValueIdEEEEC2Ev, .Lfunc_end33-_ZNSt20_Rb_tree_key_compareISt4lessIN8Spectral5ValueIdEEEEC2Ev
                                        # -- End function
	.section	.text._ZNSt15_Rb_tree_headerC2Ev,"axG",@progbits,_ZNSt15_Rb_tree_headerC2Ev,comdat
	.weak	_ZNSt15_Rb_tree_headerC2Ev # -- Begin function _ZNSt15_Rb_tree_headerC2Ev
	.p2align	2
	.type	_ZNSt15_Rb_tree_headerC2Ev,@function
_ZNSt15_Rb_tree_headerC2Ev:             # @_ZNSt15_Rb_tree_headerC2Ev
.Lfunc_begin4:
	.cfi_startproc
	.cfi_personality 155, DW.ref.__gxx_personality_v0
	.cfi_lsda 27, .Lexception4
# %bb.0:                                # %entry
	addi	sp, sp, -32
	.cfi_def_cfa_offset 32
	sd	ra, 24(sp)
	sd	s0, 16(sp)
	.cfi_offset ra, -8
	.cfi_offset s0, -16
	addi	s0, sp, 32
	.cfi_def_cfa s0, 0
	sd	a0, -24(s0)
	ld	a0, -24(s0)
	sw	zero, 0(a0)
.Ltmp76:
	call	_ZNSt15_Rb_tree_header8_M_resetEv
.Ltmp77:
	j	.LBB34_1
.LBB34_1:                               # %invoke.cont
	ld	s0, 16(sp)
	.cfi_def_cfa sp, 32
	ld	ra, 24(sp)
	.cfi_restore ra
	.cfi_restore s0
	addi	sp, sp, 32
	.cfi_def_cfa_offset 0
	ret
.LBB34_2:                               # %terminate.lpad
.Ltmp78:
	call	__clang_call_terminate
.Lfunc_end34:
	.size	_ZNSt15_Rb_tree_headerC2Ev, .Lfunc_end34-_ZNSt15_Rb_tree_headerC2Ev
	.cfi_endproc
	.section	.gcc_except_table,"a",@progbits
	.p2align	2
GCC_except_table34:
.Lexception4:
	.byte	255                     # @LPStart Encoding = omit
	.byte	155                     # @TType Encoding = indirect pcrel sdata4
	.uleb128 .Lttbase0-.Lttbaseref0
.Lttbaseref0:
	.byte	3                       # Call site Encoding = udata4
	.uleb128 .Lcst_end4-.Lcst_begin4
.Lcst_begin4:
	.word	.Ltmp76-.Lfunc_begin4   # >> Call Site 1 <<
	.word	.Ltmp77-.Ltmp76         #   Call between .Ltmp76 and .Ltmp77
	.word	.Ltmp78-.Lfunc_begin4   #     jumps to .Ltmp78
	.byte	1                       #   On action: 1
.Lcst_end4:
	.byte	1                       # >> Action Record 1 <<
                                        #   Catch TypeInfo 1
	.byte	0                       #   No further actions
	.p2align	2
                                        # >> Catch TypeInfos <<
	.word	0                       # TypeInfo 1
.Lttbase0:
	.p2align	2
                                        # -- End function
	.section	.text._ZNSt15_Rb_tree_header8_M_resetEv,"axG",@progbits,_ZNSt15_Rb_tree_header8_M_resetEv,comdat
	.weak	_ZNSt15_Rb_tree_header8_M_resetEv # -- Begin function _ZNSt15_Rb_tree_header8_M_resetEv
	.p2align	2
	.type	_ZNSt15_Rb_tree_header8_M_resetEv,@function
_ZNSt15_Rb_tree_header8_M_resetEv:      # @_ZNSt15_Rb_tree_header8_M_resetEv
# %bb.0:                                # %entry
	addi	sp, sp, -32
	sd	ra, 24(sp)
	sd	s0, 16(sp)
	addi	s0, sp, 32
	sd	a0, -24(s0)
	ld	a0, -24(s0)
	sd	zero, 8(a0)
	sd	a0, 16(a0)
	sd	a0, 24(a0)
	sd	zero, 32(a0)
	ld	s0, 16(sp)
	ld	ra, 24(sp)
	addi	sp, sp, 32
	ret
.Lfunc_end35:
	.size	_ZNSt15_Rb_tree_header8_M_resetEv, .Lfunc_end35-_ZNSt15_Rb_tree_header8_M_resetEv
                                        # -- End function
	.section	.text.__clang_call_terminate,"axG",@progbits,__clang_call_terminate,comdat
	.hidden	__clang_call_terminate  # -- Begin function __clang_call_terminate
	.weak	__clang_call_terminate
	.p2align	2
	.type	__clang_call_terminate,@function
__clang_call_terminate:                 # @__clang_call_terminate
# %bb.0:
	addi	sp, sp, -16
	sd	ra, 8(sp)
	call	__cxa_begin_catch
	call	_ZSt9terminatev
.Lfunc_end36:
	.size	__clang_call_terminate, .Lfunc_end36-__clang_call_terminate
                                        # -- End function
	.section	.text._ZN9__gnu_cxx6__stoaIddcJEEET0_PFT_PKT1_PPS3_DpT2_EPKcS5_PmS9_,"axG",@progbits,_ZN9__gnu_cxx6__stoaIddcJEEET0_PFT_PKT1_PPS3_DpT2_EPKcS5_PmS9_,comdat
	.weak	_ZN9__gnu_cxx6__stoaIddcJEEET0_PFT_PKT1_PPS3_DpT2_EPKcS5_PmS9_ # -- Begin function _ZN9__gnu_cxx6__stoaIddcJEEET0_PFT_PKT1_PPS3_DpT2_EPKcS5_PmS9_
	.p2align	2
	.type	_ZN9__gnu_cxx6__stoaIddcJEEET0_PFT_PKT1_PPS3_DpT2_EPKcS5_PmS9_,@function
_ZN9__gnu_cxx6__stoaIddcJEEET0_PFT_PKT1_PPS3_DpT2_EPKcS5_PmS9_: # @_ZN9__gnu_cxx6__stoaIddcJEEET0_PFT_PKT1_PPS3_DpT2_EPKcS5_PmS9_
.Lfunc_begin5:
	.cfi_startproc
	.cfi_personality 155, DW.ref.__gxx_personality_v0
	.cfi_lsda 27, .Lexception5
# %bb.0:                                # %entry
	addi	sp, sp, -112
	.cfi_def_cfa_offset 112
	sd	ra, 104(sp)
	sd	s0, 96(sp)
	sd	s1, 88(sp)
	.cfi_offset ra, -8
	.cfi_offset s0, -16
	.cfi_offset s1, -24
	addi	s0, sp, 112
	.cfi_def_cfa s0, 0
	sd	a0, -32(s0)
	sd	a1, -40(s0)
	sd	a2, -48(s0)
	sd	a3, -56(s0)
	addi	a0, s0, -80
	call	_ZZN9__gnu_cxx6__stoaIddcJEEET0_PFT_PKT1_PPS3_DpT2_EPKcS5_PmS9_EN11_Save_errnoC2Ev
	ld	a2, -32(s0)
	ld	a0, -48(s0)
.Ltmp79:
	addi	a1, s0, -72
	jalr	a2
	fmv.d.x	ft0, a0
.Ltmp80:
	j	.LBB37_1
.LBB37_1:                               # %invoke.cont
	fsd	ft0, -88(s0)
	ld	a0, -72(s0)
	ld	a1, -48(s0)
	bne	a0, a1, .LBB37_5
	j	.LBB37_2
.LBB37_2:                               # %if.then
	ld	a0, -40(s0)
.Ltmp87:
	call	_ZSt24__throw_invalid_argumentPKc
.Ltmp88:
	j	.LBB37_3
.LBB37_3:                               # %invoke.cont1
.LBB37_4:                               # %lpad
.Ltmp89:
	sd	a0, -96(s0)
	sw	a1, -100(s0)
	addi	a0, s0, -80
	call	_ZZN9__gnu_cxx6__stoaIddcJEEET0_PFT_PKT1_PPS3_DpT2_EPKcS5_PmS9_EN11_Save_errnoD2Ev
	j	.LBB37_17
.LBB37_5:                               # %if.else
.Ltmp81:
	call	__errno
.Ltmp82:
	j	.LBB37_6
.LBB37_6:                               # %invoke.cont2
	lw	a1, 0(a0)
	addi	a0, zero, 1
	addi	a2, zero, 34
	beq	a1, a2, .LBB37_9
	j	.LBB37_7
.LBB37_7:                               # %lor.rhs
	ld	a0, -88(s0)
.Ltmp83:
	call	_ZZN9__gnu_cxx6__stoaIddcJEEET0_PFT_PKT1_PPS3_DpT2_EPKcS5_PmS9_EN10_Range_chk6_S_chkEdSt17integral_constantIbLb0EE
.Ltmp84:
	j	.LBB37_8
.LBB37_8:                               # %invoke.cont5
	j	.LBB37_9
.LBB37_9:                               # %lor.end
	andi	a0, a0, 1
	beqz	a0, .LBB37_12
	j	.LBB37_10
.LBB37_10:                              # %if.then7
	ld	a0, -40(s0)
.Ltmp85:
	call	_ZSt20__throw_out_of_rangePKc
.Ltmp86:
	j	.LBB37_11
.LBB37_11:                              # %invoke.cont8
.LBB37_12:                              # %if.else9
	fld	ft0, -88(s0)
	fsd	ft0, -64(s0)
	j	.LBB37_13
.LBB37_13:                              # %if.end
	j	.LBB37_14
.LBB37_14:                              # %if.end10
	ld	a0, -56(s0)
	beqz	a0, .LBB37_16
	j	.LBB37_15
.LBB37_15:                              # %if.then11
	ld	a0, -72(s0)
	ld	a1, -48(s0)
	sub	a0, a0, a1
	ld	a1, -56(s0)
	sd	a0, 0(a1)
	j	.LBB37_16
.LBB37_16:                              # %if.end12
	ld	s1, -64(s0)
	addi	a0, s0, -80
	call	_ZZN9__gnu_cxx6__stoaIddcJEEET0_PFT_PKT1_PPS3_DpT2_EPKcS5_PmS9_EN11_Save_errnoD2Ev
	mv	a0, s1
	ld	s1, 88(sp)
	ld	s0, 96(sp)
	.cfi_def_cfa sp, 112
	ld	ra, 104(sp)
	.cfi_restore ra
	.cfi_restore s0
	.cfi_restore s1
	addi	sp, sp, 112
	.cfi_def_cfa_offset 0
	ret
.LBB37_17:                              # %eh.resume
	ld	a0, -96(s0)
	call	_Unwind_Resume
.Lfunc_end37:
	.size	_ZN9__gnu_cxx6__stoaIddcJEEET0_PFT_PKT1_PPS3_DpT2_EPKcS5_PmS9_, .Lfunc_end37-_ZN9__gnu_cxx6__stoaIddcJEEET0_PFT_PKT1_PPS3_DpT2_EPKcS5_PmS9_
	.cfi_endproc
	.section	.gcc_except_table,"a",@progbits
	.p2align	2
GCC_except_table37:
.Lexception5:
	.byte	255                     # @LPStart Encoding = omit
	.byte	255                     # @TType Encoding = omit
	.byte	3                       # Call site Encoding = udata4
	.uleb128 .Lcst_end5-.Lcst_begin5
.Lcst_begin5:
	.word	.Lfunc_begin5-.Lfunc_begin5 # >> Call Site 1 <<
	.word	.Ltmp79-.Lfunc_begin5   #   Call between .Lfunc_begin5 and .Ltmp79
	.word	0                       #     has no landing pad
	.byte	0                       #   On action: cleanup
	.word	.Ltmp79-.Lfunc_begin5   # >> Call Site 2 <<
	.word	.Ltmp86-.Ltmp79         #   Call between .Ltmp79 and .Ltmp86
	.word	.Ltmp89-.Lfunc_begin5   #     jumps to .Ltmp89
	.byte	0                       #   On action: cleanup
	.word	.Ltmp86-.Lfunc_begin5   # >> Call Site 3 <<
	.word	.Lfunc_end37-.Ltmp86    #   Call between .Ltmp86 and .Lfunc_end37
	.word	0                       #     has no landing pad
	.byte	0                       #   On action: cleanup
.Lcst_end5:
	.p2align	2
                                        # -- End function
	.section	.text._ZZN9__gnu_cxx6__stoaIddcJEEET0_PFT_PKT1_PPS3_DpT2_EPKcS5_PmS9_EN11_Save_errnoC2Ev,"axG",@progbits,_ZZN9__gnu_cxx6__stoaIddcJEEET0_PFT_PKT1_PPS3_DpT2_EPKcS5_PmS9_EN11_Save_errnoC2Ev,comdat
	.weak	_ZZN9__gnu_cxx6__stoaIddcJEEET0_PFT_PKT1_PPS3_DpT2_EPKcS5_PmS9_EN11_Save_errnoC2Ev # -- Begin function _ZZN9__gnu_cxx6__stoaIddcJEEET0_PFT_PKT1_PPS3_DpT2_EPKcS5_PmS9_EN11_Save_errnoC2Ev
	.p2align	2
	.type	_ZZN9__gnu_cxx6__stoaIddcJEEET0_PFT_PKT1_PPS3_DpT2_EPKcS5_PmS9_EN11_Save_errnoC2Ev,@function
_ZZN9__gnu_cxx6__stoaIddcJEEET0_PFT_PKT1_PPS3_DpT2_EPKcS5_PmS9_EN11_Save_errnoC2Ev: # @_ZZN9__gnu_cxx6__stoaIddcJEEET0_PFT_PKT1_PPS3_DpT2_EPKcS5_PmS9_EN11_Save_errnoC2Ev
	.cfi_startproc
# %bb.0:                                # %entry
	addi	sp, sp, -32
	.cfi_def_cfa_offset 32
	sd	ra, 24(sp)
	sd	s0, 16(sp)
	sd	s1, 8(sp)
	.cfi_offset ra, -8
	.cfi_offset s0, -16
	.cfi_offset s1, -24
	addi	s0, sp, 32
	.cfi_def_cfa s0, 0
	sd	a0, -32(s0)
	ld	s1, -32(s0)
	call	__errno
	lw	a0, 0(a0)
	sw	a0, 0(s1)
	call	__errno
	sw	zero, 0(a0)
	ld	s1, 8(sp)
	ld	s0, 16(sp)
	.cfi_def_cfa sp, 32
	ld	ra, 24(sp)
	.cfi_restore ra
	.cfi_restore s0
	.cfi_restore s1
	addi	sp, sp, 32
	.cfi_def_cfa_offset 0
	ret
.Lfunc_end38:
	.size	_ZZN9__gnu_cxx6__stoaIddcJEEET0_PFT_PKT1_PPS3_DpT2_EPKcS5_PmS9_EN11_Save_errnoC2Ev, .Lfunc_end38-_ZZN9__gnu_cxx6__stoaIddcJEEET0_PFT_PKT1_PPS3_DpT2_EPKcS5_PmS9_EN11_Save_errnoC2Ev
	.cfi_endproc
                                        # -- End function
	.section	.text._ZZN9__gnu_cxx6__stoaIddcJEEET0_PFT_PKT1_PPS3_DpT2_EPKcS5_PmS9_EN10_Range_chk6_S_chkEdSt17integral_constantIbLb0EE,"axG",@progbits,_ZZN9__gnu_cxx6__stoaIddcJEEET0_PFT_PKT1_PPS3_DpT2_EPKcS5_PmS9_EN10_Range_chk6_S_chkEdSt17integral_constantIbLb0EE,comdat
	.weak	_ZZN9__gnu_cxx6__stoaIddcJEEET0_PFT_PKT1_PPS3_DpT2_EPKcS5_PmS9_EN10_Range_chk6_S_chkEdSt17integral_constantIbLb0EE # -- Begin function _ZZN9__gnu_cxx6__stoaIddcJEEET0_PFT_PKT1_PPS3_DpT2_EPKcS5_PmS9_EN10_Range_chk6_S_chkEdSt17integral_constantIbLb0EE
	.p2align	2
	.type	_ZZN9__gnu_cxx6__stoaIddcJEEET0_PFT_PKT1_PPS3_DpT2_EPKcS5_PmS9_EN10_Range_chk6_S_chkEdSt17integral_constantIbLb0EE,@function
_ZZN9__gnu_cxx6__stoaIddcJEEET0_PFT_PKT1_PPS3_DpT2_EPKcS5_PmS9_EN10_Range_chk6_S_chkEdSt17integral_constantIbLb0EE: # @_ZZN9__gnu_cxx6__stoaIddcJEEET0_PFT_PKT1_PPS3_DpT2_EPKcS5_PmS9_EN10_Range_chk6_S_chkEdSt17integral_constantIbLb0EE
# %bb.0:                                # %entry
	addi	sp, sp, -32
	sd	ra, 24(sp)
	sd	s0, 16(sp)
	addi	s0, sp, 32
	fmv.d.x	ft0, a0
	sd	a0, -32(s0)
	mv	a0, zero
	ld	s0, 16(sp)
	ld	ra, 24(sp)
	addi	sp, sp, 32
	ret
.Lfunc_end39:
	.size	_ZZN9__gnu_cxx6__stoaIddcJEEET0_PFT_PKT1_PPS3_DpT2_EPKcS5_PmS9_EN10_Range_chk6_S_chkEdSt17integral_constantIbLb0EE, .Lfunc_end39-_ZZN9__gnu_cxx6__stoaIddcJEEET0_PFT_PKT1_PPS3_DpT2_EPKcS5_PmS9_EN10_Range_chk6_S_chkEdSt17integral_constantIbLb0EE
                                        # -- End function
	.section	.text._ZZN9__gnu_cxx6__stoaIddcJEEET0_PFT_PKT1_PPS3_DpT2_EPKcS5_PmS9_EN11_Save_errnoD2Ev,"axG",@progbits,_ZZN9__gnu_cxx6__stoaIddcJEEET0_PFT_PKT1_PPS3_DpT2_EPKcS5_PmS9_EN11_Save_errnoD2Ev,comdat
	.weak	_ZZN9__gnu_cxx6__stoaIddcJEEET0_PFT_PKT1_PPS3_DpT2_EPKcS5_PmS9_EN11_Save_errnoD2Ev # -- Begin function _ZZN9__gnu_cxx6__stoaIddcJEEET0_PFT_PKT1_PPS3_DpT2_EPKcS5_PmS9_EN11_Save_errnoD2Ev
	.p2align	2
	.type	_ZZN9__gnu_cxx6__stoaIddcJEEET0_PFT_PKT1_PPS3_DpT2_EPKcS5_PmS9_EN11_Save_errnoD2Ev,@function
_ZZN9__gnu_cxx6__stoaIddcJEEET0_PFT_PKT1_PPS3_DpT2_EPKcS5_PmS9_EN11_Save_errnoD2Ev: # @_ZZN9__gnu_cxx6__stoaIddcJEEET0_PFT_PKT1_PPS3_DpT2_EPKcS5_PmS9_EN11_Save_errnoD2Ev
.Lfunc_begin6:
	.cfi_startproc
	.cfi_personality 155, DW.ref.__gxx_personality_v0
	.cfi_lsda 27, .Lexception6
# %bb.0:                                # %entry
	addi	sp, sp, -32
	.cfi_def_cfa_offset 32
	sd	ra, 24(sp)
	sd	s0, 16(sp)
	sd	s1, 8(sp)
	.cfi_offset ra, -8
	.cfi_offset s0, -16
	.cfi_offset s1, -24
	addi	s0, sp, 32
	.cfi_def_cfa s0, 0
	sd	a0, -32(s0)
	ld	s1, -32(s0)
.Ltmp90:
	call	__errno
.Ltmp91:
	j	.LBB40_1
.LBB40_1:                               # %invoke.cont
	lw	a0, 0(a0)
	bnez	a0, .LBB40_4
	j	.LBB40_2
.LBB40_2:                               # %if.then
	lwu	s1, 0(s1)
.Ltmp92:
	call	__errno
.Ltmp93:
	j	.LBB40_3
.LBB40_3:                               # %invoke.cont2
	sw	s1, 0(a0)
	j	.LBB40_4
.LBB40_4:                               # %if.end
	ld	s1, 8(sp)
	ld	s0, 16(sp)
	.cfi_def_cfa sp, 32
	ld	ra, 24(sp)
	.cfi_restore ra
	.cfi_restore s0
	.cfi_restore s1
	addi	sp, sp, 32
	.cfi_def_cfa_offset 0
	ret
.LBB40_5:                               # %terminate.lpad
.Ltmp94:
	call	__clang_call_terminate
.Lfunc_end40:
	.size	_ZZN9__gnu_cxx6__stoaIddcJEEET0_PFT_PKT1_PPS3_DpT2_EPKcS5_PmS9_EN11_Save_errnoD2Ev, .Lfunc_end40-_ZZN9__gnu_cxx6__stoaIddcJEEET0_PFT_PKT1_PPS3_DpT2_EPKcS5_PmS9_EN11_Save_errnoD2Ev
	.cfi_endproc
	.section	.gcc_except_table,"a",@progbits
	.p2align	2
GCC_except_table40:
.Lexception6:
	.byte	255                     # @LPStart Encoding = omit
	.byte	155                     # @TType Encoding = indirect pcrel sdata4
	.uleb128 .Lttbase1-.Lttbaseref1
.Lttbaseref1:
	.byte	3                       # Call site Encoding = udata4
	.uleb128 .Lcst_end6-.Lcst_begin6
.Lcst_begin6:
	.word	.Ltmp90-.Lfunc_begin6   # >> Call Site 1 <<
	.word	.Ltmp93-.Ltmp90         #   Call between .Ltmp90 and .Ltmp93
	.word	.Ltmp94-.Lfunc_begin6   #     jumps to .Ltmp94
	.byte	1                       #   On action: 1
.Lcst_end6:
	.byte	1                       # >> Action Record 1 <<
                                        #   Catch TypeInfo 1
	.byte	0                       #   No further actions
	.p2align	2
                                        # >> Catch TypeInfos <<
	.word	0                       # TypeInfo 1
.Lttbase1:
	.p2align	2
                                        # -- End function
	.section	.text._ZN4sRGB3RGBERKN3glm3vecILi3EdLNS0_9qualifierE0EEE,"axG",@progbits,_ZN4sRGB3RGBERKN3glm3vecILi3EdLNS0_9qualifierE0EEE,comdat
	.weak	_ZN4sRGB3RGBERKN3glm3vecILi3EdLNS0_9qualifierE0EEE # -- Begin function _ZN4sRGB3RGBERKN3glm3vecILi3EdLNS0_9qualifierE0EEE
	.p2align	2
	.type	_ZN4sRGB3RGBERKN3glm3vecILi3EdLNS0_9qualifierE0EEE,@function
_ZN4sRGB3RGBERKN3glm3vecILi3EdLNS0_9qualifierE0EEE: # @_ZN4sRGB3RGBERKN3glm3vecILi3EdLNS0_9qualifierE0EEE
	.cfi_startproc
# %bb.0:                                # %entry
	addi	sp, sp, -64
	.cfi_def_cfa_offset 64
	sd	ra, 56(sp)
	sd	s0, 48(sp)
	.cfi_offset ra, -8
	.cfi_offset s0, -16
	addi	s0, sp, 64
	.cfi_def_cfa s0, 0
	sd	a0, -24(s0)
	sd	a1, -32(s0)
	ld	a1, -32(s0)
	ld	a2, 16(a1)
	sd	a2, -40(s0)
	ld	a2, 8(a1)
	sd	a2, -48(s0)
	ld	a1, 0(a1)
	sd	a1, -56(s0)
	lui	a1, %hi(_ZN4sRGB7XYZ2RGBE)
	addi	a1, a1, %lo(_ZN4sRGB7XYZ2RGBE)
	addi	a2, s0, -56
	call	_Z4multRKN3glm3matILi3ELi3EdLNS_9qualifierE0EEENS_3vecILi3EdLS1_0EEE
	ld	s0, 48(sp)
	.cfi_def_cfa sp, 64
	ld	ra, 56(sp)
	.cfi_restore ra
	.cfi_restore s0
	addi	sp, sp, 64
	.cfi_def_cfa_offset 0
	ret
.Lfunc_end41:
	.size	_ZN4sRGB3RGBERKN3glm3vecILi3EdLNS0_9qualifierE0EEE, .Lfunc_end41-_ZN4sRGB3RGBERKN3glm3vecILi3EdLNS0_9qualifierE0EEE
	.cfi_endproc
                                        # -- End function
	.section	.sdata,"aw",@progbits
	.p2align	3               # -- Begin function _ZN3CIE3XYZERKSt3setIN8Spectral5ValueIdEESt4lessIS3_ESaIS3_EENS1_4TypeE
.LCPI42_0:
	.quad	4602678819172646912     # double 0.5
	.section	.text._ZN3CIE3XYZERKSt3setIN8Spectral5ValueIdEESt4lessIS3_ESaIS3_EENS1_4TypeE,"axG",@progbits,_ZN3CIE3XYZERKSt3setIN8Spectral5ValueIdEESt4lessIS3_ESaIS3_EENS1_4TypeE,comdat
	.weak	_ZN3CIE3XYZERKSt3setIN8Spectral5ValueIdEESt4lessIS3_ESaIS3_EENS1_4TypeE
	.p2align	2
	.type	_ZN3CIE3XYZERKSt3setIN8Spectral5ValueIdEESt4lessIS3_ESaIS3_EENS1_4TypeE,@function
_ZN3CIE3XYZERKSt3setIN8Spectral5ValueIdEESt4lessIS3_ESaIS3_EENS1_4TypeE: # @_ZN3CIE3XYZERKSt3setIN8Spectral5ValueIdEESt4lessIS3_ESaIS3_EENS1_4TypeE
	.cfi_startproc
# %bb.0:                                # %entry
	addi	sp, sp, -320
	.cfi_def_cfa_offset 320
	sd	ra, 312(sp)
	sd	s0, 304(sp)
	sd	s1, 296(sp)
	sd	s2, 288(sp)
	sd	s3, 280(sp)
	sd	s4, 272(sp)
	.cfi_offset ra, -8
	.cfi_offset s0, -16
	.cfi_offset s1, -24
	.cfi_offset s2, -32
	.cfi_offset s3, -40
	.cfi_offset s4, -48
	addi	s0, sp, 320
	.cfi_def_cfa s0, 0
	mv	s2, a0
	sd	s2, -128(s0)
	sd	a1, -136(s0)
	sw	a2, -140(s0)
	sd	zero, -152(s0)
	sd	zero, -160(s0)
	sd	zero, -168(s0)
	ld	a0, -136(s0)
	call	_ZNKSt3setIN8Spectral5ValueIdEESt4lessIS2_ESaIS2_EE5beginEv
	sd	a0, -176(s0)
	ld	a0, -136(s0)
	call	_ZNKSt3setIN8Spectral5ValueIdEESt4lessIS2_ESaIS2_EE3endEv
	sd	a0, -184(s0)
	lui	a0, %hi(_ZN3CIE3CMFE)
	fld	ft0, %lo(_ZN3CIE3CMFE)(a0)
	addi	a0, a0, %lo(_ZN3CIE3CMFE)
	fld	ft1, 16(a0)
	lui	a0, %hi(.LCPI42_0)
	addi	a0, a0, %lo(.LCPI42_0)
	fld	ft2, 0(a0)
	fmul.d	ft1, ft1, ft2
	fadd.d	ft0, ft0, ft1
	fsd	ft0, -192(s0)
	j	.LBB42_1
.LBB42_1:                               # %for.cond
                                        # =>This Inner Loop Header: Depth=1
	fld	ft0, -192(s0)
	lui	a0, %hi(_ZN3CIE3CMFE)
	addi	a0, a0, %lo(_ZN3CIE3CMFE)
	fld	ft1, 8(a0)
	flt.d	a0, ft0, ft1
	xori	a1, a0, 1
	mv	a0, zero
	bnez	a1, .LBB42_3
	j	.LBB42_2
.LBB42_2:                               # %land.rhs
                                        #   in Loop: Header=BB42_1 Depth=1
	ld	a0, -184(s0)
	sd	a0, -200(s0)
	ld	a1, -200(s0)
	ld	a2, -192(s0)
	addi	a0, s0, -176
	call	_ZN8Spectral7advanceIdEEbRNSt3setINS_5ValueIT_EESt4lessIS4_ESaIS4_EE8iteratorES9_d
	j	.LBB42_3
.LBB42_3:                               # %land.end
                                        #   in Loop: Header=BB42_1 Depth=1
	andi	a0, a0, 1
	beqz	a0, .LBB42_9
	j	.LBB42_4
.LBB42_4:                               # %for.body
                                        #   in Loop: Header=BB42_1 Depth=1
	addi	a0, s0, -176
	call	_ZNKSt23_Rb_tree_const_iteratorIN8Spectral5ValueIdEEEdeEv
	mv	s1, a0
	ld	a0, -176(s0)
	sd	a0, -240(s0)
	ld	a0, -240(s0)
	sd	a0, -112(s0)
	addi	s4, zero, 1
	sd	s4, -120(s0)
	ld	a0, -120(s0)
	addi	a1, s0, -112
	sd	a1, -64(s0)
	sd	a0, -72(s0)
	ld	a0, -72(s0)
	sd	a0, -80(s0)
	ld	a0, -64(s0)
	ld	a1, -80(s0)
	sd	a0, -56(s0)
	call	_ZSt9__advanceISt23_Rb_tree_const_iteratorIN8Spectral5ValueIdEEElEvRT_T0_St26bidirectional_iterator_tag
	ld	a0, -112(s0)
	sd	a0, -104(s0)
	ld	a0, -104(s0)
	sd	a0, -232(s0)
	addi	a0, s0, -232
	call	_ZNKSt23_Rb_tree_const_iteratorIN8Spectral5ValueIdEEEdeEv
	mv	a1, a0
	ld	a2, -192(s0)
	mv	a0, s1
	call	_ZN8Spectral11interpolateIdEET_RKNS_5ValueIS1_EES5_d
	mv	s1, a0
	ld	a2, -192(s0)
	lui	a0, %hi(_ZN3CIE3CMFE)
	addi	a1, a0, %lo(_ZN3CIE3CMFE)
	addi	s3, s0, -264
	mv	a0, s3
	call	_ZNK8Spectral18LinearDistributionIN3glm3vecILi3EdLNS1_9qualifierE0EEELm471EEclEd
	addi	a0, s0, -224
	mv	a1, s1
	mv	a2, s3
	call	_ZN3glmmlIdLNS_9qualifierE0EEENS_3vecILi3ET_XT0_EEES3_RKS4_
	lw	a0, -140(s0)
	bne	a0, s4, .LBB42_6
	j	.LBB42_5
.LBB42_5:                               # %cond.true
                                        #   in Loop: Header=BB42_1 Depth=1
	ld	a0, -208(s0)
	sd	a0, -272(s0)
	ld	a0, -216(s0)
	sd	a0, -280(s0)
	ld	a0, -224(s0)
	sd	a0, -288(s0)
	j	.LBB42_7
.LBB42_6:                               # %cond.false
                                        #   in Loop: Header=BB42_1 Depth=1
	ld	a1, -192(s0)
	lui	a0, %hi(_ZN3CIE3D65E)
	addi	a0, a0, %lo(_ZN3CIE3D65E)
	call	_ZNK8Spectral18LinearDistributionIdLm107EEclEd
	mv	a2, a0
	addi	a0, s0, -288
	addi	a1, s0, -224
	call	_ZN3glmmlIdLNS_9qualifierE0EEENS_3vecILi3ET_XT0_EEERKS4_S3_
	j	.LBB42_7
.LBB42_7:                               # %cond.end
                                        #   in Loop: Header=BB42_1 Depth=1
	addi	a0, s0, -168
	addi	a1, s0, -288
	call	_ZN3glm3vecILi3EdLNS_9qualifierE0EEpLIdEERS2_RKNS0_ILi3ET_LS1_0EEE
	j	.LBB42_8
.LBB42_8:                               # %for.inc
                                        #   in Loop: Header=BB42_1 Depth=1
	lui	a0, %hi(_ZN3CIE3CMFE)
	addi	a0, a0, %lo(_ZN3CIE3CMFE)
	fld	ft0, 16(a0)
	fld	ft1, -192(s0)
	fadd.d	ft0, ft1, ft0
	fsd	ft0, -192(s0)
	j	.LBB42_1
.LBB42_9:                               # %for.end
	lui	a0, %hi(_ZN3CIE3CMFE)
	addi	a0, a0, %lo(_ZN3CIE3CMFE)
	ld	a1, 16(a0)
	addi	s1, s0, -312
	addi	a2, s0, -168
	mv	a0, s1
	call	_ZN3glmmlIdLNS_9qualifierE0EEENS_3vecILi3ET_XT0_EEES3_RKS4_
	lw	a2, -140(s0)
	lui	a0, %hi(_ZN3CIE7D65_XYZE)
	addi	a0, a0, %lo(_ZN3CIE7D65_XYZE)
	addi	a0, a0, 8
	lui	a1, %hi(_ZN3CIE5E_XYZE)
	addi	a1, a1, %lo(_ZN3CIE5E_XYZE)
	addi	a1, a1, 8
	addi	a3, zero, 1
	beq	a2, a3, .LBB42_11
# %bb.10:                               # %for.end
	mv	a1, a0
.LBB42_11:                              # %for.end
	ld	a2, 0(a1)
	mv	a0, s2
	mv	a1, s1
	call	_ZN3glmdvIdLNS_9qualifierE0EEENS_3vecILi3ET_XT0_EEERKS4_S3_
	ld	s4, 272(sp)
	ld	s3, 280(sp)
	ld	s2, 288(sp)
	ld	s1, 296(sp)
	ld	s0, 304(sp)
	.cfi_def_cfa sp, 320
	ld	ra, 312(sp)
	.cfi_restore ra
	.cfi_restore s0
	.cfi_restore s1
	.cfi_restore s2
	.cfi_restore s3
	.cfi_restore s4
	addi	sp, sp, 320
	.cfi_def_cfa_offset 0
	ret
.Lfunc_end42:
	.size	_ZN3CIE3XYZERKSt3setIN8Spectral5ValueIdEESt4lessIS3_ESaIS3_EENS1_4TypeE, .Lfunc_end42-_ZN3CIE3XYZERKSt3setIN8Spectral5ValueIdEESt4lessIS3_ESaIS3_EENS1_4TypeE
	.cfi_endproc
                                        # -- End function
	.section	.text._Z4multRKN3glm3matILi3ELi3EdLNS_9qualifierE0EEENS_3vecILi3EdLS1_0EEE,"axG",@progbits,_Z4multRKN3glm3matILi3ELi3EdLNS_9qualifierE0EEENS_3vecILi3EdLS1_0EEE,comdat
	.weak	_Z4multRKN3glm3matILi3ELi3EdLNS_9qualifierE0EEENS_3vecILi3EdLS1_0EEE # -- Begin function _Z4multRKN3glm3matILi3ELi3EdLNS_9qualifierE0EEENS_3vecILi3EdLS1_0EEE
	.p2align	2
	.type	_Z4multRKN3glm3matILi3ELi3EdLNS_9qualifierE0EEENS_3vecILi3EdLS1_0EEE,@function
_Z4multRKN3glm3matILi3ELi3EdLNS_9qualifierE0EEENS_3vecILi3EdLS1_0EEE: # @_Z4multRKN3glm3matILi3ELi3EdLNS_9qualifierE0EEENS_3vecILi3EdLS1_0EEE
	.cfi_startproc
# %bb.0:                                # %entry
	addi	sp, sp, -192
	.cfi_def_cfa_offset 192
	sd	ra, 184(sp)
	sd	s0, 176(sp)
	sd	s1, 168(sp)
	sd	s2, 160(sp)
	.cfi_offset ra, -8
	.cfi_offset s0, -16
	.cfi_offset s1, -24
	.cfi_offset s2, -32
	addi	s0, sp, 192
	.cfi_def_cfa s0, 0
	mv	s1, a2
	mv	s2, a0
	sd	s2, -40(s0)
	sd	a1, -48(s0)
	ld	a0, -48(s0)
	mv	a1, zero
	call	_ZNK3glm3matILi3ELi3EdLNS_9qualifierE0EEixEi
	mv	a1, zero
	call	_ZNK3glm3vecILi3EdLNS_9qualifierE0EEixEi
	fld	ft0, 0(a0)
	fsd	ft0, -120(s0)
	mv	a0, s1
	mv	a1, zero
	call	_ZNK3glm3vecILi3EdLNS_9qualifierE0EEixEi
	fld	ft0, 0(a0)
	fld	ft1, -120(s0)
	fmul.d	ft0, ft1, ft0
	fsd	ft0, -72(s0)
	ld	a0, -48(s0)
	addi	a1, zero, 1
	call	_ZNK3glm3matILi3ELi3EdLNS_9qualifierE0EEixEi
	mv	a1, zero
	call	_ZNK3glm3vecILi3EdLNS_9qualifierE0EEixEi
	fld	ft0, 0(a0)
	fsd	ft0, -128(s0)
	mv	a0, s1
	addi	a1, zero, 1
	call	_ZNK3glm3vecILi3EdLNS_9qualifierE0EEixEi
	fld	ft0, 0(a0)
	fld	ft1, -128(s0)
	fmul.d	ft0, ft1, ft0
	fld	ft1, -72(s0)
	fadd.d	ft0, ft1, ft0
	fsd	ft0, -80(s0)
	ld	a0, -48(s0)
	addi	a1, zero, 2
	call	_ZNK3glm3matILi3ELi3EdLNS_9qualifierE0EEixEi
	mv	a1, zero
	call	_ZNK3glm3vecILi3EdLNS_9qualifierE0EEixEi
	fld	ft0, 0(a0)
	fsd	ft0, -136(s0)
	mv	a0, s1
	addi	a1, zero, 2
	call	_ZNK3glm3vecILi3EdLNS_9qualifierE0EEixEi
	fld	ft0, 0(a0)
	fld	ft1, -136(s0)
	fmul.d	ft0, ft1, ft0
	fld	ft1, -80(s0)
	fadd.d	ft0, ft1, ft0
	fsd	ft0, -56(s0)
	ld	a0, -48(s0)
	mv	a1, zero
	call	_ZNK3glm3matILi3ELi3EdLNS_9qualifierE0EEixEi
	addi	a1, zero, 1
	call	_ZNK3glm3vecILi3EdLNS_9qualifierE0EEixEi
	fld	ft0, 0(a0)
	fsd	ft0, -144(s0)
	mv	a0, s1
	mv	a1, zero
	call	_ZNK3glm3vecILi3EdLNS_9qualifierE0EEixEi
	fld	ft0, 0(a0)
	fld	ft1, -144(s0)
	fmul.d	ft0, ft1, ft0
	fsd	ft0, -88(s0)
	ld	a0, -48(s0)
	addi	a1, zero, 1
	call	_ZNK3glm3matILi3ELi3EdLNS_9qualifierE0EEixEi
	addi	a1, zero, 1
	call	_ZNK3glm3vecILi3EdLNS_9qualifierE0EEixEi
	fld	ft0, 0(a0)
	fsd	ft0, -152(s0)
	mv	a0, s1
	addi	a1, zero, 1
	call	_ZNK3glm3vecILi3EdLNS_9qualifierE0EEixEi
	fld	ft0, 0(a0)
	fld	ft1, -152(s0)
	fmul.d	ft0, ft1, ft0
	fld	ft1, -88(s0)
	fadd.d	ft0, ft1, ft0
	fsd	ft0, -96(s0)
	ld	a0, -48(s0)
	addi	a1, zero, 2
	call	_ZNK3glm3matILi3ELi3EdLNS_9qualifierE0EEixEi
	addi	a1, zero, 1
	call	_ZNK3glm3vecILi3EdLNS_9qualifierE0EEixEi
	fld	ft0, 0(a0)
	fsd	ft0, -160(s0)
	mv	a0, s1
	addi	a1, zero, 2
	call	_ZNK3glm3vecILi3EdLNS_9qualifierE0EEixEi
	fld	ft0, 0(a0)
	fld	ft1, -160(s0)
	fmul.d	ft0, ft1, ft0
	fld	ft1, -96(s0)
	fadd.d	ft0, ft1, ft0
	fsd	ft0, -64(s0)
	ld	a0, -48(s0)
	mv	a1, zero
	call	_ZNK3glm3matILi3ELi3EdLNS_9qualifierE0EEixEi
	addi	a1, zero, 2
	call	_ZNK3glm3vecILi3EdLNS_9qualifierE0EEixEi
	fld	ft0, 0(a0)
	fsd	ft0, -168(s0)
	mv	a0, s1
	mv	a1, zero
	call	_ZNK3glm3vecILi3EdLNS_9qualifierE0EEixEi
	fld	ft0, 0(a0)
	fld	ft1, -168(s0)
	fmul.d	ft0, ft1, ft0
	fsd	ft0, -104(s0)
	ld	a0, -48(s0)
	addi	a1, zero, 1
	call	_ZNK3glm3matILi3ELi3EdLNS_9qualifierE0EEixEi
	addi	a1, zero, 2
	call	_ZNK3glm3vecILi3EdLNS_9qualifierE0EEixEi
	fld	ft0, 0(a0)
	fsd	ft0, -176(s0)
	mv	a0, s1
	addi	a1, zero, 1
	call	_ZNK3glm3vecILi3EdLNS_9qualifierE0EEixEi
	fld	ft0, 0(a0)
	fld	ft1, -176(s0)
	fmul.d	ft0, ft1, ft0
	fld	ft1, -104(s0)
	fadd.d	ft0, ft1, ft0
	fsd	ft0, -112(s0)
	ld	a0, -48(s0)
	addi	a1, zero, 2
	call	_ZNK3glm3matILi3ELi3EdLNS_9qualifierE0EEixEi
	addi	a1, zero, 2
	call	_ZNK3glm3vecILi3EdLNS_9qualifierE0EEixEi
	fld	ft0, 0(a0)
	fsd	ft0, -184(s0)
	mv	a0, s1
	addi	a1, zero, 2
	call	_ZNK3glm3vecILi3EdLNS_9qualifierE0EEixEi
	fld	ft0, 0(a0)
	fld	ft1, -184(s0)
	fmul.d	ft0, ft1, ft0
	fld	ft1, -112(s0)
	fadd.d	ft0, ft1, ft0
	fld	ft1, -56(s0)
	fmv.x.d	a1, ft1
	fld	ft1, -64(s0)
	fmv.x.d	a2, ft1
	fmv.x.d	a3, ft0
	mv	a0, s2
	call	_ZN3glm3vecILi3EdLNS_9qualifierE0EEC2Eddd
	ld	s2, 160(sp)
	ld	s1, 168(sp)
	ld	s0, 176(sp)
	.cfi_def_cfa sp, 192
	ld	ra, 184(sp)
	.cfi_restore ra
	.cfi_restore s0
	.cfi_restore s1
	.cfi_restore s2
	addi	sp, sp, 192
	.cfi_def_cfa_offset 0
	ret
.Lfunc_end43:
	.size	_Z4multRKN3glm3matILi3ELi3EdLNS_9qualifierE0EEENS_3vecILi3EdLS1_0EEE, .Lfunc_end43-_Z4multRKN3glm3matILi3ELi3EdLNS_9qualifierE0EEENS_3vecILi3EdLS1_0EEE
	.cfi_endproc
                                        # -- End function
	.section	.text._ZNK3glm3matILi3ELi3EdLNS_9qualifierE0EEixEi,"axG",@progbits,_ZNK3glm3matILi3ELi3EdLNS_9qualifierE0EEixEi,comdat
	.weak	_ZNK3glm3matILi3ELi3EdLNS_9qualifierE0EEixEi # -- Begin function _ZNK3glm3matILi3ELi3EdLNS_9qualifierE0EEixEi
	.p2align	2
	.type	_ZNK3glm3matILi3ELi3EdLNS_9qualifierE0EEixEi,@function
_ZNK3glm3matILi3ELi3EdLNS_9qualifierE0EEixEi: # @_ZNK3glm3matILi3ELi3EdLNS_9qualifierE0EEixEi
	.cfi_startproc
# %bb.0:                                # %entry
	addi	sp, sp, -48
	.cfi_def_cfa_offset 48
	sd	ra, 40(sp)
	sd	s0, 32(sp)
	sd	s1, 24(sp)
	sd	s2, 16(sp)
	.cfi_offset ra, -8
	.cfi_offset s0, -16
	.cfi_offset s1, -24
	.cfi_offset s2, -32
	addi	s0, sp, 48
	.cfi_def_cfa s0, 0
	sd	a0, -40(s0)
	sw	a1, -44(s0)
	ld	s2, -40(s0)
	lw	s1, -44(s0)
	call	_ZN3glm3matILi3ELi3EdLNS_9qualifierE0EE6lengthEv
	bge	s1, a0, .LBB44_2
	j	.LBB44_1
.LBB44_1:                               # %cond.true
	j	.LBB44_3
.LBB44_2:                               # %cond.false
	lui	a0, %hi(.L.str.7)
	addi	a0, a0, %lo(.L.str.7)
	lui	a1, %hi(.L__PRETTY_FUNCTION__._ZNK3glm3matILi3ELi3EdLNS_9qualifierE0EEixEi)
	addi	a2, a1, %lo(.L__PRETTY_FUNCTION__._ZNK3glm3matILi3ELi3EdLNS_9qualifierE0EEixEi)
	lui	a1, %hi(.L.str.8)
	addi	a3, a1, %lo(.L.str.8)
	addi	a1, zero, 250
	call	__assert_func
.LBB44_3:                               # %cond.end
	lw	a0, -44(s0)
	addi	a1, zero, 24
	mul	a0, a0, a1
	add	a0, s2, a0
	ld	s2, 16(sp)
	ld	s1, 24(sp)
	ld	s0, 32(sp)
	.cfi_def_cfa sp, 48
	ld	ra, 40(sp)
	.cfi_restore ra
	.cfi_restore s0
	.cfi_restore s1
	.cfi_restore s2
	addi	sp, sp, 48
	.cfi_def_cfa_offset 0
	ret
.Lfunc_end44:
	.size	_ZNK3glm3matILi3ELi3EdLNS_9qualifierE0EEixEi, .Lfunc_end44-_ZNK3glm3matILi3ELi3EdLNS_9qualifierE0EEixEi
	.cfi_endproc
                                        # -- End function
	.section	.text._ZNK3glm3vecILi3EdLNS_9qualifierE0EEixEi,"axG",@progbits,_ZNK3glm3vecILi3EdLNS_9qualifierE0EEixEi,comdat
	.weak	_ZNK3glm3vecILi3EdLNS_9qualifierE0EEixEi # -- Begin function _ZNK3glm3vecILi3EdLNS_9qualifierE0EEixEi
	.p2align	2
	.type	_ZNK3glm3vecILi3EdLNS_9qualifierE0EEixEi,@function
_ZNK3glm3vecILi3EdLNS_9qualifierE0EEixEi: # @_ZNK3glm3vecILi3EdLNS_9qualifierE0EEixEi
	.cfi_startproc
# %bb.0:                                # %entry
	addi	sp, sp, -64
	.cfi_def_cfa_offset 64
	sd	ra, 56(sp)
	sd	s0, 48(sp)
	sd	s1, 40(sp)
	sd	s2, 32(sp)
	.cfi_offset ra, -8
	.cfi_offset s0, -16
	.cfi_offset s1, -24
	.cfi_offset s2, -32
	addi	s0, sp, 64
	.cfi_def_cfa s0, 0
	sd	a0, -48(s0)
	sw	a1, -52(s0)
	ld	s2, -48(s0)
	lw	a0, -52(s0)
	bltz	a0, .LBB45_3
	j	.LBB45_1
.LBB45_1:                               # %land.lhs.true
	lw	s1, -52(s0)
	call	_ZN3glm3vecILi3EdLNS_9qualifierE0EE6lengthEv
	bge	s1, a0, .LBB45_3
	j	.LBB45_2
.LBB45_2:                               # %cond.true
	j	.LBB45_4
.LBB45_3:                               # %cond.false
	lui	a0, %hi(.L.str.9)
	addi	a0, a0, %lo(.L.str.9)
	lui	a1, %hi(.L__PRETTY_FUNCTION__._ZNK3glm3vecILi3EdLNS_9qualifierE0EEixEi)
	addi	a2, a1, %lo(.L__PRETTY_FUNCTION__._ZNK3glm3vecILi3EdLNS_9qualifierE0EEixEi)
	lui	a1, %hi(.L.str.10)
	addi	a3, a1, %lo(.L.str.10)
	addi	a1, zero, 186
	call	__assert_func
.LBB45_4:                               # %cond.end
	lwu	a0, -52(s0)
	beqz	a0, .LBB45_8
	j	.LBB45_5
.LBB45_5:                               # %cond.end
	slli	a1, a0, 32
	srli	a1, a1, 32
	addi	a2, zero, 1
	beq	a1, a2, .LBB45_9
	j	.LBB45_6
.LBB45_6:                               # %cond.end
	slli	a0, a0, 32
	srli	a0, a0, 32
	addi	a1, zero, 2
	beq	a0, a1, .LBB45_10
	j	.LBB45_7
.LBB45_7:                               # %sw.default
	j	.LBB45_8
.LBB45_8:                               # %sw.bb
	sd	s2, -40(s0)
	j	.LBB45_11
.LBB45_9:                               # %sw.bb3
	addi	a0, s2, 8
	sd	a0, -40(s0)
	j	.LBB45_11
.LBB45_10:                              # %sw.bb4
	addi	a0, s2, 16
	sd	a0, -40(s0)
	j	.LBB45_11
.LBB45_11:                              # %return
	ld	a0, -40(s0)
	ld	s2, 32(sp)
	ld	s1, 40(sp)
	ld	s0, 48(sp)
	.cfi_def_cfa sp, 64
	ld	ra, 56(sp)
	.cfi_restore ra
	.cfi_restore s0
	.cfi_restore s1
	.cfi_restore s2
	addi	sp, sp, 64
	.cfi_def_cfa_offset 0
	ret
.Lfunc_end45:
	.size	_ZNK3glm3vecILi3EdLNS_9qualifierE0EEixEi, .Lfunc_end45-_ZNK3glm3vecILi3EdLNS_9qualifierE0EEixEi
	.cfi_endproc
                                        # -- End function
	.section	.text._ZN3glm3matILi3ELi3EdLNS_9qualifierE0EE6lengthEv,"axG",@progbits,_ZN3glm3matILi3ELi3EdLNS_9qualifierE0EE6lengthEv,comdat
	.weak	_ZN3glm3matILi3ELi3EdLNS_9qualifierE0EE6lengthEv # -- Begin function _ZN3glm3matILi3ELi3EdLNS_9qualifierE0EE6lengthEv
	.p2align	2
	.type	_ZN3glm3matILi3ELi3EdLNS_9qualifierE0EE6lengthEv,@function
_ZN3glm3matILi3ELi3EdLNS_9qualifierE0EE6lengthEv: # @_ZN3glm3matILi3ELi3EdLNS_9qualifierE0EE6lengthEv
# %bb.0:                                # %entry
	addi	sp, sp, -16
	sd	ra, 8(sp)
	sd	s0, 0(sp)
	addi	s0, sp, 16
	addi	a0, zero, 3
	ld	s0, 0(sp)
	ld	ra, 8(sp)
	addi	sp, sp, 16
	ret
.Lfunc_end46:
	.size	_ZN3glm3matILi3ELi3EdLNS_9qualifierE0EE6lengthEv, .Lfunc_end46-_ZN3glm3matILi3ELi3EdLNS_9qualifierE0EE6lengthEv
                                        # -- End function
	.section	.text._ZN3glm3vecILi3EdLNS_9qualifierE0EE6lengthEv,"axG",@progbits,_ZN3glm3vecILi3EdLNS_9qualifierE0EE6lengthEv,comdat
	.weak	_ZN3glm3vecILi3EdLNS_9qualifierE0EE6lengthEv # -- Begin function _ZN3glm3vecILi3EdLNS_9qualifierE0EE6lengthEv
	.p2align	2
	.type	_ZN3glm3vecILi3EdLNS_9qualifierE0EE6lengthEv,@function
_ZN3glm3vecILi3EdLNS_9qualifierE0EE6lengthEv: # @_ZN3glm3vecILi3EdLNS_9qualifierE0EE6lengthEv
# %bb.0:                                # %entry
	addi	sp, sp, -16
	sd	ra, 8(sp)
	sd	s0, 0(sp)
	addi	s0, sp, 16
	addi	a0, zero, 3
	ld	s0, 0(sp)
	ld	ra, 8(sp)
	addi	sp, sp, 16
	ret
.Lfunc_end47:
	.size	_ZN3glm3vecILi3EdLNS_9qualifierE0EE6lengthEv, .Lfunc_end47-_ZN3glm3vecILi3EdLNS_9qualifierE0EE6lengthEv
                                        # -- End function
	.section	.text._ZNKSt3setIN8Spectral5ValueIdEESt4lessIS2_ESaIS2_EE5beginEv,"axG",@progbits,_ZNKSt3setIN8Spectral5ValueIdEESt4lessIS2_ESaIS2_EE5beginEv,comdat
	.weak	_ZNKSt3setIN8Spectral5ValueIdEESt4lessIS2_ESaIS2_EE5beginEv # -- Begin function _ZNKSt3setIN8Spectral5ValueIdEESt4lessIS2_ESaIS2_EE5beginEv
	.p2align	2
	.type	_ZNKSt3setIN8Spectral5ValueIdEESt4lessIS2_ESaIS2_EE5beginEv,@function
_ZNKSt3setIN8Spectral5ValueIdEESt4lessIS2_ESaIS2_EE5beginEv: # @_ZNKSt3setIN8Spectral5ValueIdEESt4lessIS2_ESaIS2_EE5beginEv
# %bb.0:                                # %entry
	addi	sp, sp, -32
	sd	ra, 24(sp)
	sd	s0, 16(sp)
	addi	s0, sp, 32
	sd	a0, -32(s0)
	ld	a0, -32(s0)
	call	_ZNKSt8_Rb_treeIN8Spectral5ValueIdEES2_St9_IdentityIS2_ESt4lessIS2_ESaIS2_EE5beginEv
	sd	a0, -24(s0)
	ld	a0, -24(s0)
	ld	s0, 16(sp)
	ld	ra, 24(sp)
	addi	sp, sp, 32
	ret
.Lfunc_end48:
	.size	_ZNKSt3setIN8Spectral5ValueIdEESt4lessIS2_ESaIS2_EE5beginEv, .Lfunc_end48-_ZNKSt3setIN8Spectral5ValueIdEESt4lessIS2_ESaIS2_EE5beginEv
                                        # -- End function
	.section	.text._ZNKSt3setIN8Spectral5ValueIdEESt4lessIS2_ESaIS2_EE3endEv,"axG",@progbits,_ZNKSt3setIN8Spectral5ValueIdEESt4lessIS2_ESaIS2_EE3endEv,comdat
	.weak	_ZNKSt3setIN8Spectral5ValueIdEESt4lessIS2_ESaIS2_EE3endEv # -- Begin function _ZNKSt3setIN8Spectral5ValueIdEESt4lessIS2_ESaIS2_EE3endEv
	.p2align	2
	.type	_ZNKSt3setIN8Spectral5ValueIdEESt4lessIS2_ESaIS2_EE3endEv,@function
_ZNKSt3setIN8Spectral5ValueIdEESt4lessIS2_ESaIS2_EE3endEv: # @_ZNKSt3setIN8Spectral5ValueIdEESt4lessIS2_ESaIS2_EE3endEv
# %bb.0:                                # %entry
	addi	sp, sp, -32
	sd	ra, 24(sp)
	sd	s0, 16(sp)
	addi	s0, sp, 32
	sd	a0, -32(s0)
	ld	a0, -32(s0)
	call	_ZNKSt8_Rb_treeIN8Spectral5ValueIdEES2_St9_IdentityIS2_ESt4lessIS2_ESaIS2_EE3endEv
	sd	a0, -24(s0)
	ld	a0, -24(s0)
	ld	s0, 16(sp)
	ld	ra, 24(sp)
	addi	sp, sp, 32
	ret
.Lfunc_end49:
	.size	_ZNKSt3setIN8Spectral5ValueIdEESt4lessIS2_ESaIS2_EE3endEv, .Lfunc_end49-_ZNKSt3setIN8Spectral5ValueIdEESt4lessIS2_ESaIS2_EE3endEv
                                        # -- End function
	.section	.text._ZN8Spectral7advanceIdEEbRNSt3setINS_5ValueIT_EESt4lessIS4_ESaIS4_EE8iteratorES9_d,"axG",@progbits,_ZN8Spectral7advanceIdEEbRNSt3setINS_5ValueIT_EESt4lessIS4_ESaIS4_EE8iteratorES9_d,comdat
	.weak	_ZN8Spectral7advanceIdEEbRNSt3setINS_5ValueIT_EESt4lessIS4_ESaIS4_EE8iteratorES9_d # -- Begin function _ZN8Spectral7advanceIdEEbRNSt3setINS_5ValueIT_EESt4lessIS4_ESaIS4_EE8iteratorES9_d
	.p2align	2
	.type	_ZN8Spectral7advanceIdEEbRNSt3setINS_5ValueIT_EESt4lessIS4_ESaIS4_EE8iteratorES9_d,@function
_ZN8Spectral7advanceIdEEbRNSt3setINS_5ValueIT_EESt4lessIS4_ESaIS4_EE8iteratorES9_d: # @_ZN8Spectral7advanceIdEEbRNSt3setINS_5ValueIT_EESt4lessIS4_ESaIS4_EE8iteratorES9_d
	.cfi_startproc
# %bb.0:                                # %entry
	addi	sp, sp, -320
	.cfi_def_cfa_offset 320
	sd	ra, 312(sp)
	sd	s0, 304(sp)
	.cfi_offset ra, -8
	.cfi_offset s0, -16
	addi	s0, sp, 320
	.cfi_def_cfa s0, 0
	fmv.d.x	ft0, a2
	sd	a1, -248(s0)
	sd	a0, -256(s0)
	sd	a2, -264(s0)
	ld	a0, -256(s0)
	call	_ZNKSt23_Rb_tree_const_iteratorIN8Spectral5ValueIdEEEptEv
	fld	ft0, 0(a0)
	fld	ft1, -264(s0)
	fle.d	a0, ft1, ft0
	xori	a1, a0, 1
	mv	a0, zero
	bnez	a1, .LBB50_2
	j	.LBB50_1
.LBB50_1:                               # %land.rhs
	ld	a0, -256(s0)
	ld	a0, 0(a0)
	sd	a0, -280(s0)
	ld	a0, -280(s0)
	sd	a0, -224(s0)
	addi	a0, zero, 1
	sd	a0, -232(s0)
	ld	a0, -232(s0)
	addi	a1, s0, -224
	sd	a1, -176(s0)
	sd	a0, -184(s0)
	ld	a0, -184(s0)
	sd	a0, -192(s0)
	ld	a0, -176(s0)
	ld	a1, -192(s0)
	sd	a0, -168(s0)
	call	_ZSt9__advanceISt23_Rb_tree_const_iteratorIN8Spectral5ValueIdEEElEvRT_T0_St26bidirectional_iterator_tag
	ld	a0, -224(s0)
	sd	a0, -216(s0)
	ld	a0, -216(s0)
	sd	a0, -272(s0)
	addi	a0, s0, -272
	addi	a1, s0, -248
	call	_ZStneRKSt23_Rb_tree_const_iteratorIN8Spectral5ValueIdEEES5_
	j	.LBB50_2
.LBB50_2:                               # %land.end
	andi	a0, a0, 1
	beqz	a0, .LBB50_4
	j	.LBB50_3
.LBB50_3:                               # %if.then
	addi	a0, zero, 1
	sb	a0, -233(s0)
	j	.LBB50_13
.LBB50_4:                               # %if.end
	j	.LBB50_5
.LBB50_5:                               # %for.cond
                                        # =>This Inner Loop Header: Depth=1
	ld	a0, -256(s0)
	ld	a0, 0(a0)
	sd	a0, -296(s0)
	ld	a0, -296(s0)
	sd	a0, -152(s0)
	addi	a0, zero, 1
	sd	a0, -160(s0)
	ld	a0, -160(s0)
	addi	a1, s0, -152
	sd	a1, -104(s0)
	sd	a0, -112(s0)
	ld	a0, -112(s0)
	sd	a0, -120(s0)
	ld	a0, -104(s0)
	ld	a1, -120(s0)
	sd	a0, -96(s0)
	call	_ZSt9__advanceISt23_Rb_tree_const_iteratorIN8Spectral5ValueIdEEElEvRT_T0_St26bidirectional_iterator_tag
	ld	a0, -152(s0)
	sd	a0, -144(s0)
	ld	a0, -144(s0)
	sd	a0, -288(s0)
	addi	a0, s0, -288
	addi	a1, s0, -248
	call	_ZStneRKSt23_Rb_tree_const_iteratorIN8Spectral5ValueIdEEES5_
	beqz	a0, .LBB50_12
	j	.LBB50_6
.LBB50_6:                               # %for.body
                                        #   in Loop: Header=BB50_5 Depth=1
	ld	a0, -256(s0)
	call	_ZNKSt23_Rb_tree_const_iteratorIN8Spectral5ValueIdEEEptEv
	fld	ft0, 0(a0)
	fld	ft1, -264(s0)
	fle.d	a0, ft0, ft1
	xori	a1, a0, 1
	mv	a0, zero
	bnez	a1, .LBB50_8
	j	.LBB50_7
.LBB50_7:                               # %land.rhs18
                                        #   in Loop: Header=BB50_5 Depth=1
	ld	a0, -256(s0)
	ld	a0, 0(a0)
	sd	a0, -312(s0)
	ld	a0, -312(s0)
	sd	a0, -80(s0)
	addi	a0, zero, 1
	sd	a0, -88(s0)
	ld	a0, -88(s0)
	addi	a1, s0, -80
	sd	a1, -32(s0)
	sd	a0, -40(s0)
	ld	a0, -40(s0)
	sd	a0, -48(s0)
	ld	a0, -32(s0)
	ld	a1, -48(s0)
	sd	a0, -24(s0)
	call	_ZSt9__advanceISt23_Rb_tree_const_iteratorIN8Spectral5ValueIdEEElEvRT_T0_St26bidirectional_iterator_tag
	ld	a0, -80(s0)
	sd	a0, -72(s0)
	ld	a0, -72(s0)
	sd	a0, -304(s0)
	addi	a0, s0, -304
	call	_ZNKSt23_Rb_tree_const_iteratorIN8Spectral5ValueIdEEEptEv
	fld	ft0, 0(a0)
	fld	ft1, -264(s0)
	flt.d	a0, ft1, ft0
	j	.LBB50_8
.LBB50_8:                               # %land.end29
                                        #   in Loop: Header=BB50_5 Depth=1
	andi	a0, a0, 1
	beqz	a0, .LBB50_10
	j	.LBB50_9
.LBB50_9:                               # %if.then30
	addi	a0, zero, 1
	sb	a0, -233(s0)
	j	.LBB50_13
.LBB50_10:                              # %if.end31
                                        #   in Loop: Header=BB50_5 Depth=1
	j	.LBB50_11
.LBB50_11:                              # %for.inc
                                        #   in Loop: Header=BB50_5 Depth=1
	ld	a0, -256(s0)
	mv	a1, zero
	call	_ZNSt23_Rb_tree_const_iteratorIN8Spectral5ValueIdEEEppEi
	sd	a0, -320(s0)
	j	.LBB50_5
.LBB50_12:                              # %for.end
	sb	zero, -233(s0)
	j	.LBB50_13
.LBB50_13:                              # %return
	lbu	a0, -233(s0)
	ld	s0, 304(sp)
	.cfi_def_cfa sp, 320
	ld	ra, 312(sp)
	.cfi_restore ra
	.cfi_restore s0
	addi	sp, sp, 320
	.cfi_def_cfa_offset 0
	ret
.Lfunc_end50:
	.size	_ZN8Spectral7advanceIdEEbRNSt3setINS_5ValueIT_EESt4lessIS4_ESaIS4_EE8iteratorES9_d, .Lfunc_end50-_ZN8Spectral7advanceIdEEbRNSt3setINS_5ValueIT_EESt4lessIS4_ESaIS4_EE8iteratorES9_d
	.cfi_endproc
                                        # -- End function
	.section	.sdata,"aw",@progbits
	.p2align	3               # -- Begin function _ZN8Spectral11interpolateIdEET_RKNS_5ValueIS1_EES5_d
.LCPI51_0:
	.quad	0                       # double 0
.LCPI51_1:
	.quad	4607182418800017408     # double 1
	.section	.text._ZN8Spectral11interpolateIdEET_RKNS_5ValueIS1_EES5_d,"axG",@progbits,_ZN8Spectral11interpolateIdEET_RKNS_5ValueIS1_EES5_d,comdat
	.weak	_ZN8Spectral11interpolateIdEET_RKNS_5ValueIS1_EES5_d
	.p2align	2
	.type	_ZN8Spectral11interpolateIdEET_RKNS_5ValueIS1_EES5_d,@function
_ZN8Spectral11interpolateIdEET_RKNS_5ValueIS1_EES5_d: # @_ZN8Spectral11interpolateIdEET_RKNS_5ValueIS1_EES5_d
# %bb.0:                                # %entry
	addi	sp, sp, -64
	sd	ra, 56(sp)
	sd	s0, 48(sp)
	addi	s0, sp, 64
	fmv.d.x	ft0, a2
	sd	a0, -32(s0)
	sd	a1, -40(s0)
	sd	a2, -48(s0)
	fld	ft0, -48(s0)
	ld	a0, -32(s0)
	fld	ft1, 0(a0)
	fsub.d	ft0, ft0, ft1
	ld	a0, -40(s0)
	fld	ft2, 0(a0)
	fsub.d	ft1, ft2, ft1
	fdiv.d	ft0, ft0, ft1
	fsd	ft0, -56(s0)
	fld	ft0, -56(s0)
	lui	a0, %hi(.LCPI51_0)
	addi	a0, a0, %lo(.LCPI51_0)
	fld	ft1, 0(a0)
	flt.d	a0, ft0, ft1
	xori	a0, a0, 1
	bnez	a0, .LBB51_2
	j	.LBB51_1
.LBB51_1:                               # %if.then
	ld	a0, -32(s0)
	fld	ft0, 8(a0)
	fsd	ft0, -24(s0)
	j	.LBB51_5
.LBB51_2:                               # %if.end
	fld	ft0, -56(s0)
	lui	a0, %hi(.LCPI51_1)
	addi	a0, a0, %lo(.LCPI51_1)
	fld	ft1, 0(a0)
	flt.d	a0, ft1, ft0
	xori	a0, a0, 1
	bnez	a0, .LBB51_4
	j	.LBB51_3
.LBB51_3:                               # %if.then6
	ld	a0, -40(s0)
	fld	ft0, 8(a0)
	fsd	ft0, -24(s0)
	j	.LBB51_5
.LBB51_4:                               # %if.end8
	ld	a0, -32(s0)
	fld	ft0, 8(a0)
	fld	ft1, -56(s0)
	ld	a0, -40(s0)
	fld	ft2, 8(a0)
	fsub.d	ft2, ft2, ft0
	fmul.d	ft1, ft1, ft2
	fadd.d	ft0, ft0, ft1
	fsd	ft0, -24(s0)
	j	.LBB51_5
.LBB51_5:                               # %return
	ld	a0, -24(s0)
	ld	s0, 48(sp)
	ld	ra, 56(sp)
	addi	sp, sp, 64
	ret
.Lfunc_end51:
	.size	_ZN8Spectral11interpolateIdEET_RKNS_5ValueIS1_EES5_d, .Lfunc_end51-_ZN8Spectral11interpolateIdEET_RKNS_5ValueIS1_EES5_d
                                        # -- End function
	.section	.text._ZNKSt23_Rb_tree_const_iteratorIN8Spectral5ValueIdEEEdeEv,"axG",@progbits,_ZNKSt23_Rb_tree_const_iteratorIN8Spectral5ValueIdEEEdeEv,comdat
	.weak	_ZNKSt23_Rb_tree_const_iteratorIN8Spectral5ValueIdEEEdeEv # -- Begin function _ZNKSt23_Rb_tree_const_iteratorIN8Spectral5ValueIdEEEdeEv
	.p2align	2
	.type	_ZNKSt23_Rb_tree_const_iteratorIN8Spectral5ValueIdEEEdeEv,@function
_ZNKSt23_Rb_tree_const_iteratorIN8Spectral5ValueIdEEEdeEv: # @_ZNKSt23_Rb_tree_const_iteratorIN8Spectral5ValueIdEEEdeEv
.Lfunc_begin7:
	.cfi_startproc
	.cfi_personality 155, DW.ref.__gxx_personality_v0
	.cfi_lsda 27, .Lexception7
# %bb.0:                                # %entry
	addi	sp, sp, -32
	.cfi_def_cfa_offset 32
	sd	ra, 24(sp)
	sd	s0, 16(sp)
	.cfi_offset ra, -8
	.cfi_offset s0, -16
	addi	s0, sp, 32
	.cfi_def_cfa s0, 0
	sd	a0, -24(s0)
	ld	a0, -24(s0)
	ld	a0, 0(a0)
.Ltmp95:
	call	_ZNKSt13_Rb_tree_nodeIN8Spectral5ValueIdEEE9_M_valptrEv
.Ltmp96:
	j	.LBB52_1
.LBB52_1:                               # %invoke.cont
	ld	s0, 16(sp)
	.cfi_def_cfa sp, 32
	ld	ra, 24(sp)
	.cfi_restore ra
	.cfi_restore s0
	addi	sp, sp, 32
	.cfi_def_cfa_offset 0
	ret
.LBB52_2:                               # %terminate.lpad
.Ltmp97:
	call	__clang_call_terminate
.Lfunc_end52:
	.size	_ZNKSt23_Rb_tree_const_iteratorIN8Spectral5ValueIdEEEdeEv, .Lfunc_end52-_ZNKSt23_Rb_tree_const_iteratorIN8Spectral5ValueIdEEEdeEv
	.cfi_endproc
	.section	.gcc_except_table,"a",@progbits
	.p2align	2
GCC_except_table52:
.Lexception7:
	.byte	255                     # @LPStart Encoding = omit
	.byte	155                     # @TType Encoding = indirect pcrel sdata4
	.uleb128 .Lttbase2-.Lttbaseref2
.Lttbaseref2:
	.byte	3                       # Call site Encoding = udata4
	.uleb128 .Lcst_end7-.Lcst_begin7
.Lcst_begin7:
	.word	.Ltmp95-.Lfunc_begin7   # >> Call Site 1 <<
	.word	.Ltmp96-.Ltmp95         #   Call between .Ltmp95 and .Ltmp96
	.word	.Ltmp97-.Lfunc_begin7   #     jumps to .Ltmp97
	.byte	1                       #   On action: 1
.Lcst_end7:
	.byte	1                       # >> Action Record 1 <<
                                        #   Catch TypeInfo 1
	.byte	0                       #   No further actions
	.p2align	2
                                        # >> Catch TypeInfos <<
	.word	0                       # TypeInfo 1
.Lttbase2:
	.p2align	2
                                        # -- End function
	.section	.text._ZNK8Spectral18LinearDistributionIN3glm3vecILi3EdLNS1_9qualifierE0EEELm471EEclEd,"axG",@progbits,_ZNK8Spectral18LinearDistributionIN3glm3vecILi3EdLNS1_9qualifierE0EEELm471EEclEd,comdat
	.weak	_ZNK8Spectral18LinearDistributionIN3glm3vecILi3EdLNS1_9qualifierE0EEELm471EEclEd # -- Begin function _ZNK8Spectral18LinearDistributionIN3glm3vecILi3EdLNS1_9qualifierE0EEELm471EEclEd
	.p2align	2
	.type	_ZNK8Spectral18LinearDistributionIN3glm3vecILi3EdLNS1_9qualifierE0EEELm471EEclEd,@function
_ZNK8Spectral18LinearDistributionIN3glm3vecILi3EdLNS1_9qualifierE0EEELm471EEclEd: # @_ZNK8Spectral18LinearDistributionIN3glm3vecILi3EdLNS1_9qualifierE0EEELm471EEclEd
	.cfi_startproc
# %bb.0:                                # %entry
	addi	sp, sp, -80
	.cfi_def_cfa_offset 80
	sd	ra, 72(sp)
	sd	s0, 64(sp)
	sd	s1, 56(sp)
	sd	s2, 48(sp)
	sd	s3, 40(sp)
	.cfi_offset ra, -8
	.cfi_offset s0, -16
	.cfi_offset s1, -24
	.cfi_offset s2, -32
	.cfi_offset s3, -40
	addi	s0, sp, 80
	.cfi_def_cfa s0, 0
	mv	s1, a0
	fmv.d.x	ft0, a2
	sd	s1, -48(s0)
	sd	a1, -56(s0)
	sd	a2, -64(s0)
	ld	a0, -56(s0)
	fld	ft0, -64(s0)
	fld	ft1, 0(a0)
	flt.d	a1, ft0, ft1
	xori	a1, a1, 1
	bnez	a1, .LBB53_2
	j	.LBB53_1
.LBB53_1:                               # %if.then
	addi	a0, a0, 32
	mv	a1, zero
	call	_ZNKSt5arrayIN8Spectral5ValueIN3glm3vecILi3EdLNS2_9qualifierE0EEEEELm471EEixEm
	ld	a1, 24(a0)
	sd	a1, 16(s1)
	ld	a1, 16(a0)
	sd	a1, 8(s1)
	ld	a0, 8(a0)
	sd	a0, 0(s1)
	j	.LBB53_8
.LBB53_2:                               # %if.end
	fld	ft0, -64(s0)
	fld	ft1, 8(a0)
	flt.d	a1, ft1, ft0
	xori	a1, a1, 1
	bnez	a1, .LBB53_4
	j	.LBB53_3
.LBB53_3:                               # %if.then3
	addi	a0, a0, 32
	addi	a1, zero, 470
	call	_ZNKSt5arrayIN8Spectral5ValueIN3glm3vecILi3EdLNS2_9qualifierE0EEEEELm471EEixEm
	ld	a1, 24(a0)
	sd	a1, 16(s1)
	ld	a1, 16(a0)
	sd	a1, 8(s1)
	ld	a0, 8(a0)
	sd	a0, 0(s1)
	j	.LBB53_8
.LBB53_4:                               # %if.end7
	fld	ft0, -64(s0)
	fld	ft1, 0(a0)
	fsub.d	ft0, ft0, ft1
	fld	ft1, 16(a0)
	fdiv.d	ft0, ft0, ft1
	fcvt.lu.d	a1, ft0, rtz
	sd	a1, -72(s0)
	ld	a1, -72(s0)
	addi	a2, zero, 469
	bltu	a2, a1, .LBB53_6
	j	.LBB53_5
.LBB53_5:                               # %cond.true
	addi	s2, a0, 32
	ld	a1, -72(s0)
	mv	a0, s2
	call	_ZNKSt5arrayIN8Spectral5ValueIN3glm3vecILi3EdLNS2_9qualifierE0EEEEELm471EEixEm
	mv	s3, a0
	ld	a0, -72(s0)
	addi	a1, a0, 1
	mv	a0, s2
	call	_ZNKSt5arrayIN8Spectral5ValueIN3glm3vecILi3EdLNS2_9qualifierE0EEEEELm471EEixEm
	mv	a2, a0
	ld	a3, -64(s0)
	mv	a0, s1
	mv	a1, s3
	call	_ZN8Spectral11interpolateIN3glm3vecILi3EdLNS1_9qualifierE0EEEEET_RKNS_5ValueIS5_EES9_d
	j	.LBB53_7
.LBB53_6:                               # %cond.false
	addi	a0, a0, 32
	ld	a1, -72(s0)
	call	_ZNKSt5arrayIN8Spectral5ValueIN3glm3vecILi3EdLNS2_9qualifierE0EEEEELm471EEixEm
	ld	a1, 24(a0)
	sd	a1, 16(s1)
	ld	a1, 16(a0)
	sd	a1, 8(s1)
	ld	a0, 8(a0)
	sd	a0, 0(s1)
	j	.LBB53_7
.LBB53_7:                               # %cond.end
	j	.LBB53_8
.LBB53_8:                               # %return
	ld	s3, 40(sp)
	ld	s2, 48(sp)
	ld	s1, 56(sp)
	ld	s0, 64(sp)
	.cfi_def_cfa sp, 80
	ld	ra, 72(sp)
	.cfi_restore ra
	.cfi_restore s0
	.cfi_restore s1
	.cfi_restore s2
	.cfi_restore s3
	addi	sp, sp, 80
	.cfi_def_cfa_offset 0
	ret
.Lfunc_end53:
	.size	_ZNK8Spectral18LinearDistributionIN3glm3vecILi3EdLNS1_9qualifierE0EEELm471EEclEd, .Lfunc_end53-_ZNK8Spectral18LinearDistributionIN3glm3vecILi3EdLNS1_9qualifierE0EEELm471EEclEd
	.cfi_endproc
                                        # -- End function
	.section	.text._ZNK8Spectral18LinearDistributionIdLm107EEclEd,"axG",@progbits,_ZNK8Spectral18LinearDistributionIdLm107EEclEd,comdat
	.weak	_ZNK8Spectral18LinearDistributionIdLm107EEclEd # -- Begin function _ZNK8Spectral18LinearDistributionIdLm107EEclEd
	.p2align	2
	.type	_ZNK8Spectral18LinearDistributionIdLm107EEclEd,@function
_ZNK8Spectral18LinearDistributionIdLm107EEclEd: # @_ZNK8Spectral18LinearDistributionIdLm107EEclEd
# %bb.0:                                # %entry
	addi	sp, sp, -64
	sd	ra, 56(sp)
	sd	s0, 48(sp)
	sd	s1, 40(sp)
	sd	s2, 32(sp)
	addi	s0, sp, 64
	fmv.d.x	ft0, a1
	sd	a0, -48(s0)
	sd	a1, -56(s0)
	ld	a0, -48(s0)
	fld	ft0, -56(s0)
	fld	ft1, 0(a0)
	flt.d	a1, ft0, ft1
	xori	a1, a1, 1
	bnez	a1, .LBB54_2
	j	.LBB54_1
.LBB54_1:                               # %if.then
	addi	a0, a0, 32
	mv	a1, zero
	call	_ZNKSt5arrayIN8Spectral5ValueIdEELm107EEixEm
	fld	ft0, 8(a0)
	fsd	ft0, -40(s0)
	j	.LBB54_8
.LBB54_2:                               # %if.end
	fld	ft0, -56(s0)
	fld	ft1, 8(a0)
	flt.d	a1, ft1, ft0
	xori	a1, a1, 1
	bnez	a1, .LBB54_4
	j	.LBB54_3
.LBB54_3:                               # %if.then3
	addi	a0, a0, 32
	addi	a1, zero, 106
	call	_ZNKSt5arrayIN8Spectral5ValueIdEELm107EEixEm
	fld	ft0, 8(a0)
	fsd	ft0, -40(s0)
	j	.LBB54_8
.LBB54_4:                               # %if.end7
	fld	ft0, -56(s0)
	fld	ft1, 0(a0)
	fsub.d	ft0, ft0, ft1
	fld	ft1, 16(a0)
	fdiv.d	ft0, ft0, ft1
	fcvt.lu.d	a1, ft0, rtz
	sd	a1, -64(s0)
	ld	a1, -64(s0)
	addi	a2, zero, 105
	bltu	a2, a1, .LBB54_6
	j	.LBB54_5
.LBB54_5:                               # %cond.true
	addi	s1, a0, 32
	ld	a1, -64(s0)
	mv	a0, s1
	call	_ZNKSt5arrayIN8Spectral5ValueIdEELm107EEixEm
	mv	s2, a0
	ld	a0, -64(s0)
	addi	a1, a0, 1
	mv	a0, s1
	call	_ZNKSt5arrayIN8Spectral5ValueIdEELm107EEixEm
	mv	a1, a0
	ld	a2, -56(s0)
	mv	a0, s2
	call	_ZN8Spectral11interpolateIdEET_RKNS_5ValueIS1_EES5_d
	fmv.d.x	ft0, a0
	j	.LBB54_7
.LBB54_6:                               # %cond.false
	addi	a0, a0, 32
	ld	a1, -64(s0)
	call	_ZNKSt5arrayIN8Spectral5ValueIdEELm107EEixEm
	fld	ft0, 8(a0)
	j	.LBB54_7
.LBB54_7:                               # %cond.end
	fsd	ft0, -40(s0)
	j	.LBB54_8
.LBB54_8:                               # %return
	ld	a0, -40(s0)
	ld	s2, 32(sp)
	ld	s1, 40(sp)
	ld	s0, 48(sp)
	ld	ra, 56(sp)
	addi	sp, sp, 64
	ret
.Lfunc_end54:
	.size	_ZNK8Spectral18LinearDistributionIdLm107EEclEd, .Lfunc_end54-_ZNK8Spectral18LinearDistributionIdLm107EEclEd
                                        # -- End function
	.section	.text._ZN3glm3vecILi3EdLNS_9qualifierE0EEpLIdEERS2_RKNS0_ILi3ET_LS1_0EEE,"axG",@progbits,_ZN3glm3vecILi3EdLNS_9qualifierE0EEpLIdEERS2_RKNS0_ILi3ET_LS1_0EEE,comdat
	.weak	_ZN3glm3vecILi3EdLNS_9qualifierE0EEpLIdEERS2_RKNS0_ILi3ET_LS1_0EEE # -- Begin function _ZN3glm3vecILi3EdLNS_9qualifierE0EEpLIdEERS2_RKNS0_ILi3ET_LS1_0EEE
	.p2align	2
	.type	_ZN3glm3vecILi3EdLNS_9qualifierE0EEpLIdEERS2_RKNS0_ILi3ET_LS1_0EEE,@function
_ZN3glm3vecILi3EdLNS_9qualifierE0EEpLIdEERS2_RKNS0_ILi3ET_LS1_0EEE: # @_ZN3glm3vecILi3EdLNS_9qualifierE0EEpLIdEERS2_RKNS0_ILi3ET_LS1_0EEE
# %bb.0:                                # %entry
	addi	sp, sp, -32
	sd	ra, 24(sp)
	sd	s0, 16(sp)
	addi	s0, sp, 32
	sd	a0, -24(s0)
	sd	a1, -32(s0)
	ld	a0, -24(s0)
	ld	a1, -32(s0)
	fld	ft0, 0(a1)
	fld	ft1, 0(a0)
	fadd.d	ft0, ft1, ft0
	fsd	ft0, 0(a0)
	ld	a1, -32(s0)
	fld	ft0, 8(a1)
	fld	ft1, 8(a0)
	fadd.d	ft0, ft1, ft0
	fsd	ft0, 8(a0)
	ld	a1, -32(s0)
	fld	ft0, 16(a1)
	fld	ft1, 16(a0)
	fadd.d	ft0, ft1, ft0
	fsd	ft0, 16(a0)
	ld	s0, 16(sp)
	ld	ra, 24(sp)
	addi	sp, sp, 32
	ret
.Lfunc_end55:
	.size	_ZN3glm3vecILi3EdLNS_9qualifierE0EEpLIdEERS2_RKNS0_ILi3ET_LS1_0EEE, .Lfunc_end55-_ZN3glm3vecILi3EdLNS_9qualifierE0EEpLIdEERS2_RKNS0_ILi3ET_LS1_0EEE
                                        # -- End function
	.section	.text._ZNKSt8_Rb_treeIN8Spectral5ValueIdEES2_St9_IdentityIS2_ESt4lessIS2_ESaIS2_EE5beginEv,"axG",@progbits,_ZNKSt8_Rb_treeIN8Spectral5ValueIdEES2_St9_IdentityIS2_ESt4lessIS2_ESaIS2_EE5beginEv,comdat
	.weak	_ZNKSt8_Rb_treeIN8Spectral5ValueIdEES2_St9_IdentityIS2_ESt4lessIS2_ESaIS2_EE5beginEv # -- Begin function _ZNKSt8_Rb_treeIN8Spectral5ValueIdEES2_St9_IdentityIS2_ESt4lessIS2_ESaIS2_EE5beginEv
	.p2align	2
	.type	_ZNKSt8_Rb_treeIN8Spectral5ValueIdEES2_St9_IdentityIS2_ESt4lessIS2_ESaIS2_EE5beginEv,@function
_ZNKSt8_Rb_treeIN8Spectral5ValueIdEES2_St9_IdentityIS2_ESt4lessIS2_ESaIS2_EE5beginEv: # @_ZNKSt8_Rb_treeIN8Spectral5ValueIdEES2_St9_IdentityIS2_ESt4lessIS2_ESaIS2_EE5beginEv
# %bb.0:                                # %entry
	addi	sp, sp, -32
	sd	ra, 24(sp)
	sd	s0, 16(sp)
	addi	s0, sp, 32
	sd	a0, -32(s0)
	ld	a0, -32(s0)
	ld	a1, 24(a0)
	addi	a0, s0, -24
	call	_ZNSt23_Rb_tree_const_iteratorIN8Spectral5ValueIdEEEC2EPKSt18_Rb_tree_node_base
	ld	a0, -24(s0)
	ld	s0, 16(sp)
	ld	ra, 24(sp)
	addi	sp, sp, 32
	ret
.Lfunc_end56:
	.size	_ZNKSt8_Rb_treeIN8Spectral5ValueIdEES2_St9_IdentityIS2_ESt4lessIS2_ESaIS2_EE5beginEv, .Lfunc_end56-_ZNKSt8_Rb_treeIN8Spectral5ValueIdEES2_St9_IdentityIS2_ESt4lessIS2_ESaIS2_EE5beginEv
                                        # -- End function
	.section	.text._ZNSt23_Rb_tree_const_iteratorIN8Spectral5ValueIdEEEC2EPKSt18_Rb_tree_node_base,"axG",@progbits,_ZNSt23_Rb_tree_const_iteratorIN8Spectral5ValueIdEEEC2EPKSt18_Rb_tree_node_base,comdat
	.weak	_ZNSt23_Rb_tree_const_iteratorIN8Spectral5ValueIdEEEC2EPKSt18_Rb_tree_node_base # -- Begin function _ZNSt23_Rb_tree_const_iteratorIN8Spectral5ValueIdEEEC2EPKSt18_Rb_tree_node_base
	.p2align	2
	.type	_ZNSt23_Rb_tree_const_iteratorIN8Spectral5ValueIdEEEC2EPKSt18_Rb_tree_node_base,@function
_ZNSt23_Rb_tree_const_iteratorIN8Spectral5ValueIdEEEC2EPKSt18_Rb_tree_node_base: # @_ZNSt23_Rb_tree_const_iteratorIN8Spectral5ValueIdEEEC2EPKSt18_Rb_tree_node_base
# %bb.0:                                # %entry
	addi	sp, sp, -32
	sd	ra, 24(sp)
	sd	s0, 16(sp)
	addi	s0, sp, 32
	sd	a0, -24(s0)
	sd	a1, -32(s0)
	ld	a0, -24(s0)
	ld	a1, -32(s0)
	sd	a1, 0(a0)
	ld	s0, 16(sp)
	ld	ra, 24(sp)
	addi	sp, sp, 32
	ret
.Lfunc_end57:
	.size	_ZNSt23_Rb_tree_const_iteratorIN8Spectral5ValueIdEEEC2EPKSt18_Rb_tree_node_base, .Lfunc_end57-_ZNSt23_Rb_tree_const_iteratorIN8Spectral5ValueIdEEEC2EPKSt18_Rb_tree_node_base
                                        # -- End function
	.section	.text._ZNKSt8_Rb_treeIN8Spectral5ValueIdEES2_St9_IdentityIS2_ESt4lessIS2_ESaIS2_EE3endEv,"axG",@progbits,_ZNKSt8_Rb_treeIN8Spectral5ValueIdEES2_St9_IdentityIS2_ESt4lessIS2_ESaIS2_EE3endEv,comdat
	.weak	_ZNKSt8_Rb_treeIN8Spectral5ValueIdEES2_St9_IdentityIS2_ESt4lessIS2_ESaIS2_EE3endEv # -- Begin function _ZNKSt8_Rb_treeIN8Spectral5ValueIdEES2_St9_IdentityIS2_ESt4lessIS2_ESaIS2_EE3endEv
	.p2align	2
	.type	_ZNKSt8_Rb_treeIN8Spectral5ValueIdEES2_St9_IdentityIS2_ESt4lessIS2_ESaIS2_EE3endEv,@function
_ZNKSt8_Rb_treeIN8Spectral5ValueIdEES2_St9_IdentityIS2_ESt4lessIS2_ESaIS2_EE3endEv: # @_ZNKSt8_Rb_treeIN8Spectral5ValueIdEES2_St9_IdentityIS2_ESt4lessIS2_ESaIS2_EE3endEv
# %bb.0:                                # %entry
	addi	sp, sp, -32
	sd	ra, 24(sp)
	sd	s0, 16(sp)
	addi	s0, sp, 32
	sd	a0, -32(s0)
	ld	a0, -32(s0)
	addi	a1, a0, 8
	addi	a0, s0, -24
	call	_ZNSt23_Rb_tree_const_iteratorIN8Spectral5ValueIdEEEC2EPKSt18_Rb_tree_node_base
	ld	a0, -24(s0)
	ld	s0, 16(sp)
	ld	ra, 24(sp)
	addi	sp, sp, 32
	ret
.Lfunc_end58:
	.size	_ZNKSt8_Rb_treeIN8Spectral5ValueIdEES2_St9_IdentityIS2_ESt4lessIS2_ESaIS2_EE3endEv, .Lfunc_end58-_ZNKSt8_Rb_treeIN8Spectral5ValueIdEES2_St9_IdentityIS2_ESt4lessIS2_ESaIS2_EE3endEv
                                        # -- End function
	.section	.text._ZNKSt23_Rb_tree_const_iteratorIN8Spectral5ValueIdEEEptEv,"axG",@progbits,_ZNKSt23_Rb_tree_const_iteratorIN8Spectral5ValueIdEEEptEv,comdat
	.weak	_ZNKSt23_Rb_tree_const_iteratorIN8Spectral5ValueIdEEEptEv # -- Begin function _ZNKSt23_Rb_tree_const_iteratorIN8Spectral5ValueIdEEEptEv
	.p2align	2
	.type	_ZNKSt23_Rb_tree_const_iteratorIN8Spectral5ValueIdEEEptEv,@function
_ZNKSt23_Rb_tree_const_iteratorIN8Spectral5ValueIdEEEptEv: # @_ZNKSt23_Rb_tree_const_iteratorIN8Spectral5ValueIdEEEptEv
.Lfunc_begin8:
	.cfi_startproc
	.cfi_personality 155, DW.ref.__gxx_personality_v0
	.cfi_lsda 27, .Lexception8
# %bb.0:                                # %entry
	addi	sp, sp, -32
	.cfi_def_cfa_offset 32
	sd	ra, 24(sp)
	sd	s0, 16(sp)
	.cfi_offset ra, -8
	.cfi_offset s0, -16
	addi	s0, sp, 32
	.cfi_def_cfa s0, 0
	sd	a0, -24(s0)
	ld	a0, -24(s0)
	ld	a0, 0(a0)
.Ltmp98:
	call	_ZNKSt13_Rb_tree_nodeIN8Spectral5ValueIdEEE9_M_valptrEv
.Ltmp99:
	j	.LBB59_1
.LBB59_1:                               # %invoke.cont
	ld	s0, 16(sp)
	.cfi_def_cfa sp, 32
	ld	ra, 24(sp)
	.cfi_restore ra
	.cfi_restore s0
	addi	sp, sp, 32
	.cfi_def_cfa_offset 0
	ret
.LBB59_2:                               # %terminate.lpad
.Ltmp100:
	call	__clang_call_terminate
.Lfunc_end59:
	.size	_ZNKSt23_Rb_tree_const_iteratorIN8Spectral5ValueIdEEEptEv, .Lfunc_end59-_ZNKSt23_Rb_tree_const_iteratorIN8Spectral5ValueIdEEEptEv
	.cfi_endproc
	.section	.gcc_except_table,"a",@progbits
	.p2align	2
GCC_except_table59:
.Lexception8:
	.byte	255                     # @LPStart Encoding = omit
	.byte	155                     # @TType Encoding = indirect pcrel sdata4
	.uleb128 .Lttbase3-.Lttbaseref3
.Lttbaseref3:
	.byte	3                       # Call site Encoding = udata4
	.uleb128 .Lcst_end8-.Lcst_begin8
.Lcst_begin8:
	.word	.Ltmp98-.Lfunc_begin8   # >> Call Site 1 <<
	.word	.Ltmp99-.Ltmp98         #   Call between .Ltmp98 and .Ltmp99
	.word	.Ltmp100-.Lfunc_begin8  #     jumps to .Ltmp100
	.byte	1                       #   On action: 1
.Lcst_end8:
	.byte	1                       # >> Action Record 1 <<
                                        #   Catch TypeInfo 1
	.byte	0                       #   No further actions
	.p2align	2
                                        # >> Catch TypeInfos <<
	.word	0                       # TypeInfo 1
.Lttbase3:
	.p2align	2
                                        # -- End function
	.section	.text._ZStneRKSt23_Rb_tree_const_iteratorIN8Spectral5ValueIdEEES5_,"axG",@progbits,_ZStneRKSt23_Rb_tree_const_iteratorIN8Spectral5ValueIdEEES5_,comdat
	.weak	_ZStneRKSt23_Rb_tree_const_iteratorIN8Spectral5ValueIdEEES5_ # -- Begin function _ZStneRKSt23_Rb_tree_const_iteratorIN8Spectral5ValueIdEEES5_
	.p2align	2
	.type	_ZStneRKSt23_Rb_tree_const_iteratorIN8Spectral5ValueIdEEES5_,@function
_ZStneRKSt23_Rb_tree_const_iteratorIN8Spectral5ValueIdEEES5_: # @_ZStneRKSt23_Rb_tree_const_iteratorIN8Spectral5ValueIdEEES5_
# %bb.0:                                # %entry
	addi	sp, sp, -32
	sd	ra, 24(sp)
	sd	s0, 16(sp)
	addi	s0, sp, 32
	sd	a0, -24(s0)
	sd	a1, -32(s0)
	ld	a0, -24(s0)
	ld	a0, 0(a0)
	ld	a1, -32(s0)
	ld	a1, 0(a1)
	xor	a0, a0, a1
	snez	a0, a0
	ld	s0, 16(sp)
	ld	ra, 24(sp)
	addi	sp, sp, 32
	ret
.Lfunc_end60:
	.size	_ZStneRKSt23_Rb_tree_const_iteratorIN8Spectral5ValueIdEEES5_, .Lfunc_end60-_ZStneRKSt23_Rb_tree_const_iteratorIN8Spectral5ValueIdEEES5_
                                        # -- End function
	.section	.text._ZNSt23_Rb_tree_const_iteratorIN8Spectral5ValueIdEEEppEi,"axG",@progbits,_ZNSt23_Rb_tree_const_iteratorIN8Spectral5ValueIdEEEppEi,comdat
	.weak	_ZNSt23_Rb_tree_const_iteratorIN8Spectral5ValueIdEEEppEi # -- Begin function _ZNSt23_Rb_tree_const_iteratorIN8Spectral5ValueIdEEEppEi
	.p2align	2
	.type	_ZNSt23_Rb_tree_const_iteratorIN8Spectral5ValueIdEEEppEi,@function
_ZNSt23_Rb_tree_const_iteratorIN8Spectral5ValueIdEEEppEi: # @_ZNSt23_Rb_tree_const_iteratorIN8Spectral5ValueIdEEEppEi
# %bb.0:                                # %entry
	addi	sp, sp, -48
	sd	ra, 40(sp)
	sd	s0, 32(sp)
	sd	s1, 24(sp)
	addi	s0, sp, 48
	sd	a0, -40(s0)
	sw	a1, -44(s0)
	ld	s1, -40(s0)
	ld	a0, 0(s1)
	sd	a0, -32(s0)
	ld	a0, 0(s1)
	call	_ZSt18_Rb_tree_incrementPKSt18_Rb_tree_node_base
	sd	a0, 0(s1)
	ld	a0, -32(s0)
	ld	s1, 24(sp)
	ld	s0, 32(sp)
	ld	ra, 40(sp)
	addi	sp, sp, 48
	ret
.Lfunc_end61:
	.size	_ZNSt23_Rb_tree_const_iteratorIN8Spectral5ValueIdEEEppEi, .Lfunc_end61-_ZNSt23_Rb_tree_const_iteratorIN8Spectral5ValueIdEEEppEi
                                        # -- End function
	.section	.text._ZNKSt13_Rb_tree_nodeIN8Spectral5ValueIdEEE9_M_valptrEv,"axG",@progbits,_ZNKSt13_Rb_tree_nodeIN8Spectral5ValueIdEEE9_M_valptrEv,comdat
	.weak	_ZNKSt13_Rb_tree_nodeIN8Spectral5ValueIdEEE9_M_valptrEv # -- Begin function _ZNKSt13_Rb_tree_nodeIN8Spectral5ValueIdEEE9_M_valptrEv
	.p2align	2
	.type	_ZNKSt13_Rb_tree_nodeIN8Spectral5ValueIdEEE9_M_valptrEv,@function
_ZNKSt13_Rb_tree_nodeIN8Spectral5ValueIdEEE9_M_valptrEv: # @_ZNKSt13_Rb_tree_nodeIN8Spectral5ValueIdEEE9_M_valptrEv
# %bb.0:                                # %entry
	addi	sp, sp, -32
	sd	ra, 24(sp)
	sd	s0, 16(sp)
	addi	s0, sp, 32
	sd	a0, -24(s0)
	ld	a0, -24(s0)
	addi	a0, a0, 32
	call	_ZNK9__gnu_cxx16__aligned_membufIN8Spectral5ValueIdEEE6_M_ptrEv
	ld	s0, 16(sp)
	ld	ra, 24(sp)
	addi	sp, sp, 32
	ret
.Lfunc_end62:
	.size	_ZNKSt13_Rb_tree_nodeIN8Spectral5ValueIdEEE9_M_valptrEv, .Lfunc_end62-_ZNKSt13_Rb_tree_nodeIN8Spectral5ValueIdEEE9_M_valptrEv
                                        # -- End function
	.section	.text._ZNK9__gnu_cxx16__aligned_membufIN8Spectral5ValueIdEEE6_M_ptrEv,"axG",@progbits,_ZNK9__gnu_cxx16__aligned_membufIN8Spectral5ValueIdEEE6_M_ptrEv,comdat
	.weak	_ZNK9__gnu_cxx16__aligned_membufIN8Spectral5ValueIdEEE6_M_ptrEv # -- Begin function _ZNK9__gnu_cxx16__aligned_membufIN8Spectral5ValueIdEEE6_M_ptrEv
	.p2align	2
	.type	_ZNK9__gnu_cxx16__aligned_membufIN8Spectral5ValueIdEEE6_M_ptrEv,@function
_ZNK9__gnu_cxx16__aligned_membufIN8Spectral5ValueIdEEE6_M_ptrEv: # @_ZNK9__gnu_cxx16__aligned_membufIN8Spectral5ValueIdEEE6_M_ptrEv
# %bb.0:                                # %entry
	addi	sp, sp, -32
	sd	ra, 24(sp)
	sd	s0, 16(sp)
	addi	s0, sp, 32
	sd	a0, -24(s0)
	ld	a0, -24(s0)
	call	_ZNK9__gnu_cxx16__aligned_membufIN8Spectral5ValueIdEEE7_M_addrEv
	ld	s0, 16(sp)
	ld	ra, 24(sp)
	addi	sp, sp, 32
	ret
.Lfunc_end63:
	.size	_ZNK9__gnu_cxx16__aligned_membufIN8Spectral5ValueIdEEE6_M_ptrEv, .Lfunc_end63-_ZNK9__gnu_cxx16__aligned_membufIN8Spectral5ValueIdEEE6_M_ptrEv
                                        # -- End function
	.section	.text._ZNK9__gnu_cxx16__aligned_membufIN8Spectral5ValueIdEEE7_M_addrEv,"axG",@progbits,_ZNK9__gnu_cxx16__aligned_membufIN8Spectral5ValueIdEEE7_M_addrEv,comdat
	.weak	_ZNK9__gnu_cxx16__aligned_membufIN8Spectral5ValueIdEEE7_M_addrEv # -- Begin function _ZNK9__gnu_cxx16__aligned_membufIN8Spectral5ValueIdEEE7_M_addrEv
	.p2align	2
	.type	_ZNK9__gnu_cxx16__aligned_membufIN8Spectral5ValueIdEEE7_M_addrEv,@function
_ZNK9__gnu_cxx16__aligned_membufIN8Spectral5ValueIdEEE7_M_addrEv: # @_ZNK9__gnu_cxx16__aligned_membufIN8Spectral5ValueIdEEE7_M_addrEv
# %bb.0:                                # %entry
	addi	sp, sp, -32
	sd	ra, 24(sp)
	sd	s0, 16(sp)
	addi	s0, sp, 32
	sd	a0, -24(s0)
	ld	a0, -24(s0)
	ld	s0, 16(sp)
	ld	ra, 24(sp)
	addi	sp, sp, 32
	ret
.Lfunc_end64:
	.size	_ZNK9__gnu_cxx16__aligned_membufIN8Spectral5ValueIdEEE7_M_addrEv, .Lfunc_end64-_ZNK9__gnu_cxx16__aligned_membufIN8Spectral5ValueIdEEE7_M_addrEv
                                        # -- End function
	.section	.text._ZSt9__advanceISt23_Rb_tree_const_iteratorIN8Spectral5ValueIdEEElEvRT_T0_St26bidirectional_iterator_tag,"axG",@progbits,_ZSt9__advanceISt23_Rb_tree_const_iteratorIN8Spectral5ValueIdEEElEvRT_T0_St26bidirectional_iterator_tag,comdat
	.weak	_ZSt9__advanceISt23_Rb_tree_const_iteratorIN8Spectral5ValueIdEEElEvRT_T0_St26bidirectional_iterator_tag # -- Begin function _ZSt9__advanceISt23_Rb_tree_const_iteratorIN8Spectral5ValueIdEEElEvRT_T0_St26bidirectional_iterator_tag
	.p2align	2
	.type	_ZSt9__advanceISt23_Rb_tree_const_iteratorIN8Spectral5ValueIdEEElEvRT_T0_St26bidirectional_iterator_tag,@function
_ZSt9__advanceISt23_Rb_tree_const_iteratorIN8Spectral5ValueIdEEElEvRT_T0_St26bidirectional_iterator_tag: # @_ZSt9__advanceISt23_Rb_tree_const_iteratorIN8Spectral5ValueIdEEElEvRT_T0_St26bidirectional_iterator_tag
# %bb.0:                                # %entry
	addi	sp, sp, -48
	sd	ra, 40(sp)
	sd	s0, 32(sp)
	addi	s0, sp, 48
	sd	a0, -32(s0)
	sd	a1, -40(s0)
	ld	a0, -40(s0)
	addi	a1, zero, 1
	blt	a0, a1, .LBB65_5
	j	.LBB65_1
.LBB65_1:                               # %if.then
	j	.LBB65_2
.LBB65_2:                               # %while.cond
                                        # =>This Inner Loop Header: Depth=1
	ld	a0, -40(s0)
	addi	a1, a0, -1
	sd	a1, -40(s0)
	beqz	a0, .LBB65_4
	j	.LBB65_3
.LBB65_3:                               # %while.body
                                        #   in Loop: Header=BB65_2 Depth=1
	ld	a0, -32(s0)
	call	_ZNSt23_Rb_tree_const_iteratorIN8Spectral5ValueIdEEEppEv
	j	.LBB65_2
.LBB65_4:                               # %while.end
	j	.LBB65_9
.LBB65_5:                               # %if.else
	j	.LBB65_6
.LBB65_6:                               # %while.cond1
                                        # =>This Inner Loop Header: Depth=1
	ld	a0, -40(s0)
	addi	a1, a0, 1
	sd	a1, -40(s0)
	beqz	a0, .LBB65_8
	j	.LBB65_7
.LBB65_7:                               # %while.body3
                                        #   in Loop: Header=BB65_6 Depth=1
	ld	a0, -32(s0)
	call	_ZNSt23_Rb_tree_const_iteratorIN8Spectral5ValueIdEEEmmEv
	j	.LBB65_6
.LBB65_8:                               # %while.end5
	j	.LBB65_9
.LBB65_9:                               # %if.end
	ld	s0, 32(sp)
	ld	ra, 40(sp)
	addi	sp, sp, 48
	ret
.Lfunc_end65:
	.size	_ZSt9__advanceISt23_Rb_tree_const_iteratorIN8Spectral5ValueIdEEElEvRT_T0_St26bidirectional_iterator_tag, .Lfunc_end65-_ZSt9__advanceISt23_Rb_tree_const_iteratorIN8Spectral5ValueIdEEElEvRT_T0_St26bidirectional_iterator_tag
                                        # -- End function
	.section	.text._ZNSt23_Rb_tree_const_iteratorIN8Spectral5ValueIdEEEppEv,"axG",@progbits,_ZNSt23_Rb_tree_const_iteratorIN8Spectral5ValueIdEEEppEv,comdat
	.weak	_ZNSt23_Rb_tree_const_iteratorIN8Spectral5ValueIdEEEppEv # -- Begin function _ZNSt23_Rb_tree_const_iteratorIN8Spectral5ValueIdEEEppEv
	.p2align	2
	.type	_ZNSt23_Rb_tree_const_iteratorIN8Spectral5ValueIdEEEppEv,@function
_ZNSt23_Rb_tree_const_iteratorIN8Spectral5ValueIdEEEppEv: # @_ZNSt23_Rb_tree_const_iteratorIN8Spectral5ValueIdEEEppEv
# %bb.0:                                # %entry
	addi	sp, sp, -32
	sd	ra, 24(sp)
	sd	s0, 16(sp)
	sd	s1, 8(sp)
	addi	s0, sp, 32
	sd	a0, -32(s0)
	ld	s1, -32(s0)
	ld	a0, 0(s1)
	call	_ZSt18_Rb_tree_incrementPKSt18_Rb_tree_node_base
	sd	a0, 0(s1)
	mv	a0, s1
	ld	s1, 8(sp)
	ld	s0, 16(sp)
	ld	ra, 24(sp)
	addi	sp, sp, 32
	ret
.Lfunc_end66:
	.size	_ZNSt23_Rb_tree_const_iteratorIN8Spectral5ValueIdEEEppEv, .Lfunc_end66-_ZNSt23_Rb_tree_const_iteratorIN8Spectral5ValueIdEEEppEv
                                        # -- End function
	.section	.text._ZNSt23_Rb_tree_const_iteratorIN8Spectral5ValueIdEEEmmEv,"axG",@progbits,_ZNSt23_Rb_tree_const_iteratorIN8Spectral5ValueIdEEEmmEv,comdat
	.weak	_ZNSt23_Rb_tree_const_iteratorIN8Spectral5ValueIdEEEmmEv # -- Begin function _ZNSt23_Rb_tree_const_iteratorIN8Spectral5ValueIdEEEmmEv
	.p2align	2
	.type	_ZNSt23_Rb_tree_const_iteratorIN8Spectral5ValueIdEEEmmEv,@function
_ZNSt23_Rb_tree_const_iteratorIN8Spectral5ValueIdEEEmmEv: # @_ZNSt23_Rb_tree_const_iteratorIN8Spectral5ValueIdEEEmmEv
# %bb.0:                                # %entry
	addi	sp, sp, -32
	sd	ra, 24(sp)
	sd	s0, 16(sp)
	sd	s1, 8(sp)
	addi	s0, sp, 32
	sd	a0, -32(s0)
	ld	s1, -32(s0)
	ld	a0, 0(s1)
	call	_ZSt18_Rb_tree_decrementPKSt18_Rb_tree_node_base
	sd	a0, 0(s1)
	mv	a0, s1
	ld	s1, 8(sp)
	ld	s0, 16(sp)
	ld	ra, 24(sp)
	addi	sp, sp, 32
	ret
.Lfunc_end67:
	.size	_ZNSt23_Rb_tree_const_iteratorIN8Spectral5ValueIdEEEmmEv, .Lfunc_end67-_ZNSt23_Rb_tree_const_iteratorIN8Spectral5ValueIdEEEmmEv
                                        # -- End function
	.section	.text._ZNKSt5arrayIN8Spectral5ValueIN3glm3vecILi3EdLNS2_9qualifierE0EEEEELm471EEixEm,"axG",@progbits,_ZNKSt5arrayIN8Spectral5ValueIN3glm3vecILi3EdLNS2_9qualifierE0EEEEELm471EEixEm,comdat
	.weak	_ZNKSt5arrayIN8Spectral5ValueIN3glm3vecILi3EdLNS2_9qualifierE0EEEEELm471EEixEm # -- Begin function _ZNKSt5arrayIN8Spectral5ValueIN3glm3vecILi3EdLNS2_9qualifierE0EEEEELm471EEixEm
	.p2align	2
	.type	_ZNKSt5arrayIN8Spectral5ValueIN3glm3vecILi3EdLNS2_9qualifierE0EEEEELm471EEixEm,@function
_ZNKSt5arrayIN8Spectral5ValueIN3glm3vecILi3EdLNS2_9qualifierE0EEEEELm471EEixEm: # @_ZNKSt5arrayIN8Spectral5ValueIN3glm3vecILi3EdLNS2_9qualifierE0EEEEELm471EEixEm
# %bb.0:                                # %entry
	addi	sp, sp, -32
	sd	ra, 24(sp)
	sd	s0, 16(sp)
	addi	s0, sp, 32
	sd	a0, -24(s0)
	sd	a1, -32(s0)
	ld	a0, -24(s0)
	ld	a1, -32(s0)
	slli	a1, a1, 5
	add	a0, a0, a1
	ld	s0, 16(sp)
	ld	ra, 24(sp)
	addi	sp, sp, 32
	ret
.Lfunc_end68:
	.size	_ZNKSt5arrayIN8Spectral5ValueIN3glm3vecILi3EdLNS2_9qualifierE0EEEEELm471EEixEm, .Lfunc_end68-_ZNKSt5arrayIN8Spectral5ValueIN3glm3vecILi3EdLNS2_9qualifierE0EEEEELm471EEixEm
                                        # -- End function
	.section	.sdata,"aw",@progbits
	.p2align	3               # -- Begin function _ZN8Spectral11interpolateIN3glm3vecILi3EdLNS1_9qualifierE0EEEEET_RKNS_5ValueIS5_EES9_d
.LCPI69_0:
	.quad	0                       # double 0
.LCPI69_1:
	.quad	4607182418800017408     # double 1
	.section	.text._ZN8Spectral11interpolateIN3glm3vecILi3EdLNS1_9qualifierE0EEEEET_RKNS_5ValueIS5_EES9_d,"axG",@progbits,_ZN8Spectral11interpolateIN3glm3vecILi3EdLNS1_9qualifierE0EEEEET_RKNS_5ValueIS5_EES9_d,comdat
	.weak	_ZN8Spectral11interpolateIN3glm3vecILi3EdLNS1_9qualifierE0EEEEET_RKNS_5ValueIS5_EES9_d
	.p2align	2
	.type	_ZN8Spectral11interpolateIN3glm3vecILi3EdLNS1_9qualifierE0EEEEET_RKNS_5ValueIS5_EES9_d,@function
_ZN8Spectral11interpolateIN3glm3vecILi3EdLNS1_9qualifierE0EEEEET_RKNS_5ValueIS5_EES9_d: # @_ZN8Spectral11interpolateIN3glm3vecILi3EdLNS1_9qualifierE0EEEEET_RKNS_5ValueIS5_EES9_d
	.cfi_startproc
# %bb.0:                                # %entry
	addi	sp, sp, -144
	.cfi_def_cfa_offset 144
	sd	ra, 136(sp)
	sd	s0, 128(sp)
	sd	s1, 120(sp)
	sd	s2, 112(sp)
	sd	s3, 104(sp)
	sd	s4, 96(sp)
	sd	s5, 88(sp)
	.cfi_offset ra, -8
	.cfi_offset s0, -16
	.cfi_offset s1, -24
	.cfi_offset s2, -32
	.cfi_offset s3, -40
	.cfi_offset s4, -48
	.cfi_offset s5, -56
	addi	s0, sp, 144
	.cfi_def_cfa s0, 0
	mv	s1, a0
	fmv.d.x	ft0, a3
	sd	s1, -64(s0)
	sd	a1, -72(s0)
	sd	a2, -80(s0)
	sd	a3, -88(s0)
	fld	ft0, -88(s0)
	ld	a0, -72(s0)
	fld	ft1, 0(a0)
	fsub.d	ft0, ft0, ft1
	ld	a0, -80(s0)
	fld	ft2, 0(a0)
	fsub.d	ft1, ft2, ft1
	fdiv.d	ft0, ft0, ft1
	fsd	ft0, -96(s0)
	fld	ft0, -96(s0)
	lui	a0, %hi(.LCPI69_0)
	addi	a0, a0, %lo(.LCPI69_0)
	fld	ft1, 0(a0)
	flt.d	a0, ft0, ft1
	xori	a0, a0, 1
	bnez	a0, .LBB69_2
	j	.LBB69_1
.LBB69_1:                               # %if.then
	ld	a0, -72(s0)
	ld	a1, 24(a0)
	sd	a1, 16(s1)
	ld	a1, 16(a0)
	sd	a1, 8(s1)
	ld	a0, 8(a0)
	sd	a0, 0(s1)
	j	.LBB69_5
.LBB69_2:                               # %if.end
	fld	ft0, -96(s0)
	lui	a0, %hi(.LCPI69_1)
	addi	a0, a0, %lo(.LCPI69_1)
	fld	ft1, 0(a0)
	flt.d	a0, ft1, ft0
	xori	a0, a0, 1
	bnez	a0, .LBB69_4
	j	.LBB69_3
.LBB69_3:                               # %if.then6
	ld	a0, -80(s0)
	ld	a1, 24(a0)
	sd	a1, 16(s1)
	ld	a1, 16(a0)
	sd	a1, 8(s1)
	ld	a0, 8(a0)
	sd	a0, 0(s1)
	j	.LBB69_5
.LBB69_4:                               # %if.end8
	ld	a0, -72(s0)
	addi	s2, a0, 8
	ld	a0, -80(s0)
	addi	a1, a0, 8
	ld	s3, -96(s0)
	addi	s4, s0, -144
	mv	a0, s4
	mv	a2, s2
	call	_ZN3glmmiIdLNS_9qualifierE0EEENS_3vecILi3ET_XT0_EEERKS4_S6_
	addi	s5, s0, -120
	mv	a0, s5
	mv	a1, s3
	mv	a2, s4
	call	_ZN3glmmlIdLNS_9qualifierE0EEENS_3vecILi3ET_XT0_EEES3_RKS4_
	mv	a0, s1
	mv	a1, s2
	mv	a2, s5
	call	_ZN3glmplIdLNS_9qualifierE0EEENS_3vecILi3ET_XT0_EEERKS4_S6_
	j	.LBB69_5
.LBB69_5:                               # %return
	ld	s5, 88(sp)
	ld	s4, 96(sp)
	ld	s3, 104(sp)
	ld	s2, 112(sp)
	ld	s1, 120(sp)
	ld	s0, 128(sp)
	.cfi_def_cfa sp, 144
	ld	ra, 136(sp)
	.cfi_restore ra
	.cfi_restore s0
	.cfi_restore s1
	.cfi_restore s2
	.cfi_restore s3
	.cfi_restore s4
	.cfi_restore s5
	addi	sp, sp, 144
	.cfi_def_cfa_offset 0
	ret
.Lfunc_end69:
	.size	_ZN8Spectral11interpolateIN3glm3vecILi3EdLNS1_9qualifierE0EEEEET_RKNS_5ValueIS5_EES9_d, .Lfunc_end69-_ZN8Spectral11interpolateIN3glm3vecILi3EdLNS1_9qualifierE0EEEEET_RKNS_5ValueIS5_EES9_d
	.cfi_endproc
                                        # -- End function
	.section	.text._ZNKSt5arrayIN8Spectral5ValueIdEELm107EEixEm,"axG",@progbits,_ZNKSt5arrayIN8Spectral5ValueIdEELm107EEixEm,comdat
	.weak	_ZNKSt5arrayIN8Spectral5ValueIdEELm107EEixEm # -- Begin function _ZNKSt5arrayIN8Spectral5ValueIdEELm107EEixEm
	.p2align	2
	.type	_ZNKSt5arrayIN8Spectral5ValueIdEELm107EEixEm,@function
_ZNKSt5arrayIN8Spectral5ValueIdEELm107EEixEm: # @_ZNKSt5arrayIN8Spectral5ValueIdEELm107EEixEm
# %bb.0:                                # %entry
	addi	sp, sp, -32
	sd	ra, 24(sp)
	sd	s0, 16(sp)
	addi	s0, sp, 32
	sd	a0, -24(s0)
	sd	a1, -32(s0)
	ld	a0, -24(s0)
	ld	a1, -32(s0)
	slli	a1, a1, 4
	add	a0, a0, a1
	ld	s0, 16(sp)
	ld	ra, 24(sp)
	addi	sp, sp, 32
	ret
.Lfunc_end70:
	.size	_ZNKSt5arrayIN8Spectral5ValueIdEELm107EEixEm, .Lfunc_end70-_ZNKSt5arrayIN8Spectral5ValueIdEELm107EEixEm
                                        # -- End function
	.section	.text._ZNSt8_Rb_treeIN8Spectral5ValueIdEES2_St9_IdentityIS2_ESt4lessIS2_ESaIS2_EED2Ev,"axG",@progbits,_ZNSt8_Rb_treeIN8Spectral5ValueIdEES2_St9_IdentityIS2_ESt4lessIS2_ESaIS2_EED2Ev,comdat
	.weak	_ZNSt8_Rb_treeIN8Spectral5ValueIdEES2_St9_IdentityIS2_ESt4lessIS2_ESaIS2_EED2Ev # -- Begin function _ZNSt8_Rb_treeIN8Spectral5ValueIdEES2_St9_IdentityIS2_ESt4lessIS2_ESaIS2_EED2Ev
	.p2align	2
	.type	_ZNSt8_Rb_treeIN8Spectral5ValueIdEES2_St9_IdentityIS2_ESt4lessIS2_ESaIS2_EED2Ev,@function
_ZNSt8_Rb_treeIN8Spectral5ValueIdEES2_St9_IdentityIS2_ESt4lessIS2_ESaIS2_EED2Ev: # @_ZNSt8_Rb_treeIN8Spectral5ValueIdEES2_St9_IdentityIS2_ESt4lessIS2_ESaIS2_EED2Ev
.Lfunc_begin9:
	.cfi_startproc
	.cfi_personality 155, DW.ref.__gxx_personality_v0
	.cfi_lsda 27, .Lexception9
# %bb.0:                                # %entry
	addi	sp, sp, -48
	.cfi_def_cfa_offset 48
	sd	ra, 40(sp)
	sd	s0, 32(sp)
	sd	s1, 24(sp)
	.cfi_offset ra, -8
	.cfi_offset s0, -16
	.cfi_offset s1, -24
	addi	s0, sp, 48
	.cfi_def_cfa s0, 0
	sd	a0, -32(s0)
	ld	s1, -32(s0)
	mv	a0, s1
	call	_ZNSt8_Rb_treeIN8Spectral5ValueIdEES2_St9_IdentityIS2_ESt4lessIS2_ESaIS2_EE8_M_beginEv
	mv	a1, a0
.Ltmp101:
	mv	a0, s1
	call	_ZNSt8_Rb_treeIN8Spectral5ValueIdEES2_St9_IdentityIS2_ESt4lessIS2_ESaIS2_EE8_M_eraseEPSt13_Rb_tree_nodeIS2_E
.Ltmp102:
	j	.LBB71_1
.LBB71_1:                               # %invoke.cont
	mv	a0, s1
	call	_ZNSt8_Rb_treeIN8Spectral5ValueIdEES2_St9_IdentityIS2_ESt4lessIS2_ESaIS2_EE13_Rb_tree_implIS6_Lb1EED2Ev
	ld	s1, 24(sp)
	ld	s0, 32(sp)
	.cfi_def_cfa sp, 48
	ld	ra, 40(sp)
	.cfi_restore ra
	.cfi_restore s0
	.cfi_restore s1
	addi	sp, sp, 48
	.cfi_def_cfa_offset 0
	ret
.LBB71_2:                               # %lpad
.Ltmp103:
	sd	a0, -40(s0)
	sw	a1, -44(s0)
	mv	a0, s1
	call	_ZNSt8_Rb_treeIN8Spectral5ValueIdEES2_St9_IdentityIS2_ESt4lessIS2_ESaIS2_EE13_Rb_tree_implIS6_Lb1EED2Ev
	j	.LBB71_3
.LBB71_3:                               # %terminate.handler
	ld	a0, -40(s0)
	call	__clang_call_terminate
.Lfunc_end71:
	.size	_ZNSt8_Rb_treeIN8Spectral5ValueIdEES2_St9_IdentityIS2_ESt4lessIS2_ESaIS2_EED2Ev, .Lfunc_end71-_ZNSt8_Rb_treeIN8Spectral5ValueIdEES2_St9_IdentityIS2_ESt4lessIS2_ESaIS2_EED2Ev
	.cfi_endproc
	.section	.gcc_except_table,"a",@progbits
	.p2align	2
GCC_except_table71:
.Lexception9:
	.byte	255                     # @LPStart Encoding = omit
	.byte	155                     # @TType Encoding = indirect pcrel sdata4
	.uleb128 .Lttbase4-.Lttbaseref4
.Lttbaseref4:
	.byte	3                       # Call site Encoding = udata4
	.uleb128 .Lcst_end9-.Lcst_begin9
.Lcst_begin9:
	.word	.Ltmp101-.Lfunc_begin9  # >> Call Site 1 <<
	.word	.Ltmp102-.Ltmp101       #   Call between .Ltmp101 and .Ltmp102
	.word	.Ltmp103-.Lfunc_begin9  #     jumps to .Ltmp103
	.byte	1                       #   On action: 1
.Lcst_end9:
	.byte	1                       # >> Action Record 1 <<
                                        #   Catch TypeInfo 1
	.byte	0                       #   No further actions
	.p2align	2
                                        # >> Catch TypeInfos <<
	.word	0                       # TypeInfo 1
.Lttbase4:
	.p2align	2
                                        # -- End function
	.section	.text._ZNSt8_Rb_treeIN8Spectral5ValueIdEES2_St9_IdentityIS2_ESt4lessIS2_ESaIS2_EE8_M_eraseEPSt13_Rb_tree_nodeIS2_E,"axG",@progbits,_ZNSt8_Rb_treeIN8Spectral5ValueIdEES2_St9_IdentityIS2_ESt4lessIS2_ESaIS2_EE8_M_eraseEPSt13_Rb_tree_nodeIS2_E,comdat
	.weak	_ZNSt8_Rb_treeIN8Spectral5ValueIdEES2_St9_IdentityIS2_ESt4lessIS2_ESaIS2_EE8_M_eraseEPSt13_Rb_tree_nodeIS2_E # -- Begin function _ZNSt8_Rb_treeIN8Spectral5ValueIdEES2_St9_IdentityIS2_ESt4lessIS2_ESaIS2_EE8_M_eraseEPSt13_Rb_tree_nodeIS2_E
	.p2align	2
	.type	_ZNSt8_Rb_treeIN8Spectral5ValueIdEES2_St9_IdentityIS2_ESt4lessIS2_ESaIS2_EE8_M_eraseEPSt13_Rb_tree_nodeIS2_E,@function
_ZNSt8_Rb_treeIN8Spectral5ValueIdEES2_St9_IdentityIS2_ESt4lessIS2_ESaIS2_EE8_M_eraseEPSt13_Rb_tree_nodeIS2_E: # @_ZNSt8_Rb_treeIN8Spectral5ValueIdEES2_St9_IdentityIS2_ESt4lessIS2_ESaIS2_EE8_M_eraseEPSt13_Rb_tree_nodeIS2_E
	.cfi_startproc
# %bb.0:                                # %entry
	addi	sp, sp, -48
	.cfi_def_cfa_offset 48
	sd	ra, 40(sp)
	sd	s0, 32(sp)
	sd	s1, 24(sp)
	.cfi_offset ra, -8
	.cfi_offset s0, -16
	.cfi_offset s1, -24
	addi	s0, sp, 48
	.cfi_def_cfa s0, 0
	sd	a0, -32(s0)
	sd	a1, -40(s0)
	ld	s1, -32(s0)
	j	.LBB72_1
.LBB72_1:                               # %while.cond
                                        # =>This Inner Loop Header: Depth=1
	ld	a0, -40(s0)
	beqz	a0, .LBB72_3
	j	.LBB72_2
.LBB72_2:                               # %while.body
                                        #   in Loop: Header=BB72_1 Depth=1
	ld	a0, -40(s0)
	call	_ZNSt8_Rb_treeIN8Spectral5ValueIdEES2_St9_IdentityIS2_ESt4lessIS2_ESaIS2_EE8_S_rightEPSt18_Rb_tree_node_base
	mv	a1, a0
	mv	a0, s1
	call	_ZNSt8_Rb_treeIN8Spectral5ValueIdEES2_St9_IdentityIS2_ESt4lessIS2_ESaIS2_EE8_M_eraseEPSt13_Rb_tree_nodeIS2_E
	ld	a0, -40(s0)
	call	_ZNSt8_Rb_treeIN8Spectral5ValueIdEES2_St9_IdentityIS2_ESt4lessIS2_ESaIS2_EE7_S_leftEPSt18_Rb_tree_node_base
	sd	a0, -48(s0)
	ld	a1, -40(s0)
	mv	a0, s1
	call	_ZNSt8_Rb_treeIN8Spectral5ValueIdEES2_St9_IdentityIS2_ESt4lessIS2_ESaIS2_EE12_M_drop_nodeEPSt13_Rb_tree_nodeIS2_E
	ld	a0, -48(s0)
	sd	a0, -40(s0)
	j	.LBB72_1
.LBB72_3:                               # %while.end
	ld	s1, 24(sp)
	ld	s0, 32(sp)
	.cfi_def_cfa sp, 48
	ld	ra, 40(sp)
	.cfi_restore ra
	.cfi_restore s0
	.cfi_restore s1
	addi	sp, sp, 48
	.cfi_def_cfa_offset 0
	ret
.Lfunc_end72:
	.size	_ZNSt8_Rb_treeIN8Spectral5ValueIdEES2_St9_IdentityIS2_ESt4lessIS2_ESaIS2_EE8_M_eraseEPSt13_Rb_tree_nodeIS2_E, .Lfunc_end72-_ZNSt8_Rb_treeIN8Spectral5ValueIdEES2_St9_IdentityIS2_ESt4lessIS2_ESaIS2_EE8_M_eraseEPSt13_Rb_tree_nodeIS2_E
	.cfi_endproc
                                        # -- End function
	.section	.text._ZNSt8_Rb_treeIN8Spectral5ValueIdEES2_St9_IdentityIS2_ESt4lessIS2_ESaIS2_EE8_M_beginEv,"axG",@progbits,_ZNSt8_Rb_treeIN8Spectral5ValueIdEES2_St9_IdentityIS2_ESt4lessIS2_ESaIS2_EE8_M_beginEv,comdat
	.weak	_ZNSt8_Rb_treeIN8Spectral5ValueIdEES2_St9_IdentityIS2_ESt4lessIS2_ESaIS2_EE8_M_beginEv # -- Begin function _ZNSt8_Rb_treeIN8Spectral5ValueIdEES2_St9_IdentityIS2_ESt4lessIS2_ESaIS2_EE8_M_beginEv
	.p2align	2
	.type	_ZNSt8_Rb_treeIN8Spectral5ValueIdEES2_St9_IdentityIS2_ESt4lessIS2_ESaIS2_EE8_M_beginEv,@function
_ZNSt8_Rb_treeIN8Spectral5ValueIdEES2_St9_IdentityIS2_ESt4lessIS2_ESaIS2_EE8_M_beginEv: # @_ZNSt8_Rb_treeIN8Spectral5ValueIdEES2_St9_IdentityIS2_ESt4lessIS2_ESaIS2_EE8_M_beginEv
# %bb.0:                                # %entry
	addi	sp, sp, -32
	sd	ra, 24(sp)
	sd	s0, 16(sp)
	addi	s0, sp, 32
	sd	a0, -24(s0)
	ld	a0, -24(s0)
	call	_ZNKSt8_Rb_treeIN8Spectral5ValueIdEES2_St9_IdentityIS2_ESt4lessIS2_ESaIS2_EE9_M_mbeginEv
	ld	s0, 16(sp)
	ld	ra, 24(sp)
	addi	sp, sp, 32
	ret
.Lfunc_end73:
	.size	_ZNSt8_Rb_treeIN8Spectral5ValueIdEES2_St9_IdentityIS2_ESt4lessIS2_ESaIS2_EE8_M_beginEv, .Lfunc_end73-_ZNSt8_Rb_treeIN8Spectral5ValueIdEES2_St9_IdentityIS2_ESt4lessIS2_ESaIS2_EE8_M_beginEv
                                        # -- End function
	.section	.text._ZNSt8_Rb_treeIN8Spectral5ValueIdEES2_St9_IdentityIS2_ESt4lessIS2_ESaIS2_EE13_Rb_tree_implIS6_Lb1EED2Ev,"axG",@progbits,_ZNSt8_Rb_treeIN8Spectral5ValueIdEES2_St9_IdentityIS2_ESt4lessIS2_ESaIS2_EE13_Rb_tree_implIS6_Lb1EED2Ev,comdat
	.weak	_ZNSt8_Rb_treeIN8Spectral5ValueIdEES2_St9_IdentityIS2_ESt4lessIS2_ESaIS2_EE13_Rb_tree_implIS6_Lb1EED2Ev # -- Begin function _ZNSt8_Rb_treeIN8Spectral5ValueIdEES2_St9_IdentityIS2_ESt4lessIS2_ESaIS2_EE13_Rb_tree_implIS6_Lb1EED2Ev
	.p2align	2
	.type	_ZNSt8_Rb_treeIN8Spectral5ValueIdEES2_St9_IdentityIS2_ESt4lessIS2_ESaIS2_EE13_Rb_tree_implIS6_Lb1EED2Ev,@function
_ZNSt8_Rb_treeIN8Spectral5ValueIdEES2_St9_IdentityIS2_ESt4lessIS2_ESaIS2_EE13_Rb_tree_implIS6_Lb1EED2Ev: # @_ZNSt8_Rb_treeIN8Spectral5ValueIdEES2_St9_IdentityIS2_ESt4lessIS2_ESaIS2_EE13_Rb_tree_implIS6_Lb1EED2Ev
# %bb.0:                                # %entry
	addi	sp, sp, -32
	sd	ra, 24(sp)
	sd	s0, 16(sp)
	addi	s0, sp, 32
	sd	a0, -32(s0)
	ld	a0, -32(s0)
	sd	a0, -24(s0)
	ld	a0, -24(s0)
	call	_ZNSt15__new_allocatorISt13_Rb_tree_nodeIN8Spectral5ValueIdEEEED2Ev
	ld	s0, 16(sp)
	ld	ra, 24(sp)
	addi	sp, sp, 32
	ret
.Lfunc_end74:
	.size	_ZNSt8_Rb_treeIN8Spectral5ValueIdEES2_St9_IdentityIS2_ESt4lessIS2_ESaIS2_EE13_Rb_tree_implIS6_Lb1EED2Ev, .Lfunc_end74-_ZNSt8_Rb_treeIN8Spectral5ValueIdEES2_St9_IdentityIS2_ESt4lessIS2_ESaIS2_EE13_Rb_tree_implIS6_Lb1EED2Ev
                                        # -- End function
	.section	.text._ZNSt8_Rb_treeIN8Spectral5ValueIdEES2_St9_IdentityIS2_ESt4lessIS2_ESaIS2_EE8_S_rightEPSt18_Rb_tree_node_base,"axG",@progbits,_ZNSt8_Rb_treeIN8Spectral5ValueIdEES2_St9_IdentityIS2_ESt4lessIS2_ESaIS2_EE8_S_rightEPSt18_Rb_tree_node_base,comdat
	.weak	_ZNSt8_Rb_treeIN8Spectral5ValueIdEES2_St9_IdentityIS2_ESt4lessIS2_ESaIS2_EE8_S_rightEPSt18_Rb_tree_node_base # -- Begin function _ZNSt8_Rb_treeIN8Spectral5ValueIdEES2_St9_IdentityIS2_ESt4lessIS2_ESaIS2_EE8_S_rightEPSt18_Rb_tree_node_base
	.p2align	2
	.type	_ZNSt8_Rb_treeIN8Spectral5ValueIdEES2_St9_IdentityIS2_ESt4lessIS2_ESaIS2_EE8_S_rightEPSt18_Rb_tree_node_base,@function
_ZNSt8_Rb_treeIN8Spectral5ValueIdEES2_St9_IdentityIS2_ESt4lessIS2_ESaIS2_EE8_S_rightEPSt18_Rb_tree_node_base: # @_ZNSt8_Rb_treeIN8Spectral5ValueIdEES2_St9_IdentityIS2_ESt4lessIS2_ESaIS2_EE8_S_rightEPSt18_Rb_tree_node_base
# %bb.0:                                # %entry
	addi	sp, sp, -32
	sd	ra, 24(sp)
	sd	s0, 16(sp)
	addi	s0, sp, 32
	sd	a0, -24(s0)
	ld	a0, -24(s0)
	ld	a0, 24(a0)
	ld	s0, 16(sp)
	ld	ra, 24(sp)
	addi	sp, sp, 32
	ret
.Lfunc_end75:
	.size	_ZNSt8_Rb_treeIN8Spectral5ValueIdEES2_St9_IdentityIS2_ESt4lessIS2_ESaIS2_EE8_S_rightEPSt18_Rb_tree_node_base, .Lfunc_end75-_ZNSt8_Rb_treeIN8Spectral5ValueIdEES2_St9_IdentityIS2_ESt4lessIS2_ESaIS2_EE8_S_rightEPSt18_Rb_tree_node_base
                                        # -- End function
	.section	.text._ZNSt8_Rb_treeIN8Spectral5ValueIdEES2_St9_IdentityIS2_ESt4lessIS2_ESaIS2_EE7_S_leftEPSt18_Rb_tree_node_base,"axG",@progbits,_ZNSt8_Rb_treeIN8Spectral5ValueIdEES2_St9_IdentityIS2_ESt4lessIS2_ESaIS2_EE7_S_leftEPSt18_Rb_tree_node_base,comdat
	.weak	_ZNSt8_Rb_treeIN8Spectral5ValueIdEES2_St9_IdentityIS2_ESt4lessIS2_ESaIS2_EE7_S_leftEPSt18_Rb_tree_node_base # -- Begin function _ZNSt8_Rb_treeIN8Spectral5ValueIdEES2_St9_IdentityIS2_ESt4lessIS2_ESaIS2_EE7_S_leftEPSt18_Rb_tree_node_base
	.p2align	2
	.type	_ZNSt8_Rb_treeIN8Spectral5ValueIdEES2_St9_IdentityIS2_ESt4lessIS2_ESaIS2_EE7_S_leftEPSt18_Rb_tree_node_base,@function
_ZNSt8_Rb_treeIN8Spectral5ValueIdEES2_St9_IdentityIS2_ESt4lessIS2_ESaIS2_EE7_S_leftEPSt18_Rb_tree_node_base: # @_ZNSt8_Rb_treeIN8Spectral5ValueIdEES2_St9_IdentityIS2_ESt4lessIS2_ESaIS2_EE7_S_leftEPSt18_Rb_tree_node_base
# %bb.0:                                # %entry
	addi	sp, sp, -32
	sd	ra, 24(sp)
	sd	s0, 16(sp)
	addi	s0, sp, 32
	sd	a0, -24(s0)
	ld	a0, -24(s0)
	ld	a0, 16(a0)
	ld	s0, 16(sp)
	ld	ra, 24(sp)
	addi	sp, sp, 32
	ret
.Lfunc_end76:
	.size	_ZNSt8_Rb_treeIN8Spectral5ValueIdEES2_St9_IdentityIS2_ESt4lessIS2_ESaIS2_EE7_S_leftEPSt18_Rb_tree_node_base, .Lfunc_end76-_ZNSt8_Rb_treeIN8Spectral5ValueIdEES2_St9_IdentityIS2_ESt4lessIS2_ESaIS2_EE7_S_leftEPSt18_Rb_tree_node_base
                                        # -- End function
	.section	.text._ZNSt8_Rb_treeIN8Spectral5ValueIdEES2_St9_IdentityIS2_ESt4lessIS2_ESaIS2_EE12_M_drop_nodeEPSt13_Rb_tree_nodeIS2_E,"axG",@progbits,_ZNSt8_Rb_treeIN8Spectral5ValueIdEES2_St9_IdentityIS2_ESt4lessIS2_ESaIS2_EE12_M_drop_nodeEPSt13_Rb_tree_nodeIS2_E,comdat
	.weak	_ZNSt8_Rb_treeIN8Spectral5ValueIdEES2_St9_IdentityIS2_ESt4lessIS2_ESaIS2_EE12_M_drop_nodeEPSt13_Rb_tree_nodeIS2_E # -- Begin function _ZNSt8_Rb_treeIN8Spectral5ValueIdEES2_St9_IdentityIS2_ESt4lessIS2_ESaIS2_EE12_M_drop_nodeEPSt13_Rb_tree_nodeIS2_E
	.p2align	2
	.type	_ZNSt8_Rb_treeIN8Spectral5ValueIdEES2_St9_IdentityIS2_ESt4lessIS2_ESaIS2_EE12_M_drop_nodeEPSt13_Rb_tree_nodeIS2_E,@function
_ZNSt8_Rb_treeIN8Spectral5ValueIdEES2_St9_IdentityIS2_ESt4lessIS2_ESaIS2_EE12_M_drop_nodeEPSt13_Rb_tree_nodeIS2_E: # @_ZNSt8_Rb_treeIN8Spectral5ValueIdEES2_St9_IdentityIS2_ESt4lessIS2_ESaIS2_EE12_M_drop_nodeEPSt13_Rb_tree_nodeIS2_E
# %bb.0:                                # %entry
	addi	sp, sp, -48
	sd	ra, 40(sp)
	sd	s0, 32(sp)
	sd	s1, 24(sp)
	addi	s0, sp, 48
	sd	a0, -32(s0)
	sd	a1, -40(s0)
	ld	s1, -32(s0)
	ld	a1, -40(s0)
	mv	a0, s1
	call	_ZNSt8_Rb_treeIN8Spectral5ValueIdEES2_St9_IdentityIS2_ESt4lessIS2_ESaIS2_EE15_M_destroy_nodeEPSt13_Rb_tree_nodeIS2_E
	ld	a1, -40(s0)
	mv	a0, s1
	call	_ZNSt8_Rb_treeIN8Spectral5ValueIdEES2_St9_IdentityIS2_ESt4lessIS2_ESaIS2_EE11_M_put_nodeEPSt13_Rb_tree_nodeIS2_E
	ld	s1, 24(sp)
	ld	s0, 32(sp)
	ld	ra, 40(sp)
	addi	sp, sp, 48
	ret
.Lfunc_end77:
	.size	_ZNSt8_Rb_treeIN8Spectral5ValueIdEES2_St9_IdentityIS2_ESt4lessIS2_ESaIS2_EE12_M_drop_nodeEPSt13_Rb_tree_nodeIS2_E, .Lfunc_end77-_ZNSt8_Rb_treeIN8Spectral5ValueIdEES2_St9_IdentityIS2_ESt4lessIS2_ESaIS2_EE12_M_drop_nodeEPSt13_Rb_tree_nodeIS2_E
                                        # -- End function
	.section	.text._ZNSt8_Rb_treeIN8Spectral5ValueIdEES2_St9_IdentityIS2_ESt4lessIS2_ESaIS2_EE15_M_destroy_nodeEPSt13_Rb_tree_nodeIS2_E,"axG",@progbits,_ZNSt8_Rb_treeIN8Spectral5ValueIdEES2_St9_IdentityIS2_ESt4lessIS2_ESaIS2_EE15_M_destroy_nodeEPSt13_Rb_tree_nodeIS2_E,comdat
	.weak	_ZNSt8_Rb_treeIN8Spectral5ValueIdEES2_St9_IdentityIS2_ESt4lessIS2_ESaIS2_EE15_M_destroy_nodeEPSt13_Rb_tree_nodeIS2_E # -- Begin function _ZNSt8_Rb_treeIN8Spectral5ValueIdEES2_St9_IdentityIS2_ESt4lessIS2_ESaIS2_EE15_M_destroy_nodeEPSt13_Rb_tree_nodeIS2_E
	.p2align	2
	.type	_ZNSt8_Rb_treeIN8Spectral5ValueIdEES2_St9_IdentityIS2_ESt4lessIS2_ESaIS2_EE15_M_destroy_nodeEPSt13_Rb_tree_nodeIS2_E,@function
_ZNSt8_Rb_treeIN8Spectral5ValueIdEES2_St9_IdentityIS2_ESt4lessIS2_ESaIS2_EE15_M_destroy_nodeEPSt13_Rb_tree_nodeIS2_E: # @_ZNSt8_Rb_treeIN8Spectral5ValueIdEES2_St9_IdentityIS2_ESt4lessIS2_ESaIS2_EE15_M_destroy_nodeEPSt13_Rb_tree_nodeIS2_E
.Lfunc_begin10:
	.cfi_startproc
	.cfi_personality 155, DW.ref.__gxx_personality_v0
	.cfi_lsda 27, .Lexception10
# %bb.0:                                # %entry
	addi	sp, sp, -80
	.cfi_def_cfa_offset 80
	sd	ra, 72(sp)
	sd	s0, 64(sp)
	sd	s1, 56(sp)
	.cfi_offset ra, -8
	.cfi_offset s0, -16
	.cfi_offset s1, -24
	addi	s0, sp, 80
	.cfi_def_cfa s0, 0
	sd	a0, -64(s0)
	sd	a1, -72(s0)
	ld	a0, -64(s0)
	call	_ZNSt8_Rb_treeIN8Spectral5ValueIdEES2_St9_IdentityIS2_ESt4lessIS2_ESaIS2_EE21_M_get_Node_allocatorEv
	mv	s1, a0
	ld	a0, -72(s0)
.Ltmp104:
	call	_ZNSt13_Rb_tree_nodeIN8Spectral5ValueIdEEE9_M_valptrEv
.Ltmp105:
	j	.LBB78_1
.LBB78_1:                               # %invoke.cont
	sd	s1, -48(s0)
	sd	a0, -56(s0)
	ld	a0, -48(s0)
	ld	a1, -56(s0)
	sd	a0, -32(s0)
	sd	a1, -40(s0)
	ld	s1, 56(sp)
	ld	s0, 64(sp)
	.cfi_def_cfa sp, 80
	ld	ra, 72(sp)
	.cfi_restore ra
	.cfi_restore s0
	.cfi_restore s1
	addi	sp, sp, 80
	.cfi_def_cfa_offset 0
	ret
.LBB78_2:                               # %terminate.lpad
.Ltmp106:
	call	__clang_call_terminate
.Lfunc_end78:
	.size	_ZNSt8_Rb_treeIN8Spectral5ValueIdEES2_St9_IdentityIS2_ESt4lessIS2_ESaIS2_EE15_M_destroy_nodeEPSt13_Rb_tree_nodeIS2_E, .Lfunc_end78-_ZNSt8_Rb_treeIN8Spectral5ValueIdEES2_St9_IdentityIS2_ESt4lessIS2_ESaIS2_EE15_M_destroy_nodeEPSt13_Rb_tree_nodeIS2_E
	.cfi_endproc
	.section	.gcc_except_table,"a",@progbits
	.p2align	2
GCC_except_table78:
.Lexception10:
	.byte	255                     # @LPStart Encoding = omit
	.byte	155                     # @TType Encoding = indirect pcrel sdata4
	.uleb128 .Lttbase5-.Lttbaseref5
.Lttbaseref5:
	.byte	3                       # Call site Encoding = udata4
	.uleb128 .Lcst_end10-.Lcst_begin10
.Lcst_begin10:
	.word	.Ltmp104-.Lfunc_begin10 # >> Call Site 1 <<
	.word	.Ltmp105-.Ltmp104       #   Call between .Ltmp104 and .Ltmp105
	.word	.Ltmp106-.Lfunc_begin10 #     jumps to .Ltmp106
	.byte	1                       #   On action: 1
.Lcst_end10:
	.byte	1                       # >> Action Record 1 <<
                                        #   Catch TypeInfo 1
	.byte	0                       #   No further actions
	.p2align	2
                                        # >> Catch TypeInfos <<
	.word	0                       # TypeInfo 1
.Lttbase5:
	.p2align	2
                                        # -- End function
	.section	.text._ZNSt8_Rb_treeIN8Spectral5ValueIdEES2_St9_IdentityIS2_ESt4lessIS2_ESaIS2_EE11_M_put_nodeEPSt13_Rb_tree_nodeIS2_E,"axG",@progbits,_ZNSt8_Rb_treeIN8Spectral5ValueIdEES2_St9_IdentityIS2_ESt4lessIS2_ESaIS2_EE11_M_put_nodeEPSt13_Rb_tree_nodeIS2_E,comdat
	.weak	_ZNSt8_Rb_treeIN8Spectral5ValueIdEES2_St9_IdentityIS2_ESt4lessIS2_ESaIS2_EE11_M_put_nodeEPSt13_Rb_tree_nodeIS2_E # -- Begin function _ZNSt8_Rb_treeIN8Spectral5ValueIdEES2_St9_IdentityIS2_ESt4lessIS2_ESaIS2_EE11_M_put_nodeEPSt13_Rb_tree_nodeIS2_E
	.p2align	2
	.type	_ZNSt8_Rb_treeIN8Spectral5ValueIdEES2_St9_IdentityIS2_ESt4lessIS2_ESaIS2_EE11_M_put_nodeEPSt13_Rb_tree_nodeIS2_E,@function
_ZNSt8_Rb_treeIN8Spectral5ValueIdEES2_St9_IdentityIS2_ESt4lessIS2_ESaIS2_EE11_M_put_nodeEPSt13_Rb_tree_nodeIS2_E: # @_ZNSt8_Rb_treeIN8Spectral5ValueIdEES2_St9_IdentityIS2_ESt4lessIS2_ESaIS2_EE11_M_put_nodeEPSt13_Rb_tree_nodeIS2_E
	.cfi_startproc
# %bb.0:                                # %entry
	addi	sp, sp, -64
	.cfi_def_cfa_offset 64
	sd	ra, 56(sp)
	sd	s0, 48(sp)
	.cfi_offset ra, -8
	.cfi_offset s0, -16
	addi	s0, sp, 64
	.cfi_def_cfa s0, 0
	sd	a0, -48(s0)
	sd	a1, -56(s0)
	ld	a0, -48(s0)
	call	_ZNSt8_Rb_treeIN8Spectral5ValueIdEES2_St9_IdentityIS2_ESt4lessIS2_ESaIS2_EE21_M_get_Node_allocatorEv
	ld	a1, -56(s0)
	sd	a0, -24(s0)
	sd	a1, -32(s0)
	addi	a0, zero, 1
	sd	a0, -40(s0)
	ld	a0, -24(s0)
	ld	a1, -32(s0)
	ld	a2, -40(s0)
	call	_ZNSt15__new_allocatorISt13_Rb_tree_nodeIN8Spectral5ValueIdEEEE10deallocateEPS4_m
	j	.LBB79_1
.LBB79_1:                               # %invoke.cont
	ld	s0, 48(sp)
	.cfi_def_cfa sp, 64
	ld	ra, 56(sp)
	.cfi_restore ra
	.cfi_restore s0
	addi	sp, sp, 64
	.cfi_def_cfa_offset 0
	ret
.Lfunc_end79:
	.size	_ZNSt8_Rb_treeIN8Spectral5ValueIdEES2_St9_IdentityIS2_ESt4lessIS2_ESaIS2_EE11_M_put_nodeEPSt13_Rb_tree_nodeIS2_E, .Lfunc_end79-_ZNSt8_Rb_treeIN8Spectral5ValueIdEES2_St9_IdentityIS2_ESt4lessIS2_ESaIS2_EE11_M_put_nodeEPSt13_Rb_tree_nodeIS2_E
	.cfi_endproc
                                        # -- End function
	.section	.text._ZNSt8_Rb_treeIN8Spectral5ValueIdEES2_St9_IdentityIS2_ESt4lessIS2_ESaIS2_EE21_M_get_Node_allocatorEv,"axG",@progbits,_ZNSt8_Rb_treeIN8Spectral5ValueIdEES2_St9_IdentityIS2_ESt4lessIS2_ESaIS2_EE21_M_get_Node_allocatorEv,comdat
	.weak	_ZNSt8_Rb_treeIN8Spectral5ValueIdEES2_St9_IdentityIS2_ESt4lessIS2_ESaIS2_EE21_M_get_Node_allocatorEv # -- Begin function _ZNSt8_Rb_treeIN8Spectral5ValueIdEES2_St9_IdentityIS2_ESt4lessIS2_ESaIS2_EE21_M_get_Node_allocatorEv
	.p2align	2
	.type	_ZNSt8_Rb_treeIN8Spectral5ValueIdEES2_St9_IdentityIS2_ESt4lessIS2_ESaIS2_EE21_M_get_Node_allocatorEv,@function
_ZNSt8_Rb_treeIN8Spectral5ValueIdEES2_St9_IdentityIS2_ESt4lessIS2_ESaIS2_EE21_M_get_Node_allocatorEv: # @_ZNSt8_Rb_treeIN8Spectral5ValueIdEES2_St9_IdentityIS2_ESt4lessIS2_ESaIS2_EE21_M_get_Node_allocatorEv
# %bb.0:                                # %entry
	addi	sp, sp, -32
	sd	ra, 24(sp)
	sd	s0, 16(sp)
	addi	s0, sp, 32
	sd	a0, -24(s0)
	ld	a0, -24(s0)
	ld	s0, 16(sp)
	ld	ra, 24(sp)
	addi	sp, sp, 32
	ret
.Lfunc_end80:
	.size	_ZNSt8_Rb_treeIN8Spectral5ValueIdEES2_St9_IdentityIS2_ESt4lessIS2_ESaIS2_EE21_M_get_Node_allocatorEv, .Lfunc_end80-_ZNSt8_Rb_treeIN8Spectral5ValueIdEES2_St9_IdentityIS2_ESt4lessIS2_ESaIS2_EE21_M_get_Node_allocatorEv
                                        # -- End function
	.section	.text._ZNSt13_Rb_tree_nodeIN8Spectral5ValueIdEEE9_M_valptrEv,"axG",@progbits,_ZNSt13_Rb_tree_nodeIN8Spectral5ValueIdEEE9_M_valptrEv,comdat
	.weak	_ZNSt13_Rb_tree_nodeIN8Spectral5ValueIdEEE9_M_valptrEv # -- Begin function _ZNSt13_Rb_tree_nodeIN8Spectral5ValueIdEEE9_M_valptrEv
	.p2align	2
	.type	_ZNSt13_Rb_tree_nodeIN8Spectral5ValueIdEEE9_M_valptrEv,@function
_ZNSt13_Rb_tree_nodeIN8Spectral5ValueIdEEE9_M_valptrEv: # @_ZNSt13_Rb_tree_nodeIN8Spectral5ValueIdEEE9_M_valptrEv
# %bb.0:                                # %entry
	addi	sp, sp, -32
	sd	ra, 24(sp)
	sd	s0, 16(sp)
	addi	s0, sp, 32
	sd	a0, -24(s0)
	ld	a0, -24(s0)
	addi	a0, a0, 32
	call	_ZN9__gnu_cxx16__aligned_membufIN8Spectral5ValueIdEEE6_M_ptrEv
	ld	s0, 16(sp)
	ld	ra, 24(sp)
	addi	sp, sp, 32
	ret
.Lfunc_end81:
	.size	_ZNSt13_Rb_tree_nodeIN8Spectral5ValueIdEEE9_M_valptrEv, .Lfunc_end81-_ZNSt13_Rb_tree_nodeIN8Spectral5ValueIdEEE9_M_valptrEv
                                        # -- End function
	.section	.text._ZN9__gnu_cxx16__aligned_membufIN8Spectral5ValueIdEEE6_M_ptrEv,"axG",@progbits,_ZN9__gnu_cxx16__aligned_membufIN8Spectral5ValueIdEEE6_M_ptrEv,comdat
	.weak	_ZN9__gnu_cxx16__aligned_membufIN8Spectral5ValueIdEEE6_M_ptrEv # -- Begin function _ZN9__gnu_cxx16__aligned_membufIN8Spectral5ValueIdEEE6_M_ptrEv
	.p2align	2
	.type	_ZN9__gnu_cxx16__aligned_membufIN8Spectral5ValueIdEEE6_M_ptrEv,@function
_ZN9__gnu_cxx16__aligned_membufIN8Spectral5ValueIdEEE6_M_ptrEv: # @_ZN9__gnu_cxx16__aligned_membufIN8Spectral5ValueIdEEE6_M_ptrEv
# %bb.0:                                # %entry
	addi	sp, sp, -32
	sd	ra, 24(sp)
	sd	s0, 16(sp)
	addi	s0, sp, 32
	sd	a0, -24(s0)
	ld	a0, -24(s0)
	call	_ZN9__gnu_cxx16__aligned_membufIN8Spectral5ValueIdEEE7_M_addrEv
	ld	s0, 16(sp)
	ld	ra, 24(sp)
	addi	sp, sp, 32
	ret
.Lfunc_end82:
	.size	_ZN9__gnu_cxx16__aligned_membufIN8Spectral5ValueIdEEE6_M_ptrEv, .Lfunc_end82-_ZN9__gnu_cxx16__aligned_membufIN8Spectral5ValueIdEEE6_M_ptrEv
                                        # -- End function
	.section	.text._ZN9__gnu_cxx16__aligned_membufIN8Spectral5ValueIdEEE7_M_addrEv,"axG",@progbits,_ZN9__gnu_cxx16__aligned_membufIN8Spectral5ValueIdEEE7_M_addrEv,comdat
	.weak	_ZN9__gnu_cxx16__aligned_membufIN8Spectral5ValueIdEEE7_M_addrEv # -- Begin function _ZN9__gnu_cxx16__aligned_membufIN8Spectral5ValueIdEEE7_M_addrEv
	.p2align	2
	.type	_ZN9__gnu_cxx16__aligned_membufIN8Spectral5ValueIdEEE7_M_addrEv,@function
_ZN9__gnu_cxx16__aligned_membufIN8Spectral5ValueIdEEE7_M_addrEv: # @_ZN9__gnu_cxx16__aligned_membufIN8Spectral5ValueIdEEE7_M_addrEv
# %bb.0:                                # %entry
	addi	sp, sp, -32
	sd	ra, 24(sp)
	sd	s0, 16(sp)
	addi	s0, sp, 32
	sd	a0, -24(s0)
	ld	a0, -24(s0)
	ld	s0, 16(sp)
	ld	ra, 24(sp)
	addi	sp, sp, 32
	ret
.Lfunc_end83:
	.size	_ZN9__gnu_cxx16__aligned_membufIN8Spectral5ValueIdEEE7_M_addrEv, .Lfunc_end83-_ZN9__gnu_cxx16__aligned_membufIN8Spectral5ValueIdEEE7_M_addrEv
                                        # -- End function
	.section	.text._ZNSt15__new_allocatorISt13_Rb_tree_nodeIN8Spectral5ValueIdEEEE10deallocateEPS4_m,"axG",@progbits,_ZNSt15__new_allocatorISt13_Rb_tree_nodeIN8Spectral5ValueIdEEEE10deallocateEPS4_m,comdat
	.weak	_ZNSt15__new_allocatorISt13_Rb_tree_nodeIN8Spectral5ValueIdEEEE10deallocateEPS4_m # -- Begin function _ZNSt15__new_allocatorISt13_Rb_tree_nodeIN8Spectral5ValueIdEEEE10deallocateEPS4_m
	.p2align	2
	.type	_ZNSt15__new_allocatorISt13_Rb_tree_nodeIN8Spectral5ValueIdEEEE10deallocateEPS4_m,@function
_ZNSt15__new_allocatorISt13_Rb_tree_nodeIN8Spectral5ValueIdEEEE10deallocateEPS4_m: # @_ZNSt15__new_allocatorISt13_Rb_tree_nodeIN8Spectral5ValueIdEEEE10deallocateEPS4_m
# %bb.0:                                # %entry
	addi	sp, sp, -48
	sd	ra, 40(sp)
	sd	s0, 32(sp)
	addi	s0, sp, 48
	sd	a0, -24(s0)
	sd	a1, -32(s0)
	sd	a2, -40(s0)
	ld	a0, -32(s0)
	call	_ZdlPv
	ld	s0, 32(sp)
	ld	ra, 40(sp)
	addi	sp, sp, 48
	ret
.Lfunc_end84:
	.size	_ZNSt15__new_allocatorISt13_Rb_tree_nodeIN8Spectral5ValueIdEEEE10deallocateEPS4_m, .Lfunc_end84-_ZNSt15__new_allocatorISt13_Rb_tree_nodeIN8Spectral5ValueIdEEEE10deallocateEPS4_m
                                        # -- End function
	.section	.text._ZNKSt8_Rb_treeIN8Spectral5ValueIdEES2_St9_IdentityIS2_ESt4lessIS2_ESaIS2_EE9_M_mbeginEv,"axG",@progbits,_ZNKSt8_Rb_treeIN8Spectral5ValueIdEES2_St9_IdentityIS2_ESt4lessIS2_ESaIS2_EE9_M_mbeginEv,comdat
	.weak	_ZNKSt8_Rb_treeIN8Spectral5ValueIdEES2_St9_IdentityIS2_ESt4lessIS2_ESaIS2_EE9_M_mbeginEv # -- Begin function _ZNKSt8_Rb_treeIN8Spectral5ValueIdEES2_St9_IdentityIS2_ESt4lessIS2_ESaIS2_EE9_M_mbeginEv
	.p2align	2
	.type	_ZNKSt8_Rb_treeIN8Spectral5ValueIdEES2_St9_IdentityIS2_ESt4lessIS2_ESaIS2_EE9_M_mbeginEv,@function
_ZNKSt8_Rb_treeIN8Spectral5ValueIdEES2_St9_IdentityIS2_ESt4lessIS2_ESaIS2_EE9_M_mbeginEv: # @_ZNKSt8_Rb_treeIN8Spectral5ValueIdEES2_St9_IdentityIS2_ESt4lessIS2_ESaIS2_EE9_M_mbeginEv
# %bb.0:                                # %entry
	addi	sp, sp, -32
	sd	ra, 24(sp)
	sd	s0, 16(sp)
	addi	s0, sp, 32
	sd	a0, -24(s0)
	ld	a0, -24(s0)
	ld	a0, 16(a0)
	ld	s0, 16(sp)
	ld	ra, 24(sp)
	addi	sp, sp, 32
	ret
.Lfunc_end85:
	.size	_ZNKSt8_Rb_treeIN8Spectral5ValueIdEES2_St9_IdentityIS2_ESt4lessIS2_ESaIS2_EE9_M_mbeginEv, .Lfunc_end85-_ZNKSt8_Rb_treeIN8Spectral5ValueIdEES2_St9_IdentityIS2_ESt4lessIS2_ESaIS2_EE9_M_mbeginEv
                                        # -- End function
	.section	.text._ZNSt15__new_allocatorISt13_Rb_tree_nodeIN8Spectral5ValueIdEEEED2Ev,"axG",@progbits,_ZNSt15__new_allocatorISt13_Rb_tree_nodeIN8Spectral5ValueIdEEEED2Ev,comdat
	.weak	_ZNSt15__new_allocatorISt13_Rb_tree_nodeIN8Spectral5ValueIdEEEED2Ev # -- Begin function _ZNSt15__new_allocatorISt13_Rb_tree_nodeIN8Spectral5ValueIdEEEED2Ev
	.p2align	2
	.type	_ZNSt15__new_allocatorISt13_Rb_tree_nodeIN8Spectral5ValueIdEEEED2Ev,@function
_ZNSt15__new_allocatorISt13_Rb_tree_nodeIN8Spectral5ValueIdEEEED2Ev: # @_ZNSt15__new_allocatorISt13_Rb_tree_nodeIN8Spectral5ValueIdEEEED2Ev
# %bb.0:                                # %entry
	addi	sp, sp, -32
	sd	ra, 24(sp)
	sd	s0, 16(sp)
	addi	s0, sp, 32
	sd	a0, -24(s0)
	ld	s0, 16(sp)
	ld	ra, 24(sp)
	addi	sp, sp, 32
	ret
.Lfunc_end86:
	.size	_ZNSt15__new_allocatorISt13_Rb_tree_nodeIN8Spectral5ValueIdEEEED2Ev, .Lfunc_end86-_ZNSt15__new_allocatorISt13_Rb_tree_nodeIN8Spectral5ValueIdEEEED2Ev
                                        # -- End function
	.section	.text._ZNSt15__new_allocatorIcED2Ev,"axG",@progbits,_ZNSt15__new_allocatorIcED2Ev,comdat
	.weak	_ZNSt15__new_allocatorIcED2Ev # -- Begin function _ZNSt15__new_allocatorIcED2Ev
	.p2align	2
	.type	_ZNSt15__new_allocatorIcED2Ev,@function
_ZNSt15__new_allocatorIcED2Ev:          # @_ZNSt15__new_allocatorIcED2Ev
# %bb.0:                                # %entry
	addi	sp, sp, -32
	sd	ra, 24(sp)
	sd	s0, 16(sp)
	addi	s0, sp, 32
	sd	a0, -24(s0)
	ld	s0, 16(sp)
	ld	ra, 24(sp)
	addi	sp, sp, 32
	ret
.Lfunc_end87:
	.size	_ZNSt15__new_allocatorIcED2Ev, .Lfunc_end87-_ZNSt15__new_allocatorIcED2Ev
                                        # -- End function
	.section	.text._ZSt4moveIRNSt7__cxx1112basic_stringIcSt11char_traitsIcESaIcEEEEONSt16remove_referenceIT_E4typeEOS8_,"axG",@progbits,_ZSt4moveIRNSt7__cxx1112basic_stringIcSt11char_traitsIcESaIcEEEEONSt16remove_referenceIT_E4typeEOS8_,comdat
	.weak	_ZSt4moveIRNSt7__cxx1112basic_stringIcSt11char_traitsIcESaIcEEEEONSt16remove_referenceIT_E4typeEOS8_ # -- Begin function _ZSt4moveIRNSt7__cxx1112basic_stringIcSt11char_traitsIcESaIcEEEEONSt16remove_referenceIT_E4typeEOS8_
	.p2align	2
	.type	_ZSt4moveIRNSt7__cxx1112basic_stringIcSt11char_traitsIcESaIcEEEEONSt16remove_referenceIT_E4typeEOS8_,@function
_ZSt4moveIRNSt7__cxx1112basic_stringIcSt11char_traitsIcESaIcEEEEONSt16remove_referenceIT_E4typeEOS8_: # @_ZSt4moveIRNSt7__cxx1112basic_stringIcSt11char_traitsIcESaIcEEEEONSt16remove_referenceIT_E4typeEOS8_
# %bb.0:                                # %entry
	addi	sp, sp, -32
	sd	ra, 24(sp)
	sd	s0, 16(sp)
	addi	s0, sp, 32
	sd	a0, -24(s0)
	ld	a0, -24(s0)
	ld	s0, 16(sp)
	ld	ra, 24(sp)
	addi	sp, sp, 32
	ret
.Lfunc_end88:
	.size	_ZSt4moveIRNSt7__cxx1112basic_stringIcSt11char_traitsIcESaIcEEEEONSt16remove_referenceIT_E4typeEOS8_, .Lfunc_end88-_ZSt4moveIRNSt7__cxx1112basic_stringIcSt11char_traitsIcESaIcEEEEONSt16remove_referenceIT_E4typeEOS8_
                                        # -- End function
	.section	.text._ZNSt11char_traitsIcE6lengthEPKc,"axG",@progbits,_ZNSt11char_traitsIcE6lengthEPKc,comdat
	.weak	_ZNSt11char_traitsIcE6lengthEPKc # -- Begin function _ZNSt11char_traitsIcE6lengthEPKc
	.p2align	2
	.type	_ZNSt11char_traitsIcE6lengthEPKc,@function
_ZNSt11char_traitsIcE6lengthEPKc:       # @_ZNSt11char_traitsIcE6lengthEPKc
# %bb.0:                                # %entry
	addi	sp, sp, -32
	sd	ra, 24(sp)
	sd	s0, 16(sp)
	addi	s0, sp, 32
	sd	a0, -24(s0)
	ld	a0, -24(s0)
	call	strlen
	ld	s0, 16(sp)
	ld	ra, 24(sp)
	addi	sp, sp, 32
	ret
.Lfunc_end89:
	.size	_ZNSt11char_traitsIcE6lengthEPKc, .Lfunc_end89-_ZNSt11char_traitsIcE6lengthEPKc
                                        # -- End function
	.section	.text._ZNSt7__cxx1112basic_stringIcSt11char_traitsIcESaIcEE12_M_constructIPKcEEvT_S8_St20forward_iterator_tag,"axG",@progbits,_ZNSt7__cxx1112basic_stringIcSt11char_traitsIcESaIcEE12_M_constructIPKcEEvT_S8_St20forward_iterator_tag,comdat
	.weak	_ZNSt7__cxx1112basic_stringIcSt11char_traitsIcESaIcEE12_M_constructIPKcEEvT_S8_St20forward_iterator_tag # -- Begin function _ZNSt7__cxx1112basic_stringIcSt11char_traitsIcESaIcEE12_M_constructIPKcEEvT_S8_St20forward_iterator_tag
	.p2align	2
	.type	_ZNSt7__cxx1112basic_stringIcSt11char_traitsIcESaIcEE12_M_constructIPKcEEvT_S8_St20forward_iterator_tag,@function
_ZNSt7__cxx1112basic_stringIcSt11char_traitsIcESaIcEE12_M_constructIPKcEEvT_S8_St20forward_iterator_tag: # @_ZNSt7__cxx1112basic_stringIcSt11char_traitsIcESaIcEE12_M_constructIPKcEEvT_S8_St20forward_iterator_tag
.Lfunc_begin11:
	.cfi_startproc
	.cfi_personality 155, DW.ref.__gxx_personality_v0
	.cfi_lsda 27, .Lexception11
# %bb.0:                                # %entry
	addi	sp, sp, -160
	.cfi_def_cfa_offset 160
	sd	ra, 152(sp)
	sd	s0, 144(sp)
	sd	s1, 136(sp)
	.cfi_offset ra, -8
	.cfi_offset s0, -16
	.cfi_offset s1, -24
	addi	s0, sp, 160
	.cfi_def_cfa s0, 0
	sd	a0, -104(s0)
	sd	a1, -112(s0)
	sd	a2, -120(s0)
	ld	s1, -104(s0)
	ld	a0, -112(s0)
	ld	a1, -120(s0)
	sd	a0, -64(s0)
	sd	a1, -72(s0)
	ld	a0, -64(s0)
	ld	a1, -72(s0)
	addi	a2, s0, -64
	sd	a2, -56(s0)
	sd	a0, -40(s0)
	sd	a1, -48(s0)
	ld	a0, -48(s0)
	ld	a1, -40(s0)
	sub	a0, a0, a1
	sd	a0, -128(s0)
	ld	a0, -128(s0)
	addi	a1, zero, 16
	bltu	a0, a1, .LBB90_2
	j	.LBB90_1
.LBB90_1:                               # %if.then
	addi	a1, s0, -128
	mv	a0, s1
	mv	a2, zero
	call	_ZNSt7__cxx1112basic_stringIcSt11char_traitsIcESaIcEE9_M_createERmm
	mv	a1, a0
	mv	a0, s1
	call	_ZNSt7__cxx1112basic_stringIcSt11char_traitsIcESaIcEE7_M_dataEPc
	ld	a1, -128(s0)
	mv	a0, s1
	call	_ZNSt7__cxx1112basic_stringIcSt11char_traitsIcESaIcEE11_M_capacityEm
	j	.LBB90_3
.LBB90_2:                               # %if.else
	sd	s1, -32(s0)
	j	.LBB90_3
.LBB90_3:                               # %if.end
	addi	a0, s0, -136
	mv	a1, s1
	call	_ZZNSt7__cxx1112basic_stringIcSt11char_traitsIcESaIcEE12_M_constructIPKcEEvT_S8_St20forward_iterator_tagEN6_GuardC2EPS4_
.Ltmp107:
	mv	a0, s1
	call	_ZNKSt7__cxx1112basic_stringIcSt11char_traitsIcESaIcEE7_M_dataEv
.Ltmp108:
	j	.LBB90_4
.LBB90_4:                               # %invoke.cont
	ld	a1, -112(s0)
	ld	a2, -120(s0)
	call	_ZNSt7__cxx1112basic_stringIcSt11char_traitsIcESaIcEE13_S_copy_charsEPcPKcS7_
	sd	zero, -136(s0)
	ld	a1, -128(s0)
.Ltmp109:
	mv	a0, s1
	call	_ZNSt7__cxx1112basic_stringIcSt11char_traitsIcESaIcEE13_M_set_lengthEm
.Ltmp110:
	j	.LBB90_5
.LBB90_5:                               # %invoke.cont4
	addi	a0, s0, -136
	call	_ZZNSt7__cxx1112basic_stringIcSt11char_traitsIcESaIcEE12_M_constructIPKcEEvT_S8_St20forward_iterator_tagEN6_GuardD2Ev
	ld	s1, 136(sp)
	ld	s0, 144(sp)
	.cfi_def_cfa sp, 160
	ld	ra, 152(sp)
	.cfi_restore ra
	.cfi_restore s0
	.cfi_restore s1
	addi	sp, sp, 160
	.cfi_def_cfa_offset 0
	ret
.LBB90_6:                               # %lpad
.Ltmp111:
	sd	a0, -144(s0)
	sw	a1, -148(s0)
	addi	a0, s0, -136
	call	_ZZNSt7__cxx1112basic_stringIcSt11char_traitsIcESaIcEE12_M_constructIPKcEEvT_S8_St20forward_iterator_tagEN6_GuardD2Ev
	j	.LBB90_7
.LBB90_7:                               # %eh.resume
	ld	a0, -144(s0)
	call	_Unwind_Resume
.Lfunc_end90:
	.size	_ZNSt7__cxx1112basic_stringIcSt11char_traitsIcESaIcEE12_M_constructIPKcEEvT_S8_St20forward_iterator_tag, .Lfunc_end90-_ZNSt7__cxx1112basic_stringIcSt11char_traitsIcESaIcEE12_M_constructIPKcEEvT_S8_St20forward_iterator_tag
	.cfi_endproc
	.section	.gcc_except_table,"a",@progbits
	.p2align	2
GCC_except_table90:
.Lexception11:
	.byte	255                     # @LPStart Encoding = omit
	.byte	255                     # @TType Encoding = omit
	.byte	3                       # Call site Encoding = udata4
	.uleb128 .Lcst_end11-.Lcst_begin11
.Lcst_begin11:
	.word	.Lfunc_begin11-.Lfunc_begin11 # >> Call Site 1 <<
	.word	.Ltmp107-.Lfunc_begin11 #   Call between .Lfunc_begin11 and .Ltmp107
	.word	0                       #     has no landing pad
	.byte	0                       #   On action: cleanup
	.word	.Ltmp107-.Lfunc_begin11 # >> Call Site 2 <<
	.word	.Ltmp110-.Ltmp107       #   Call between .Ltmp107 and .Ltmp110
	.word	.Ltmp111-.Lfunc_begin11 #     jumps to .Ltmp111
	.byte	0                       #   On action: cleanup
	.word	.Ltmp110-.Lfunc_begin11 # >> Call Site 3 <<
	.word	.Lfunc_end90-.Ltmp110   #   Call between .Ltmp110 and .Lfunc_end90
	.word	0                       #     has no landing pad
	.byte	0                       #   On action: cleanup
.Lcst_end11:
	.p2align	2
                                        # -- End function
	.section	.text._ZNSt7__cxx1112basic_stringIcSt11char_traitsIcESaIcEE12_Alloc_hiderD2Ev,"axG",@progbits,_ZNSt7__cxx1112basic_stringIcSt11char_traitsIcESaIcEE12_Alloc_hiderD2Ev,comdat
	.weak	_ZNSt7__cxx1112basic_stringIcSt11char_traitsIcESaIcEE12_Alloc_hiderD2Ev # -- Begin function _ZNSt7__cxx1112basic_stringIcSt11char_traitsIcESaIcEE12_Alloc_hiderD2Ev
	.p2align	2
	.type	_ZNSt7__cxx1112basic_stringIcSt11char_traitsIcESaIcEE12_Alloc_hiderD2Ev,@function
_ZNSt7__cxx1112basic_stringIcSt11char_traitsIcESaIcEE12_Alloc_hiderD2Ev: # @_ZNSt7__cxx1112basic_stringIcSt11char_traitsIcESaIcEE12_Alloc_hiderD2Ev
# %bb.0:                                # %entry
	addi	sp, sp, -32
	sd	ra, 24(sp)
	sd	s0, 16(sp)
	addi	s0, sp, 32
	sd	a0, -32(s0)
	ld	a0, -32(s0)
	sd	a0, -24(s0)
	ld	a0, -24(s0)
	call	_ZNSt15__new_allocatorIcED2Ev
	ld	s0, 16(sp)
	ld	ra, 24(sp)
	addi	sp, sp, 32
	ret
.Lfunc_end91:
	.size	_ZNSt7__cxx1112basic_stringIcSt11char_traitsIcESaIcEE12_Alloc_hiderD2Ev, .Lfunc_end91-_ZNSt7__cxx1112basic_stringIcSt11char_traitsIcESaIcEE12_Alloc_hiderD2Ev
                                        # -- End function
	.section	.text._ZZNSt7__cxx1112basic_stringIcSt11char_traitsIcESaIcEE12_M_constructIPKcEEvT_S8_St20forward_iterator_tagEN6_GuardC2EPS4_,"axG",@progbits,_ZZNSt7__cxx1112basic_stringIcSt11char_traitsIcESaIcEE12_M_constructIPKcEEvT_S8_St20forward_iterator_tagEN6_GuardC2EPS4_,comdat
	.weak	_ZZNSt7__cxx1112basic_stringIcSt11char_traitsIcESaIcEE12_M_constructIPKcEEvT_S8_St20forward_iterator_tagEN6_GuardC2EPS4_ # -- Begin function _ZZNSt7__cxx1112basic_stringIcSt11char_traitsIcESaIcEE12_M_constructIPKcEEvT_S8_St20forward_iterator_tagEN6_GuardC2EPS4_
	.p2align	2
	.type	_ZZNSt7__cxx1112basic_stringIcSt11char_traitsIcESaIcEE12_M_constructIPKcEEvT_S8_St20forward_iterator_tagEN6_GuardC2EPS4_,@function
_ZZNSt7__cxx1112basic_stringIcSt11char_traitsIcESaIcEE12_M_constructIPKcEEvT_S8_St20forward_iterator_tagEN6_GuardC2EPS4_: # @_ZZNSt7__cxx1112basic_stringIcSt11char_traitsIcESaIcEE12_M_constructIPKcEEvT_S8_St20forward_iterator_tagEN6_GuardC2EPS4_
# %bb.0:                                # %entry
	addi	sp, sp, -32
	sd	ra, 24(sp)
	sd	s0, 16(sp)
	addi	s0, sp, 32
	sd	a0, -24(s0)
	sd	a1, -32(s0)
	ld	a0, -24(s0)
	ld	a1, -32(s0)
	sd	a1, 0(a0)
	ld	s0, 16(sp)
	ld	ra, 24(sp)
	addi	sp, sp, 32
	ret
.Lfunc_end92:
	.size	_ZZNSt7__cxx1112basic_stringIcSt11char_traitsIcESaIcEE12_M_constructIPKcEEvT_S8_St20forward_iterator_tagEN6_GuardC2EPS4_, .Lfunc_end92-_ZZNSt7__cxx1112basic_stringIcSt11char_traitsIcESaIcEE12_M_constructIPKcEEvT_S8_St20forward_iterator_tagEN6_GuardC2EPS4_
                                        # -- End function
	.section	.text._ZZNSt7__cxx1112basic_stringIcSt11char_traitsIcESaIcEE12_M_constructIPKcEEvT_S8_St20forward_iterator_tagEN6_GuardD2Ev,"axG",@progbits,_ZZNSt7__cxx1112basic_stringIcSt11char_traitsIcESaIcEE12_M_constructIPKcEEvT_S8_St20forward_iterator_tagEN6_GuardD2Ev,comdat
	.weak	_ZZNSt7__cxx1112basic_stringIcSt11char_traitsIcESaIcEE12_M_constructIPKcEEvT_S8_St20forward_iterator_tagEN6_GuardD2Ev # -- Begin function _ZZNSt7__cxx1112basic_stringIcSt11char_traitsIcESaIcEE12_M_constructIPKcEEvT_S8_St20forward_iterator_tagEN6_GuardD2Ev
	.p2align	2
	.type	_ZZNSt7__cxx1112basic_stringIcSt11char_traitsIcESaIcEE12_M_constructIPKcEEvT_S8_St20forward_iterator_tagEN6_GuardD2Ev,@function
_ZZNSt7__cxx1112basic_stringIcSt11char_traitsIcESaIcEE12_M_constructIPKcEEvT_S8_St20forward_iterator_tagEN6_GuardD2Ev: # @_ZZNSt7__cxx1112basic_stringIcSt11char_traitsIcESaIcEE12_M_constructIPKcEEvT_S8_St20forward_iterator_tagEN6_GuardD2Ev
.Lfunc_begin12:
	.cfi_startproc
	.cfi_personality 155, DW.ref.__gxx_personality_v0
	.cfi_lsda 27, .Lexception12
# %bb.0:                                # %entry
	addi	sp, sp, -32
	.cfi_def_cfa_offset 32
	sd	ra, 24(sp)
	sd	s0, 16(sp)
	.cfi_offset ra, -8
	.cfi_offset s0, -16
	addi	s0, sp, 32
	.cfi_def_cfa s0, 0
	sd	a0, -24(s0)
	ld	a0, -24(s0)
	ld	a1, 0(a0)
	beqz	a1, .LBB93_3
	j	.LBB93_1
.LBB93_1:                               # %if.then
	ld	a0, 0(a0)
.Ltmp112:
	call	_ZNSt7__cxx1112basic_stringIcSt11char_traitsIcESaIcEE10_M_disposeEv
.Ltmp113:
	j	.LBB93_2
.LBB93_2:                               # %invoke.cont
	j	.LBB93_3
.LBB93_3:                               # %if.end
	ld	s0, 16(sp)
	.cfi_def_cfa sp, 32
	ld	ra, 24(sp)
	.cfi_restore ra
	.cfi_restore s0
	addi	sp, sp, 32
	.cfi_def_cfa_offset 0
	ret
.LBB93_4:                               # %terminate.lpad
.Ltmp114:
	call	__clang_call_terminate
.Lfunc_end93:
	.size	_ZZNSt7__cxx1112basic_stringIcSt11char_traitsIcESaIcEE12_M_constructIPKcEEvT_S8_St20forward_iterator_tagEN6_GuardD2Ev, .Lfunc_end93-_ZZNSt7__cxx1112basic_stringIcSt11char_traitsIcESaIcEE12_M_constructIPKcEEvT_S8_St20forward_iterator_tagEN6_GuardD2Ev
	.cfi_endproc
	.section	.gcc_except_table,"a",@progbits
	.p2align	2
GCC_except_table93:
.Lexception12:
	.byte	255                     # @LPStart Encoding = omit
	.byte	155                     # @TType Encoding = indirect pcrel sdata4
	.uleb128 .Lttbase6-.Lttbaseref6
.Lttbaseref6:
	.byte	3                       # Call site Encoding = udata4
	.uleb128 .Lcst_end12-.Lcst_begin12
.Lcst_begin12:
	.word	.Ltmp112-.Lfunc_begin12 # >> Call Site 1 <<
	.word	.Ltmp113-.Ltmp112       #   Call between .Ltmp112 and .Ltmp113
	.word	.Ltmp114-.Lfunc_begin12 #     jumps to .Ltmp114
	.byte	1                       #   On action: 1
.Lcst_end12:
	.byte	1                       # >> Action Record 1 <<
                                        #   Catch TypeInfo 1
	.byte	0                       #   No further actions
	.p2align	2
                                        # >> Catch TypeInfos <<
	.word	0                       # TypeInfo 1
.Lttbase6:
	.p2align	2
                                        # -- End function
	.section	.text._ZN3glm6detail12compute_sqrtILi3EdLNS_9qualifierE0ELb0EE4callERKNS_3vecILi3EdLS2_0EEE,"axG",@progbits,_ZN3glm6detail12compute_sqrtILi3EdLNS_9qualifierE0ELb0EE4callERKNS_3vecILi3EdLS2_0EEE,comdat
	.weak	_ZN3glm6detail12compute_sqrtILi3EdLNS_9qualifierE0ELb0EE4callERKNS_3vecILi3EdLS2_0EEE # -- Begin function _ZN3glm6detail12compute_sqrtILi3EdLNS_9qualifierE0ELb0EE4callERKNS_3vecILi3EdLS2_0EEE
	.p2align	2
	.type	_ZN3glm6detail12compute_sqrtILi3EdLNS_9qualifierE0ELb0EE4callERKNS_3vecILi3EdLS2_0EEE,@function
_ZN3glm6detail12compute_sqrtILi3EdLNS_9qualifierE0ELb0EE4callERKNS_3vecILi3EdLS2_0EEE: # @_ZN3glm6detail12compute_sqrtILi3EdLNS_9qualifierE0ELb0EE4callERKNS_3vecILi3EdLS2_0EEE
	.cfi_startproc
# %bb.0:                                # %entry
	addi	sp, sp, -32
	.cfi_def_cfa_offset 32
	sd	ra, 24(sp)
	sd	s0, 16(sp)
	.cfi_offset ra, -8
	.cfi_offset s0, -16
	addi	s0, sp, 32
	.cfi_def_cfa s0, 0
	sd	a0, -24(s0)
	sd	a1, -32(s0)
	ld	a2, -32(s0)
	lui	a1, %hi(sqrt)
	addi	a1, a1, %lo(sqrt)
	call	_ZN3glm6detail8functor1INS_3vecELi3EddLNS_9qualifierE0EE4callEPFddERKNS2_ILi3EdLS3_0EEE
	ld	s0, 16(sp)
	.cfi_def_cfa sp, 32
	ld	ra, 24(sp)
	.cfi_restore ra
	.cfi_restore s0
	addi	sp, sp, 32
	.cfi_def_cfa_offset 0
	ret
.Lfunc_end94:
	.size	_ZN3glm6detail12compute_sqrtILi3EdLNS_9qualifierE0ELb0EE4callERKNS_3vecILi3EdLS2_0EEE, .Lfunc_end94-_ZN3glm6detail12compute_sqrtILi3EdLNS_9qualifierE0ELb0EE4callERKNS_3vecILi3EdLS2_0EEE
	.cfi_endproc
                                        # -- End function
	.section	.text._ZN3glm6detail8functor1INS_3vecELi3EddLNS_9qualifierE0EE4callEPFddERKNS2_ILi3EdLS3_0EEE,"axG",@progbits,_ZN3glm6detail8functor1INS_3vecELi3EddLNS_9qualifierE0EE4callEPFddERKNS2_ILi3EdLS3_0EEE,comdat
	.weak	_ZN3glm6detail8functor1INS_3vecELi3EddLNS_9qualifierE0EE4callEPFddERKNS2_ILi3EdLS3_0EEE # -- Begin function _ZN3glm6detail8functor1INS_3vecELi3EddLNS_9qualifierE0EE4callEPFddERKNS2_ILi3EdLS3_0EEE
	.p2align	2
	.type	_ZN3glm6detail8functor1INS_3vecELi3EddLNS_9qualifierE0EE4callEPFddERKNS2_ILi3EdLS3_0EEE,@function
_ZN3glm6detail8functor1INS_3vecELi3EddLNS_9qualifierE0EE4callEPFddERKNS2_ILi3EdLS3_0EEE: # @_ZN3glm6detail8functor1INS_3vecELi3EddLNS_9qualifierE0EE4callEPFddERKNS2_ILi3EdLS3_0EEE
	.cfi_startproc
# %bb.0:                                # %entry
	addi	sp, sp, -64
	.cfi_def_cfa_offset 64
	sd	ra, 56(sp)
	sd	s0, 48(sp)
	sd	s1, 40(sp)
	sd	s2, 32(sp)
	sd	s3, 24(sp)
	.cfi_offset ra, -8
	.cfi_offset s0, -16
	.cfi_offset s1, -24
	.cfi_offset s2, -32
	.cfi_offset s3, -40
	addi	s0, sp, 64
	.cfi_def_cfa s0, 0
	mv	s1, a0
	sd	s1, -48(s0)
	sd	a1, -56(s0)
	sd	a2, -64(s0)
	ld	a1, -56(s0)
	ld	a0, -64(s0)
	ld	a0, 0(a0)
	jalr	a1
	mv	s2, a0
	ld	a1, -56(s0)
	ld	a0, -64(s0)
	ld	a0, 8(a0)
	jalr	a1
	mv	s3, a0
	ld	a1, -56(s0)
	ld	a0, -64(s0)
	ld	a0, 16(a0)
	jalr	a1
	mv	a3, a0
	mv	a0, s1
	mv	a1, s2
	mv	a2, s3
	call	_ZN3glm3vecILi3EdLNS_9qualifierE0EEC2Eddd
	ld	s3, 24(sp)
	ld	s2, 32(sp)
	ld	s1, 40(sp)
	ld	s0, 48(sp)
	.cfi_def_cfa sp, 64
	ld	ra, 56(sp)
	.cfi_restore ra
	.cfi_restore s0
	.cfi_restore s1
	.cfi_restore s2
	.cfi_restore s3
	addi	sp, sp, 64
	.cfi_def_cfa_offset 0
	ret
.Lfunc_end95:
	.size	_ZN3glm6detail8functor1INS_3vecELi3EddLNS_9qualifierE0EE4callEPFddERKNS2_ILi3EdLS3_0EEE, .Lfunc_end95-_ZN3glm6detail8functor1INS_3vecELi3EddLNS_9qualifierE0EE4callEPFddERKNS2_ILi3EdLS3_0EEE
	.cfi_endproc
                                        # -- End function
	.section	.text._ZNK8nlohmann10basic_jsonISt3mapSt6vectorNSt7__cxx1112basic_stringIcSt11char_traitsIcESaIcEEEblmdSaNS_14adl_serializerEE4findIRS8_EENS_6detail9iter_implIKSA_EEOT_,"axG",@progbits,_ZNK8nlohmann10basic_jsonISt3mapSt6vectorNSt7__cxx1112basic_stringIcSt11char_traitsIcESaIcEEEblmdSaNS_14adl_serializerEE4findIRS8_EENS_6detail9iter_implIKSA_EEOT_,comdat
	.weak	_ZNK8nlohmann10basic_jsonISt3mapSt6vectorNSt7__cxx1112basic_stringIcSt11char_traitsIcESaIcEEEblmdSaNS_14adl_serializerEE4findIRS8_EENS_6detail9iter_implIKSA_EEOT_ # -- Begin function _ZNK8nlohmann10basic_jsonISt3mapSt6vectorNSt7__cxx1112basic_stringIcSt11char_traitsIcESaIcEEEblmdSaNS_14adl_serializerEE4findIRS8_EENS_6detail9iter_implIKSA_EEOT_
	.p2align	2
	.type	_ZNK8nlohmann10basic_jsonISt3mapSt6vectorNSt7__cxx1112basic_stringIcSt11char_traitsIcESaIcEEEblmdSaNS_14adl_serializerEE4findIRS8_EENS_6detail9iter_implIKSA_EEOT_,@function
_ZNK8nlohmann10basic_jsonISt3mapSt6vectorNSt7__cxx1112basic_stringIcSt11char_traitsIcESaIcEEEblmdSaNS_14adl_serializerEE4findIRS8_EENS_6detail9iter_implIKSA_EEOT_: # @_ZNK8nlohmann10basic_jsonISt3mapSt6vectorNSt7__cxx1112basic_stringIcSt11char_traitsIcESaIcEEEblmdSaNS_14adl_serializerEE4findIRS8_EENS_6detail9iter_implIKSA_EEOT_
	.cfi_startproc
# %bb.0:                                # %entry
	addi	sp, sp, -64
	.cfi_def_cfa_offset 64
	sd	ra, 56(sp)
	sd	s0, 48(sp)
	sd	s1, 40(sp)
	sd	s2, 32(sp)
	.cfi_offset ra, -8
	.cfi_offset s0, -16
	.cfi_offset s1, -24
	.cfi_offset s2, -32
	addi	s0, sp, 64
	.cfi_def_cfa s0, 0
	mv	s2, a0
	sd	s2, -40(s0)
	sd	a1, -48(s0)
	sd	a2, -56(s0)
	ld	s1, -48(s0)
	mv	a0, s2
	mv	a1, s1
	call	_ZNK8nlohmann10basic_jsonISt3mapSt6vectorNSt7__cxx1112basic_stringIcSt11char_traitsIcESaIcEEEblmdSaNS_14adl_serializerEE4cendEv
	mv	a0, s1
	call	_ZNK8nlohmann10basic_jsonISt3mapSt6vectorNSt7__cxx1112basic_stringIcSt11char_traitsIcESaIcEEEblmdSaNS_14adl_serializerEE9is_objectEv
	beqz	a0, .LBB96_2
	j	.LBB96_1
.LBB96_1:                               # %if.then
	ld	s1, 8(s1)
	ld	a0, -56(s0)
	call	_ZSt7forwardIRNSt7__cxx1112basic_stringIcSt11char_traitsIcESaIcEEEEOT_RNSt16remove_referenceIS7_E4typeE
	mv	a1, a0
	mv	a0, s1
	call	_ZNSt3mapINSt7__cxx1112basic_stringIcSt11char_traitsIcESaIcEEEN8nlohmann10basic_jsonIS_St6vectorS5_blmdSaNS6_14adl_serializerEEESt4lessIvESaISt4pairIKS5_SA_EEE4findERSE_
	sd	a0, -64(s0)
	ld	a0, -64(s0)
	sd	a0, 8(s2)
	j	.LBB96_2
.LBB96_2:                               # %if.end
	ld	s2, 32(sp)
	ld	s1, 40(sp)
	ld	s0, 48(sp)
	.cfi_def_cfa sp, 64
	ld	ra, 56(sp)
	.cfi_restore ra
	.cfi_restore s0
	.cfi_restore s1
	.cfi_restore s2
	addi	sp, sp, 64
	.cfi_def_cfa_offset 0
	ret
.Lfunc_end96:
	.size	_ZNK8nlohmann10basic_jsonISt3mapSt6vectorNSt7__cxx1112basic_stringIcSt11char_traitsIcESaIcEEEblmdSaNS_14adl_serializerEE4findIRS8_EENS_6detail9iter_implIKSA_EEOT_, .Lfunc_end96-_ZNK8nlohmann10basic_jsonISt3mapSt6vectorNSt7__cxx1112basic_stringIcSt11char_traitsIcESaIcEEEblmdSaNS_14adl_serializerEE4findIRS8_EENS_6detail9iter_implIKSA_EEOT_
	.cfi_endproc
                                        # -- End function
	.section	.text._ZNK8nlohmann6detail9iter_implIKNS_10basic_jsonISt3mapSt6vectorNSt7__cxx1112basic_stringIcSt11char_traitsIcESaIcEEEblmdSaNS_14adl_serializerEEEEneERKSE_,"axG",@progbits,_ZNK8nlohmann6detail9iter_implIKNS_10basic_jsonISt3mapSt6vectorNSt7__cxx1112basic_stringIcSt11char_traitsIcESaIcEEEblmdSaNS_14adl_serializerEEEEneERKSE_,comdat
	.weak	_ZNK8nlohmann6detail9iter_implIKNS_10basic_jsonISt3mapSt6vectorNSt7__cxx1112basic_stringIcSt11char_traitsIcESaIcEEEblmdSaNS_14adl_serializerEEEEneERKSE_ # -- Begin function _ZNK8nlohmann6detail9iter_implIKNS_10basic_jsonISt3mapSt6vectorNSt7__cxx1112basic_stringIcSt11char_traitsIcESaIcEEEblmdSaNS_14adl_serializerEEEEneERKSE_
	.p2align	2
	.type	_ZNK8nlohmann6detail9iter_implIKNS_10basic_jsonISt3mapSt6vectorNSt7__cxx1112basic_stringIcSt11char_traitsIcESaIcEEEblmdSaNS_14adl_serializerEEEEneERKSE_,@function
_ZNK8nlohmann6detail9iter_implIKNS_10basic_jsonISt3mapSt6vectorNSt7__cxx1112basic_stringIcSt11char_traitsIcESaIcEEEblmdSaNS_14adl_serializerEEEEneERKSE_: # @_ZNK8nlohmann6detail9iter_implIKNS_10basic_jsonISt3mapSt6vectorNSt7__cxx1112basic_stringIcSt11char_traitsIcESaIcEEEblmdSaNS_14adl_serializerEEEEneERKSE_
	.cfi_startproc
# %bb.0:                                # %entry
	addi	sp, sp, -32
	.cfi_def_cfa_offset 32
	sd	ra, 24(sp)
	sd	s0, 16(sp)
	.cfi_offset ra, -8
	.cfi_offset s0, -16
	addi	s0, sp, 32
	.cfi_def_cfa s0, 0
	sd	a0, -24(s0)
	sd	a1, -32(s0)
	ld	a0, -24(s0)
	ld	a1, -32(s0)
	call	_ZNK8nlohmann6detail9iter_implIKNS_10basic_jsonISt3mapSt6vectorNSt7__cxx1112basic_stringIcSt11char_traitsIcESaIcEEEblmdSaNS_14adl_serializerEEEEeqERKSE_
	xori	a0, a0, 1
	ld	s0, 16(sp)
	.cfi_def_cfa sp, 32
	ld	ra, 24(sp)
	.cfi_restore ra
	.cfi_restore s0
	addi	sp, sp, 32
	.cfi_def_cfa_offset 0
	ret
.Lfunc_end97:
	.size	_ZNK8nlohmann6detail9iter_implIKNS_10basic_jsonISt3mapSt6vectorNSt7__cxx1112basic_stringIcSt11char_traitsIcESaIcEEEblmdSaNS_14adl_serializerEEEEneERKSE_, .Lfunc_end97-_ZNK8nlohmann6detail9iter_implIKNS_10basic_jsonISt3mapSt6vectorNSt7__cxx1112basic_stringIcSt11char_traitsIcESaIcEEEblmdSaNS_14adl_serializerEEEEneERKSE_
	.cfi_endproc
                                        # -- End function
	.section	.text._ZNK8nlohmann10basic_jsonISt3mapSt6vectorNSt7__cxx1112basic_stringIcSt11char_traitsIcESaIcEEEblmdSaNS_14adl_serializerEE3endEv,"axG",@progbits,_ZNK8nlohmann10basic_jsonISt3mapSt6vectorNSt7__cxx1112basic_stringIcSt11char_traitsIcESaIcEEEblmdSaNS_14adl_serializerEE3endEv,comdat
	.weak	_ZNK8nlohmann10basic_jsonISt3mapSt6vectorNSt7__cxx1112basic_stringIcSt11char_traitsIcESaIcEEEblmdSaNS_14adl_serializerEE3endEv # -- Begin function _ZNK8nlohmann10basic_jsonISt3mapSt6vectorNSt7__cxx1112basic_stringIcSt11char_traitsIcESaIcEEEblmdSaNS_14adl_serializerEE3endEv
	.p2align	2
	.type	_ZNK8nlohmann10basic_jsonISt3mapSt6vectorNSt7__cxx1112basic_stringIcSt11char_traitsIcESaIcEEEblmdSaNS_14adl_serializerEE3endEv,@function
_ZNK8nlohmann10basic_jsonISt3mapSt6vectorNSt7__cxx1112basic_stringIcSt11char_traitsIcESaIcEEEblmdSaNS_14adl_serializerEE3endEv: # @_ZNK8nlohmann10basic_jsonISt3mapSt6vectorNSt7__cxx1112basic_stringIcSt11char_traitsIcESaIcEEEblmdSaNS_14adl_serializerEE3endEv
# %bb.0:                                # %entry
	addi	sp, sp, -32
	sd	ra, 24(sp)
	sd	s0, 16(sp)
	addi	s0, sp, 32
	sd	a0, -24(s0)
	sd	a1, -32(s0)
	ld	a1, -32(s0)
	call	_ZNK8nlohmann10basic_jsonISt3mapSt6vectorNSt7__cxx1112basic_stringIcSt11char_traitsIcESaIcEEEblmdSaNS_14adl_serializerEE4cendEv
	ld	s0, 16(sp)
	ld	ra, 24(sp)
	addi	sp, sp, 32
	ret
.Lfunc_end98:
	.size	_ZNK8nlohmann10basic_jsonISt3mapSt6vectorNSt7__cxx1112basic_stringIcSt11char_traitsIcESaIcEEEblmdSaNS_14adl_serializerEE3endEv, .Lfunc_end98-_ZNK8nlohmann10basic_jsonISt3mapSt6vectorNSt7__cxx1112basic_stringIcSt11char_traitsIcESaIcEEEblmdSaNS_14adl_serializerEE3endEv
                                        # -- End function
	.section	.text._ZNK8nlohmann10basic_jsonISt3mapSt6vectorNSt7__cxx1112basic_stringIcSt11char_traitsIcESaIcEEEblmdSaNS_14adl_serializerEE2atERKS8_,"axG",@progbits,_ZNK8nlohmann10basic_jsonISt3mapSt6vectorNSt7__cxx1112basic_stringIcSt11char_traitsIcESaIcEEEblmdSaNS_14adl_serializerEE2atERKS8_,comdat
	.weak	_ZNK8nlohmann10basic_jsonISt3mapSt6vectorNSt7__cxx1112basic_stringIcSt11char_traitsIcESaIcEEEblmdSaNS_14adl_serializerEE2atERKS8_ # -- Begin function _ZNK8nlohmann10basic_jsonISt3mapSt6vectorNSt7__cxx1112basic_stringIcSt11char_traitsIcESaIcEEEblmdSaNS_14adl_serializerEE2atERKS8_
	.p2align	2
	.type	_ZNK8nlohmann10basic_jsonISt3mapSt6vectorNSt7__cxx1112basic_stringIcSt11char_traitsIcESaIcEEEblmdSaNS_14adl_serializerEE2atERKS8_,@function
_ZNK8nlohmann10basic_jsonISt3mapSt6vectorNSt7__cxx1112basic_stringIcSt11char_traitsIcESaIcEEEblmdSaNS_14adl_serializerEE2atERKS8_: # @_ZNK8nlohmann10basic_jsonISt3mapSt6vectorNSt7__cxx1112basic_stringIcSt11char_traitsIcESaIcEEEblmdSaNS_14adl_serializerEE2atERKS8_
.Lfunc_begin13:
	.cfi_startproc
	.cfi_personality 155, DW.ref.__gxx_personality_v0
	.cfi_lsda 27, .Lexception13
# %bb.0:                                # %entry
	addi	sp, sp, -256
	.cfi_def_cfa_offset 256
	sd	ra, 248(sp)
	sd	s0, 240(sp)
	sd	s1, 232(sp)
	sd	s2, 224(sp)
	.cfi_offset ra, -8
	.cfi_offset s0, -16
	.cfi_offset s1, -24
	.cfi_offset s2, -32
	addi	s0, sp, 256
	.cfi_def_cfa s0, 0
	sd	a0, -64(s0)
	sd	a1, -72(s0)
	ld	s1, -64(s0)
	mv	a0, s1
	call	_ZNK8nlohmann10basic_jsonISt3mapSt6vectorNSt7__cxx1112basic_stringIcSt11char_traitsIcESaIcEEEblmdSaNS_14adl_serializerEE9is_objectEv
	beqz	a0, .LBB99_17
	j	.LBB99_1
.LBB99_1:                               # %if.then
	ld	a0, 8(s1)
	ld	a1, -72(s0)
.Ltmp126:
	call	_ZNSt3mapINSt7__cxx1112basic_stringIcSt11char_traitsIcESaIcEEEN8nlohmann10basic_jsonIS_St6vectorS5_blmdSaNS6_14adl_serializerEEESt4lessIvESaISt4pairIKS5_SA_EEE2atERSE_
.Ltmp127:
	j	.LBB99_2
.LBB99_2:                               # %invoke.cont
	ld	s2, 224(sp)
	ld	s1, 232(sp)
	ld	s0, 240(sp)
	.cfi_def_cfa sp, 256
	ld	ra, 248(sp)
	.cfi_restore ra
	.cfi_restore s0
	.cfi_restore s1
	.cfi_restore s2
	addi	sp, sp, 256
	.cfi_def_cfa_offset 0
	ret
.LBB99_3:                               # %lpad
.Ltmp128:
	sd	a0, -80(s0)
	sw	a1, -84(s0)
	j	.LBB99_4
.LBB99_4:                               # %catch.dispatch
	lw	a0, -84(s0)
	addi	a1, zero, 1
	bne	a0, a1, .LBB99_28
	j	.LBB99_5
.LBB99_5:                               # %catch
	ld	a0, -80(s0)
	call	__cxa_begin_catch
	sd	a0, -96(s0)
	addi	a0, zero, 32
	call	__cxa_allocate_exception
	mv	s1, a0
	addi	a0, zero, 1
	sb	a0, -161(s0)
	ld	a2, -72(s0)
.Ltmp129:
	lui	a0, %hi(.L.str.19)
	addi	a1, a0, %lo(.L.str.19)
	addi	a0, s0, -160
	call	_ZStplIcSt11char_traitsIcESaIcEENSt7__cxx1112basic_stringIT_T0_T1_EEPKS5_RKS8_
.Ltmp130:
	j	.LBB99_6
.LBB99_6:                               # %invoke.cont6
.Ltmp132:
	lui	a0, %hi(.L.str.20)
	addi	a2, a0, %lo(.L.str.20)
	addi	a0, s0, -128
	addi	a1, s0, -160
	call	_ZStplIcSt11char_traitsIcESaIcEENSt7__cxx1112basic_stringIT_T0_T1_EEOS8_PKS5_
.Ltmp133:
	j	.LBB99_7
.LBB99_7:                               # %invoke.cont8
.Ltmp135:
	addi	a2, s0, -128
	mv	a0, s1
	addi	a1, zero, 403
	call	_ZN8nlohmann6detail12out_of_range6createEiRKNSt7__cxx1112basic_stringIcSt11char_traitsIcESaIcEEE
.Ltmp136:
	j	.LBB99_8
.LBB99_8:                               # %invoke.cont10
	sb	zero, -161(s0)
.Ltmp137:
	lui	a0, %hi(_ZTIN8nlohmann6detail12out_of_rangeE)
	addi	a1, a0, %lo(_ZTIN8nlohmann6detail12out_of_rangeE)
	lui	a0, %hi(_ZN8nlohmann6detail12out_of_rangeD2Ev)
	addi	a2, a0, %lo(_ZN8nlohmann6detail12out_of_rangeD2Ev)
	mv	a0, s1
	call	__cxa_throw
.Ltmp138:
	j	.LBB99_30
.LBB99_9:                               # %lpad5
.Ltmp131:
	sd	a0, -80(s0)
	sw	a1, -84(s0)
	j	.LBB99_13
.LBB99_10:                              # %lpad7
.Ltmp134:
	sd	a0, -80(s0)
	sw	a1, -84(s0)
	j	.LBB99_12
.LBB99_11:                              # %lpad9
.Ltmp139:
	sd	a0, -80(s0)
	sw	a1, -84(s0)
	addi	a0, s0, -128
	call	_ZNSt7__cxx1112basic_stringIcSt11char_traitsIcESaIcEED1Ev
	j	.LBB99_12
.LBB99_12:                              # %ehcleanup
	addi	a0, s0, -160
	call	_ZNSt7__cxx1112basic_stringIcSt11char_traitsIcESaIcEED1Ev
	j	.LBB99_13
.LBB99_13:                              # %ehcleanup11
	lbu	a0, -161(s0)
	beqz	a0, .LBB99_15
	j	.LBB99_14
.LBB99_14:                              # %cleanup.action
	mv	a0, s1
	call	__cxa_free_exception
	j	.LBB99_15
.LBB99_15:                              # %cleanup.done
.Ltmp140:
	call	__cxa_end_catch
.Ltmp141:
	j	.LBB99_16
.LBB99_16:                              # %invoke.cont13
	j	.LBB99_28
.LBB99_17:                              # %if.else
	addi	a0, zero, 32
	call	__cxa_allocate_exception
	mv	s2, a0
	addi	a0, zero, 1
	sb	a0, -241(s0)
	mv	a0, s1
	call	_ZNK8nlohmann10basic_jsonISt3mapSt6vectorNSt7__cxx1112basic_stringIcSt11char_traitsIcESaIcEEEblmdSaNS_14adl_serializerEE9type_nameEv
	mv	a1, a0
	addi	a2, s0, -240
	sd	a2, -56(s0)
	ld	a0, -56(s0)
	sd	a0, -48(s0)
.Ltmp115:
	addi	a0, s0, -232
	call	_ZNSt7__cxx1112basic_stringIcSt11char_traitsIcESaIcEEC2IS3_EEPKcRKS3_
.Ltmp116:
	j	.LBB99_18
.LBB99_18:                              # %invoke.cont20
.Ltmp118:
	lui	a0, %hi(.L.str.21)
	addi	a1, a0, %lo(.L.str.21)
	addi	a0, s0, -200
	addi	a2, s0, -232
	call	_ZStplIcSt11char_traitsIcESaIcEENSt7__cxx1112basic_stringIT_T0_T1_EEPKS5_OS8_
.Ltmp119:
	j	.LBB99_19
.LBB99_19:                              # %invoke.cont22
.Ltmp121:
	addi	a2, s0, -200
	mv	a0, s2
	addi	a1, zero, 304
	call	_ZN8nlohmann6detail10type_error6createEiRKNSt7__cxx1112basic_stringIcSt11char_traitsIcESaIcEEE
.Ltmp122:
	j	.LBB99_20
.LBB99_20:                              # %invoke.cont24
	sb	zero, -241(s0)
.Ltmp123:
	lui	a0, %hi(_ZTIN8nlohmann6detail10type_errorE)
	addi	a1, a0, %lo(_ZTIN8nlohmann6detail10type_errorE)
	lui	a0, %hi(_ZN8nlohmann6detail10type_errorD2Ev)
	addi	a2, a0, %lo(_ZN8nlohmann6detail10type_errorD2Ev)
	mv	a0, s2
	call	__cxa_throw
.Ltmp124:
	j	.LBB99_30
.LBB99_21:                              # %lpad19
.Ltmp117:
	sd	a0, -80(s0)
	sw	a1, -84(s0)
	j	.LBB99_25
.LBB99_22:                              # %lpad21
.Ltmp120:
	sd	a0, -80(s0)
	sw	a1, -84(s0)
	j	.LBB99_24
.LBB99_23:                              # %lpad23
.Ltmp125:
	sd	a0, -80(s0)
	sw	a1, -84(s0)
	addi	a0, s0, -200
	call	_ZNSt7__cxx1112basic_stringIcSt11char_traitsIcESaIcEED1Ev
	j	.LBB99_24
.LBB99_24:                              # %ehcleanup27
	addi	a0, s0, -232
	call	_ZNSt7__cxx1112basic_stringIcSt11char_traitsIcESaIcEED1Ev
	j	.LBB99_25
.LBB99_25:                              # %ehcleanup28
	addi	a0, s0, -240
	sd	a0, -40(s0)
	ld	a0, -40(s0)
	call	_ZNSt15__new_allocatorIcED2Ev
	lbu	a0, -241(s0)
	beqz	a0, .LBB99_27
	j	.LBB99_26
.LBB99_26:                              # %cleanup.action31
	mv	a0, s2
	call	__cxa_free_exception
	j	.LBB99_27
.LBB99_27:                              # %cleanup.done32
	j	.LBB99_28
.LBB99_28:                              # %eh.resume
	ld	a0, -80(s0)
	call	_Unwind_Resume
.LBB99_29:                              # %terminate.lpad
.Ltmp142:
	call	__clang_call_terminate
.LBB99_30:                              # %unreachable
.Lfunc_end99:
	.size	_ZNK8nlohmann10basic_jsonISt3mapSt6vectorNSt7__cxx1112basic_stringIcSt11char_traitsIcESaIcEEEblmdSaNS_14adl_serializerEE2atERKS8_, .Lfunc_end99-_ZNK8nlohmann10basic_jsonISt3mapSt6vectorNSt7__cxx1112basic_stringIcSt11char_traitsIcESaIcEEEblmdSaNS_14adl_serializerEE2atERKS8_
	.cfi_endproc
	.section	.gcc_except_table,"a",@progbits
	.p2align	2
GCC_except_table99:
.Lexception13:
	.byte	255                     # @LPStart Encoding = omit
	.byte	155                     # @TType Encoding = indirect pcrel sdata4
	.uleb128 .Lttbase7-.Lttbaseref7
.Lttbaseref7:
	.byte	3                       # Call site Encoding = udata4
	.uleb128 .Lcst_end13-.Lcst_begin13
.Lcst_begin13:
	.word	.Ltmp126-.Lfunc_begin13 # >> Call Site 1 <<
	.word	.Ltmp127-.Ltmp126       #   Call between .Ltmp126 and .Ltmp127
	.word	.Ltmp128-.Lfunc_begin13 #     jumps to .Ltmp128
	.byte	1                       #   On action: 1
	.word	.Ltmp127-.Lfunc_begin13 # >> Call Site 2 <<
	.word	.Ltmp129-.Ltmp127       #   Call between .Ltmp127 and .Ltmp129
	.word	0                       #     has no landing pad
	.byte	0                       #   On action: cleanup
	.word	.Ltmp129-.Lfunc_begin13 # >> Call Site 3 <<
	.word	.Ltmp130-.Ltmp129       #   Call between .Ltmp129 and .Ltmp130
	.word	.Ltmp131-.Lfunc_begin13 #     jumps to .Ltmp131
	.byte	0                       #   On action: cleanup
	.word	.Ltmp132-.Lfunc_begin13 # >> Call Site 4 <<
	.word	.Ltmp133-.Ltmp132       #   Call between .Ltmp132 and .Ltmp133
	.word	.Ltmp134-.Lfunc_begin13 #     jumps to .Ltmp134
	.byte	0                       #   On action: cleanup
	.word	.Ltmp135-.Lfunc_begin13 # >> Call Site 5 <<
	.word	.Ltmp138-.Ltmp135       #   Call between .Ltmp135 and .Ltmp138
	.word	.Ltmp139-.Lfunc_begin13 #     jumps to .Ltmp139
	.byte	0                       #   On action: cleanup
	.word	.Ltmp138-.Lfunc_begin13 # >> Call Site 6 <<
	.word	.Ltmp140-.Ltmp138       #   Call between .Ltmp138 and .Ltmp140
	.word	0                       #     has no landing pad
	.byte	0                       #   On action: cleanup
	.word	.Ltmp140-.Lfunc_begin13 # >> Call Site 7 <<
	.word	.Ltmp141-.Ltmp140       #   Call between .Ltmp140 and .Ltmp141
	.word	.Ltmp142-.Lfunc_begin13 #     jumps to .Ltmp142
	.byte	3                       #   On action: 2
	.word	.Ltmp141-.Lfunc_begin13 # >> Call Site 8 <<
	.word	.Ltmp115-.Ltmp141       #   Call between .Ltmp141 and .Ltmp115
	.word	0                       #     has no landing pad
	.byte	0                       #   On action: cleanup
	.word	.Ltmp115-.Lfunc_begin13 # >> Call Site 9 <<
	.word	.Ltmp116-.Ltmp115       #   Call between .Ltmp115 and .Ltmp116
	.word	.Ltmp117-.Lfunc_begin13 #     jumps to .Ltmp117
	.byte	0                       #   On action: cleanup
	.word	.Ltmp118-.Lfunc_begin13 # >> Call Site 10 <<
	.word	.Ltmp119-.Ltmp118       #   Call between .Ltmp118 and .Ltmp119
	.word	.Ltmp120-.Lfunc_begin13 #     jumps to .Ltmp120
	.byte	0                       #   On action: cleanup
	.word	.Ltmp121-.Lfunc_begin13 # >> Call Site 11 <<
	.word	.Ltmp124-.Ltmp121       #   Call between .Ltmp121 and .Ltmp124
	.word	.Ltmp125-.Lfunc_begin13 #     jumps to .Ltmp125
	.byte	0                       #   On action: cleanup
	.word	.Ltmp124-.Lfunc_begin13 # >> Call Site 12 <<
	.word	.Lfunc_end99-.Ltmp124   #   Call between .Ltmp124 and .Lfunc_end99
	.word	0                       #     has no landing pad
	.byte	0                       #   On action: cleanup
.Lcst_end13:
	.byte	1                       # >> Action Record 1 <<
                                        #   Catch TypeInfo 1
	.byte	0                       #   No further actions
	.byte	2                       # >> Action Record 2 <<
                                        #   Catch TypeInfo 2
	.byte	0                       #   No further actions
	.p2align	2
                                        # >> Catch TypeInfos <<
	.word	0                       # TypeInfo 2
.Ltmp143:                               # TypeInfo 1
	.word	.L_ZTISt12out_of_range.DW.stub-.Ltmp143
.Lttbase7:
	.p2align	2
                                        # -- End function
	.section	.text._ZNK8nlohmann10basic_jsonISt3mapSt6vectorNSt7__cxx1112basic_stringIcSt11char_traitsIcESaIcEEEblmdSaNS_14adl_serializerEE3getIN3glm3vecILi3EdLNSC_9qualifierE0EEESF_Li0EEET0_v,"axG",@progbits,_ZNK8nlohmann10basic_jsonISt3mapSt6vectorNSt7__cxx1112basic_stringIcSt11char_traitsIcESaIcEEEblmdSaNS_14adl_serializerEE3getIN3glm3vecILi3EdLNSC_9qualifierE0EEESF_Li0EEET0_v,comdat
	.weak	_ZNK8nlohmann10basic_jsonISt3mapSt6vectorNSt7__cxx1112basic_stringIcSt11char_traitsIcESaIcEEEblmdSaNS_14adl_serializerEE3getIN3glm3vecILi3EdLNSC_9qualifierE0EEESF_Li0EEET0_v # -- Begin function _ZNK8nlohmann10basic_jsonISt3mapSt6vectorNSt7__cxx1112basic_stringIcSt11char_traitsIcESaIcEEEblmdSaNS_14adl_serializerEE3getIN3glm3vecILi3EdLNSC_9qualifierE0EEESF_Li0EEET0_v
	.p2align	2
	.type	_ZNK8nlohmann10basic_jsonISt3mapSt6vectorNSt7__cxx1112basic_stringIcSt11char_traitsIcESaIcEEEblmdSaNS_14adl_serializerEE3getIN3glm3vecILi3EdLNSC_9qualifierE0EEESF_Li0EEET0_v,@function
_ZNK8nlohmann10basic_jsonISt3mapSt6vectorNSt7__cxx1112basic_stringIcSt11char_traitsIcESaIcEEEblmdSaNS_14adl_serializerEE3getIN3glm3vecILi3EdLNSC_9qualifierE0EEESF_Li0EEET0_v: # @_ZNK8nlohmann10basic_jsonISt3mapSt6vectorNSt7__cxx1112basic_stringIcSt11char_traitsIcESaIcEEEblmdSaNS_14adl_serializerEE3getIN3glm3vecILi3EdLNSC_9qualifierE0EEESF_Li0EEET0_v
	.cfi_startproc
# %bb.0:                                # %entry
	addi	sp, sp, -32
	.cfi_def_cfa_offset 32
	sd	ra, 24(sp)
	sd	s0, 16(sp)
	.cfi_offset ra, -8
	.cfi_offset s0, -16
	addi	s0, sp, 32
	.cfi_def_cfa s0, 0
	mv	a2, a0
	sd	a2, -24(s0)
	sd	a1, -32(s0)
	ld	a0, -32(s0)
	mv	a1, a2
	call	_ZN8nlohmann14adl_serializerIN3glm3vecILi3EdLNS1_9qualifierE0EEEvE9from_jsonIRKNS_10basic_jsonISt3mapSt6vectorNSt7__cxx1112basic_stringIcSt11char_traitsIcESaIcEEEblmdSaS0_EES4_EEDTcmclL_ZNS_12_GLOBAL__N_19from_jsonEEclsr3stdE7forwardIT_Efp_Efp0_Ecvv_EEOSK_RT0_
	ld	s0, 16(sp)
	.cfi_def_cfa sp, 32
	ld	ra, 24(sp)
	.cfi_restore ra
	.cfi_restore s0
	addi	sp, sp, 32
	.cfi_def_cfa_offset 0
	ret
.Lfunc_end100:
	.size	_ZNK8nlohmann10basic_jsonISt3mapSt6vectorNSt7__cxx1112basic_stringIcSt11char_traitsIcESaIcEEEblmdSaNS_14adl_serializerEE3getIN3glm3vecILi3EdLNSC_9qualifierE0EEESF_Li0EEET0_v, .Lfunc_end100-_ZNK8nlohmann10basic_jsonISt3mapSt6vectorNSt7__cxx1112basic_stringIcSt11char_traitsIcESaIcEEEblmdSaNS_14adl_serializerEE3getIN3glm3vecILi3EdLNSC_9qualifierE0EEESF_Li0EEET0_v
	.cfi_endproc
                                        # -- End function
	.section	.text._ZNK8nlohmann10basic_jsonISt3mapSt6vectorNSt7__cxx1112basic_stringIcSt11char_traitsIcESaIcEEEblmdSaNS_14adl_serializerEE4cendEv,"axG",@progbits,_ZNK8nlohmann10basic_jsonISt3mapSt6vectorNSt7__cxx1112basic_stringIcSt11char_traitsIcESaIcEEEblmdSaNS_14adl_serializerEE4cendEv,comdat
	.weak	_ZNK8nlohmann10basic_jsonISt3mapSt6vectorNSt7__cxx1112basic_stringIcSt11char_traitsIcESaIcEEEblmdSaNS_14adl_serializerEE4cendEv # -- Begin function _ZNK8nlohmann10basic_jsonISt3mapSt6vectorNSt7__cxx1112basic_stringIcSt11char_traitsIcESaIcEEEblmdSaNS_14adl_serializerEE4cendEv
	.p2align	2
	.type	_ZNK8nlohmann10basic_jsonISt3mapSt6vectorNSt7__cxx1112basic_stringIcSt11char_traitsIcESaIcEEEblmdSaNS_14adl_serializerEE4cendEv,@function
_ZNK8nlohmann10basic_jsonISt3mapSt6vectorNSt7__cxx1112basic_stringIcSt11char_traitsIcESaIcEEEblmdSaNS_14adl_serializerEE4cendEv: # @_ZNK8nlohmann10basic_jsonISt3mapSt6vectorNSt7__cxx1112basic_stringIcSt11char_traitsIcESaIcEEEblmdSaNS_14adl_serializerEE4cendEv
# %bb.0:                                # %entry
	addi	sp, sp, -48
	sd	ra, 40(sp)
	sd	s0, 32(sp)
	sd	s1, 24(sp)
	addi	s0, sp, 48
	mv	s1, a0
	sd	s1, -32(s0)
	sd	a1, -40(s0)
	ld	a1, -40(s0)
	mv	a0, s1
	call	_ZN8nlohmann6detail9iter_implIKNS_10basic_jsonISt3mapSt6vectorNSt7__cxx1112basic_stringIcSt11char_traitsIcESaIcEEEblmdSaNS_14adl_serializerEEEEC2EPSD_
	mv	a0, s1
	call	_ZN8nlohmann6detail9iter_implIKNS_10basic_jsonISt3mapSt6vectorNSt7__cxx1112basic_stringIcSt11char_traitsIcESaIcEEEblmdSaNS_14adl_serializerEEEE7set_endEv
	ld	s1, 24(sp)
	ld	s0, 32(sp)
	ld	ra, 40(sp)
	addi	sp, sp, 48
	ret
.Lfunc_end101:
	.size	_ZNK8nlohmann10basic_jsonISt3mapSt6vectorNSt7__cxx1112basic_stringIcSt11char_traitsIcESaIcEEEblmdSaNS_14adl_serializerEE4cendEv, .Lfunc_end101-_ZNK8nlohmann10basic_jsonISt3mapSt6vectorNSt7__cxx1112basic_stringIcSt11char_traitsIcESaIcEEEblmdSaNS_14adl_serializerEE4cendEv
                                        # -- End function
	.section	.text._ZNK8nlohmann10basic_jsonISt3mapSt6vectorNSt7__cxx1112basic_stringIcSt11char_traitsIcESaIcEEEblmdSaNS_14adl_serializerEE9is_objectEv,"axG",@progbits,_ZNK8nlohmann10basic_jsonISt3mapSt6vectorNSt7__cxx1112basic_stringIcSt11char_traitsIcESaIcEEEblmdSaNS_14adl_serializerEE9is_objectEv,comdat
	.weak	_ZNK8nlohmann10basic_jsonISt3mapSt6vectorNSt7__cxx1112basic_stringIcSt11char_traitsIcESaIcEEEblmdSaNS_14adl_serializerEE9is_objectEv # -- Begin function _ZNK8nlohmann10basic_jsonISt3mapSt6vectorNSt7__cxx1112basic_stringIcSt11char_traitsIcESaIcEEEblmdSaNS_14adl_serializerEE9is_objectEv
	.p2align	2
	.type	_ZNK8nlohmann10basic_jsonISt3mapSt6vectorNSt7__cxx1112basic_stringIcSt11char_traitsIcESaIcEEEblmdSaNS_14adl_serializerEE9is_objectEv,@function
_ZNK8nlohmann10basic_jsonISt3mapSt6vectorNSt7__cxx1112basic_stringIcSt11char_traitsIcESaIcEEEblmdSaNS_14adl_serializerEE9is_objectEv: # @_ZNK8nlohmann10basic_jsonISt3mapSt6vectorNSt7__cxx1112basic_stringIcSt11char_traitsIcESaIcEEEblmdSaNS_14adl_serializerEE9is_objectEv
# %bb.0:                                # %entry
	addi	sp, sp, -32
	sd	ra, 24(sp)
	sd	s0, 16(sp)
	addi	s0, sp, 32
	sd	a0, -24(s0)
	ld	a0, -24(s0)
	lbu	a0, 0(a0)
	xori	a0, a0, 1
	seqz	a0, a0
	ld	s0, 16(sp)
	ld	ra, 24(sp)
	addi	sp, sp, 32
	ret
.Lfunc_end102:
	.size	_ZNK8nlohmann10basic_jsonISt3mapSt6vectorNSt7__cxx1112basic_stringIcSt11char_traitsIcESaIcEEEblmdSaNS_14adl_serializerEE9is_objectEv, .Lfunc_end102-_ZNK8nlohmann10basic_jsonISt3mapSt6vectorNSt7__cxx1112basic_stringIcSt11char_traitsIcESaIcEEEblmdSaNS_14adl_serializerEE9is_objectEv
                                        # -- End function
	.section	.text._ZNSt3mapINSt7__cxx1112basic_stringIcSt11char_traitsIcESaIcEEEN8nlohmann10basic_jsonIS_St6vectorS5_blmdSaNS6_14adl_serializerEEESt4lessIvESaISt4pairIKS5_SA_EEE4findERSE_,"axG",@progbits,_ZNSt3mapINSt7__cxx1112basic_stringIcSt11char_traitsIcESaIcEEEN8nlohmann10basic_jsonIS_St6vectorS5_blmdSaNS6_14adl_serializerEEESt4lessIvESaISt4pairIKS5_SA_EEE4findERSE_,comdat
	.weak	_ZNSt3mapINSt7__cxx1112basic_stringIcSt11char_traitsIcESaIcEEEN8nlohmann10basic_jsonIS_St6vectorS5_blmdSaNS6_14adl_serializerEEESt4lessIvESaISt4pairIKS5_SA_EEE4findERSE_ # -- Begin function _ZNSt3mapINSt7__cxx1112basic_stringIcSt11char_traitsIcESaIcEEEN8nlohmann10basic_jsonIS_St6vectorS5_blmdSaNS6_14adl_serializerEEESt4lessIvESaISt4pairIKS5_SA_EEE4findERSE_
	.p2align	2
	.type	_ZNSt3mapINSt7__cxx1112basic_stringIcSt11char_traitsIcESaIcEEEN8nlohmann10basic_jsonIS_St6vectorS5_blmdSaNS6_14adl_serializerEEESt4lessIvESaISt4pairIKS5_SA_EEE4findERSE_,@function
_ZNSt3mapINSt7__cxx1112basic_stringIcSt11char_traitsIcESaIcEEEN8nlohmann10basic_jsonIS_St6vectorS5_blmdSaNS6_14adl_serializerEEESt4lessIvESaISt4pairIKS5_SA_EEE4findERSE_: # @_ZNSt3mapINSt7__cxx1112basic_stringIcSt11char_traitsIcESaIcEEEN8nlohmann10basic_jsonIS_St6vectorS5_blmdSaNS6_14adl_serializerEEESt4lessIvESaISt4pairIKS5_SA_EEE4findERSE_
	.cfi_startproc
# %bb.0:                                # %entry
	addi	sp, sp, -48
	.cfi_def_cfa_offset 48
	sd	ra, 40(sp)
	sd	s0, 32(sp)
	.cfi_offset ra, -8
	.cfi_offset s0, -16
	addi	s0, sp, 48
	.cfi_def_cfa s0, 0
	sd	a0, -32(s0)
	sd	a1, -40(s0)
	ld	a0, -32(s0)
	ld	a1, -40(s0)
	call	_ZNSt8_Rb_treeINSt7__cxx1112basic_stringIcSt11char_traitsIcESaIcEEESt4pairIKS5_N8nlohmann10basic_jsonISt3mapSt6vectorS5_blmdSaNS8_14adl_serializerEEEESt10_Select1stISE_ESt4lessIvESaISE_EE4findERS7_
	sd	a0, -24(s0)
	ld	a0, -24(s0)
	ld	s0, 32(sp)
	.cfi_def_cfa sp, 48
	ld	ra, 40(sp)
	.cfi_restore ra
	.cfi_restore s0
	addi	sp, sp, 48
	.cfi_def_cfa_offset 0
	ret
.Lfunc_end103:
	.size	_ZNSt3mapINSt7__cxx1112basic_stringIcSt11char_traitsIcESaIcEEEN8nlohmann10basic_jsonIS_St6vectorS5_blmdSaNS6_14adl_serializerEEESt4lessIvESaISt4pairIKS5_SA_EEE4findERSE_, .Lfunc_end103-_ZNSt3mapINSt7__cxx1112basic_stringIcSt11char_traitsIcESaIcEEEN8nlohmann10basic_jsonIS_St6vectorS5_blmdSaNS6_14adl_serializerEEESt4lessIvESaISt4pairIKS5_SA_EEE4findERSE_
	.cfi_endproc
                                        # -- End function
	.section	.text._ZSt7forwardIRNSt7__cxx1112basic_stringIcSt11char_traitsIcESaIcEEEEOT_RNSt16remove_referenceIS7_E4typeE,"axG",@progbits,_ZSt7forwardIRNSt7__cxx1112basic_stringIcSt11char_traitsIcESaIcEEEEOT_RNSt16remove_referenceIS7_E4typeE,comdat
	.weak	_ZSt7forwardIRNSt7__cxx1112basic_stringIcSt11char_traitsIcESaIcEEEEOT_RNSt16remove_referenceIS7_E4typeE # -- Begin function _ZSt7forwardIRNSt7__cxx1112basic_stringIcSt11char_traitsIcESaIcEEEEOT_RNSt16remove_referenceIS7_E4typeE
	.p2align	2
	.type	_ZSt7forwardIRNSt7__cxx1112basic_stringIcSt11char_traitsIcESaIcEEEEOT_RNSt16remove_referenceIS7_E4typeE,@function
_ZSt7forwardIRNSt7__cxx1112basic_stringIcSt11char_traitsIcESaIcEEEEOT_RNSt16remove_referenceIS7_E4typeE: # @_ZSt7forwardIRNSt7__cxx1112basic_stringIcSt11char_traitsIcESaIcEEEEOT_RNSt16remove_referenceIS7_E4typeE
# %bb.0:                                # %entry
	addi	sp, sp, -32
	sd	ra, 24(sp)
	sd	s0, 16(sp)
	addi	s0, sp, 32
	sd	a0, -24(s0)
	ld	a0, -24(s0)
	ld	s0, 16(sp)
	ld	ra, 24(sp)
	addi	sp, sp, 32
	ret
.Lfunc_end104:
	.size	_ZSt7forwardIRNSt7__cxx1112basic_stringIcSt11char_traitsIcESaIcEEEEOT_RNSt16remove_referenceIS7_E4typeE, .Lfunc_end104-_ZSt7forwardIRNSt7__cxx1112basic_stringIcSt11char_traitsIcESaIcEEEEOT_RNSt16remove_referenceIS7_E4typeE
                                        # -- End function
	.section	.text._ZN8nlohmann6detail9iter_implIKNS_10basic_jsonISt3mapSt6vectorNSt7__cxx1112basic_stringIcSt11char_traitsIcESaIcEEEblmdSaNS_14adl_serializerEEEEC2EPSD_,"axG",@progbits,_ZN8nlohmann6detail9iter_implIKNS_10basic_jsonISt3mapSt6vectorNSt7__cxx1112basic_stringIcSt11char_traitsIcESaIcEEEblmdSaNS_14adl_serializerEEEEC2EPSD_,comdat
	.weak	_ZN8nlohmann6detail9iter_implIKNS_10basic_jsonISt3mapSt6vectorNSt7__cxx1112basic_stringIcSt11char_traitsIcESaIcEEEblmdSaNS_14adl_serializerEEEEC2EPSD_ # -- Begin function _ZN8nlohmann6detail9iter_implIKNS_10basic_jsonISt3mapSt6vectorNSt7__cxx1112basic_stringIcSt11char_traitsIcESaIcEEEblmdSaNS_14adl_serializerEEEEC2EPSD_
	.p2align	2
	.type	_ZN8nlohmann6detail9iter_implIKNS_10basic_jsonISt3mapSt6vectorNSt7__cxx1112basic_stringIcSt11char_traitsIcESaIcEEEblmdSaNS_14adl_serializerEEEEC2EPSD_,@function
_ZN8nlohmann6detail9iter_implIKNS_10basic_jsonISt3mapSt6vectorNSt7__cxx1112basic_stringIcSt11char_traitsIcESaIcEEEblmdSaNS_14adl_serializerEEEEC2EPSD_: # @_ZN8nlohmann6detail9iter_implIKNS_10basic_jsonISt3mapSt6vectorNSt7__cxx1112basic_stringIcSt11char_traitsIcESaIcEEEblmdSaNS_14adl_serializerEEEEC2EPSD_
.Lfunc_begin14:
	.cfi_startproc
	.cfi_personality 155, DW.ref.__gxx_personality_v0
	.cfi_lsda 27, .Lexception14
# %bb.0:                                # %entry
	addi	sp, sp, -64
	.cfi_def_cfa_offset 64
	sd	ra, 56(sp)
	sd	s0, 48(sp)
	sd	s1, 40(sp)
	.cfi_offset ra, -8
	.cfi_offset s0, -16
	.cfi_offset s1, -24
	addi	s0, sp, 64
	.cfi_def_cfa s0, 0
	sd	a0, -32(s0)
	sd	a1, -40(s0)
	ld	s1, -32(s0)
	ld	a0, -40(s0)
	sd	a0, 0(s1)
	addi	a0, s1, 8
	call	_ZNSt17_Rb_tree_iteratorISt4pairIKNSt7__cxx1112basic_stringIcSt11char_traitsIcESaIcEEEN8nlohmann10basic_jsonISt3mapSt6vectorS6_blmdSaNS8_14adl_serializerEEEEEC2Ev
	addi	a0, s1, 16
	call	_ZN9__gnu_cxx17__normal_iteratorIPN8nlohmann10basic_jsonISt3mapSt6vectorNSt7__cxx1112basic_stringIcSt11char_traitsIcESaIcEEEblmdSaNS1_14adl_serializerEEES4_ISC_SaISC_EEEC2Ev
	addi	a0, s1, 24
	sd	zero, 24(s1)
	call	_ZN8nlohmann6detail20primitive_iterator_tC2Ev
	ld	a0, 0(s1)
	beqz	a0, .LBB105_2
	j	.LBB105_1
.LBB105_1:                              # %cond.true
	j	.LBB105_4
.LBB105_2:                              # %cond.false
.Ltmp144:
	lui	a0, %hi(.L.str.12)
	addi	a0, a0, %lo(.L.str.12)
	lui	a1, %hi(.L__PRETTY_FUNCTION__._ZN8nlohmann6detail9iter_implIKNS_10basic_jsonISt3mapSt6vectorNSt7__cxx1112basic_stringIcSt11char_traitsIcESaIcEEEblmdSaNS_14adl_serializerEEEEC2EPSD_)
	addi	a2, a1, %lo(.L__PRETTY_FUNCTION__._ZN8nlohmann6detail9iter_implIKNS_10basic_jsonISt3mapSt6vectorNSt7__cxx1112basic_stringIcSt11char_traitsIcESaIcEEEblmdSaNS_14adl_serializerEEEEC2EPSD_)
	lui	a1, %hi(.L.str.13)
	addi	a3, a1, %lo(.L.str.13)
	lui	a1, 2
	addiw	a1, a1, 1090
	call	__assert_func
.Ltmp145:
	j	.LBB105_3
.LBB105_3:                              # %invoke.cont
.LBB105_4:                              # %cond.end
	ld	a0, 0(s1)
	lbu	a0, 0(a0)
	addi	a1, zero, 1
	beq	a0, a1, .LBB105_6
	j	.LBB105_5
.LBB105_5:                              # %cond.end
	andi	a0, a0, 255
	addi	a1, zero, 2
	beq	a0, a1, .LBB105_7
	j	.LBB105_8
.LBB105_6:                              # %sw.bb
	addi	a0, s0, -48
	call	_ZNSt17_Rb_tree_iteratorISt4pairIKNSt7__cxx1112basic_stringIcSt11char_traitsIcESaIcEEEN8nlohmann10basic_jsonISt3mapSt6vectorS6_blmdSaNS8_14adl_serializerEEEEEC2Ev
	ld	a0, -48(s0)
	sd	a0, 8(s1)
	j	.LBB105_9
.LBB105_7:                              # %sw.bb6
	addi	a0, s0, -56
	call	_ZN9__gnu_cxx17__normal_iteratorIPN8nlohmann10basic_jsonISt3mapSt6vectorNSt7__cxx1112basic_stringIcSt11char_traitsIcESaIcEEEblmdSaNS1_14adl_serializerEEES4_ISC_SaISC_EEEC2Ev
	ld	a0, -56(s0)
	sd	a0, 16(s1)
	j	.LBB105_9
.LBB105_8:                              # %sw.default
	sd	zero, -64(s0)
	addi	a0, s0, -64
	call	_ZN8nlohmann6detail20primitive_iterator_tC2Ev
	ld	a0, -64(s0)
	sd	a0, 24(s1)
	j	.LBB105_9
.LBB105_9:                              # %sw.epilog
	ld	s1, 40(sp)
	ld	s0, 48(sp)
	.cfi_def_cfa sp, 64
	ld	ra, 56(sp)
	.cfi_restore ra
	.cfi_restore s0
	.cfi_restore s1
	addi	sp, sp, 64
	.cfi_def_cfa_offset 0
	ret
.LBB105_10:                             # %terminate.lpad
.Ltmp146:
	call	__clang_call_terminate
.Lfunc_end105:
	.size	_ZN8nlohmann6detail9iter_implIKNS_10basic_jsonISt3mapSt6vectorNSt7__cxx1112basic_stringIcSt11char_traitsIcESaIcEEEblmdSaNS_14adl_serializerEEEEC2EPSD_, .Lfunc_end105-_ZN8nlohmann6detail9iter_implIKNS_10basic_jsonISt3mapSt6vectorNSt7__cxx1112basic_stringIcSt11char_traitsIcESaIcEEEblmdSaNS_14adl_serializerEEEEC2EPSD_
	.cfi_endproc
	.section	.gcc_except_table,"a",@progbits
	.p2align	2
GCC_except_table105:
.Lexception14:
	.byte	255                     # @LPStart Encoding = omit
	.byte	155                     # @TType Encoding = indirect pcrel sdata4
	.uleb128 .Lttbase8-.Lttbaseref8
.Lttbaseref8:
	.byte	3                       # Call site Encoding = udata4
	.uleb128 .Lcst_end14-.Lcst_begin14
.Lcst_begin14:
	.word	.Ltmp144-.Lfunc_begin14 # >> Call Site 1 <<
	.word	.Ltmp145-.Ltmp144       #   Call between .Ltmp144 and .Ltmp145
	.word	.Ltmp146-.Lfunc_begin14 #     jumps to .Ltmp146
	.byte	1                       #   On action: 1
.Lcst_end14:
	.byte	1                       # >> Action Record 1 <<
                                        #   Catch TypeInfo 1
	.byte	0                       #   No further actions
	.p2align	2
                                        # >> Catch TypeInfos <<
	.word	0                       # TypeInfo 1
.Lttbase8:
	.p2align	2
                                        # -- End function
	.section	.text._ZN8nlohmann6detail9iter_implIKNS_10basic_jsonISt3mapSt6vectorNSt7__cxx1112basic_stringIcSt11char_traitsIcESaIcEEEblmdSaNS_14adl_serializerEEEE7set_endEv,"axG",@progbits,_ZN8nlohmann6detail9iter_implIKNS_10basic_jsonISt3mapSt6vectorNSt7__cxx1112basic_stringIcSt11char_traitsIcESaIcEEEblmdSaNS_14adl_serializerEEEE7set_endEv,comdat
	.weak	_ZN8nlohmann6detail9iter_implIKNS_10basic_jsonISt3mapSt6vectorNSt7__cxx1112basic_stringIcSt11char_traitsIcESaIcEEEblmdSaNS_14adl_serializerEEEE7set_endEv # -- Begin function _ZN8nlohmann6detail9iter_implIKNS_10basic_jsonISt3mapSt6vectorNSt7__cxx1112basic_stringIcSt11char_traitsIcESaIcEEEblmdSaNS_14adl_serializerEEEE7set_endEv
	.p2align	2
	.type	_ZN8nlohmann6detail9iter_implIKNS_10basic_jsonISt3mapSt6vectorNSt7__cxx1112basic_stringIcSt11char_traitsIcESaIcEEEblmdSaNS_14adl_serializerEEEE7set_endEv,@function
_ZN8nlohmann6detail9iter_implIKNS_10basic_jsonISt3mapSt6vectorNSt7__cxx1112basic_stringIcSt11char_traitsIcESaIcEEEblmdSaNS_14adl_serializerEEEE7set_endEv: # @_ZN8nlohmann6detail9iter_implIKNS_10basic_jsonISt3mapSt6vectorNSt7__cxx1112basic_stringIcSt11char_traitsIcESaIcEEEblmdSaNS_14adl_serializerEEEE7set_endEv
.Lfunc_begin15:
	.cfi_startproc
	.cfi_personality 155, DW.ref.__gxx_personality_v0
	.cfi_lsda 27, .Lexception15
# %bb.0:                                # %entry
	addi	sp, sp, -48
	.cfi_def_cfa_offset 48
	sd	ra, 40(sp)
	sd	s0, 32(sp)
	sd	s1, 24(sp)
	.cfi_offset ra, -8
	.cfi_offset s0, -16
	.cfi_offset s1, -24
	addi	s0, sp, 48
	.cfi_def_cfa s0, 0
	sd	a0, -32(s0)
	ld	s1, -32(s0)
	ld	a0, 0(s1)
	beqz	a0, .LBB106_2
	j	.LBB106_1
.LBB106_1:                              # %cond.true
	j	.LBB106_4
.LBB106_2:                              # %cond.false
.Ltmp147:
	lui	a0, %hi(.L.str.12)
	addi	a0, a0, %lo(.L.str.12)
	lui	a1, %hi(.L__PRETTY_FUNCTION__._ZN8nlohmann6detail9iter_implIKNS_10basic_jsonISt3mapSt6vectorNSt7__cxx1112basic_stringIcSt11char_traitsIcESaIcEEEblmdSaNS_14adl_serializerEEEE7set_endEv)
	addi	a2, a1, %lo(.L__PRETTY_FUNCTION__._ZN8nlohmann6detail9iter_implIKNS_10basic_jsonISt3mapSt6vectorNSt7__cxx1112basic_stringIcSt11char_traitsIcESaIcEEEblmdSaNS_14adl_serializerEEEE7set_endEv)
	lui	a1, %hi(.L.str.13)
	addi	a3, a1, %lo(.L.str.13)
	lui	a1, 2
	addiw	a1, a1, 1213
	call	__assert_func
.Ltmp148:
	j	.LBB106_3
.LBB106_3:                              # %invoke.cont
.LBB106_4:                              # %cond.end
	ld	a0, 0(s1)
	lbu	a0, 0(a0)
	addi	a1, zero, 1
	beq	a0, a1, .LBB106_6
	j	.LBB106_5
.LBB106_5:                              # %cond.end
	andi	a0, a0, 255
	addi	a1, zero, 2
	beq	a0, a1, .LBB106_7
	j	.LBB106_8
.LBB106_6:                              # %sw.bb
	ld	a0, 0(s1)
	ld	a0, 8(a0)
	call	_ZNSt3mapINSt7__cxx1112basic_stringIcSt11char_traitsIcESaIcEEEN8nlohmann10basic_jsonIS_St6vectorS5_blmdSaNS6_14adl_serializerEEESt4lessIvESaISt4pairIKS5_SA_EEE3endEv
	sd	a0, -40(s0)
	ld	a0, -40(s0)
	sd	a0, 8(s1)
	j	.LBB106_9
.LBB106_7:                              # %sw.bb4
	ld	a0, 0(s1)
	ld	a0, 8(a0)
	call	_ZNSt6vectorIN8nlohmann10basic_jsonISt3mapS_NSt7__cxx1112basic_stringIcSt11char_traitsIcESaIcEEEblmdSaNS0_14adl_serializerEEESaISA_EE3endEv
	sd	a0, -48(s0)
	ld	a0, -48(s0)
	sd	a0, 16(s1)
	j	.LBB106_9
.LBB106_8:                              # %sw.default
	addi	a0, s1, 24
	call	_ZN8nlohmann6detail20primitive_iterator_t7set_endEv
	j	.LBB106_9
.LBB106_9:                              # %sw.epilog
	ld	s1, 24(sp)
	ld	s0, 32(sp)
	.cfi_def_cfa sp, 48
	ld	ra, 40(sp)
	.cfi_restore ra
	.cfi_restore s0
	.cfi_restore s1
	addi	sp, sp, 48
	.cfi_def_cfa_offset 0
	ret
.LBB106_10:                             # %terminate.lpad
.Ltmp149:
	call	__clang_call_terminate
.Lfunc_end106:
	.size	_ZN8nlohmann6detail9iter_implIKNS_10basic_jsonISt3mapSt6vectorNSt7__cxx1112basic_stringIcSt11char_traitsIcESaIcEEEblmdSaNS_14adl_serializerEEEE7set_endEv, .Lfunc_end106-_ZN8nlohmann6detail9iter_implIKNS_10basic_jsonISt3mapSt6vectorNSt7__cxx1112basic_stringIcSt11char_traitsIcESaIcEEEblmdSaNS_14adl_serializerEEEE7set_endEv
	.cfi_endproc
	.section	.gcc_except_table,"a",@progbits
	.p2align	2
GCC_except_table106:
.Lexception15:
	.byte	255                     # @LPStart Encoding = omit
	.byte	155                     # @TType Encoding = indirect pcrel sdata4
	.uleb128 .Lttbase9-.Lttbaseref9
.Lttbaseref9:
	.byte	3                       # Call site Encoding = udata4
	.uleb128 .Lcst_end15-.Lcst_begin15
.Lcst_begin15:
	.word	.Ltmp147-.Lfunc_begin15 # >> Call Site 1 <<
	.word	.Ltmp148-.Ltmp147       #   Call between .Ltmp147 and .Ltmp148
	.word	.Ltmp149-.Lfunc_begin15 #     jumps to .Ltmp149
	.byte	1                       #   On action: 1
.Lcst_end15:
	.byte	1                       # >> Action Record 1 <<
                                        #   Catch TypeInfo 1
	.byte	0                       #   No further actions
	.p2align	2
                                        # >> Catch TypeInfos <<
	.word	0                       # TypeInfo 1
.Lttbase9:
	.p2align	2
                                        # -- End function
	.section	.text._ZNSt17_Rb_tree_iteratorISt4pairIKNSt7__cxx1112basic_stringIcSt11char_traitsIcESaIcEEEN8nlohmann10basic_jsonISt3mapSt6vectorS6_blmdSaNS8_14adl_serializerEEEEEC2Ev,"axG",@progbits,_ZNSt17_Rb_tree_iteratorISt4pairIKNSt7__cxx1112basic_stringIcSt11char_traitsIcESaIcEEEN8nlohmann10basic_jsonISt3mapSt6vectorS6_blmdSaNS8_14adl_serializerEEEEEC2Ev,comdat
	.weak	_ZNSt17_Rb_tree_iteratorISt4pairIKNSt7__cxx1112basic_stringIcSt11char_traitsIcESaIcEEEN8nlohmann10basic_jsonISt3mapSt6vectorS6_blmdSaNS8_14adl_serializerEEEEEC2Ev # -- Begin function _ZNSt17_Rb_tree_iteratorISt4pairIKNSt7__cxx1112basic_stringIcSt11char_traitsIcESaIcEEEN8nlohmann10basic_jsonISt3mapSt6vectorS6_blmdSaNS8_14adl_serializerEEEEEC2Ev
	.p2align	2
	.type	_ZNSt17_Rb_tree_iteratorISt4pairIKNSt7__cxx1112basic_stringIcSt11char_traitsIcESaIcEEEN8nlohmann10basic_jsonISt3mapSt6vectorS6_blmdSaNS8_14adl_serializerEEEEEC2Ev,@function
_ZNSt17_Rb_tree_iteratorISt4pairIKNSt7__cxx1112basic_stringIcSt11char_traitsIcESaIcEEEN8nlohmann10basic_jsonISt3mapSt6vectorS6_blmdSaNS8_14adl_serializerEEEEEC2Ev: # @_ZNSt17_Rb_tree_iteratorISt4pairIKNSt7__cxx1112basic_stringIcSt11char_traitsIcESaIcEEEN8nlohmann10basic_jsonISt3mapSt6vectorS6_blmdSaNS8_14adl_serializerEEEEEC2Ev
# %bb.0:                                # %entry
	addi	sp, sp, -32
	sd	ra, 24(sp)
	sd	s0, 16(sp)
	addi	s0, sp, 32
	sd	a0, -24(s0)
	ld	a0, -24(s0)
	sd	zero, 0(a0)
	ld	s0, 16(sp)
	ld	ra, 24(sp)
	addi	sp, sp, 32
	ret
.Lfunc_end107:
	.size	_ZNSt17_Rb_tree_iteratorISt4pairIKNSt7__cxx1112basic_stringIcSt11char_traitsIcESaIcEEEN8nlohmann10basic_jsonISt3mapSt6vectorS6_blmdSaNS8_14adl_serializerEEEEEC2Ev, .Lfunc_end107-_ZNSt17_Rb_tree_iteratorISt4pairIKNSt7__cxx1112basic_stringIcSt11char_traitsIcESaIcEEEN8nlohmann10basic_jsonISt3mapSt6vectorS6_blmdSaNS8_14adl_serializerEEEEEC2Ev
                                        # -- End function
	.section	.text._ZN9__gnu_cxx17__normal_iteratorIPN8nlohmann10basic_jsonISt3mapSt6vectorNSt7__cxx1112basic_stringIcSt11char_traitsIcESaIcEEEblmdSaNS1_14adl_serializerEEES4_ISC_SaISC_EEEC2Ev,"axG",@progbits,_ZN9__gnu_cxx17__normal_iteratorIPN8nlohmann10basic_jsonISt3mapSt6vectorNSt7__cxx1112basic_stringIcSt11char_traitsIcESaIcEEEblmdSaNS1_14adl_serializerEEES4_ISC_SaISC_EEEC2Ev,comdat
	.weak	_ZN9__gnu_cxx17__normal_iteratorIPN8nlohmann10basic_jsonISt3mapSt6vectorNSt7__cxx1112basic_stringIcSt11char_traitsIcESaIcEEEblmdSaNS1_14adl_serializerEEES4_ISC_SaISC_EEEC2Ev # -- Begin function _ZN9__gnu_cxx17__normal_iteratorIPN8nlohmann10basic_jsonISt3mapSt6vectorNSt7__cxx1112basic_stringIcSt11char_traitsIcESaIcEEEblmdSaNS1_14adl_serializerEEES4_ISC_SaISC_EEEC2Ev
	.p2align	2
	.type	_ZN9__gnu_cxx17__normal_iteratorIPN8nlohmann10basic_jsonISt3mapSt6vectorNSt7__cxx1112basic_stringIcSt11char_traitsIcESaIcEEEblmdSaNS1_14adl_serializerEEES4_ISC_SaISC_EEEC2Ev,@function
_ZN9__gnu_cxx17__normal_iteratorIPN8nlohmann10basic_jsonISt3mapSt6vectorNSt7__cxx1112basic_stringIcSt11char_traitsIcESaIcEEEblmdSaNS1_14adl_serializerEEES4_ISC_SaISC_EEEC2Ev: # @_ZN9__gnu_cxx17__normal_iteratorIPN8nlohmann10basic_jsonISt3mapSt6vectorNSt7__cxx1112basic_stringIcSt11char_traitsIcESaIcEEEblmdSaNS1_14adl_serializerEEES4_ISC_SaISC_EEEC2Ev
# %bb.0:                                # %entry
	addi	sp, sp, -32
	sd	ra, 24(sp)
	sd	s0, 16(sp)
	addi	s0, sp, 32
	sd	a0, -24(s0)
	ld	a0, -24(s0)
	sd	zero, 0(a0)
	ld	s0, 16(sp)
	ld	ra, 24(sp)
	addi	sp, sp, 32
	ret
.Lfunc_end108:
	.size	_ZN9__gnu_cxx17__normal_iteratorIPN8nlohmann10basic_jsonISt3mapSt6vectorNSt7__cxx1112basic_stringIcSt11char_traitsIcESaIcEEEblmdSaNS1_14adl_serializerEEES4_ISC_SaISC_EEEC2Ev, .Lfunc_end108-_ZN9__gnu_cxx17__normal_iteratorIPN8nlohmann10basic_jsonISt3mapSt6vectorNSt7__cxx1112basic_stringIcSt11char_traitsIcESaIcEEEblmdSaNS1_14adl_serializerEEES4_ISC_SaISC_EEEC2Ev
                                        # -- End function
	.section	.text._ZN8nlohmann6detail20primitive_iterator_tC2Ev,"axG",@progbits,_ZN8nlohmann6detail20primitive_iterator_tC2Ev,comdat
	.weak	_ZN8nlohmann6detail20primitive_iterator_tC2Ev # -- Begin function _ZN8nlohmann6detail20primitive_iterator_tC2Ev
	.p2align	2
	.type	_ZN8nlohmann6detail20primitive_iterator_tC2Ev,@function
_ZN8nlohmann6detail20primitive_iterator_tC2Ev: # @_ZN8nlohmann6detail20primitive_iterator_tC2Ev
# %bb.0:                                # %entry
	addi	sp, sp, -32
	sd	ra, 24(sp)
	sd	s0, 16(sp)
	sd	s1, 8(sp)
	addi	s0, sp, 32
	sd	a0, -32(s0)
	ld	s1, -32(s0)
	call	_ZNSt14numeric_limitsIlE3minEv
	sd	a0, 0(s1)
	ld	s1, 8(sp)
	ld	s0, 16(sp)
	ld	ra, 24(sp)
	addi	sp, sp, 32
	ret
.Lfunc_end109:
	.size	_ZN8nlohmann6detail20primitive_iterator_tC2Ev, .Lfunc_end109-_ZN8nlohmann6detail20primitive_iterator_tC2Ev
                                        # -- End function
	.section	.text._ZNSt14numeric_limitsIlE3minEv,"axG",@progbits,_ZNSt14numeric_limitsIlE3minEv,comdat
	.weak	_ZNSt14numeric_limitsIlE3minEv # -- Begin function _ZNSt14numeric_limitsIlE3minEv
	.p2align	2
	.type	_ZNSt14numeric_limitsIlE3minEv,@function
_ZNSt14numeric_limitsIlE3minEv:         # @_ZNSt14numeric_limitsIlE3minEv
# %bb.0:                                # %entry
	addi	sp, sp, -16
	sd	ra, 8(sp)
	sd	s0, 0(sp)
	addi	s0, sp, 16
	addi	a0, zero, -1
	slli	a0, a0, 63
	ld	s0, 0(sp)
	ld	ra, 8(sp)
	addi	sp, sp, 16
	ret
.Lfunc_end110:
	.size	_ZNSt14numeric_limitsIlE3minEv, .Lfunc_end110-_ZNSt14numeric_limitsIlE3minEv
                                        # -- End function
	.section	.text._ZNSt3mapINSt7__cxx1112basic_stringIcSt11char_traitsIcESaIcEEEN8nlohmann10basic_jsonIS_St6vectorS5_blmdSaNS6_14adl_serializerEEESt4lessIvESaISt4pairIKS5_SA_EEE3endEv,"axG",@progbits,_ZNSt3mapINSt7__cxx1112basic_stringIcSt11char_traitsIcESaIcEEEN8nlohmann10basic_jsonIS_St6vectorS5_blmdSaNS6_14adl_serializerEEESt4lessIvESaISt4pairIKS5_SA_EEE3endEv,comdat
	.weak	_ZNSt3mapINSt7__cxx1112basic_stringIcSt11char_traitsIcESaIcEEEN8nlohmann10basic_jsonIS_St6vectorS5_blmdSaNS6_14adl_serializerEEESt4lessIvESaISt4pairIKS5_SA_EEE3endEv # -- Begin function _ZNSt3mapINSt7__cxx1112basic_stringIcSt11char_traitsIcESaIcEEEN8nlohmann10basic_jsonIS_St6vectorS5_blmdSaNS6_14adl_serializerEEESt4lessIvESaISt4pairIKS5_SA_EEE3endEv
	.p2align	2
	.type	_ZNSt3mapINSt7__cxx1112basic_stringIcSt11char_traitsIcESaIcEEEN8nlohmann10basic_jsonIS_St6vectorS5_blmdSaNS6_14adl_serializerEEESt4lessIvESaISt4pairIKS5_SA_EEE3endEv,@function
_ZNSt3mapINSt7__cxx1112basic_stringIcSt11char_traitsIcESaIcEEEN8nlohmann10basic_jsonIS_St6vectorS5_blmdSaNS6_14adl_serializerEEESt4lessIvESaISt4pairIKS5_SA_EEE3endEv: # @_ZNSt3mapINSt7__cxx1112basic_stringIcSt11char_traitsIcESaIcEEEN8nlohmann10basic_jsonIS_St6vectorS5_blmdSaNS6_14adl_serializerEEESt4lessIvESaISt4pairIKS5_SA_EEE3endEv
# %bb.0:                                # %entry
	addi	sp, sp, -32
	sd	ra, 24(sp)
	sd	s0, 16(sp)
	addi	s0, sp, 32
	sd	a0, -32(s0)
	ld	a0, -32(s0)
	call	_ZNSt8_Rb_treeINSt7__cxx1112basic_stringIcSt11char_traitsIcESaIcEEESt4pairIKS5_N8nlohmann10basic_jsonISt3mapSt6vectorS5_blmdSaNS8_14adl_serializerEEEESt10_Select1stISE_ESt4lessIvESaISE_EE3endEv
	sd	a0, -24(s0)
	ld	a0, -24(s0)
	ld	s0, 16(sp)
	ld	ra, 24(sp)
	addi	sp, sp, 32
	ret
.Lfunc_end111:
	.size	_ZNSt3mapINSt7__cxx1112basic_stringIcSt11char_traitsIcESaIcEEEN8nlohmann10basic_jsonIS_St6vectorS5_blmdSaNS6_14adl_serializerEEESt4lessIvESaISt4pairIKS5_SA_EEE3endEv, .Lfunc_end111-_ZNSt3mapINSt7__cxx1112basic_stringIcSt11char_traitsIcESaIcEEEN8nlohmann10basic_jsonIS_St6vectorS5_blmdSaNS6_14adl_serializerEEESt4lessIvESaISt4pairIKS5_SA_EEE3endEv
                                        # -- End function
	.section	.text._ZNSt6vectorIN8nlohmann10basic_jsonISt3mapS_NSt7__cxx1112basic_stringIcSt11char_traitsIcESaIcEEEblmdSaNS0_14adl_serializerEEESaISA_EE3endEv,"axG",@progbits,_ZNSt6vectorIN8nlohmann10basic_jsonISt3mapS_NSt7__cxx1112basic_stringIcSt11char_traitsIcESaIcEEEblmdSaNS0_14adl_serializerEEESaISA_EE3endEv,comdat
	.weak	_ZNSt6vectorIN8nlohmann10basic_jsonISt3mapS_NSt7__cxx1112basic_stringIcSt11char_traitsIcESaIcEEEblmdSaNS0_14adl_serializerEEESaISA_EE3endEv # -- Begin function _ZNSt6vectorIN8nlohmann10basic_jsonISt3mapS_NSt7__cxx1112basic_stringIcSt11char_traitsIcESaIcEEEblmdSaNS0_14adl_serializerEEESaISA_EE3endEv
	.p2align	2
	.type	_ZNSt6vectorIN8nlohmann10basic_jsonISt3mapS_NSt7__cxx1112basic_stringIcSt11char_traitsIcESaIcEEEblmdSaNS0_14adl_serializerEEESaISA_EE3endEv,@function
_ZNSt6vectorIN8nlohmann10basic_jsonISt3mapS_NSt7__cxx1112basic_stringIcSt11char_traitsIcESaIcEEEblmdSaNS0_14adl_serializerEEESaISA_EE3endEv: # @_ZNSt6vectorIN8nlohmann10basic_jsonISt3mapS_NSt7__cxx1112basic_stringIcSt11char_traitsIcESaIcEEEblmdSaNS0_14adl_serializerEEESaISA_EE3endEv
# %bb.0:                                # %entry
	addi	sp, sp, -32
	sd	ra, 24(sp)
	sd	s0, 16(sp)
	addi	s0, sp, 32
	sd	a0, -32(s0)
	ld	a0, -32(s0)
	addi	a1, a0, 8
	addi	a0, s0, -24
	call	_ZN9__gnu_cxx17__normal_iteratorIPN8nlohmann10basic_jsonISt3mapSt6vectorNSt7__cxx1112basic_stringIcSt11char_traitsIcESaIcEEEblmdSaNS1_14adl_serializerEEES4_ISC_SaISC_EEEC2ERKSD_
	ld	a0, -24(s0)
	ld	s0, 16(sp)
	ld	ra, 24(sp)
	addi	sp, sp, 32
	ret
.Lfunc_end112:
	.size	_ZNSt6vectorIN8nlohmann10basic_jsonISt3mapS_NSt7__cxx1112basic_stringIcSt11char_traitsIcESaIcEEEblmdSaNS0_14adl_serializerEEESaISA_EE3endEv, .Lfunc_end112-_ZNSt6vectorIN8nlohmann10basic_jsonISt3mapS_NSt7__cxx1112basic_stringIcSt11char_traitsIcESaIcEEEblmdSaNS0_14adl_serializerEEESaISA_EE3endEv
                                        # -- End function
	.section	.text._ZN8nlohmann6detail20primitive_iterator_t7set_endEv,"axG",@progbits,_ZN8nlohmann6detail20primitive_iterator_t7set_endEv,comdat
	.weak	_ZN8nlohmann6detail20primitive_iterator_t7set_endEv # -- Begin function _ZN8nlohmann6detail20primitive_iterator_t7set_endEv
	.p2align	2
	.type	_ZN8nlohmann6detail20primitive_iterator_t7set_endEv,@function
_ZN8nlohmann6detail20primitive_iterator_t7set_endEv: # @_ZN8nlohmann6detail20primitive_iterator_t7set_endEv
# %bb.0:                                # %entry
	addi	sp, sp, -32
	sd	ra, 24(sp)
	sd	s0, 16(sp)
	addi	s0, sp, 32
	sd	a0, -24(s0)
	ld	a0, -24(s0)
	addi	a1, zero, 1
	sd	a1, 0(a0)
	ld	s0, 16(sp)
	ld	ra, 24(sp)
	addi	sp, sp, 32
	ret
.Lfunc_end113:
	.size	_ZN8nlohmann6detail20primitive_iterator_t7set_endEv, .Lfunc_end113-_ZN8nlohmann6detail20primitive_iterator_t7set_endEv
                                        # -- End function
	.section	.text._ZNSt8_Rb_treeINSt7__cxx1112basic_stringIcSt11char_traitsIcESaIcEEESt4pairIKS5_N8nlohmann10basic_jsonISt3mapSt6vectorS5_blmdSaNS8_14adl_serializerEEEESt10_Select1stISE_ESt4lessIvESaISE_EE3endEv,"axG",@progbits,_ZNSt8_Rb_treeINSt7__cxx1112basic_stringIcSt11char_traitsIcESaIcEEESt4pairIKS5_N8nlohmann10basic_jsonISt3mapSt6vectorS5_blmdSaNS8_14adl_serializerEEEESt10_Select1stISE_ESt4lessIvESaISE_EE3endEv,comdat
	.weak	_ZNSt8_Rb_treeINSt7__cxx1112basic_stringIcSt11char_traitsIcESaIcEEESt4pairIKS5_N8nlohmann10basic_jsonISt3mapSt6vectorS5_blmdSaNS8_14adl_serializerEEEESt10_Select1stISE_ESt4lessIvESaISE_EE3endEv # -- Begin function _ZNSt8_Rb_treeINSt7__cxx1112basic_stringIcSt11char_traitsIcESaIcEEESt4pairIKS5_N8nlohmann10basic_jsonISt3mapSt6vectorS5_blmdSaNS8_14adl_serializerEEEESt10_Select1stISE_ESt4lessIvESaISE_EE3endEv
	.p2align	2
	.type	_ZNSt8_Rb_treeINSt7__cxx1112basic_stringIcSt11char_traitsIcESaIcEEESt4pairIKS5_N8nlohmann10basic_jsonISt3mapSt6vectorS5_blmdSaNS8_14adl_serializerEEEESt10_Select1stISE_ESt4lessIvESaISE_EE3endEv,@function
_ZNSt8_Rb_treeINSt7__cxx1112basic_stringIcSt11char_traitsIcESaIcEEESt4pairIKS5_N8nlohmann10basic_jsonISt3mapSt6vectorS5_blmdSaNS8_14adl_serializerEEEESt10_Select1stISE_ESt4lessIvESaISE_EE3endEv: # @_ZNSt8_Rb_treeINSt7__cxx1112basic_stringIcSt11char_traitsIcESaIcEEESt4pairIKS5_N8nlohmann10basic_jsonISt3mapSt6vectorS5_blmdSaNS8_14adl_serializerEEEESt10_Select1stISE_ESt4lessIvESaISE_EE3endEv
# %bb.0:                                # %entry
	addi	sp, sp, -32
	sd	ra, 24(sp)
	sd	s0, 16(sp)
	addi	s0, sp, 32
	sd	a0, -32(s0)
	ld	a0, -32(s0)
	addi	a1, a0, 8
	addi	a0, s0, -24
	call	_ZNSt17_Rb_tree_iteratorISt4pairIKNSt7__cxx1112basic_stringIcSt11char_traitsIcESaIcEEEN8nlohmann10basic_jsonISt3mapSt6vectorS6_blmdSaNS8_14adl_serializerEEEEEC2EPSt18_Rb_tree_node_base
	ld	a0, -24(s0)
	ld	s0, 16(sp)
	ld	ra, 24(sp)
	addi	sp, sp, 32
	ret
.Lfunc_end114:
	.size	_ZNSt8_Rb_treeINSt7__cxx1112basic_stringIcSt11char_traitsIcESaIcEEESt4pairIKS5_N8nlohmann10basic_jsonISt3mapSt6vectorS5_blmdSaNS8_14adl_serializerEEEESt10_Select1stISE_ESt4lessIvESaISE_EE3endEv, .Lfunc_end114-_ZNSt8_Rb_treeINSt7__cxx1112basic_stringIcSt11char_traitsIcESaIcEEESt4pairIKS5_N8nlohmann10basic_jsonISt3mapSt6vectorS5_blmdSaNS8_14adl_serializerEEEESt10_Select1stISE_ESt4lessIvESaISE_EE3endEv
                                        # -- End function
	.section	.text._ZNSt17_Rb_tree_iteratorISt4pairIKNSt7__cxx1112basic_stringIcSt11char_traitsIcESaIcEEEN8nlohmann10basic_jsonISt3mapSt6vectorS6_blmdSaNS8_14adl_serializerEEEEEC2EPSt18_Rb_tree_node_base,"axG",@progbits,_ZNSt17_Rb_tree_iteratorISt4pairIKNSt7__cxx1112basic_stringIcSt11char_traitsIcESaIcEEEN8nlohmann10basic_jsonISt3mapSt6vectorS6_blmdSaNS8_14adl_serializerEEEEEC2EPSt18_Rb_tree_node_base,comdat
