	.text
	.file	"material.cpp"
	.section	.sdata,"aw",@progbits
	.p2align	3               # -- Begin function _ZNK8Material17diffuseReflectionERKN3glm3vecILi3EdLNS0_9qualifierE0EEES5_Rd
.LCPI0_0:
	.quad	0                       # double 0
.LCPI0_1:
	.quad	4599405781057128579     # double 0.31830988618379069
	.text
	.globl	_ZNK8Material17diffuseReflectionERKN3glm3vecILi3EdLNS0_9qualifierE0EEES5_Rd
	.p2align	2
	.type	_ZNK8Material17diffuseReflectionERKN3glm3vecILi3EdLNS0_9qualifierE0EEES5_Rd,@function
_ZNK8Material17diffuseReflectionERKN3glm3vecILi3EdLNS0_9qualifierE0EEES5_Rd: # @_ZNK8Material17diffuseReflectionERKN3glm3vecILi3EdLNS0_9qualifierE0EEES5_Rd
	.cfi_startproc
# %bb.0:                                # %entry
	addi	sp, sp, -64
	.cfi_def_cfa_offset 64
	sd	ra, 56(sp)
	sd	s0, 48(sp)
	.cfi_offset ra, -8
	.cfi_offset s0, -16
	addi	s0, sp, 64
	.cfi_def_cfa s0, 0
	sd	a0, -24(s0)
	sd	a1, -32(s0)
	sd	a2, -40(s0)
	sd	a3, -48(s0)
	sd	a4, -56(s0)
	ld	a1, -32(s0)
	ld	a2, -40(s0)
	fld	ft0, 16(a2)
	lui	a2, %hi(.LCPI0_0)
	addi	a2, a2, %lo(.LCPI0_0)
	fld	ft1, 0(a2)
	flt.d	a2, ft0, ft1
	xori	a2, a2, 1
	bnez	a2, .LBB0_2
	j	.LBB0_1
.LBB0_1:                                # %if.then
	ld	a1, -56(s0)
	sd	zero, 0(a1)
	mv	a1, zero
	call	_ZN3glm3vecILi3EdLNS_9qualifierE0EEC2Ed
	j	.LBB0_6
.LBB0_2:                                # %if.end
	ld	a2, -40(s0)
	fld	ft0, 16(a2)
	lui	a2, %hi(.LCPI0_1)
	addi	a2, a2, %lo(.LCPI0_1)
	fld	ft1, 0(a2)
	fmul.d	ft0, ft0, ft1
	ld	a2, -56(s0)
	fsd	ft0, 0(a2)
	lbu	a2, 144(a1)
	andi	a2, a2, 1
	beqz	a2, .LBB0_4
	j	.LBB0_3
.LBB0_3:                                # %cond.true
	ld	a2, -40(s0)
	ld	a3, -48(s0)
	call	_ZNK8Material9OrenNayarERKN3glm3vecILi3EdLNS0_9qualifierE0EEES5_
	j	.LBB0_5
.LBB0_4:                                # %cond.false
	call	_ZNK8Material10lambertianEv
	j	.LBB0_5
.LBB0_5:                                # %cond.end
	j	.LBB0_6
.LBB0_6:                                # %return
	ld	s0, 48(sp)
	.cfi_def_cfa sp, 64
	ld	ra, 56(sp)
	.cfi_restore ra
	.cfi_restore s0
	addi	sp, sp, 64
	.cfi_def_cfa_offset 0
	ret
.Lfunc_end0:
	.size	_ZNK8Material17diffuseReflectionERKN3glm3vecILi3EdLNS0_9qualifierE0EEES5_Rd, .Lfunc_end0-_ZNK8Material17diffuseReflectionERKN3glm3vecILi3EdLNS0_9qualifierE0EEES5_Rd
	.cfi_endproc
                                        # -- End function
	.section	.text._ZN3glm3vecILi3EdLNS_9qualifierE0EEC2Ed,"axG",@progbits,_ZN3glm3vecILi3EdLNS_9qualifierE0EEC2Ed,comdat
	.weak	_ZN3glm3vecILi3EdLNS_9qualifierE0EEC2Ed # -- Begin function _ZN3glm3vecILi3EdLNS_9qualifierE0EEC2Ed
	.p2align	2
	.type	_ZN3glm3vecILi3EdLNS_9qualifierE0EEC2Ed,@function
_ZN3glm3vecILi3EdLNS_9qualifierE0EEC2Ed: # @_ZN3glm3vecILi3EdLNS_9qualifierE0EEC2Ed
# %bb.0:                                # %entry
	addi	sp, sp, -32
	sd	ra, 24(sp)
	sd	s0, 16(sp)
	addi	s0, sp, 32
	fmv.d.x	ft0, a1
	sd	a0, -24(s0)
	sd	a1, -32(s0)
	ld	a0, -24(s0)
	fld	ft0, -32(s0)
	fsd	ft0, 0(a0)
	fld	ft0, -32(s0)
	fsd	ft0, 8(a0)
	fld	ft0, -32(s0)
	fsd	ft0, 16(a0)
	ld	s0, 16(sp)
	ld	ra, 24(sp)
	addi	sp, sp, 32
	ret
.Lfunc_end1:
	.size	_ZN3glm3vecILi3EdLNS_9qualifierE0EEC2Ed, .Lfunc_end1-_ZN3glm3vecILi3EdLNS_9qualifierE0EEC2Ed
                                        # -- End function
	.section	.sdata,"aw",@progbits
	.p2align	3               # -- Begin function _ZNK8Material9OrenNayarERKN3glm3vecILi3EdLNS0_9qualifierE0EEES5_
.LCPI2_0:
	.quad	4607182418800017408     # double 1
	.text
	.globl	_ZNK8Material9OrenNayarERKN3glm3vecILi3EdLNS0_9qualifierE0EEES5_
	.p2align	2
	.type	_ZNK8Material9OrenNayarERKN3glm3vecILi3EdLNS0_9qualifierE0EEES5_,@function
_ZNK8Material9OrenNayarERKN3glm3vecILi3EdLNS0_9qualifierE0EEES5_: # @_ZNK8Material9OrenNayarERKN3glm3vecILi3EdLNS0_9qualifierE0EEES5_
	.cfi_startproc
# %bb.0:                                # %entry
	addi	sp, sp, -176
	.cfi_def_cfa_offset 176
	sd	ra, 168(sp)
	sd	s0, 160(sp)
	sd	s1, 152(sp)
	sd	s2, 144(sp)
	sd	s3, 136(sp)
	.cfi_offset ra, -8
	.cfi_offset s0, -16
	.cfi_offset s1, -24
	.cfi_offset s2, -32
	.cfi_offset s3, -40
	addi	s0, sp, 176
	.cfi_def_cfa s0, 0
	mv	s2, a0
	sd	s2, -48(s0)
	sd	a1, -56(s0)
	sd	a2, -64(s0)
	sd	a3, -72(s0)
	ld	s3, -56(s0)
	ld	a0, -64(s0)
	fld	ft0, 0(a0)
	ld	a1, -72(s0)
	fld	ft1, 0(a1)
	fmul.d	ft1, ft0, ft1
	fld	ft2, 8(a0)
	fld	ft3, 8(a1)
	fmul.d	ft2, ft2, ft3
	fadd.d	ft1, ft1, ft2
	fsd	ft1, -120(s0)
	fmv.x.d	a0, ft0
	call	_Z4pow2IdET_S0_
	fmv.d.x	ft0, a0
	fsd	ft0, -152(s0)
	ld	a0, -64(s0)
	ld	a0, 8(a0)
	call	_Z4pow2IdET_S0_
	fmv.d.x	ft0, a0
	fld	ft1, -152(s0)
	fadd.d	ft0, ft1, ft0
	fsd	ft0, -128(s0)
	ld	a0, -72(s0)
	ld	a0, 0(a0)
	call	_Z4pow2IdET_S0_
	fmv.d.x	ft0, a0
	fsd	ft0, -160(s0)
	ld	a0, -72(s0)
	ld	a0, 8(a0)
	call	_Z4pow2IdET_S0_
	fmv.d.x	ft0, a0
	fld	ft1, -160(s0)
	fadd.d	ft0, ft1, ft0
	fld	ft1, -128(s0)
	fmul.d	ft0, ft1, ft0
	fmv.x.d	a0, ft0
	call	sqrt
	fmv.d.x	ft0, a0
	fld	ft1, -120(s0)
	fdiv.d	ft0, ft1, ft0
	fmv.x.d	a0, ft0
	addi	a1, zero, 1023
	slli	a2, a1, 52
	mv	a1, zero
	call	_ZN3glm5clampIdEET_S1_S1_S1_
	sd	a0, -80(s0)
	ld	a0, -64(s0)
	ld	a0, 16(a0)
	call	_Z4pow2IdET_S0_
	fmv.d.x	ft0, a0
	lui	a0, %hi(.LCPI2_0)
	addi	a0, a0, %lo(.LCPI2_0)
	fld	ft1, 0(a0)
	fsd	ft1, -168(s0)
	fsub.d	ft0, ft1, ft0
	fsd	ft0, -144(s0)
	ld	a0, -72(s0)
	ld	a0, 16(a0)
	call	_Z4pow2IdET_S0_
	fmv.d.x	ft0, a0
	fld	ft1, -168(s0)
	fsub.d	ft0, ft1, ft0
	fld	ft1, -144(s0)
	fmul.d	ft0, ft1, ft0
	fmv.x.d	a0, ft0
	call	sqrt
	fmv.d.x	ft0, a0
	fsd	ft0, -136(s0)
	ld	a0, -64(s0)
	addi	a0, a0, 16
	ld	a1, -72(s0)
	addi	a1, a1, 16
	call	_ZSt3maxIdERKT_S2_S2_
	fld	ft0, 0(a0)
	fld	ft1, -136(s0)
	fdiv.d	ft0, ft1, ft0
	fsd	ft0, -88(s0)
	addi	s1, s0, -112
	mv	a0, s1
	mv	a1, s3
	call	_ZNK8Material10lambertianEv
	fld	ft0, 152(s3)
	fld	ft1, 160(s3)
	fld	ft2, -80(s0)
	fmul.d	ft1, ft1, ft2
	fld	ft2, -88(s0)
	fmul.d	ft1, ft1, ft2
	fadd.d	ft0, ft0, ft1
	fmv.x.d	a2, ft0
	mv	a0, s2
	mv	a1, s1
	call	_ZN3glmmlIdLNS_9qualifierE0EEENS_3vecILi3ET_XT0_EEERKS4_S3_
	ld	s3, 136(sp)
	ld	s2, 144(sp)
	ld	s1, 152(sp)
	ld	s0, 160(sp)
	.cfi_def_cfa sp, 176
	ld	ra, 168(sp)
	.cfi_restore ra
	.cfi_restore s0
	.cfi_restore s1
	.cfi_restore s2
	.cfi_restore s3
	addi	sp, sp, 176
	.cfi_def_cfa_offset 0
	ret
.Lfunc_end2:
	.size	_ZNK8Material9OrenNayarERKN3glm3vecILi3EdLNS0_9qualifierE0EEES5_, .Lfunc_end2-_ZNK8Material9OrenNayarERKN3glm3vecILi3EdLNS0_9qualifierE0EEES5_
	.cfi_endproc
                                        # -- End function
	.globl	_ZNK8Material10lambertianEv # -- Begin function _ZNK8Material10lambertianEv
	.p2align	2
	.type	_ZNK8Material10lambertianEv,@function
_ZNK8Material10lambertianEv:            # @_ZNK8Material10lambertianEv
	.cfi_startproc
# %bb.0:                                # %entry
	addi	sp, sp, -32
	.cfi_def_cfa_offset 32
	sd	ra, 24(sp)
	sd	s0, 16(sp)
	.cfi_offset ra, -8
	.cfi_offset s0, -16
	addi	s0, sp, 32
	.cfi_def_cfa s0, 0
	sd	a0, -24(s0)
	sd	a1, -32(s0)
	ld	a1, -32(s0)
	lui	a2, 4085
	addiw	a2, a2, 381
	slli	a2, a2, 13
	addi	a2, a2, -1993
	slli	a2, a2, 13
	addi	a2, a2, -867
	slli	a2, a2, 12
	addi	a2, a2, -1917
	call	_ZN3glmmlIdLNS_9qualifierE0EEENS_3vecILi3ET_XT0_EEERKS4_S3_
	ld	s0, 16(sp)
	.cfi_def_cfa sp, 32
	ld	ra, 24(sp)
	.cfi_restore ra
	.cfi_restore s0
	addi	sp, sp, 32
	.cfi_def_cfa_offset 0
	ret
.Lfunc_end3:
	.size	_ZNK8Material10lambertianEv, .Lfunc_end3-_ZNK8Material10lambertianEv
	.cfi_endproc
                                        # -- End function
	.section	.sdata,"aw",@progbits
	.p2align	3               # -- Begin function _ZNK8Material18specularReflectionERKN3glm3vecILi3EdLNS0_9qualifierE0EEES5_Rd
.LCPI4_0:
	.quad	0                       # double 0
	.text
	.globl	_ZNK8Material18specularReflectionERKN3glm3vecILi3EdLNS0_9qualifierE0EEES5_Rd
	.p2align	2
	.type	_ZNK8Material18specularReflectionERKN3glm3vecILi3EdLNS0_9qualifierE0EEES5_Rd,@function
_ZNK8Material18specularReflectionERKN3glm3vecILi3EdLNS0_9qualifierE0EEES5_Rd: # @_ZNK8Material18specularReflectionERKN3glm3vecILi3EdLNS0_9qualifierE0EEES5_Rd
	.cfi_startproc
# %bb.0:                                # %entry
	addi	sp, sp, -80
	.cfi_def_cfa_offset 80
	sd	ra, 72(sp)
	sd	s0, 64(sp)
	sd	s1, 56(sp)
	sd	s2, 48(sp)
	.cfi_offset ra, -8
	.cfi_offset s0, -16
	.cfi_offset s1, -24
	.cfi_offset s2, -32
	addi	s0, sp, 80
	.cfi_def_cfa s0, 0
	mv	s1, a0
	sd	s1, -40(s0)
	sd	a1, -48(s0)
	sd	a2, -56(s0)
	sd	a3, -64(s0)
	sd	a4, -72(s0)
	ld	a2, -48(s0)
	ld	a0, -56(s0)
	fld	ft0, 16(a0)
	lui	a0, %hi(.LCPI4_0)
	addi	a0, a0, %lo(.LCPI4_0)
	fld	ft1, 0(a0)
	flt.d	a0, ft0, ft1
	xori	a0, a0, 1
	bnez	a0, .LBB4_2
	j	.LBB4_1
.LBB4_1:                                # %if.then
	ld	a0, -72(s0)
	sd	zero, 0(a0)
	mv	a0, s1
	mv	a1, zero
	call	_ZN3glm3vecILi3EdLNS_9qualifierE0EEC2Ed
	j	.LBB4_5
.LBB4_2:                                # %if.end
	lbu	a0, 145(a2)
	andi	a0, a0, 1
	beqz	a0, .LBB4_4
	j	.LBB4_3
.LBB4_3:                                # %if.then2
	addi	s2, a2, 24
	ld	a0, -56(s0)
	ld	a1, -64(s0)
	addi	a2, a2, 168
	ld	a3, -72(s0)
	call	_ZN3GGX10reflectionERKN3glm3vecILi3EdLNS0_9qualifierE0EEES5_RKNS1_ILi2EdLS2_0EEERd
	mv	a2, a0
	mv	a0, s1
	mv	a1, s2
	call	_ZN3glmmlIdLNS_9qualifierE0EEENS_3vecILi3ET_XT0_EEERKS4_S3_
	j	.LBB4_5
.LBB4_4:                                # %if.else
	ld	a0, -72(s0)
	addi	a1, zero, 1023
	slli	a1, a1, 52
	sd	a1, 0(a0)
	addi	s2, a2, 24
	ld	a0, -56(s0)
	ld	a0, 16(a0)
	call	_ZSt3absd
	mv	a2, a0
	mv	a0, s1
	mv	a1, s2
	call	_ZN3glmdvIdLNS_9qualifierE0EEENS_3vecILi3ET_XT0_EEERKS4_S3_
	j	.LBB4_5
.LBB4_5:                                # %return
	ld	s2, 48(sp)
	ld	s1, 56(sp)
	ld	s0, 64(sp)
	.cfi_def_cfa sp, 80
	ld	ra, 72(sp)
	.cfi_restore ra
	.cfi_restore s0
	.cfi_restore s1
	.cfi_restore s2
	addi	sp, sp, 80
	.cfi_def_cfa_offset 0
	ret
.Lfunc_end4:
	.size	_ZNK8Material18specularReflectionERKN3glm3vecILi3EdLNS0_9qualifierE0EEES5_Rd, .Lfunc_end4-_ZNK8Material18specularReflectionERKN3glm3vecILi3EdLNS0_9qualifierE0EEES5_Rd
	.cfi_endproc
                                        # -- End function
	.section	.text._ZN3glmmlIdLNS_9qualifierE0EEENS_3vecILi3ET_XT0_EEERKS4_S3_,"axG",@progbits,_ZN3glmmlIdLNS_9qualifierE0EEENS_3vecILi3ET_XT0_EEERKS4_S3_,comdat
	.weak	_ZN3glmmlIdLNS_9qualifierE0EEENS_3vecILi3ET_XT0_EEERKS4_S3_ # -- Begin function _ZN3glmmlIdLNS_9qualifierE0EEENS_3vecILi3ET_XT0_EEERKS4_S3_
	.p2align	2
	.type	_ZN3glmmlIdLNS_9qualifierE0EEENS_3vecILi3ET_XT0_EEERKS4_S3_,@function
_ZN3glmmlIdLNS_9qualifierE0EEENS_3vecILi3ET_XT0_EEERKS4_S3_: # @_ZN3glmmlIdLNS_9qualifierE0EEENS_3vecILi3ET_XT0_EEERKS4_S3_
	.cfi_startproc
# %bb.0:                                # %entry
	addi	sp, sp, -48
	.cfi_def_cfa_offset 48
	sd	ra, 40(sp)
	sd	s0, 32(sp)
	.cfi_offset ra, -8
	.cfi_offset s0, -16
	addi	s0, sp, 48
	.cfi_def_cfa s0, 0
	fmv.d.x	ft0, a2
	sd	a0, -24(s0)
	sd	a1, -32(s0)
	sd	a2, -40(s0)
	ld	a1, -32(s0)
	fld	ft0, 0(a1)
	fld	ft1, -40(s0)
	fmul.d	ft0, ft0, ft1
	fld	ft2, 8(a1)
	fmul.d	ft2, ft2, ft1
	fld	ft3, 16(a1)
	fmul.d	ft1, ft3, ft1
	fmv.x.d	a1, ft0
	fmv.x.d	a2, ft2
	fmv.x.d	a3, ft1
	call	_ZN3glm3vecILi3EdLNS_9qualifierE0EEC2Eddd
	ld	s0, 32(sp)
	.cfi_def_cfa sp, 48
	ld	ra, 40(sp)
	.cfi_restore ra
	.cfi_restore s0
	addi	sp, sp, 48
	.cfi_def_cfa_offset 0
	ret
.Lfunc_end5:
	.size	_ZN3glmmlIdLNS_9qualifierE0EEENS_3vecILi3ET_XT0_EEERKS4_S3_, .Lfunc_end5-_ZN3glmmlIdLNS_9qualifierE0EEENS_3vecILi3ET_XT0_EEERKS4_S3_
	.cfi_endproc
                                        # -- End function
	.section	.text._ZN3glmdvIdLNS_9qualifierE0EEENS_3vecILi3ET_XT0_EEERKS4_S3_,"axG",@progbits,_ZN3glmdvIdLNS_9qualifierE0EEENS_3vecILi3ET_XT0_EEERKS4_S3_,comdat
	.weak	_ZN3glmdvIdLNS_9qualifierE0EEENS_3vecILi3ET_XT0_EEERKS4_S3_ # -- Begin function _ZN3glmdvIdLNS_9qualifierE0EEENS_3vecILi3ET_XT0_EEERKS4_S3_
	.p2align	2
	.type	_ZN3glmdvIdLNS_9qualifierE0EEENS_3vecILi3ET_XT0_EEERKS4_S3_,@function
_ZN3glmdvIdLNS_9qualifierE0EEENS_3vecILi3ET_XT0_EEERKS4_S3_: # @_ZN3glmdvIdLNS_9qualifierE0EEENS_3vecILi3ET_XT0_EEERKS4_S3_
	.cfi_startproc
# %bb.0:                                # %entry
	addi	sp, sp, -48
	.cfi_def_cfa_offset 48
	sd	ra, 40(sp)
	sd	s0, 32(sp)
	.cfi_offset ra, -8
	.cfi_offset s0, -16
	addi	s0, sp, 48
	.cfi_def_cfa s0, 0
	fmv.d.x	ft0, a2
	sd	a0, -24(s0)
	sd	a1, -32(s0)
	sd	a2, -40(s0)
	ld	a1, -32(s0)
	fld	ft0, 0(a1)
	fld	ft1, -40(s0)
	fdiv.d	ft0, ft0, ft1
	fld	ft2, 8(a1)
	fdiv.d	ft2, ft2, ft1
	fld	ft3, 16(a1)
	fdiv.d	ft1, ft3, ft1
	fmv.x.d	a1, ft0
	fmv.x.d	a2, ft2
	fmv.x.d	a3, ft1
	call	_ZN3glm3vecILi3EdLNS_9qualifierE0EEC2Eddd
	ld	s0, 32(sp)
	.cfi_def_cfa sp, 48
	ld	ra, 40(sp)
	.cfi_restore ra
	.cfi_restore s0
	addi	sp, sp, 48
	.cfi_def_cfa_offset 0
	ret
.Lfunc_end6:
	.size	_ZN3glmdvIdLNS_9qualifierE0EEENS_3vecILi3ET_XT0_EEERKS4_S3_, .Lfunc_end6-_ZN3glmdvIdLNS_9qualifierE0EEENS_3vecILi3ET_XT0_EEERKS4_S3_
	.cfi_endproc
                                        # -- End function
	.section	.text._ZSt3absd,"axG",@progbits,_ZSt3absd,comdat
	.weak	_ZSt3absd               # -- Begin function _ZSt3absd
	.p2align	2
	.type	_ZSt3absd,@function
_ZSt3absd:                              # @_ZSt3absd
# %bb.0:                                # %entry
	addi	sp, sp, -32
	sd	ra, 24(sp)
	sd	s0, 16(sp)
	addi	s0, sp, 32
	fmv.d.x	ft0, a0
	sd	a0, -24(s0)
	ld	a0, -24(s0)
	addi	a1, zero, -1
	slli	a1, a1, 63
	addi	a1, a1, -1
	and	a0, a0, a1
	ld	s0, 16(sp)
	ld	ra, 24(sp)
	addi	sp, sp, 32
	ret
.Lfunc_end7:
	.size	_ZSt3absd, .Lfunc_end7-_ZSt3absd
                                        # -- End function
	.section	.sdata,"aw",@progbits
	.p2align	3               # -- Begin function _ZNK8Material20specularTransmissionERKN3glm3vecILi3EdLNS0_9qualifierE0EEES5_ddRdbb
.LCPI8_0:
	.quad	0                       # double 0
	.text
	.globl	_ZNK8Material20specularTransmissionERKN3glm3vecILi3EdLNS0_9qualifierE0EEES5_ddRdbb
	.p2align	2
	.type	_ZNK8Material20specularTransmissionERKN3glm3vecILi3EdLNS0_9qualifierE0EEES5_ddRdbb,@function
_ZNK8Material20specularTransmissionERKN3glm3vecILi3EdLNS0_9qualifierE0EEES5_ddRdbb: # @_ZNK8Material20specularTransmissionERKN3glm3vecILi3EdLNS0_9qualifierE0EEES5_ddRdbb
	.cfi_startproc
# %bb.0:                                # %entry
	addi	sp, sp, -160
	.cfi_def_cfa_offset 160
	sd	ra, 152(sp)
	sd	s0, 144(sp)
	sd	s1, 136(sp)
	sd	s2, 128(sp)
	sd	s3, 120(sp)
	sd	s4, 112(sp)
	.cfi_offset ra, -8
	.cfi_offset s0, -16
	.cfi_offset s1, -24
	.cfi_offset s2, -32
	.cfi_offset s3, -40
	.cfi_offset s4, -48
	addi	s0, sp, 160
	.cfi_def_cfa s0, 0
	mv	s4, a0
	fmv.d.x	ft0, a5
	fmv.d.x	ft0, a4
	ld	a0, 0(s0)
	sd	s4, -56(s0)
	sd	a1, -64(s0)
	sd	a2, -72(s0)
	sd	a3, -80(s0)
	sd	a4, -88(s0)
	sd	a5, -96(s0)
	sd	a6, -104(s0)
	sb	a7, -105(s0)
	andi	a0, a0, 1
	sb	a0, -106(s0)
	ld	s1, -64(s0)
	ld	a0, -72(s0)
	fld	ft0, 16(a0)
	lui	a0, %hi(.LCPI8_0)
	addi	a0, a0, %lo(.LCPI8_0)
	fld	ft1, 0(a0)
	flt.d	a0, ft1, ft0
	xori	a0, a0, 1
	bnez	a0, .LBB8_2
	j	.LBB8_1
.LBB8_1:                                # %if.then
	ld	a0, -104(s0)
	sd	zero, 0(a0)
	mv	a0, s4
	mv	a1, zero
	call	_ZN3glm3vecILi3EdLNS_9qualifierE0EEC2Ed
	j	.LBB8_13
.LBB8_2:                                # %if.end
	lbu	a0, -105(s0)
	andi	a0, a0, 1
	bnez	a0, .LBB8_4
	j	.LBB8_3
.LBB8_3:                                # %cond.true
	ld	a0, 64(s1)
	sd	a0, -120(s0)
	ld	a0, 56(s1)
	sd	a0, -128(s0)
	ld	a0, 48(s1)
	sd	a0, -136(s0)
	j	.LBB8_5
.LBB8_4:                                # %cond.false
	addi	a0, zero, 1023
	slli	a1, a0, 52
	addi	a0, s0, -136
	call	_ZN3glm3vecILi3EdLNS_9qualifierE0EEC2Ed
	j	.LBB8_5
.LBB8_5:                                # %cond.end
	lbu	a0, 145(s1)
	andi	a0, a0, 1
	beqz	a0, .LBB8_9
	j	.LBB8_6
.LBB8_6:                                # %if.then4
	ld	a0, -72(s0)
	ld	a1, -80(s0)
	addi	a4, s1, 168
	ld	a5, -104(s0)
	ld	a3, -96(s0)
	ld	a2, -88(s0)
	call	_ZN3GGX12transmissionERKN3glm3vecILi3EdLNS0_9qualifierE0EEES5_ddRKNS1_ILi2EdLS2_0EEERd
	mv	a1, a0
	addi	a0, s0, -136
	call	_ZN3glm3vecILi3EdLNS_9qualifierE0EEmLIdEERS2_T_
	lbu	a0, -106(s0)
	andi	a0, a0, 1
	beqz	a0, .LBB8_8
	j	.LBB8_7
.LBB8_7:                                # %if.then7
	fld	ft0, -96(s0)
	fld	ft1, -88(s0)
	fdiv.d	ft0, ft0, ft1
	fmv.x.d	a0, ft0
	call	_Z4pow2IdET_S0_
	mv	a1, a0
	addi	a0, s0, -136
	call	_ZN3glm3vecILi3EdLNS_9qualifierE0EEmLIdEERS2_T_
	j	.LBB8_8
.LBB8_8:                                # %if.end10
	j	.LBB8_12
.LBB8_9:                                # %if.else
	ld	a0, -104(s0)
	addi	a1, zero, 1023
	slli	a1, a1, 52
	sd	a1, 0(a0)
	addi	s2, s1, 48
	ld	a0, -72(s0)
	ld	a0, 16(a0)
	call	_ZSt3absd
	mv	a2, a0
	addi	s3, s0, -160
	mv	a0, s3
	mv	a1, s2
	call	_ZN3glmdvIdLNS_9qualifierE0EEENS_3vecILi3ET_XT0_EEERKS4_S3_
	addi	a0, s0, -136
	mv	a1, s3
	call	_ZN3glm3vecILi3EdLNS_9qualifierE0EEmLIdEERS2_RKNS0_ILi3ET_LS1_0EEE
	lbu	a0, -106(s0)
	andi	a0, a0, 1
	bnez	a0, .LBB8_11
	j	.LBB8_10
.LBB8_10:                               # %if.then16
	fld	ft0, -88(s0)
	fld	ft1, -96(s0)
	fdiv.d	ft0, ft0, ft1
	fmv.x.d	a0, ft0
	call	_Z4pow2IdET_S0_
	mv	a1, a0
	addi	a0, s0, -136
	call	_ZN3glm3vecILi3EdLNS_9qualifierE0EEmLIdEERS2_T_
	j	.LBB8_11
.LBB8_11:                               # %if.end20
	j	.LBB8_12
.LBB8_12:                               # %if.end21
	ld	a0, -120(s0)
	sd	a0, 16(s4)
	ld	a0, -128(s0)
	sd	a0, 8(s4)
	ld	a0, -136(s0)
	sd	a0, 0(s4)
	j	.LBB8_13
.LBB8_13:                               # %return
	ld	s4, 112(sp)
	ld	s3, 120(sp)
	ld	s2, 128(sp)
	ld	s1, 136(sp)
	ld	s0, 144(sp)
	.cfi_def_cfa sp, 160
	ld	ra, 152(sp)
	.cfi_restore ra
	.cfi_restore s0
	.cfi_restore s1
	.cfi_restore s2
	.cfi_restore s3
	.cfi_restore s4
	addi	sp, sp, 160
	.cfi_def_cfa_offset 0
	ret
.Lfunc_end8:
	.size	_ZNK8Material20specularTransmissionERKN3glm3vecILi3EdLNS0_9qualifierE0EEES5_ddRdbb, .Lfunc_end8-_ZNK8Material20specularTransmissionERKN3glm3vecILi3EdLNS0_9qualifierE0EEES5_ddRdbb
	.cfi_endproc
                                        # -- End function
	.section	.text._ZN3glm3vecILi3EdLNS_9qualifierE0EEmLIdEERS2_T_,"axG",@progbits,_ZN3glm3vecILi3EdLNS_9qualifierE0EEmLIdEERS2_T_,comdat
	.weak	_ZN3glm3vecILi3EdLNS_9qualifierE0EEmLIdEERS2_T_ # -- Begin function _ZN3glm3vecILi3EdLNS_9qualifierE0EEmLIdEERS2_T_
	.p2align	2
	.type	_ZN3glm3vecILi3EdLNS_9qualifierE0EEmLIdEERS2_T_,@function
_ZN3glm3vecILi3EdLNS_9qualifierE0EEmLIdEERS2_T_: # @_ZN3glm3vecILi3EdLNS_9qualifierE0EEmLIdEERS2_T_
# %bb.0:                                # %entry
	addi	sp, sp, -32
	sd	ra, 24(sp)
	sd	s0, 16(sp)
	addi	s0, sp, 32
	fmv.d.x	ft0, a1
	sd	a0, -24(s0)
	sd	a1, -32(s0)
	ld	a0, -24(s0)
	fld	ft0, -32(s0)
	fld	ft1, 0(a0)
	fmul.d	ft0, ft1, ft0
	fsd	ft0, 0(a0)
	fld	ft0, -32(s0)
	fld	ft1, 8(a0)
	fmul.d	ft0, ft1, ft0
	fsd	ft0, 8(a0)
	fld	ft0, -32(s0)
	fld	ft1, 16(a0)
	fmul.d	ft0, ft1, ft0
	fsd	ft0, 16(a0)
	ld	s0, 16(sp)
	ld	ra, 24(sp)
	addi	sp, sp, 32
	ret
.Lfunc_end9:
	.size	_ZN3glm3vecILi3EdLNS_9qualifierE0EEmLIdEERS2_T_, .Lfunc_end9-_ZN3glm3vecILi3EdLNS_9qualifierE0EEmLIdEERS2_T_
                                        # -- End function
	.section	.text._Z4pow2IdET_S0_,"axG",@progbits,_Z4pow2IdET_S0_,comdat
	.weak	_Z4pow2IdET_S0_         # -- Begin function _Z4pow2IdET_S0_
	.p2align	2
	.type	_Z4pow2IdET_S0_,@function
_Z4pow2IdET_S0_:                        # @_Z4pow2IdET_S0_
# %bb.0:                                # %entry
	addi	sp, sp, -32
	sd	ra, 24(sp)
	sd	s0, 16(sp)
	addi	s0, sp, 32
	fmv.d.x	ft0, a0
	sd	a0, -24(s0)
	fld	ft0, -24(s0)
	fmul.d	ft0, ft0, ft0
	fmv.x.d	a0, ft0
	ld	s0, 16(sp)
	ld	ra, 24(sp)
	addi	sp, sp, 32
	ret
.Lfunc_end10:
	.size	_Z4pow2IdET_S0_, .Lfunc_end10-_Z4pow2IdET_S0_
                                        # -- End function
	.section	.text._ZN3glm3vecILi3EdLNS_9qualifierE0EEmLIdEERS2_RKNS0_ILi3ET_LS1_0EEE,"axG",@progbits,_ZN3glm3vecILi3EdLNS_9qualifierE0EEmLIdEERS2_RKNS0_ILi3ET_LS1_0EEE,comdat
	.weak	_ZN3glm3vecILi3EdLNS_9qualifierE0EEmLIdEERS2_RKNS0_ILi3ET_LS1_0EEE # -- Begin function _ZN3glm3vecILi3EdLNS_9qualifierE0EEmLIdEERS2_RKNS0_ILi3ET_LS1_0EEE
	.p2align	2
	.type	_ZN3glm3vecILi3EdLNS_9qualifierE0EEmLIdEERS2_RKNS0_ILi3ET_LS1_0EEE,@function
_ZN3glm3vecILi3EdLNS_9qualifierE0EEmLIdEERS2_RKNS0_ILi3ET_LS1_0EEE: # @_ZN3glm3vecILi3EdLNS_9qualifierE0EEmLIdEERS2_RKNS0_ILi3ET_LS1_0EEE
# %bb.0:                                # %entry
	addi	sp, sp, -32
	sd	ra, 24(sp)
	sd	s0, 16(sp)
	addi	s0, sp, 32
	sd	a0, -24(s0)
	sd	a1, -32(s0)
	ld	a0, -24(s0)
	ld	a1, -32(s0)
	fld	ft0, 0(a1)
	fld	ft1, 0(a0)
	fmul.d	ft0, ft1, ft0
	fsd	ft0, 0(a0)
	ld	a1, -32(s0)
	fld	ft0, 8(a1)
	fld	ft1, 8(a0)
	fmul.d	ft0, ft1, ft0
	fsd	ft0, 8(a0)
	ld	a1, -32(s0)
	fld	ft0, 16(a1)
	fld	ft1, 16(a0)
	fmul.d	ft0, ft1, ft0
	fsd	ft0, 16(a0)
	ld	s0, 16(sp)
	ld	ra, 24(sp)
	addi	sp, sp, 32
	ret
.Lfunc_end11:
	.size	_ZN3glm3vecILi3EdLNS_9qualifierE0EEmLIdEERS2_RKNS0_ILi3ET_LS1_0EEE, .Lfunc_end11-_ZN3glm3vecILi3EdLNS_9qualifierE0EEmLIdEERS2_RKNS0_ILi3ET_LS1_0EEE
                                        # -- End function
	.text
	.globl	_ZNK8Material17visibleMicrofacetEddRKN3glm3vecILi3EdLNS0_9qualifierE0EEE # -- Begin function _ZNK8Material17visibleMicrofacetEddRKN3glm3vecILi3EdLNS0_9qualifierE0EEE
	.p2align	2
	.type	_ZNK8Material17visibleMicrofacetEddRKN3glm3vecILi3EdLNS0_9qualifierE0EEE,@function
_ZNK8Material17visibleMicrofacetEddRKN3glm3vecILi3EdLNS0_9qualifierE0EEE: # @_ZNK8Material17visibleMicrofacetEddRKN3glm3vecILi3EdLNS0_9qualifierE0EEE
	.cfi_startproc
# %bb.0:                                # %entry
	addi	sp, sp, -64
	.cfi_def_cfa_offset 64
	sd	ra, 56(sp)
	sd	s0, 48(sp)
	.cfi_offset ra, -8
	.cfi_offset s0, -16
	addi	s0, sp, 64
	.cfi_def_cfa s0, 0
	fmv.d.x	ft0, a3
	fmv.d.x	ft0, a2
	sd	a0, -24(s0)
	sd	a1, -32(s0)
	sd	a2, -40(s0)
	sd	a3, -48(s0)
	sd	a4, -56(s0)
	ld	a1, -32(s0)
	ld	a3, -56(s0)
	addi	a4, a1, 168
	ld	a2, -48(s0)
	ld	a1, -40(s0)
	call	_ZN3GGX17visibleMicrofacetEddRKN3glm3vecILi3EdLNS0_9qualifierE0EEERKNS1_ILi2EdLS2_0EEE
	ld	s0, 48(sp)
	.cfi_def_cfa sp, 64
	ld	ra, 56(sp)
	.cfi_restore ra
	.cfi_restore s0
	addi	sp, sp, 64
	.cfi_def_cfa_offset 0
	ret
.Lfunc_end12:
	.size	_ZNK8Material17visibleMicrofacetEddRKN3glm3vecILi3EdLNS0_9qualifierE0EEE, .Lfunc_end12-_ZNK8Material17visibleMicrofacetEddRKN3glm3vecILi3EdLNS0_9qualifierE0EEE
	.cfi_endproc
                                        # -- End function
	.section	.text._ZN3glm5clampIdEET_S1_S1_S1_,"axG",@progbits,_ZN3glm5clampIdEET_S1_S1_S1_,comdat
	.weak	_ZN3glm5clampIdEET_S1_S1_S1_ # -- Begin function _ZN3glm5clampIdEET_S1_S1_S1_
	.p2align	2
	.type	_ZN3glm5clampIdEET_S1_S1_S1_,@function
_ZN3glm5clampIdEET_S1_S1_S1_:           # @_ZN3glm5clampIdEET_S1_S1_S1_
	.cfi_startproc
# %bb.0:                                # %entry
	addi	sp, sp, -48
	.cfi_def_cfa_offset 48
	sd	ra, 40(sp)
	sd	s0, 32(sp)
	.cfi_offset ra, -8
	.cfi_offset s0, -16
	addi	s0, sp, 48
	.cfi_def_cfa s0, 0
	fmv.d.x	ft0, a2
	fmv.d.x	ft0, a1
	fmv.d.x	ft0, a0
	sd	a0, -24(s0)
	sd	a1, -32(s0)
	sd	a2, -40(s0)
	ld	a1, -32(s0)
	ld	a0, -24(s0)
	call	_ZN3glm3maxIdEET_S1_S1_
	ld	a1, -40(s0)
	call	_ZN3glm3minIdEET_S1_S1_
	ld	s0, 32(sp)
	.cfi_def_cfa sp, 48
	ld	ra, 40(sp)
	.cfi_restore ra
	.cfi_restore s0
	addi	sp, sp, 48
	.cfi_def_cfa_offset 0
	ret
.Lfunc_end13:
	.size	_ZN3glm5clampIdEET_S1_S1_S1_, .Lfunc_end13-_ZN3glm5clampIdEET_S1_S1_S1_
	.cfi_endproc
                                        # -- End function
	.section	.text._ZSt3maxIdERKT_S2_S2_,"axG",@progbits,_ZSt3maxIdERKT_S2_S2_,comdat
	.weak	_ZSt3maxIdERKT_S2_S2_   # -- Begin function _ZSt3maxIdERKT_S2_S2_
	.p2align	2
	.type	_ZSt3maxIdERKT_S2_S2_,@function
_ZSt3maxIdERKT_S2_S2_:                  # @_ZSt3maxIdERKT_S2_S2_
# %bb.0:                                # %entry
	addi	sp, sp, -48
	sd	ra, 40(sp)
	sd	s0, 32(sp)
	addi	s0, sp, 48
	sd	a0, -32(s0)
	sd	a1, -40(s0)
	ld	a0, -32(s0)
	fld	ft0, 0(a0)
	ld	a0, -40(s0)
	fld	ft1, 0(a0)
	flt.d	a0, ft0, ft1
	xori	a0, a0, 1
	bnez	a0, .LBB14_2
	j	.LBB14_1
.LBB14_1:                               # %if.then
	ld	a0, -40(s0)
	sd	a0, -24(s0)
	j	.LBB14_3
.LBB14_2:                               # %if.end
	ld	a0, -32(s0)
	sd	a0, -24(s0)
	j	.LBB14_3
.LBB14_3:                               # %return
	ld	a0, -24(s0)
	ld	s0, 32(sp)
	ld	ra, 40(sp)
	addi	sp, sp, 48
	ret
.Lfunc_end14:
	.size	_ZSt3maxIdERKT_S2_S2_, .Lfunc_end14-_ZSt3maxIdERKT_S2_S2_
                                        # -- End function
	.section	.sdata,"aw",@progbits
	.p2align	3               # -- Begin function _ZN8Material17computePropertiesEv
.LCPI15_0:
	.quad	4472406533629990549     # double 1.0000000000000001E-9
.LCPI15_1:
	.quad	-4616189618054758400    # double -1
.LCPI15_2:
	.quad	4599616371426034975     # double 0.33000000000000002
.LCPI15_3:
	.quad	-4620693217682128896    # double -0.5
.LCPI15_4:
	.quad	4607182418800017408     # double 1
.LCPI15_5:
	.quad	4591149604126578442     # double 0.089999999999999996
.LCPI15_6:
	.quad	4601778099247172813     # double 0.45000000000000001
	.text
	.globl	_ZN8Material17computePropertiesEv
	.p2align	2
	.type	_ZN8Material17computePropertiesEv,@function
_ZN8Material17computePropertiesEv:      # @_ZN8Material17computePropertiesEv
	.cfi_startproc
# %bb.0:                                # %entry
	addi	sp, sp, -64
	.cfi_def_cfa_offset 64
	sd	ra, 56(sp)
	sd	s0, 48(sp)
	sd	s1, 40(sp)
	.cfi_offset ra, -8
	.cfi_offset s0, -16
	.cfi_offset s1, -24
	addi	s0, sp, 64
	.cfi_def_cfa s0, 0
	sd	a0, -32(s0)
	ld	s1, -32(s0)
	fld	ft0, 96(s1)
	lui	a0, %hi(.LCPI15_0)
	addi	a0, a0, %lo(.LCPI15_0)
	fld	ft1, 0(a0)
	flt.d	a0, ft1, ft0
	sb	a0, 144(s1)
	fld	ft0, 104(s1)
	flt.d	a0, ft1, ft0
	sb	a0, 145(s1)
	fld	ft0, 120(s1)
	flt.d	a0, ft0, ft1
	addi	a1, zero, 1
	bnez	a0, .LBB15_3
	j	.LBB15_1
.LBB15_1:                               # %lor.lhs.false
	addi	a0, s1, 128
	call	_ZNKSt12__shared_ptrI10ComplexIORLN9__gnu_cxx12_Lock_policyE0EEcvbEv
	addi	a1, zero, 1
	bnez	a0, .LBB15_3
	j	.LBB15_2
.LBB15_2:                               # %lor.rhs
	lb	a1, 149(s1)
	j	.LBB15_3
.LBB15_3:                               # %lor.end
	andi	a0, a1, 1
	sb	a0, 146(s1)
	addi	a0, s1, 72
	call	_ZN3glm7compMaxILi3EdLNS_9qualifierE0EEET0_RKNS_3vecIXT_ES2_XT1_EEE
	fmv.d.x	ft0, a0
	lui	a0, %hi(.LCPI15_0)
	addi	a0, a0, %lo(.LCPI15_0)
	fld	ft1, 0(a0)
	flt.d	a0, ft1, ft0
	sb	a0, 147(s1)
	addi	a0, s1, 128
	call	_ZNKSt12__shared_ptrI10ComplexIORLN9__gnu_cxx12_Lock_policyE0EEcvbEv
	bnez	a0, .LBB15_6
	j	.LBB15_4
.LBB15_4:                               # %lor.lhs.false11
	lbu	a0, 149(s1)
	andi	a0, a0, 1
	bnez	a0, .LBB15_6
	j	.LBB15_5
.LBB15_5:                               # %lor.lhs.false14
	fld	ft0, 120(s1)
	lui	a0, %hi(.LCPI15_1)
	addi	a0, a0, %lo(.LCPI15_1)
	fld	ft1, 0(a0)
	fadd.d	ft0, ft0, ft1
	fmv.x.d	a0, ft0
	call	_ZSt3absd
	fmv.d.x	ft0, a0
	lui	a0, %hi(.LCPI15_0)
	addi	a0, a0, %lo(.LCPI15_0)
	fld	ft1, 0(a0)
	flt.d	a0, ft0, ft1
	xori	a1, a0, 1
	mv	a0, zero
	bnez	a1, .LBB15_7
	j	.LBB15_6
.LBB15_6:                               # %land.rhs
	lb	a0, 145(s1)
	xori	a0, a0, 1
	j	.LBB15_7
.LBB15_7:                               # %land.end
	andi	a0, a0, 1
	sb	a0, 148(s1)
	ld	a0, 96(s1)
	call	_Z4pow2IdET_S0_
	sd	a0, -40(s0)
	fld	ft0, -40(s0)
	lui	a0, %hi(.LCPI15_2)
	addi	a0, a0, %lo(.LCPI15_2)
	fld	ft1, 0(a0)
	fadd.d	ft1, ft0, ft1
	fdiv.d	ft0, ft0, ft1
	lui	a0, %hi(.LCPI15_3)
	addi	a0, a0, %lo(.LCPI15_3)
	fld	ft1, 0(a0)
	fmul.d	ft0, ft0, ft1
	lui	a0, %hi(.LCPI15_4)
	addi	a0, a0, %lo(.LCPI15_4)
	fld	ft1, 0(a0)
	fadd.d	ft0, ft0, ft1
	fsd	ft0, 152(s1)
	fld	ft0, -40(s0)
	lui	a0, %hi(.LCPI15_5)
	addi	a0, a0, %lo(.LCPI15_5)
	fld	ft1, 0(a0)
	fadd.d	ft1, ft0, ft1
	fdiv.d	ft0, ft0, ft1
	lui	a0, %hi(.LCPI15_6)
	addi	a0, a0, %lo(.LCPI15_6)
	fld	ft1, 0(a0)
	fmul.d	ft0, ft0, ft1
	fsd	ft0, 160(s1)
	ld	a1, 104(s1)
	addi	a0, s0, -56
	call	_ZN3glm3vecILi2EdLNS_9qualifierE0EEC2Ed
	ld	a0, -48(s0)
	sd	a0, 176(s1)
	ld	a0, -56(s0)
	sd	a0, 168(s1)
	ld	s1, 40(sp)
	ld	s0, 48(sp)
	.cfi_def_cfa sp, 64
	ld	ra, 56(sp)
	.cfi_restore ra
	.cfi_restore s0
	.cfi_restore s1
	addi	sp, sp, 64
	.cfi_def_cfa_offset 0
	ret
.Lfunc_end15:
	.size	_ZN8Material17computePropertiesEv, .Lfunc_end15-_ZN8Material17computePropertiesEv
	.cfi_endproc
                                        # -- End function
	.section	.text._ZNKSt12__shared_ptrI10ComplexIORLN9__gnu_cxx12_Lock_policyE0EEcvbEv,"axG",@progbits,_ZNKSt12__shared_ptrI10ComplexIORLN9__gnu_cxx12_Lock_policyE0EEcvbEv,comdat
	.weak	_ZNKSt12__shared_ptrI10ComplexIORLN9__gnu_cxx12_Lock_policyE0EEcvbEv # -- Begin function _ZNKSt12__shared_ptrI10ComplexIORLN9__gnu_cxx12_Lock_policyE0EEcvbEv
	.p2align	2
	.type	_ZNKSt12__shared_ptrI10ComplexIORLN9__gnu_cxx12_Lock_policyE0EEcvbEv,@function
_ZNKSt12__shared_ptrI10ComplexIORLN9__gnu_cxx12_Lock_policyE0EEcvbEv: # @_ZNKSt12__shared_ptrI10ComplexIORLN9__gnu_cxx12_Lock_policyE0EEcvbEv
# %bb.0:                                # %entry
	addi	sp, sp, -32
	sd	ra, 24(sp)
	sd	s0, 16(sp)
	addi	s0, sp, 32
	sd	a0, -24(s0)
	ld	a0, -24(s0)
	ld	a0, 0(a0)
	snez	a0, a0
	ld	s0, 16(sp)
	ld	ra, 24(sp)
	addi	sp, sp, 32
	ret
.Lfunc_end16:
	.size	_ZNKSt12__shared_ptrI10ComplexIORLN9__gnu_cxx12_Lock_policyE0EEcvbEv, .Lfunc_end16-_ZNKSt12__shared_ptrI10ComplexIORLN9__gnu_cxx12_Lock_policyE0EEcvbEv
                                        # -- End function
	.section	.text._ZN3glm7compMaxILi3EdLNS_9qualifierE0EEET0_RKNS_3vecIXT_ES2_XT1_EEE,"axG",@progbits,_ZN3glm7compMaxILi3EdLNS_9qualifierE0EEET0_RKNS_3vecIXT_ES2_XT1_EEE,comdat
	.weak	_ZN3glm7compMaxILi3EdLNS_9qualifierE0EEET0_RKNS_3vecIXT_ES2_XT1_EEE # -- Begin function _ZN3glm7compMaxILi3EdLNS_9qualifierE0EEET0_RKNS_3vecIXT_ES2_XT1_EEE
	.p2align	2
	.type	_ZN3glm7compMaxILi3EdLNS_9qualifierE0EEET0_RKNS_3vecIXT_ES2_XT1_EEE,@function
_ZN3glm7compMaxILi3EdLNS_9qualifierE0EEET0_RKNS_3vecIXT_ES2_XT1_EEE: # @_ZN3glm7compMaxILi3EdLNS_9qualifierE0EEET0_RKNS_3vecIXT_ES2_XT1_EEE
	.cfi_startproc
# %bb.0:                                # %entry
	addi	sp, sp, -48
	.cfi_def_cfa_offset 48
	sd	ra, 40(sp)
	sd	s0, 32(sp)
	sd	s1, 24(sp)
	.cfi_offset ra, -8
	.cfi_offset s0, -16
	.cfi_offset s1, -24
	addi	s0, sp, 48
	.cfi_def_cfa s0, 0
	sd	a0, -32(s0)
	ld	a0, -32(s0)
	mv	a1, zero
	call	_ZNK3glm3vecILi3EdLNS_9qualifierE0EEixEi
	fld	ft0, 0(a0)
	fsd	ft0, -40(s0)
	addi	a0, zero, 1
	sw	a0, -44(s0)
	call	_ZN3glm3vecILi3EdLNS_9qualifierE0EE6lengthEv
	sw	a0, -48(s0)
	j	.LBB17_1
.LBB17_1:                               # %for.cond
                                        # =>This Inner Loop Header: Depth=1
	lw	a0, -44(s0)
	lw	a1, -48(s0)
	bge	a0, a1, .LBB17_4
	j	.LBB17_2
.LBB17_2:                               # %for.body
                                        #   in Loop: Header=BB17_1 Depth=1
	ld	a0, -32(s0)
	lw	a1, -44(s0)
	ld	s1, -40(s0)
	call	_ZNK3glm3vecILi3EdLNS_9qualifierE0EEixEi
	ld	a1, 0(a0)
	mv	a0, s1
	call	_ZN3glm3maxIdEET_S1_S1_
	sd	a0, -40(s0)
	j	.LBB17_3
.LBB17_3:                               # %for.inc
                                        #   in Loop: Header=BB17_1 Depth=1
	lw	a0, -44(s0)
	addi	a0, a0, 1
	sw	a0, -44(s0)
	j	.LBB17_1
.LBB17_4:                               # %for.end
	ld	a0, -40(s0)
	ld	s1, 24(sp)
	ld	s0, 32(sp)
	.cfi_def_cfa sp, 48
	ld	ra, 40(sp)
	.cfi_restore ra
	.cfi_restore s0
	.cfi_restore s1
	addi	sp, sp, 48
	.cfi_def_cfa_offset 0
	ret
.Lfunc_end17:
	.size	_ZN3glm7compMaxILi3EdLNS_9qualifierE0EEET0_RKNS_3vecIXT_ES2_XT1_EEE, .Lfunc_end17-_ZN3glm7compMaxILi3EdLNS_9qualifierE0EEET0_RKNS_3vecIXT_ES2_XT1_EEE
	.cfi_endproc
                                        # -- End function
	.section	.text._ZN3glm3vecILi2EdLNS_9qualifierE0EEC2Ed,"axG",@progbits,_ZN3glm3vecILi2EdLNS_9qualifierE0EEC2Ed,comdat
	.weak	_ZN3glm3vecILi2EdLNS_9qualifierE0EEC2Ed # -- Begin function _ZN3glm3vecILi2EdLNS_9qualifierE0EEC2Ed
	.p2align	2
	.type	_ZN3glm3vecILi2EdLNS_9qualifierE0EEC2Ed,@function
_ZN3glm3vecILi2EdLNS_9qualifierE0EEC2Ed: # @_ZN3glm3vecILi2EdLNS_9qualifierE0EEC2Ed
# %bb.0:                                # %entry
	addi	sp, sp, -32
	sd	ra, 24(sp)
	sd	s0, 16(sp)
	addi	s0, sp, 32
	fmv.d.x	ft0, a1
	sd	a0, -24(s0)
	sd	a1, -32(s0)
	ld	a0, -24(s0)
	fld	ft0, -32(s0)
	fsd	ft0, 0(a0)
	fld	ft0, -32(s0)
	fsd	ft0, 8(a0)
	ld	s0, 16(sp)
	ld	ra, 24(sp)
	addi	sp, sp, 32
	ret
.Lfunc_end18:
	.size	_ZN3glm3vecILi2EdLNS_9qualifierE0EEC2Ed, .Lfunc_end18-_ZN3glm3vecILi2EdLNS_9qualifierE0EEC2Ed
                                        # -- End function
	.section	.sdata,"aw",@progbits
	.p2align	3               # -- Begin function _Z9from_jsonRKN8nlohmann10basic_jsonISt3mapSt6vectorNSt7__cxx1112basic_stringIcSt11char_traitsIcESaIcEEEblmdSaNS_14adl_serializerEEER8Material
.LCPI19_0:
	.quad	0                       # double 0
	.text
	.globl	_Z9from_jsonRKN8nlohmann10basic_jsonISt3mapSt6vectorNSt7__cxx1112basic_stringIcSt11char_traitsIcESaIcEEEblmdSaNS_14adl_serializerEEER8Material
	.p2align	2
	.type	_Z9from_jsonRKN8nlohmann10basic_jsonISt3mapSt6vectorNSt7__cxx1112basic_stringIcSt11char_traitsIcESaIcEEEblmdSaNS_14adl_serializerEEER8Material,@function
_Z9from_jsonRKN8nlohmann10basic_jsonISt3mapSt6vectorNSt7__cxx1112basic_stringIcSt11char_traitsIcESaIcEEEblmdSaNS_14adl_serializerEEER8Material: # @_Z9from_jsonRKN8nlohmann10basic_jsonISt3mapSt6vectorNSt7__cxx1112basic_stringIcSt11char_traitsIcESaIcEEEblmdSaNS_14adl_serializerEEER8Material
.Lfunc_begin0:
	.cfi_startproc
	.cfi_personality 155, DW.ref.__gxx_personality_v0
	.cfi_lsda 27, .Lexception0
# %bb.0:                                # %entry
	addi	sp, sp, -1536
	.cfi_def_cfa_offset 1536
	sd	ra, 1528(sp)
	sd	s0, 1520(sp)
	sd	s1, 1512(sp)
	sd	s2, 1504(sp)
	.cfi_offset ra, -8
	.cfi_offset s0, -16
	.cfi_offset s1, -24
	.cfi_offset s2, -32
	addi	s0, sp, 1536
	.cfi_def_cfa s0, 0
	sd	a0, -464(s0)
	sd	a1, -472(s0)
	ld	a0, -464(s0)
	sd	a0, -480(s0)
	ld	s1, -464(s0)
	addi	a2, s0, -520
	sd	a2, -456(s0)
	ld	a0, -456(s0)
	sd	a0, -448(s0)
.Ltmp0:
	lui	a0, %hi(.L.str)
	addi	a1, a0, %lo(.L.str)
	addi	a0, s0, -512
	call	_ZNSt7__cxx1112basic_stringIcSt11char_traitsIcESaIcEEC2IS3_EEPKcRKS3_
.Ltmp1:
	j	.LBB19_1
.LBB19_1:                               # %invoke.cont
	ld	a0, -472(s0)
	addi	a2, a0, 96
.Ltmp3:
	addi	a1, s0, -512
	mv	a0, s1
	call	_Z13getToOptionalIdEvRKN8nlohmann10basic_jsonISt3mapSt6vectorNSt7__cxx1112basic_stringIcSt11char_traitsIcESaIcEEEblmdSaNS0_14adl_serializerEEES9_RT_
.Ltmp4:
	j	.LBB19_2
.LBB19_2:                               # %invoke.cont2
	addi	a0, s0, -512
	call	_ZNSt7__cxx1112basic_stringIcSt11char_traitsIcESaIcEED1Ev
	addi	a0, s0, -520
	sd	a0, -440(s0)
	ld	a0, -440(s0)
	call	_ZNSt15__new_allocatorIcED2Ev
	ld	s1, -464(s0)
	addi	a2, s0, -576
	sd	a2, -432(s0)
	ld	a0, -432(s0)
	sd	a0, -424(s0)
.Ltmp6:
	lui	a0, %hi(.L.str.1)
	addi	a1, a0, %lo(.L.str.1)
	addi	a0, s0, -568
	call	_ZNSt7__cxx1112basic_stringIcSt11char_traitsIcESaIcEEC2IS3_EEPKcRKS3_
.Ltmp7:
	j	.LBB19_3
.LBB19_3:                               # %invoke.cont6
	ld	a0, -472(s0)
	addi	a2, a0, 104
.Ltmp9:
	addi	a1, s0, -568
	mv	a0, s1
	call	_Z13getToOptionalIdEvRKN8nlohmann10basic_jsonISt3mapSt6vectorNSt7__cxx1112basic_stringIcSt11char_traitsIcESaIcEEEblmdSaNS0_14adl_serializerEEES9_RT_
.Ltmp10:
	j	.LBB19_4
.LBB19_4:                               # %invoke.cont8
	addi	a0, s0, -568
	call	_ZNSt7__cxx1112basic_stringIcSt11char_traitsIcESaIcEED1Ev
	addi	a0, s0, -576
	sd	a0, -416(s0)
	ld	a0, -416(s0)
	call	_ZNSt15__new_allocatorIcED2Ev
	ld	s1, -464(s0)
	addi	a2, s0, -616
	sd	a2, -408(s0)
	ld	a0, -408(s0)
	sd	a0, -400(s0)
.Ltmp12:
	lui	a0, %hi(.L.str.2)
	addi	a1, a0, %lo(.L.str.2)
	addi	a0, s0, -608
	call	_ZNSt7__cxx1112basic_stringIcSt11char_traitsIcESaIcEEC2IS3_EEPKcRKS3_
.Ltmp13:
	j	.LBB19_5
.LBB19_5:                               # %invoke.cont14
	ld	a0, -472(s0)
	addi	a2, a0, 120
.Ltmp15:
	addi	a1, s0, -608
	mv	a0, s1
	call	_Z13getToOptionalIdEvRKN8nlohmann10basic_jsonISt3mapSt6vectorNSt7__cxx1112basic_stringIcSt11char_traitsIcESaIcEEEblmdSaNS0_14adl_serializerEEES9_RT_
.Ltmp16:
	j	.LBB19_6
.LBB19_6:                               # %invoke.cont16
	addi	a0, s0, -608
	call	_ZNSt7__cxx1112basic_stringIcSt11char_traitsIcESaIcEED1Ev
	addi	a0, s0, -616
	sd	a0, -392(s0)
	ld	a0, -392(s0)
	call	_ZNSt15__new_allocatorIcED2Ev
	ld	s1, -464(s0)
	addi	a2, s0, -656
	sd	a2, -384(s0)
	ld	a0, -384(s0)
	sd	a0, -376(s0)
.Ltmp18:
	lui	a0, %hi(.L.str.3)
	addi	a1, a0, %lo(.L.str.3)
	addi	a0, s0, -648
	call	_ZNSt7__cxx1112basic_stringIcSt11char_traitsIcESaIcEEC2IS3_EEPKcRKS3_
.Ltmp19:
	j	.LBB19_7
.LBB19_7:                               # %invoke.cont22
	ld	a0, -472(s0)
	addi	a2, a0, 149
.Ltmp21:
	addi	a1, s0, -648
	mv	a0, s1
	call	_Z13getToOptionalIbEvRKN8nlohmann10basic_jsonISt3mapSt6vectorNSt7__cxx1112basic_stringIcSt11char_traitsIcESaIcEEEblmdSaNS0_14adl_serializerEEES9_RT_
.Ltmp22:
	j	.LBB19_8
.LBB19_8:                               # %invoke.cont24
	addi	a0, s0, -648
	call	_ZNSt7__cxx1112basic_stringIcSt11char_traitsIcESaIcEED1Ev
	addi	a0, s0, -656
	sd	a0, -368(s0)
	ld	a0, -368(s0)
	call	_ZNSt15__new_allocatorIcED2Ev
	addi	a2, s0, -696
	sd	a2, -360(s0)
	ld	a0, -360(s0)
	sd	a0, -352(s0)
.Ltmp24:
	lui	a0, %hi(.L.str.4)
	addi	a1, a0, %lo(.L.str.4)
	addi	a0, s0, -688
	call	_ZNSt7__cxx1112basic_stringIcSt11char_traitsIcESaIcEEC2IS3_EEPKcRKS3_
.Ltmp25:
	j	.LBB19_9
.LBB19_9:                               # %invoke.cont30
	ld	a2, -472(s0)
.Ltmp27:
	addi	a0, s0, -480
	addi	a1, s0, -688
	call	_ZZ9from_jsonRKN8nlohmann10basic_jsonISt3mapSt6vectorNSt7__cxx1112basic_stringIcSt11char_traitsIcESaIcEEEblmdSaNS_14adl_serializerEEER8MaterialENK3$_0clERKS8_RN3glm3vecILi3EdLNSI_9qualifierE0EEE
.Ltmp28:
	j	.LBB19_10
.LBB19_10:                              # %invoke.cont32
	addi	a0, s0, -688
	call	_ZNSt7__cxx1112basic_stringIcSt11char_traitsIcESaIcEED1Ev
	addi	a0, s0, -696
	sd	a0, -336(s0)
	ld	a0, -336(s0)
	call	_ZNSt15__new_allocatorIcED2Ev
	addi	a2, s0, -736
	sd	a2, -328(s0)
	ld	a0, -328(s0)
	sd	a0, -320(s0)
.Ltmp30:
	lui	a0, %hi(.L.str.5)
	addi	a1, a0, %lo(.L.str.5)
	addi	a0, s0, -728
	call	_ZNSt7__cxx1112basic_stringIcSt11char_traitsIcESaIcEEC2IS3_EEPKcRKS3_
.Ltmp31:
	j	.LBB19_11
.LBB19_11:                              # %invoke.cont38
	ld	a0, -472(s0)
	addi	a2, a0, 24
.Ltmp33:
	addi	a0, s0, -480
	addi	a1, s0, -728
	call	_ZZ9from_jsonRKN8nlohmann10basic_jsonISt3mapSt6vectorNSt7__cxx1112basic_stringIcSt11char_traitsIcESaIcEEEblmdSaNS_14adl_serializerEEER8MaterialENK3$_0clERKS8_RN3glm3vecILi3EdLNSI_9qualifierE0EEE
.Ltmp34:
	j	.LBB19_12
.LBB19_12:                              # %invoke.cont40
	addi	a0, s0, -728
	call	_ZNSt7__cxx1112basic_stringIcSt11char_traitsIcESaIcEED1Ev
	addi	a0, s0, -736
	sd	a0, -312(s0)
	ld	a0, -312(s0)
	call	_ZNSt15__new_allocatorIcED2Ev
	addi	a2, s0, -776
	sd	a2, -304(s0)
	ld	a0, -304(s0)
	sd	a0, -296(s0)
.Ltmp36:
	lui	a0, %hi(.L.str.6)
	addi	a1, a0, %lo(.L.str.6)
	addi	a0, s0, -768
	call	_ZNSt7__cxx1112basic_stringIcSt11char_traitsIcESaIcEEC2IS3_EEPKcRKS3_
.Ltmp37:
	j	.LBB19_13
.LBB19_13:                              # %invoke.cont46
	ld	a0, -472(s0)
	addi	a2, a0, 48
.Ltmp39:
	addi	a0, s0, -480
	addi	a1, s0, -768
	call	_ZZ9from_jsonRKN8nlohmann10basic_jsonISt3mapSt6vectorNSt7__cxx1112basic_stringIcSt11char_traitsIcESaIcEEEblmdSaNS_14adl_serializerEEER8MaterialENK3$_0clERKS8_RN3glm3vecILi3EdLNSI_9qualifierE0EEE
.Ltmp40:
	j	.LBB19_14
.LBB19_14:                              # %invoke.cont48
	addi	a0, s0, -768
	call	_ZNSt7__cxx1112basic_stringIcSt11char_traitsIcESaIcEED1Ev
	addi	a0, s0, -776
	sd	a0, -288(s0)
	ld	a0, -288(s0)
	call	_ZNSt15__new_allocatorIcED2Ev
	ld	a1, -472(s0)
	addi	a0, s0, -800
	call	_ZN4sRGB11gammaExpandERKN3glm3vecILi3EdLNS0_9qualifierE0EEE
	ld	a0, -472(s0)
	ld	a1, -784(s0)
	sd	a1, 16(a0)
	ld	a1, -792(s0)
	sd	a1, 8(a0)
	ld	a1, -800(s0)
	sd	a1, 0(a0)
	ld	a1, -464(s0)
	lui	a0, %hi(.L.str.7)
	addi	a2, a0, %lo(.L.str.7)
	addi	s2, s0, -832
	mv	a0, s2
	call	_ZNK8nlohmann10basic_jsonISt3mapSt6vectorNSt7__cxx1112basic_stringIcSt11char_traitsIcESaIcEEEblmdSaNS_14adl_serializerEE4findIRA10_KcEENS_6detail9iter_implIKSA_EEOT_
	ld	a1, -464(s0)
	addi	s1, s0, -864
	mv	a0, s1
	call	_ZNK8nlohmann10basic_jsonISt3mapSt6vectorNSt7__cxx1112basic_stringIcSt11char_traitsIcESaIcEEEblmdSaNS_14adl_serializerEE3endEv
	mv	a0, s2
	mv	a1, s1
	call	_ZNK8nlohmann6detail9iter_implIKNS_10basic_jsonISt3mapSt6vectorNSt7__cxx1112basic_stringIcSt11char_traitsIcESaIcEEEblmdSaNS_14adl_serializerEEEEneERKSE_
	beqz	a0, .LBB19_78
	j	.LBB19_15
.LBB19_15:                              # %if.then
	ld	s1, -464(s0)
	addi	a2, s0, -920
	sd	a2, -280(s0)
	ld	a0, -280(s0)
	sd	a0, -272(s0)
.Ltmp42:
	lui	a0, %hi(.L.str.7)
	addi	a1, a0, %lo(.L.str.7)
	addi	a0, s0, -912
	call	_ZNSt7__cxx1112basic_stringIcSt11char_traitsIcESaIcEEC2IS3_EEPKcRKS3_
.Ltmp43:
	j	.LBB19_16
.LBB19_16:                              # %invoke.cont59
.Ltmp45:
	addi	a1, s0, -912
	mv	a0, s1
	call	_ZNK8nlohmann10basic_jsonISt3mapSt6vectorNSt7__cxx1112basic_stringIcSt11char_traitsIcESaIcEEEblmdSaNS_14adl_serializerEE2atERKS8_
	mv	a1, a0
.Ltmp46:
	j	.LBB19_17
.LBB19_17:                              # %invoke.cont61
.Ltmp47:
	addi	a0, s0, -880
	call	_ZN8nlohmann10basic_jsonISt3mapSt6vectorNSt7__cxx1112basic_stringIcSt11char_traitsIcESaIcEEEblmdSaNS_14adl_serializerEEC2ERKSA_
.Ltmp48:
	j	.LBB19_18
.LBB19_18:                              # %invoke.cont63
	addi	a0, s0, -912
	call	_ZNSt7__cxx1112basic_stringIcSt11char_traitsIcESaIcEED1Ev
	addi	a0, s0, -920
	sd	a0, -264(s0)
	ld	a0, -264(s0)
	call	_ZNSt15__new_allocatorIcED2Ev
	addi	a0, s0, -880
	call	_ZNK8nlohmann10basic_jsonISt3mapSt6vectorNSt7__cxx1112basic_stringIcSt11char_traitsIcESaIcEEEblmdSaNS_14adl_serializerEE4typeEv
	addi	a1, zero, 1
	bne	a0, a1, .LBB19_74
	j	.LBB19_19
.LBB19_19:                              # %if.then67
	addi	a2, s0, -968
	sd	a2, -256(s0)
	ld	a0, -256(s0)
	sd	a0, -248(s0)
.Ltmp52:
	lui	a0, %hi(.L.str.8)
	addi	a1, a0, %lo(.L.str.8)
	addi	a0, s0, -960
	call	_ZNSt7__cxx1112basic_stringIcSt11char_traitsIcESaIcEEC2IS3_EEPKcRKS3_
.Ltmp53:
	j	.LBB19_20
.LBB19_20:                              # %invoke.cont71
.Ltmp55:
	addi	a0, zero, 1023
	slli	a2, a0, 52
	addi	a0, s0, -880
	addi	a1, s0, -960
	call	_Z11getOptionalIdET_RKN8nlohmann10basic_jsonISt3mapSt6vectorNSt7__cxx1112basic_stringIcSt11char_traitsIcESaIcEEEblmdSaNS1_14adl_serializerEEESA_S0_
	fmv.d.x	ft0, a0
	fsd	ft0, -1520(s0)
.Ltmp56:
	j	.LBB19_21
.LBB19_21:                              # %invoke.cont73
	addi	a0, s0, -960
	call	_ZNSt7__cxx1112basic_stringIcSt11char_traitsIcESaIcEED1Ev
	addi	a0, s0, -968
	sd	a0, -240(s0)
	ld	a0, -240(s0)
	call	_ZNSt15__new_allocatorIcED2Ev
	fld	ft0, -1520(s0)
	fsd	ft0, -928(s0)
	addi	a2, s0, -1016
	sd	a2, -232(s0)
	ld	a0, -232(s0)
	sd	a0, -224(s0)
.Ltmp58:
	lui	a0, %hi(.L.str.9)
	addi	a1, a0, %lo(.L.str.9)
	addi	a0, s0, -1008
	call	_ZNSt7__cxx1112basic_stringIcSt11char_traitsIcESaIcEEC2IS3_EEPKcRKS3_
.Ltmp59:
	j	.LBB19_22
.LBB19_22:                              # %invoke.cont80
.Ltmp61:
	addi	a0, zero, -1025
	slli	a2, a0, 52
	addi	a0, s0, -880
	addi	a1, s0, -1008
	call	_Z11getOptionalIdET_RKN8nlohmann10basic_jsonISt3mapSt6vectorNSt7__cxx1112basic_stringIcSt11char_traitsIcESaIcEEEblmdSaNS1_14adl_serializerEEESA_S0_
	fmv.d.x	ft0, a0
	fsd	ft0, -1528(s0)
.Ltmp62:
	j	.LBB19_23
.LBB19_23:                              # %invoke.cont82
	addi	a0, s0, -1008
	call	_ZNSt7__cxx1112basic_stringIcSt11char_traitsIcESaIcEED1Ev
	addi	a0, s0, -1016
	sd	a0, -216(s0)
	ld	a0, -216(s0)
	call	_ZNSt15__new_allocatorIcED2Ev
	fld	ft0, -1528(s0)
	fsd	ft0, -976(s0)
	fld	ft0, -976(s0)
	lui	a0, %hi(.LCPI19_0)
	addi	a0, a0, %lo(.LCPI19_0)
	fld	ft1, 0(a0)
	flt.d	a0, ft1, ft0
	xori	a0, a0, 1
	bnez	a0, .LBB19_59
	j	.LBB19_24
.LBB19_24:                              # %if.then87
	ld	a1, -976(s0)
.Ltmp82:
	addi	a0, s0, -1088
	call	_ZN3CIE10Illuminant9blackbodyEd
.Ltmp83:
	j	.LBB19_25
.LBB19_25:                              # %invoke.cont92
	ld	a2, -928(s0)
.Ltmp84:
	addi	a0, s0, -1064
	addi	a1, s0, -1088
	call	_ZN3glmmlIdLNS_9qualifierE0EEENS_3vecILi3ET_XT0_EEERKS4_S3_
.Ltmp85:
	j	.LBB19_26
.LBB19_26:                              # %invoke.cont93
.Ltmp86:
	addi	a0, s0, -1040
	addi	a1, s0, -1064
	call	_ZN4sRGB3RGBERKN3glm3vecILi3EdLNS0_9qualifierE0EEE
.Ltmp87:
	j	.LBB19_27
.LBB19_27:                              # %invoke.cont94
	ld	a0, -472(s0)
	ld	a1, -1024(s0)
	sd	a1, 88(a0)
	ld	a1, -1032(s0)
	sd	a1, 80(a0)
	ld	a1, -1040(s0)
	sd	a1, 72(a0)
	j	.LBB19_73
.LBB19_28:                              # %lpad
.Ltmp2:
	sd	a0, -528(s0)
	sw	a1, -532(s0)
	j	.LBB19_30
.LBB19_29:                              # %lpad1
.Ltmp5:
	sd	a0, -528(s0)
	sw	a1, -532(s0)
	addi	a0, s0, -512
	call	_ZNSt7__cxx1112basic_stringIcSt11char_traitsIcESaIcEED1Ev
	j	.LBB19_30
.LBB19_30:                              # %ehcleanup
	addi	a0, s0, -520
	sd	a0, -208(s0)
	ld	a0, -208(s0)
	call	_ZNSt15__new_allocatorIcED2Ev
	j	.LBB19_95
.LBB19_31:                              # %lpad5
.Ltmp8:
	sd	a0, -528(s0)
	sw	a1, -532(s0)
	j	.LBB19_33
.LBB19_32:                              # %lpad7
.Ltmp11:
	sd	a0, -528(s0)
	sw	a1, -532(s0)
	addi	a0, s0, -568
	call	_ZNSt7__cxx1112basic_stringIcSt11char_traitsIcESaIcEED1Ev
	j	.LBB19_33
.LBB19_33:                              # %ehcleanup10
	addi	a0, s0, -576
	sd	a0, -200(s0)
	ld	a0, -200(s0)
	call	_ZNSt15__new_allocatorIcED2Ev
	j	.LBB19_95
.LBB19_34:                              # %lpad13
.Ltmp14:
	sd	a0, -528(s0)
	sw	a1, -532(s0)
	j	.LBB19_36
.LBB19_35:                              # %lpad15
.Ltmp17:
	sd	a0, -528(s0)
	sw	a1, -532(s0)
	addi	a0, s0, -608
	call	_ZNSt7__cxx1112basic_stringIcSt11char_traitsIcESaIcEED1Ev
	j	.LBB19_36
.LBB19_36:                              # %ehcleanup18
	addi	a0, s0, -616
	sd	a0, -192(s0)
	ld	a0, -192(s0)
	call	_ZNSt15__new_allocatorIcED2Ev
	j	.LBB19_95
.LBB19_37:                              # %lpad21
.Ltmp20:
	sd	a0, -528(s0)
	sw	a1, -532(s0)
	j	.LBB19_39
.LBB19_38:                              # %lpad23
.Ltmp23:
	sd	a0, -528(s0)
	sw	a1, -532(s0)
	addi	a0, s0, -648
	call	_ZNSt7__cxx1112basic_stringIcSt11char_traitsIcESaIcEED1Ev
	j	.LBB19_39
.LBB19_39:                              # %ehcleanup26
	addi	a0, s0, -656
	sd	a0, -184(s0)
	ld	a0, -184(s0)
	call	_ZNSt15__new_allocatorIcED2Ev
	j	.LBB19_95
.LBB19_40:                              # %lpad29
.Ltmp26:
	sd	a0, -528(s0)
	sw	a1, -532(s0)
	j	.LBB19_42
.LBB19_41:                              # %lpad31
.Ltmp29:
	sd	a0, -528(s0)
	sw	a1, -532(s0)
	addi	a0, s0, -688
	call	_ZNSt7__cxx1112basic_stringIcSt11char_traitsIcESaIcEED1Ev
	j	.LBB19_42
.LBB19_42:                              # %ehcleanup34
	addi	a0, s0, -696
	sd	a0, -176(s0)
	ld	a0, -176(s0)
	call	_ZNSt15__new_allocatorIcED2Ev
	j	.LBB19_95
.LBB19_43:                              # %lpad37
.Ltmp32:
	sd	a0, -528(s0)
	sw	a1, -532(s0)
	j	.LBB19_45
.LBB19_44:                              # %lpad39
.Ltmp35:
	sd	a0, -528(s0)
	sw	a1, -532(s0)
	addi	a0, s0, -728
	call	_ZNSt7__cxx1112basic_stringIcSt11char_traitsIcESaIcEED1Ev
	j	.LBB19_45
.LBB19_45:                              # %ehcleanup42
	addi	a0, s0, -736
	sd	a0, -168(s0)
	ld	a0, -168(s0)
	call	_ZNSt15__new_allocatorIcED2Ev
	j	.LBB19_95
.LBB19_46:                              # %lpad45
.Ltmp38:
	sd	a0, -528(s0)
	sw	a1, -532(s0)
	j	.LBB19_48
.LBB19_47:                              # %lpad47
.Ltmp41:
	sd	a0, -528(s0)
	sw	a1, -532(s0)
	addi	a0, s0, -768
	call	_ZNSt7__cxx1112basic_stringIcSt11char_traitsIcESaIcEED1Ev
	j	.LBB19_48
.LBB19_48:                              # %ehcleanup50
	addi	a0, s0, -776
	sd	a0, -160(s0)
	ld	a0, -160(s0)
	call	_ZNSt15__new_allocatorIcED2Ev
	j	.LBB19_95
.LBB19_49:                              # %lpad58
.Ltmp44:
	sd	a0, -528(s0)
	sw	a1, -532(s0)
	j	.LBB19_51
.LBB19_50:                              # %lpad60
.Ltmp49:
	sd	a0, -528(s0)
	sw	a1, -532(s0)
	addi	a0, s0, -912
	call	_ZNSt7__cxx1112basic_stringIcSt11char_traitsIcESaIcEED1Ev
	j	.LBB19_51
.LBB19_51:                              # %ehcleanup65
	addi	a0, s0, -920
	sd	a0, -152(s0)
	ld	a0, -152(s0)
	call	_ZNSt15__new_allocatorIcED2Ev
	j	.LBB19_95
.LBB19_52:                              # %lpad70
.Ltmp54:
	sd	a0, -528(s0)
	sw	a1, -532(s0)
	j	.LBB19_54
.LBB19_53:                              # %lpad72
.Ltmp57:
	sd	a0, -528(s0)
	sw	a1, -532(s0)
	addi	a0, s0, -960
	call	_ZNSt7__cxx1112basic_stringIcSt11char_traitsIcESaIcEED1Ev
	j	.LBB19_54
.LBB19_54:                              # %ehcleanup76
	addi	a0, s0, -968
	sd	a0, -144(s0)
	ld	a0, -144(s0)
	call	_ZNSt15__new_allocatorIcED2Ev
	j	.LBB19_77
.LBB19_55:                              # %lpad79
.Ltmp60:
	sd	a0, -528(s0)
	sw	a1, -532(s0)
	j	.LBB19_57
.LBB19_56:                              # %lpad81
.Ltmp63:
	sd	a0, -528(s0)
	sw	a1, -532(s0)
	addi	a0, s0, -1008
	call	_ZNSt7__cxx1112basic_stringIcSt11char_traitsIcESaIcEED1Ev
	j	.LBB19_57
.LBB19_57:                              # %ehcleanup85
	addi	a0, s0, -1016
	sd	a0, -136(s0)
	ld	a0, -136(s0)
	call	_ZNSt15__new_allocatorIcED2Ev
	j	.LBB19_77
.LBB19_58:                              # %lpad91
.Ltmp88:
	sd	a0, -528(s0)
	sw	a1, -532(s0)
	j	.LBB19_77
.LBB19_59:                              # %if.else
	addi	a2, s0, -1160
	sd	a2, -128(s0)
	ld	a0, -128(s0)
	sd	a0, -120(s0)
.Ltmp64:
	lui	a0, %hi(.L.str.10)
	addi	a1, a0, %lo(.L.str.10)
	addi	a0, s0, -1152
	call	_ZNSt7__cxx1112basic_stringIcSt11char_traitsIcESaIcEEC2IS3_EEPKcRKS3_
.Ltmp65:
	j	.LBB19_60
.LBB19_60:                              # %invoke.cont98
	addi	a2, s0, -1200
	sd	a2, -112(s0)
	ld	a0, -112(s0)
	sd	a0, -104(s0)
.Ltmp67:
	lui	a0, %hi(.L.str.11)
	addi	a1, a0, %lo(.L.str.11)
	addi	a0, s0, -1192
	call	_ZNSt7__cxx1112basic_stringIcSt11char_traitsIcESaIcEEC2IS3_EEPKcRKS3_
.Ltmp68:
	j	.LBB19_61
.LBB19_61:                              # %invoke.cont102
.Ltmp70:
	addi	a0, s0, -1120
	addi	a1, s0, -880
	addi	a2, s0, -1152
	addi	a3, s0, -1192
	call	_Z11getOptionalINSt7__cxx1112basic_stringIcSt11char_traitsIcESaIcEEEET_RKN8nlohmann10basic_jsonISt3mapSt6vectorS5_blmdSaNS7_14adl_serializerEEES5_S6_
.Ltmp71:
	j	.LBB19_62
.LBB19_62:                              # %invoke.cont104
	addi	a0, s0, -1192
	call	_ZNSt7__cxx1112basic_stringIcSt11char_traitsIcESaIcEED1Ev
	addi	a0, s0, -1200
	sd	a0, -88(s0)
	ld	a0, -88(s0)
	call	_ZNSt15__new_allocatorIcED2Ev
	addi	a0, s0, -1152
	call	_ZNSt7__cxx1112basic_stringIcSt11char_traitsIcESaIcEED1Ev
	addi	a0, s0, -1160
	sd	a0, -80(s0)
	ld	a0, -80(s0)
	call	_ZNSt15__new_allocatorIcED2Ev
	addi	s1, s0, -1120
	mv	a0, s1
	call	_ZNSt7__cxx1112basic_stringIcSt11char_traitsIcESaIcEE5beginEv
	sd	a0, -1208(s0)
	mv	a0, s1
	call	_ZNSt7__cxx1112basic_stringIcSt11char_traitsIcESaIcEE3endEv
	sd	a0, -1216(s0)
	mv	a0, s1
	call	_ZNSt7__cxx1112basic_stringIcSt11char_traitsIcESaIcEE5beginEv
	sd	a0, -1224(s0)
	ld	a0, -1208(s0)
	ld	a1, -1216(s0)
	ld	a2, -1224(s0)
.Ltmp73:
	lui	a3, %hi(toupper)
	addi	a3, a3, %lo(toupper)
	call	_ZSt9transformIN9__gnu_cxx17__normal_iteratorIPcNSt7__cxx1112basic_stringIcSt11char_traitsIcESaIcEEEEES9_PFiiEET0_T_SD_SC_T1_
.Ltmp74:
	j	.LBB19_63
.LBB19_63:                              # %invoke.cont125
	sd	a0, -1232(s0)
	addi	a0, s0, -1120
	call	_ZNKSt7__cxx1112basic_stringIcSt11char_traitsIcESaIcEE5c_strEv
	mv	a1, a0
.Ltmp75:
	addi	a0, s0, -1304
	call	_ZN3CIE10Illuminant10whitePointEPKc
.Ltmp76:
	j	.LBB19_64
.LBB19_64:                              # %invoke.cont133
	ld	a2, -928(s0)
.Ltmp77:
	addi	a0, s0, -1280
	addi	a1, s0, -1304
	call	_ZN3glmmlIdLNS_9qualifierE0EEENS_3vecILi3ET_XT0_EEERKS4_S3_
.Ltmp78:
	j	.LBB19_65
.LBB19_65:                              # %invoke.cont134
.Ltmp79:
	addi	a0, s0, -1256
	addi	a1, s0, -1280
	call	_ZN4sRGB3RGBERKN3glm3vecILi3EdLNS0_9qualifierE0EEE
.Ltmp80:
	j	.LBB19_66
.LBB19_66:                              # %invoke.cont135
	ld	a0, -472(s0)
	ld	a1, -1240(s0)
	sd	a1, 88(a0)
	ld	a1, -1248(s0)
	sd	a1, 80(a0)
	ld	a1, -1256(s0)
	sd	a1, 72(a0)
	addi	a0, s0, -1120
	call	_ZNSt7__cxx1112basic_stringIcSt11char_traitsIcESaIcEED1Ev
	j	.LBB19_73
.LBB19_67:                              # %lpad97
.Ltmp66:
	sd	a0, -528(s0)
	sw	a1, -532(s0)
	j	.LBB19_71
.LBB19_68:                              # %lpad101
.Ltmp69:
	sd	a0, -528(s0)
	sw	a1, -532(s0)
	j	.LBB19_70
.LBB19_69:                              # %lpad103
.Ltmp72:
	sd	a0, -528(s0)
	sw	a1, -532(s0)
	addi	a0, s0, -1192
	call	_ZNSt7__cxx1112basic_stringIcSt11char_traitsIcESaIcEED1Ev
	j	.LBB19_70
.LBB19_70:                              # %ehcleanup106
	addi	a0, s0, -1200
	sd	a0, -72(s0)
	ld	a0, -72(s0)
	call	_ZNSt15__new_allocatorIcED2Ev
	addi	a0, s0, -1152
	call	_ZNSt7__cxx1112basic_stringIcSt11char_traitsIcESaIcEED1Ev
	j	.LBB19_71
.LBB19_71:                              # %ehcleanup108
	addi	a0, s0, -1160
	sd	a0, -64(s0)
	ld	a0, -64(s0)
	call	_ZNSt15__new_allocatorIcED2Ev
	j	.LBB19_77
.LBB19_72:                              # %lpad124
.Ltmp81:
	sd	a0, -528(s0)
	sw	a1, -532(s0)
	addi	a0, s0, -1120
	call	_ZNSt7__cxx1112basic_stringIcSt11char_traitsIcESaIcEED1Ev
	j	.LBB19_77
.LBB19_73:                              # %if.end
	j	.LBB19_76
.LBB19_74:                              # %if.else138
.Ltmp50:
	addi	a0, s0, -1328
	addi	a1, s0, -880
	call	_ZNK8nlohmann10basic_jsonISt3mapSt6vectorNSt7__cxx1112basic_stringIcSt11char_traitsIcESaIcEEEblmdSaNS_14adl_serializerEE3getIN3glm3vecILi3EdLNSC_9qualifierE0EEESF_Li0EEET0_v
.Ltmp51:
	j	.LBB19_75
.LBB19_75:                              # %invoke.cont140
	ld	a0, -472(s0)
	ld	a1, -1312(s0)
	sd	a1, 88(a0)
	ld	a1, -1320(s0)
	sd	a1, 80(a0)
	ld	a1, -1328(s0)
	sd	a1, 72(a0)
	j	.LBB19_76
.LBB19_76:                              # %if.end142
	addi	a0, s0, -880
	call	_ZN8nlohmann10basic_jsonISt3mapSt6vectorNSt7__cxx1112basic_stringIcSt11char_traitsIcESaIcEEEblmdSaNS_14adl_serializerEED2Ev
	j	.LBB19_78
.LBB19_77:                              # %ehcleanup143
	addi	a0, s0, -880
	call	_ZN8nlohmann10basic_jsonISt3mapSt6vectorNSt7__cxx1112basic_stringIcSt11char_traitsIcESaIcEEEblmdSaNS_14adl_serializerEED2Ev
	j	.LBB19_95
.LBB19_78:                              # %if.end144
	ld	a1, -464(s0)
	lui	a0, %hi(.L.str.12)
	addi	a2, a0, %lo(.L.str.12)
	addi	s2, s0, -1360
	mv	a0, s2
	call	_ZNK8nlohmann10basic_jsonISt3mapSt6vectorNSt7__cxx1112basic_stringIcSt11char_traitsIcESaIcEEEblmdSaNS_14adl_serializerEE4findIRA4_KcEENS_6detail9iter_implIKSA_EEOT_
	ld	a1, -464(s0)
	addi	s1, s0, -1392
	mv	a0, s1
	call	_ZNK8nlohmann10basic_jsonISt3mapSt6vectorNSt7__cxx1112basic_stringIcSt11char_traitsIcESaIcEEEblmdSaNS_14adl_serializerEE3endEv
	mv	a0, s2
	mv	a1, s1
	call	_ZNK8nlohmann6detail9iter_implIKNS_10basic_jsonISt3mapSt6vectorNSt7__cxx1112basic_stringIcSt11char_traitsIcESaIcEEEblmdSaNS_14adl_serializerEEEEneERKSE_
	beqz	a0, .LBB19_94
	j	.LBB19_79
.LBB19_79:                              # %if.then148
	ld	s1, -464(s0)
	addi	a2, s0, -1448
	sd	a2, -56(s0)
	ld	a0, -56(s0)
	sd	a0, -48(s0)
.Ltmp89:
	lui	a0, %hi(.L.str.12)
	addi	a1, a0, %lo(.L.str.12)
	addi	a0, s0, -1440
	call	_ZNSt7__cxx1112basic_stringIcSt11char_traitsIcESaIcEEC2IS3_EEPKcRKS3_
.Ltmp90:
	j	.LBB19_80
.LBB19_80:                              # %invoke.cont152
.Ltmp92:
	addi	a1, s0, -1440
	mv	a0, s1
	call	_ZNK8nlohmann10basic_jsonISt3mapSt6vectorNSt7__cxx1112basic_stringIcSt11char_traitsIcESaIcEEEblmdSaNS_14adl_serializerEE2atERKS8_
	mv	a1, a0
.Ltmp93:
	j	.LBB19_81
.LBB19_81:                              # %invoke.cont154
.Ltmp94:
	addi	a0, s0, -1408
	call	_ZN8nlohmann10basic_jsonISt3mapSt6vectorNSt7__cxx1112basic_stringIcSt11char_traitsIcESaIcEEEblmdSaNS_14adl_serializerEEC2ERKSA_
.Ltmp95:
	j	.LBB19_82
.LBB19_82:                              # %invoke.cont156
	addi	a0, s0, -1440
	call	_ZNSt7__cxx1112basic_stringIcSt11char_traitsIcESaIcEED1Ev
	addi	a0, s0, -1448
	sd	a0, -96(s0)
	ld	a0, -96(s0)
	call	_ZNSt15__new_allocatorIcED2Ev
	addi	a0, s0, -1408
	call	_ZNK8nlohmann10basic_jsonISt3mapSt6vectorNSt7__cxx1112basic_stringIcSt11char_traitsIcESaIcEEEblmdSaNS_14adl_serializerEE4typeEv
	addi	a1, zero, 1
	beq	a0, a1, .LBB19_84
	j	.LBB19_83
.LBB19_83:                              # %lor.lhs.false
	addi	a0, s0, -1408
	call	_ZNK8nlohmann10basic_jsonISt3mapSt6vectorNSt7__cxx1112basic_stringIcSt11char_traitsIcESaIcEEEblmdSaNS_14adl_serializerEE4typeEv
	addi	a1, zero, 3
	bne	a0, a1, .LBB19_91
	j	.LBB19_84
.LBB19_84:                              # %if.then163
.Ltmp99:
	addi	a0, s0, -1512
	addi	a1, s0, -1408
	call	_ZNK8nlohmann10basic_jsonISt3mapSt6vectorNSt7__cxx1112basic_stringIcSt11char_traitsIcESaIcEEEblmdSaNS_14adl_serializerEE3getI10ComplexIORSC_Li0EEET0_v
.Ltmp100:
	j	.LBB19_85
.LBB19_85:                              # %invoke.cont167
.Ltmp101:
	addi	a0, s0, -1464
	addi	a1, s0, -1512
	call	_ZSt11make_sharedI10ComplexIORJS0_EESt10shared_ptrINSt9enable_ifIXntsr8is_arrayIT_EE5valueES3_E4typeEEDpOT0_
.Ltmp102:
	j	.LBB19_86
.LBB19_86:                              # %invoke.cont168
	ld	a0, -472(s0)
	addi	a0, a0, 128
	addi	s1, s0, -1464
	mv	a1, s1
	call	_ZNSt10shared_ptrI10ComplexIOREaSEOS1_
	mv	a0, s1
	call	_ZNSt10shared_ptrI10ComplexIORED2Ev
	j	.LBB19_93
.LBB19_87:                              # %lpad151
.Ltmp91:
	sd	a0, -528(s0)
	sw	a1, -532(s0)
	j	.LBB19_89
.LBB19_88:                              # %lpad153
.Ltmp96:
	sd	a0, -528(s0)
	sw	a1, -532(s0)
	addi	a0, s0, -1440
	call	_ZNSt7__cxx1112basic_stringIcSt11char_traitsIcESaIcEED1Ev
	j	.LBB19_89
.LBB19_89:                              # %ehcleanup158
	addi	a0, s0, -1448
	sd	a0, -344(s0)
	ld	a0, -344(s0)
	call	_ZNSt15__new_allocatorIcED2Ev
	j	.LBB19_95
.LBB19_90:                              # %lpad166
.Ltmp103:
	sd	a0, -528(s0)
	sw	a1, -532(s0)
	addi	a0, s0, -1408
	call	_ZN8nlohmann10basic_jsonISt3mapSt6vectorNSt7__cxx1112basic_stringIcSt11char_traitsIcESaIcEEEblmdSaNS_14adl_serializerEED2Ev
	j	.LBB19_95
.LBB19_91:                              # %if.else170
	ld	a0, -472(s0)
	addi	a1, a0, 112
.Ltmp97:
	addi	a0, s0, -1408
	call	_ZNK8nlohmann10basic_jsonISt3mapSt6vectorNSt7__cxx1112basic_stringIcSt11char_traitsIcESaIcEEEblmdSaNS_14adl_serializerEE6get_toIdLi0EEERT_SD_
.Ltmp98:
	j	.LBB19_92
.LBB19_92:                              # %invoke.cont171
	j	.LBB19_93
.LBB19_93:                              # %if.end173
	addi	a0, s0, -1408
	call	_ZN8nlohmann10basic_jsonISt3mapSt6vectorNSt7__cxx1112basic_stringIcSt11char_traitsIcESaIcEEEblmdSaNS_14adl_serializerEED2Ev
	j	.LBB19_94
.LBB19_94:                              # %if.end175
	ld	a0, -472(s0)
	call	_ZN8Material17computePropertiesEv
	ld	s2, 1504(sp)
	ld	s1, 1512(sp)
	ld	s0, 1520(sp)
	.cfi_def_cfa sp, 1536
	ld	ra, 1528(sp)
	.cfi_restore ra
	.cfi_restore s0
	.cfi_restore s1
	.cfi_restore s2
	addi	sp, sp, 1536
	.cfi_def_cfa_offset 0
	ret
.LBB19_95:                              # %eh.resume
	ld	a0, -528(s0)
	call	_Unwind_Resume
.Lfunc_end19:
	.size	_Z9from_jsonRKN8nlohmann10basic_jsonISt3mapSt6vectorNSt7__cxx1112basic_stringIcSt11char_traitsIcESaIcEEEblmdSaNS_14adl_serializerEEER8Material, .Lfunc_end19-_Z9from_jsonRKN8nlohmann10basic_jsonISt3mapSt6vectorNSt7__cxx1112basic_stringIcSt11char_traitsIcESaIcEEEblmdSaNS_14adl_serializerEEER8Material
	.cfi_endproc
	.section	.gcc_except_table,"a",@progbits
	.p2align	2
GCC_except_table19:
.Lexception0:
	.byte	255                     # @LPStart Encoding = omit
	.byte	255                     # @TType Encoding = omit
	.byte	3                       # Call site Encoding = udata4
	.uleb128 .Lcst_end0-.Lcst_begin0
.Lcst_begin0:
	.word	.Ltmp0-.Lfunc_begin0    # >> Call Site 1 <<
	.word	.Ltmp1-.Ltmp0           #   Call between .Ltmp0 and .Ltmp1
	.word	.Ltmp2-.Lfunc_begin0    #     jumps to .Ltmp2
	.byte	0                       #   On action: cleanup
	.word	.Ltmp3-.Lfunc_begin0    # >> Call Site 2 <<
	.word	.Ltmp4-.Ltmp3           #   Call between .Ltmp3 and .Ltmp4
	.word	.Ltmp5-.Lfunc_begin0    #     jumps to .Ltmp5
	.byte	0                       #   On action: cleanup
	.word	.Ltmp6-.Lfunc_begin0    # >> Call Site 3 <<
	.word	.Ltmp7-.Ltmp6           #   Call between .Ltmp6 and .Ltmp7
	.word	.Ltmp8-.Lfunc_begin0    #     jumps to .Ltmp8
	.byte	0                       #   On action: cleanup
	.word	.Ltmp9-.Lfunc_begin0    # >> Call Site 4 <<
	.word	.Ltmp10-.Ltmp9          #   Call between .Ltmp9 and .Ltmp10
	.word	.Ltmp11-.Lfunc_begin0   #     jumps to .Ltmp11
	.byte	0                       #   On action: cleanup
	.word	.Ltmp12-.Lfunc_begin0   # >> Call Site 5 <<
	.word	.Ltmp13-.Ltmp12         #   Call between .Ltmp12 and .Ltmp13
	.word	.Ltmp14-.Lfunc_begin0   #     jumps to .Ltmp14
	.byte	0                       #   On action: cleanup
	.word	.Ltmp15-.Lfunc_begin0   # >> Call Site 6 <<
	.word	.Ltmp16-.Ltmp15         #   Call between .Ltmp15 and .Ltmp16
	.word	.Ltmp17-.Lfunc_begin0   #     jumps to .Ltmp17
	.byte	0                       #   On action: cleanup
	.word	.Ltmp18-.Lfunc_begin0   # >> Call Site 7 <<
	.word	.Ltmp19-.Ltmp18         #   Call between .Ltmp18 and .Ltmp19
	.word	.Ltmp20-.Lfunc_begin0   #     jumps to .Ltmp20
	.byte	0                       #   On action: cleanup
	.word	.Ltmp21-.Lfunc_begin0   # >> Call Site 8 <<
	.word	.Ltmp22-.Ltmp21         #   Call between .Ltmp21 and .Ltmp22
	.word	.Ltmp23-.Lfunc_begin0   #     jumps to .Ltmp23
	.byte	0                       #   On action: cleanup
	.word	.Ltmp24-.Lfunc_begin0   # >> Call Site 9 <<
	.word	.Ltmp25-.Ltmp24         #   Call between .Ltmp24 and .Ltmp25
	.word	.Ltmp26-.Lfunc_begin0   #     jumps to .Ltmp26
	.byte	0                       #   On action: cleanup
	.word	.Ltmp27-.Lfunc_begin0   # >> Call Site 10 <<
	.word	.Ltmp28-.Ltmp27         #   Call between .Ltmp27 and .Ltmp28
	.word	.Ltmp29-.Lfunc_begin0   #     jumps to .Ltmp29
	.byte	0                       #   On action: cleanup
	.word	.Ltmp30-.Lfunc_begin0   # >> Call Site 11 <<
	.word	.Ltmp31-.Ltmp30         #   Call between .Ltmp30 and .Ltmp31
	.word	.Ltmp32-.Lfunc_begin0   #     jumps to .Ltmp32
	.byte	0                       #   On action: cleanup
	.word	.Ltmp33-.Lfunc_begin0   # >> Call Site 12 <<
	.word	.Ltmp34-.Ltmp33         #   Call between .Ltmp33 and .Ltmp34
	.word	.Ltmp35-.Lfunc_begin0   #     jumps to .Ltmp35
	.byte	0                       #   On action: cleanup
	.word	.Ltmp36-.Lfunc_begin0   # >> Call Site 13 <<
	.word	.Ltmp37-.Ltmp36         #   Call between .Ltmp36 and .Ltmp37
	.word	.Ltmp38-.Lfunc_begin0   #     jumps to .Ltmp38
	.byte	0                       #   On action: cleanup
	.word	.Ltmp39-.Lfunc_begin0   # >> Call Site 14 <<
	.word	.Ltmp40-.Ltmp39         #   Call between .Ltmp39 and .Ltmp40
	.word	.Ltmp41-.Lfunc_begin0   #     jumps to .Ltmp41
	.byte	0                       #   On action: cleanup
	.word	.Ltmp40-.Lfunc_begin0   # >> Call Site 15 <<
	.word	.Ltmp42-.Ltmp40         #   Call between .Ltmp40 and .Ltmp42
	.word	0                       #     has no landing pad
	.byte	0                       #   On action: cleanup
	.word	.Ltmp42-.Lfunc_begin0   # >> Call Site 16 <<
	.word	.Ltmp43-.Ltmp42         #   Call between .Ltmp42 and .Ltmp43
	.word	.Ltmp44-.Lfunc_begin0   #     jumps to .Ltmp44
	.byte	0                       #   On action: cleanup
	.word	.Ltmp45-.Lfunc_begin0   # >> Call Site 17 <<
	.word	.Ltmp48-.Ltmp45         #   Call between .Ltmp45 and .Ltmp48
	.word	.Ltmp49-.Lfunc_begin0   #     jumps to .Ltmp49
	.byte	0                       #   On action: cleanup
	.word	.Ltmp52-.Lfunc_begin0   # >> Call Site 18 <<
	.word	.Ltmp53-.Ltmp52         #   Call between .Ltmp52 and .Ltmp53
	.word	.Ltmp54-.Lfunc_begin0   #     jumps to .Ltmp54
	.byte	0                       #   On action: cleanup
	.word	.Ltmp55-.Lfunc_begin0   # >> Call Site 19 <<
	.word	.Ltmp56-.Ltmp55         #   Call between .Ltmp55 and .Ltmp56
	.word	.Ltmp57-.Lfunc_begin0   #     jumps to .Ltmp57
	.byte	0                       #   On action: cleanup
	.word	.Ltmp58-.Lfunc_begin0   # >> Call Site 20 <<
	.word	.Ltmp59-.Ltmp58         #   Call between .Ltmp58 and .Ltmp59
	.word	.Ltmp60-.Lfunc_begin0   #     jumps to .Ltmp60
	.byte	0                       #   On action: cleanup
	.word	.Ltmp61-.Lfunc_begin0   # >> Call Site 21 <<
	.word	.Ltmp62-.Ltmp61         #   Call between .Ltmp61 and .Ltmp62
	.word	.Ltmp63-.Lfunc_begin0   #     jumps to .Ltmp63
	.byte	0                       #   On action: cleanup
	.word	.Ltmp82-.Lfunc_begin0   # >> Call Site 22 <<
	.word	.Ltmp87-.Ltmp82         #   Call between .Ltmp82 and .Ltmp87
	.word	.Ltmp88-.Lfunc_begin0   #     jumps to .Ltmp88
	.byte	0                       #   On action: cleanup
	.word	.Ltmp64-.Lfunc_begin0   # >> Call Site 23 <<
	.word	.Ltmp65-.Ltmp64         #   Call between .Ltmp64 and .Ltmp65
	.word	.Ltmp66-.Lfunc_begin0   #     jumps to .Ltmp66
	.byte	0                       #   On action: cleanup
	.word	.Ltmp67-.Lfunc_begin0   # >> Call Site 24 <<
	.word	.Ltmp68-.Ltmp67         #   Call between .Ltmp67 and .Ltmp68
	.word	.Ltmp69-.Lfunc_begin0   #     jumps to .Ltmp69
	.byte	0                       #   On action: cleanup
	.word	.Ltmp70-.Lfunc_begin0   # >> Call Site 25 <<
	.word	.Ltmp71-.Ltmp70         #   Call between .Ltmp70 and .Ltmp71
	.word	.Ltmp72-.Lfunc_begin0   #     jumps to .Ltmp72
	.byte	0                       #   On action: cleanup
	.word	.Ltmp73-.Lfunc_begin0   # >> Call Site 26 <<
	.word	.Ltmp80-.Ltmp73         #   Call between .Ltmp73 and .Ltmp80
	.word	.Ltmp81-.Lfunc_begin0   #     jumps to .Ltmp81
	.byte	0                       #   On action: cleanup
	.word	.Ltmp50-.Lfunc_begin0   # >> Call Site 27 <<
	.word	.Ltmp51-.Ltmp50         #   Call between .Ltmp50 and .Ltmp51
	.word	.Ltmp88-.Lfunc_begin0   #     jumps to .Ltmp88
	.byte	0                       #   On action: cleanup
	.word	.Ltmp51-.Lfunc_begin0   # >> Call Site 28 <<
	.word	.Ltmp89-.Ltmp51         #   Call between .Ltmp51 and .Ltmp89
	.word	0                       #     has no landing pad
	.byte	0                       #   On action: cleanup
	.word	.Ltmp89-.Lfunc_begin0   # >> Call Site 29 <<
	.word	.Ltmp90-.Ltmp89         #   Call between .Ltmp89 and .Ltmp90
	.word	.Ltmp91-.Lfunc_begin0   #     jumps to .Ltmp91
	.byte	0                       #   On action: cleanup
	.word	.Ltmp92-.Lfunc_begin0   # >> Call Site 30 <<
	.word	.Ltmp95-.Ltmp92         #   Call between .Ltmp92 and .Ltmp95
	.word	.Ltmp96-.Lfunc_begin0   #     jumps to .Ltmp96
	.byte	0                       #   On action: cleanup
	.word	.Ltmp99-.Lfunc_begin0   # >> Call Site 31 <<
	.word	.Ltmp98-.Ltmp99         #   Call between .Ltmp99 and .Ltmp98
	.word	.Ltmp103-.Lfunc_begin0  #     jumps to .Ltmp103
	.byte	0                       #   On action: cleanup
	.word	.Ltmp98-.Lfunc_begin0   # >> Call Site 32 <<
	.word	.Lfunc_end19-.Ltmp98    #   Call between .Ltmp98 and .Lfunc_end19
	.word	0                       #     has no landing pad
	.byte	0                       #   On action: cleanup
.Lcst_end0:
	.p2align	2
                                        # -- End function
	.section	.text._Z13getToOptionalIdEvRKN8nlohmann10basic_jsonISt3mapSt6vectorNSt7__cxx1112basic_stringIcSt11char_traitsIcESaIcEEEblmdSaNS0_14adl_serializerEEES9_RT_,"axG",@progbits,_Z13getToOptionalIdEvRKN8nlohmann10basic_jsonISt3mapSt6vectorNSt7__cxx1112basic_stringIcSt11char_traitsIcESaIcEEEblmdSaNS0_14adl_serializerEEES9_RT_,comdat
	.weak	_Z13getToOptionalIdEvRKN8nlohmann10basic_jsonISt3mapSt6vectorNSt7__cxx1112basic_stringIcSt11char_traitsIcESaIcEEEblmdSaNS0_14adl_serializerEEES9_RT_ # -- Begin function _Z13getToOptionalIdEvRKN8nlohmann10basic_jsonISt3mapSt6vectorNSt7__cxx1112basic_stringIcSt11char_traitsIcESaIcEEEblmdSaNS0_14adl_serializerEEES9_RT_
	.p2align	2
	.type	_Z13getToOptionalIdEvRKN8nlohmann10basic_jsonISt3mapSt6vectorNSt7__cxx1112basic_stringIcSt11char_traitsIcESaIcEEEblmdSaNS0_14adl_serializerEEES9_RT_,@function
_Z13getToOptionalIdEvRKN8nlohmann10basic_jsonISt3mapSt6vectorNSt7__cxx1112basic_stringIcSt11char_traitsIcESaIcEEEblmdSaNS0_14adl_serializerEEES9_RT_: # @_Z13getToOptionalIdEvRKN8nlohmann10basic_jsonISt3mapSt6vectorNSt7__cxx1112basic_stringIcSt11char_traitsIcESaIcEEEblmdSaNS0_14adl_serializerEEES9_RT_
	.cfi_startproc
# %bb.0:                                # %entry
	addi	sp, sp, -128
	.cfi_def_cfa_offset 128
	sd	ra, 120(sp)
	sd	s0, 112(sp)
	sd	s1, 104(sp)
	sd	s2, 96(sp)
	sd	s3, 88(sp)
	.cfi_offset ra, -8
	.cfi_offset s0, -16
	.cfi_offset s1, -24
	.cfi_offset s2, -32
	.cfi_offset s3, -40
	addi	s0, sp, 128
	.cfi_def_cfa s0, 0
	mv	s3, a1
	sd	a0, -48(s0)
	sd	a2, -56(s0)
	ld	a1, -48(s0)
	addi	s2, s0, -88
	mv	a0, s2
	mv	a2, s3
	call	_ZNK8nlohmann10basic_jsonISt3mapSt6vectorNSt7__cxx1112basic_stringIcSt11char_traitsIcESaIcEEEblmdSaNS_14adl_serializerEE4findIRS8_EENS_6detail9iter_implIKSA_EEOT_
	ld	a1, -48(s0)
	addi	s1, s0, -120
	mv	a0, s1
	call	_ZNK8nlohmann10basic_jsonISt3mapSt6vectorNSt7__cxx1112basic_stringIcSt11char_traitsIcESaIcEEEblmdSaNS_14adl_serializerEE3endEv
	mv	a0, s2
	mv	a1, s1
	call	_ZNK8nlohmann6detail9iter_implIKNS_10basic_jsonISt3mapSt6vectorNSt7__cxx1112basic_stringIcSt11char_traitsIcESaIcEEEblmdSaNS_14adl_serializerEEEEneERKSE_
	beqz	a0, .LBB20_2
	j	.LBB20_1
.LBB20_1:                               # %if.then
	ld	a0, -48(s0)
	mv	a1, s3
	call	_ZNK8nlohmann10basic_jsonISt3mapSt6vectorNSt7__cxx1112basic_stringIcSt11char_traitsIcESaIcEEEblmdSaNS_14adl_serializerEE2atERKS8_
	ld	a1, -56(s0)
	call	_ZNK8nlohmann10basic_jsonISt3mapSt6vectorNSt7__cxx1112basic_stringIcSt11char_traitsIcESaIcEEEblmdSaNS_14adl_serializerEE6get_toIdLi0EEERT_SD_
	j	.LBB20_2
.LBB20_2:                               # %if.end
	ld	s3, 88(sp)
	ld	s2, 96(sp)
	ld	s1, 104(sp)
	ld	s0, 112(sp)
	.cfi_def_cfa sp, 128
	ld	ra, 120(sp)
	.cfi_restore ra
	.cfi_restore s0
	.cfi_restore s1
	.cfi_restore s2
	.cfi_restore s3
	addi	sp, sp, 128
	.cfi_def_cfa_offset 0
	ret
.Lfunc_end20:
	.size	_Z13getToOptionalIdEvRKN8nlohmann10basic_jsonISt3mapSt6vectorNSt7__cxx1112basic_stringIcSt11char_traitsIcESaIcEEEblmdSaNS0_14adl_serializerEEES9_RT_, .Lfunc_end20-_Z13getToOptionalIdEvRKN8nlohmann10basic_jsonISt3mapSt6vectorNSt7__cxx1112basic_stringIcSt11char_traitsIcESaIcEEEblmdSaNS0_14adl_serializerEEES9_RT_
	.cfi_endproc
                                        # -- End function
	.section	.text._ZNSt7__cxx1112basic_stringIcSt11char_traitsIcESaIcEEC2IS3_EEPKcRKS3_,"axG",@progbits,_ZNSt7__cxx1112basic_stringIcSt11char_traitsIcESaIcEEC2IS3_EEPKcRKS3_,comdat
	.weak	_ZNSt7__cxx1112basic_stringIcSt11char_traitsIcESaIcEEC2IS3_EEPKcRKS3_ # -- Begin function _ZNSt7__cxx1112basic_stringIcSt11char_traitsIcESaIcEEC2IS3_EEPKcRKS3_
	.p2align	2
	.type	_ZNSt7__cxx1112basic_stringIcSt11char_traitsIcESaIcEEC2IS3_EEPKcRKS3_,@function
_ZNSt7__cxx1112basic_stringIcSt11char_traitsIcESaIcEEC2IS3_EEPKcRKS3_: # @_ZNSt7__cxx1112basic_stringIcSt11char_traitsIcESaIcEEC2IS3_EEPKcRKS3_
.Lfunc_begin1:
	.cfi_startproc
	.cfi_personality 155, DW.ref.__gxx_personality_v0
	.cfi_lsda 27, .Lexception1
# %bb.0:                                # %entry
	addi	sp, sp, -96
	.cfi_def_cfa_offset 96
	sd	ra, 88(sp)
	sd	s0, 80(sp)
	sd	s1, 72(sp)
	sd	s2, 64(sp)
	.cfi_offset ra, -8
	.cfi_offset s0, -16
	.cfi_offset s1, -24
	.cfi_offset s2, -32
	addi	s0, sp, 96
	.cfi_def_cfa s0, 0
	sd	a0, -40(s0)
	sd	a1, -48(s0)
	sd	a2, -56(s0)
	ld	s1, -40(s0)
	mv	a0, s1
	call	_ZNSt7__cxx1112basic_stringIcSt11char_traitsIcESaIcEE13_M_local_dataEv
	mv	a1, a0
	ld	a2, -56(s0)
	mv	a0, s1
	call	_ZNSt7__cxx1112basic_stringIcSt11char_traitsIcESaIcEE12_Alloc_hiderC1EPcRKS3_
	ld	a0, -48(s0)
	bnez	a0, .LBB21_4
	j	.LBB21_1
.LBB21_1:                               # %if.then
.Ltmp108:
	lui	a0, %hi(.L.str.61)
	addi	a0, a0, %lo(.L.str.61)
	call	_ZSt19__throw_logic_errorPKc
.Ltmp109:
	j	.LBB21_2
.LBB21_2:                               # %invoke.cont
.LBB21_3:                               # %lpad
.Ltmp110:
	sd	a0, -64(s0)
	sw	a1, -68(s0)
	mv	a0, s1
	call	_ZNSt7__cxx1112basic_stringIcSt11char_traitsIcESaIcEE12_Alloc_hiderD2Ev
	j	.LBB21_7
.LBB21_4:                               # %if.end
	ld	s2, -48(s0)
.Ltmp104:
	mv	a0, s2
	call	_ZNSt11char_traitsIcE6lengthEPKc
.Ltmp105:
	j	.LBB21_5
.LBB21_5:                               # %invoke.cont2
	add	a0, s2, a0
	sd	a0, -80(s0)
	ld	a1, -48(s0)
	ld	a2, -80(s0)
.Ltmp106:
	mv	a0, s1
	call	_ZNSt7__cxx1112basic_stringIcSt11char_traitsIcESaIcEE12_M_constructIPKcEEvT_S8_St20forward_iterator_tag
.Ltmp107:
	j	.LBB21_6
.LBB21_6:                               # %invoke.cont4
	ld	s2, 64(sp)
	ld	s1, 72(sp)
	ld	s0, 80(sp)
	.cfi_def_cfa sp, 96
	ld	ra, 88(sp)
	.cfi_restore ra
	.cfi_restore s0
	.cfi_restore s1
	.cfi_restore s2
	addi	sp, sp, 96
	.cfi_def_cfa_offset 0
	ret
.LBB21_7:                               # %eh.resume
	ld	a0, -64(s0)
	call	_Unwind_Resume
.Lfunc_end21:
	.size	_ZNSt7__cxx1112basic_stringIcSt11char_traitsIcESaIcEEC2IS3_EEPKcRKS3_, .Lfunc_end21-_ZNSt7__cxx1112basic_stringIcSt11char_traitsIcESaIcEEC2IS3_EEPKcRKS3_
	.cfi_endproc
	.section	.gcc_except_table,"a",@progbits
	.p2align	2
GCC_except_table21:
.Lexception1:
	.byte	255                     # @LPStart Encoding = omit
	.byte	255                     # @TType Encoding = omit
	.byte	3                       # Call site Encoding = udata4
	.uleb128 .Lcst_end1-.Lcst_begin1
.Lcst_begin1:
	.word	.Lfunc_begin1-.Lfunc_begin1 # >> Call Site 1 <<
	.word	.Ltmp108-.Lfunc_begin1  #   Call between .Lfunc_begin1 and .Ltmp108
	.word	0                       #     has no landing pad
	.byte	0                       #   On action: cleanup
	.word	.Ltmp108-.Lfunc_begin1  # >> Call Site 2 <<
	.word	.Ltmp107-.Ltmp108       #   Call between .Ltmp108 and .Ltmp107
	.word	.Ltmp110-.Lfunc_begin1  #     jumps to .Ltmp110
	.byte	0                       #   On action: cleanup
	.word	.Ltmp107-.Lfunc_begin1  # >> Call Site 3 <<
	.word	.Lfunc_end21-.Ltmp107   #   Call between .Ltmp107 and .Lfunc_end21
	.word	0                       #     has no landing pad
	.byte	0                       #   On action: cleanup
.Lcst_end1:
	.p2align	2
                                        # -- End function
	.section	.text._Z13getToOptionalIbEvRKN8nlohmann10basic_jsonISt3mapSt6vectorNSt7__cxx1112basic_stringIcSt11char_traitsIcESaIcEEEblmdSaNS0_14adl_serializerEEES9_RT_,"axG",@progbits,_Z13getToOptionalIbEvRKN8nlohmann10basic_jsonISt3mapSt6vectorNSt7__cxx1112basic_stringIcSt11char_traitsIcESaIcEEEblmdSaNS0_14adl_serializerEEES9_RT_,comdat
	.weak	_Z13getToOptionalIbEvRKN8nlohmann10basic_jsonISt3mapSt6vectorNSt7__cxx1112basic_stringIcSt11char_traitsIcESaIcEEEblmdSaNS0_14adl_serializerEEES9_RT_ # -- Begin function _Z13getToOptionalIbEvRKN8nlohmann10basic_jsonISt3mapSt6vectorNSt7__cxx1112basic_stringIcSt11char_traitsIcESaIcEEEblmdSaNS0_14adl_serializerEEES9_RT_
	.p2align	2
	.type	_Z13getToOptionalIbEvRKN8nlohmann10basic_jsonISt3mapSt6vectorNSt7__cxx1112basic_stringIcSt11char_traitsIcESaIcEEEblmdSaNS0_14adl_serializerEEES9_RT_,@function
_Z13getToOptionalIbEvRKN8nlohmann10basic_jsonISt3mapSt6vectorNSt7__cxx1112basic_stringIcSt11char_traitsIcESaIcEEEblmdSaNS0_14adl_serializerEEES9_RT_: # @_Z13getToOptionalIbEvRKN8nlohmann10basic_jsonISt3mapSt6vectorNSt7__cxx1112basic_stringIcSt11char_traitsIcESaIcEEEblmdSaNS0_14adl_serializerEEES9_RT_
	.cfi_startproc
# %bb.0:                                # %entry
	addi	sp, sp, -128
	.cfi_def_cfa_offset 128
	sd	ra, 120(sp)
	sd	s0, 112(sp)
	sd	s1, 104(sp)
	sd	s2, 96(sp)
	sd	s3, 88(sp)
	.cfi_offset ra, -8
	.cfi_offset s0, -16
	.cfi_offset s1, -24
	.cfi_offset s2, -32
	.cfi_offset s3, -40
	addi	s0, sp, 128
	.cfi_def_cfa s0, 0
	mv	s3, a1
	sd	a0, -48(s0)
	sd	a2, -56(s0)
	ld	a1, -48(s0)
	addi	s2, s0, -88
	mv	a0, s2
	mv	a2, s3
	call	_ZNK8nlohmann10basic_jsonISt3mapSt6vectorNSt7__cxx1112basic_stringIcSt11char_traitsIcESaIcEEEblmdSaNS_14adl_serializerEE4findIRS8_EENS_6detail9iter_implIKSA_EEOT_
	ld	a1, -48(s0)
	addi	s1, s0, -120
	mv	a0, s1
	call	_ZNK8nlohmann10basic_jsonISt3mapSt6vectorNSt7__cxx1112basic_stringIcSt11char_traitsIcESaIcEEEblmdSaNS_14adl_serializerEE3endEv
	mv	a0, s2
	mv	a1, s1
	call	_ZNK8nlohmann6detail9iter_implIKNS_10basic_jsonISt3mapSt6vectorNSt7__cxx1112basic_stringIcSt11char_traitsIcESaIcEEEblmdSaNS_14adl_serializerEEEEneERKSE_
	beqz	a0, .LBB22_2
	j	.LBB22_1
.LBB22_1:                               # %if.then
	ld	a0, -48(s0)
	mv	a1, s3
	call	_ZNK8nlohmann10basic_jsonISt3mapSt6vectorNSt7__cxx1112basic_stringIcSt11char_traitsIcESaIcEEEblmdSaNS_14adl_serializerEE2atERKS8_
	ld	a1, -56(s0)
	call	_ZNK8nlohmann10basic_jsonISt3mapSt6vectorNSt7__cxx1112basic_stringIcSt11char_traitsIcESaIcEEEblmdSaNS_14adl_serializerEE6get_toIbLi0EEERT_SD_
	j	.LBB22_2
.LBB22_2:                               # %if.end
	ld	s3, 88(sp)
	ld	s2, 96(sp)
	ld	s1, 104(sp)
	ld	s0, 112(sp)
	.cfi_def_cfa sp, 128
	ld	ra, 120(sp)
	.cfi_restore ra
	.cfi_restore s0
	.cfi_restore s1
	.cfi_restore s2
	.cfi_restore s3
	addi	sp, sp, 128
	.cfi_def_cfa_offset 0
	ret
.Lfunc_end22:
	.size	_Z13getToOptionalIbEvRKN8nlohmann10basic_jsonISt3mapSt6vectorNSt7__cxx1112basic_stringIcSt11char_traitsIcESaIcEEEblmdSaNS0_14adl_serializerEEES9_RT_, .Lfunc_end22-_Z13getToOptionalIbEvRKN8nlohmann10basic_jsonISt3mapSt6vectorNSt7__cxx1112basic_stringIcSt11char_traitsIcESaIcEEEblmdSaNS0_14adl_serializerEEES9_RT_
	.cfi_endproc
                                        # -- End function
	.text
	.p2align	2               # -- Begin function _ZZ9from_jsonRKN8nlohmann10basic_jsonISt3mapSt6vectorNSt7__cxx1112basic_stringIcSt11char_traitsIcESaIcEEEblmdSaNS_14adl_serializerEEER8MaterialENK3$_0clERKS8_RN3glm3vecILi3EdLNSI_9qualifierE0EEE
	.type	_ZZ9from_jsonRKN8nlohmann10basic_jsonISt3mapSt6vectorNSt7__cxx1112basic_stringIcSt11char_traitsIcESaIcEEEblmdSaNS_14adl_serializerEEER8MaterialENK3$_0clERKS8_RN3glm3vecILi3EdLNSI_9qualifierE0EEE,@function
_ZZ9from_jsonRKN8nlohmann10basic_jsonISt3mapSt6vectorNSt7__cxx1112basic_stringIcSt11char_traitsIcESaIcEEEblmdSaNS_14adl_serializerEEER8MaterialENK3$_0clERKS8_RN3glm3vecILi3EdLNSI_9qualifierE0EEE: # @"_ZZ9from_jsonRKN8nlohmann10basic_jsonISt3mapSt6vectorNSt7__cxx1112basic_stringIcSt11char_traitsIcESaIcEEEblmdSaNS_14adl_serializerEEER8MaterialENK3$_0clERKS8_RN3glm3vecILi3EdLNSI_9qualifierE0EEE"
.Lfunc_begin2:
	.cfi_startproc
	.cfi_personality 155, DW.ref.__gxx_personality_v0
	.cfi_lsda 27, .Lexception2
# %bb.0:                                # %entry
	addi	sp, sp, -640
	.cfi_def_cfa_offset 640
	sd	ra, 632(sp)
	sd	s0, 624(sp)
	sd	s1, 616(sp)
	sd	s2, 608(sp)
	sd	s3, 600(sp)
	.cfi_offset ra, -8
	.cfi_offset s0, -16
	.cfi_offset s1, -24
	.cfi_offset s2, -32
	.cfi_offset s3, -40
	addi	s0, sp, 640
	.cfi_def_cfa s0, 0
	sd	a0, -48(s0)
	sd	a1, -56(s0)
	sd	a2, -64(s0)
	ld	s1, -48(s0)
	ld	a1, 0(s1)
	ld	a2, -56(s0)
	addi	s2, s0, -96
	mv	a0, s2
	call	_ZNK8nlohmann10basic_jsonISt3mapSt6vectorNSt7__cxx1112basic_stringIcSt11char_traitsIcESaIcEEEblmdSaNS_14adl_serializerEE4findIRKS8_EENS_6detail9iter_implIKSA_EEOT_
	ld	a1, 0(s1)
	addi	s3, s0, -128
	mv	a0, s3
	call	_ZNK8nlohmann10basic_jsonISt3mapSt6vectorNSt7__cxx1112basic_stringIcSt11char_traitsIcESaIcEEEblmdSaNS_14adl_serializerEE3endEv
	mv	a0, s2
	mv	a1, s3
	call	_ZNK8nlohmann6detail9iter_implIKNS_10basic_jsonISt3mapSt6vectorNSt7__cxx1112basic_stringIcSt11char_traitsIcESaIcEEEblmdSaNS_14adl_serializerEEEEneERKSE_
	beqz	a0, .LBB23_18
	j	.LBB23_1
.LBB23_1:                               # %if.then
	ld	a0, 0(s1)
	ld	a1, -56(s0)
	call	_ZNK8nlohmann10basic_jsonISt3mapSt6vectorNSt7__cxx1112basic_stringIcSt11char_traitsIcESaIcEEEblmdSaNS_14adl_serializerEE2atERKS8_
	sd	a0, -136(s0)
	ld	a0, -136(s0)
	call	_ZNK8nlohmann10basic_jsonISt3mapSt6vectorNSt7__cxx1112basic_stringIcSt11char_traitsIcESaIcEEEblmdSaNS_14adl_serializerEE4typeEv
	addi	a1, zero, 3
	bne	a0, a1, .LBB23_16
	j	.LBB23_2
.LBB23_2:                               # %if.then5
	ld	a1, -136(s0)
	addi	s1, s0, -168
	mv	a0, s1
	call	_ZNK8nlohmann10basic_jsonISt3mapSt6vectorNSt7__cxx1112basic_stringIcSt11char_traitsIcESaIcEEEblmdSaNS_14adl_serializerEE3getIS8_S8_Li0EEET0_v
	mv	a0, s1
	call	_ZNKSt7__cxx1112basic_stringIcSt11char_traitsIcESaIcEE4sizeEv
	addi	a1, zero, 7
	bne	a0, a1, .LBB23_14
	j	.LBB23_3
.LBB23_3:                               # %land.lhs.true
.Ltmp111:
	addi	a0, s0, -168
	mv	a1, zero
	call	_ZNSt7__cxx1112basic_stringIcSt11char_traitsIcESaIcEEixEm
.Ltmp112:
	j	.LBB23_4
.LBB23_4:                               # %invoke.cont
	lbu	a0, 0(a0)
	addi	a1, zero, 35
	bne	a0, a1, .LBB23_14
	j	.LBB23_5
.LBB23_5:                               # %if.then10
.Ltmp113:
	addi	a0, s0, -168
	mv	a1, zero
	addi	a2, zero, 1
	call	_ZNSt7__cxx1112basic_stringIcSt11char_traitsIcESaIcEE5eraseEmm
.Ltmp114:
	j	.LBB23_6
.LBB23_6:                               # %invoke.cont11
.Ltmp115:
	addi	a0, s0, -576
	call	_ZNSt7__cxx1118basic_stringstreamIcSt11char_traitsIcESaIcEEC1Ev
.Ltmp116:
	j	.LBB23_7
.LBB23_7:                               # %invoke.cont13
	addi	a0, s0, -576
	addi	a0, a0, 16
.Ltmp118:
	lui	a1, %hi(_ZSt3hexRSt8ios_base)
	addi	a1, a1, %lo(_ZSt3hexRSt8ios_base)
	call	_ZNSolsEPFRSt8ios_baseS0_E
.Ltmp119:
	j	.LBB23_8
.LBB23_8:                               # %invoke.cont15
.Ltmp120:
	addi	a1, s0, -168
	call	_ZStlsIcSt11char_traitsIcESaIcEERSt13basic_ostreamIT_T0_ES7_RKNSt7__cxx1112basic_stringIS4_S5_T1_EE
.Ltmp121:
	j	.LBB23_9
.LBB23_9:                               # %invoke.cont17
.Ltmp122:
	addi	a0, s0, -576
	addi	a1, s0, -580
	call	_ZNSirsERj
.Ltmp123:
	j	.LBB23_10
.LBB23_10:                              # %invoke.cont19
	lw	a1, -580(s0)
.Ltmp124:
	addi	a0, s0, -608
	call	_Z10intToColorj
.Ltmp125:
	j	.LBB23_11
.LBB23_11:                              # %invoke.cont22
	ld	a0, -64(s0)
	ld	a1, -592(s0)
	sd	a1, 16(a0)
	ld	a1, -600(s0)
	sd	a1, 8(a0)
	ld	a1, -608(s0)
	sd	a1, 0(a0)
	addi	a0, s0, -576
	call	_ZNSt7__cxx1118basic_stringstreamIcSt11char_traitsIcESaIcEED1Ev
	j	.LBB23_14
.LBB23_12:                              # %lpad
.Ltmp117:
	sd	a0, -176(s0)
	sw	a1, -180(s0)
	j	.LBB23_15
.LBB23_13:                              # %lpad14
.Ltmp126:
	sd	a0, -176(s0)
	sw	a1, -180(s0)
	addi	a0, s0, -576
	call	_ZNSt7__cxx1118basic_stringstreamIcSt11char_traitsIcESaIcEED1Ev
	j	.LBB23_15
.LBB23_14:                              # %if.end
	addi	a0, s0, -168
	call	_ZNSt7__cxx1112basic_stringIcSt11char_traitsIcESaIcEED1Ev
	j	.LBB23_17
.LBB23_15:                              # %ehcleanup
	addi	a0, s0, -168
	call	_ZNSt7__cxx1112basic_stringIcSt11char_traitsIcESaIcEED1Ev
	j	.LBB23_19
.LBB23_16:                              # %if.else
	ld	a1, -136(s0)
	addi	a0, s0, -632
	call	_ZNK8nlohmann10basic_jsonISt3mapSt6vectorNSt7__cxx1112basic_stringIcSt11char_traitsIcESaIcEEEblmdSaNS_14adl_serializerEE3getIN3glm3vecILi3EdLNSC_9qualifierE0EEESF_Li0EEET0_v
	ld	a0, -64(s0)
	ld	a1, -616(s0)
	sd	a1, 16(a0)
	ld	a1, -624(s0)
	sd	a1, 8(a0)
	ld	a1, -632(s0)
	sd	a1, 0(a0)
	j	.LBB23_17
.LBB23_17:                              # %if.end24
	j	.LBB23_18
.LBB23_18:                              # %if.end25
	ld	s3, 600(sp)
	ld	s2, 608(sp)
	ld	s1, 616(sp)
	ld	s0, 624(sp)
	.cfi_def_cfa sp, 640
	ld	ra, 632(sp)
	.cfi_restore ra
	.cfi_restore s0
	.cfi_restore s1
	.cfi_restore s2
	.cfi_restore s3
	addi	sp, sp, 640
	.cfi_def_cfa_offset 0
	ret
.LBB23_19:                              # %eh.resume
	ld	a0, -176(s0)
	call	_Unwind_Resume
.Lfunc_end23:
	.size	_ZZ9from_jsonRKN8nlohmann10basic_jsonISt3mapSt6vectorNSt7__cxx1112basic_stringIcSt11char_traitsIcESaIcEEEblmdSaNS_14adl_serializerEEER8MaterialENK3$_0clERKS8_RN3glm3vecILi3EdLNSI_9qualifierE0EEE, .Lfunc_end23-_ZZ9from_jsonRKN8nlohmann10basic_jsonISt3mapSt6vectorNSt7__cxx1112basic_stringIcSt11char_traitsIcESaIcEEEblmdSaNS_14adl_serializerEEER8MaterialENK3$_0clERKS8_RN3glm3vecILi3EdLNSI_9qualifierE0EEE
	.cfi_endproc
	.section	.gcc_except_table,"a",@progbits
	.p2align	2
GCC_except_table23:
.Lexception2:
	.byte	255                     # @LPStart Encoding = omit
	.byte	255                     # @TType Encoding = omit
	.byte	3                       # Call site Encoding = udata4
	.uleb128 .Lcst_end2-.Lcst_begin2
.Lcst_begin2:
	.word	.Lfunc_begin2-.Lfunc_begin2 # >> Call Site 1 <<
	.word	.Ltmp111-.Lfunc_begin2  #   Call between .Lfunc_begin2 and .Ltmp111
	.word	0                       #     has no landing pad
	.byte	0                       #   On action: cleanup
	.word	.Ltmp111-.Lfunc_begin2  # >> Call Site 2 <<
	.word	.Ltmp116-.Ltmp111       #   Call between .Ltmp111 and .Ltmp116
	.word	.Ltmp117-.Lfunc_begin2  #     jumps to .Ltmp117
	.byte	0                       #   On action: cleanup
	.word	.Ltmp118-.Lfunc_begin2  # >> Call Site 3 <<
	.word	.Ltmp125-.Ltmp118       #   Call between .Ltmp118 and .Ltmp125
	.word	.Ltmp126-.Lfunc_begin2  #     jumps to .Ltmp126
	.byte	0                       #   On action: cleanup
	.word	.Ltmp125-.Lfunc_begin2  # >> Call Site 4 <<
	.word	.Lfunc_end23-.Ltmp125   #   Call between .Ltmp125 and .Lfunc_end23
	.word	0                       #     has no landing pad
	.byte	0                       #   On action: cleanup
.Lcst_end2:
	.p2align	2
                                        # -- End function
	.section	.sdata,"aw",@progbits
	.p2align	3               # -- Begin function _ZN4sRGB11gammaExpandERKN3glm3vecILi3EdLNS0_9qualifierE0EEE
.LCPI24_0:
	.quad	4585990280393462802     # double 0.04045
.LCPI24_1:
	.quad	4588087156379966505     # double 0.055
.LCPI24_2:
	.quad	4607430116779522785     # double 1.0549999999999999
.LCPI24_3:
	.quad	4623462931452961751     # double 12.92
	.section	.text._ZN4sRGB11gammaExpandERKN3glm3vecILi3EdLNS0_9qualifierE0EEE,"axG",@progbits,_ZN4sRGB11gammaExpandERKN3glm3vecILi3EdLNS0_9qualifierE0EEE,comdat
	.weak	_ZN4sRGB11gammaExpandERKN3glm3vecILi3EdLNS0_9qualifierE0EEE
	.p2align	2
	.type	_ZN4sRGB11gammaExpandERKN3glm3vecILi3EdLNS0_9qualifierE0EEE,@function
_ZN4sRGB11gammaExpandERKN3glm3vecILi3EdLNS0_9qualifierE0EEE: # @_ZN4sRGB11gammaExpandERKN3glm3vecILi3EdLNS0_9qualifierE0EEE
	.cfi_startproc
# %bb.0:                                # %entry
	addi	sp, sp, -64
	.cfi_def_cfa_offset 64
	sd	ra, 56(sp)
	sd	s0, 48(sp)
	sd	s1, 40(sp)
	.cfi_offset ra, -8
	.cfi_offset s0, -16
	.cfi_offset s1, -24
	addi	s0, sp, 64
	.cfi_def_cfa s0, 0
	mv	s1, a0
	sd	s1, -32(s0)
	sd	a1, -40(s0)
	sb	zero, -41(s0)
	j	.LBB24_1
.LBB24_1:                               # %for.cond
                                        # =>This Inner Loop Header: Depth=1
	lbu	a0, -41(s0)
	addi	a1, zero, 2
	blt	a1, a0, .LBB24_7
	j	.LBB24_2
.LBB24_2:                               # %for.body
                                        #   in Loop: Header=BB24_1 Depth=1
	ld	a0, -40(s0)
	lbu	a1, -41(s0)
	call	_ZNK3glm3vecILi3EdLNS_9qualifierE0EEixEi
	fld	ft0, 0(a0)
	lui	a0, %hi(.LCPI24_0)
	addi	a0, a0, %lo(.LCPI24_0)
	fld	ft1, 0(a0)
	fle.d	a0, ft0, ft1
	xori	a0, a0, 1
	bnez	a0, .LBB24_4
	j	.LBB24_3
.LBB24_3:                               # %cond.true
                                        #   in Loop: Header=BB24_1 Depth=1
	ld	a0, -40(s0)
	lbu	a1, -41(s0)
	call	_ZNK3glm3vecILi3EdLNS_9qualifierE0EEixEi
	fld	ft0, 0(a0)
	lui	a0, %hi(.LCPI24_3)
	addi	a0, a0, %lo(.LCPI24_3)
	fld	ft1, 0(a0)
	fdiv.d	ft0, ft0, ft1
	j	.LBB24_5
.LBB24_4:                               # %cond.false
                                        #   in Loop: Header=BB24_1 Depth=1
	ld	a0, -40(s0)
	lbu	a1, -41(s0)
	call	_ZNK3glm3vecILi3EdLNS_9qualifierE0EEixEi
	fld	ft0, 0(a0)
	lui	a0, %hi(.LCPI24_1)
	addi	a0, a0, %lo(.LCPI24_1)
	fld	ft1, 0(a0)
	fadd.d	ft0, ft0, ft1
	lui	a0, %hi(.LCPI24_2)
	addi	a0, a0, %lo(.LCPI24_2)
	fld	ft1, 0(a0)
	fdiv.d	ft0, ft0, ft1
	fmv.x.d	a0, ft0
	lui	a1, 16387
	addiw	a1, a1, 819
	slli	a1, a1, 12
	addi	a1, a1, 819
	slli	a1, a1, 12
	addi	a1, a1, 819
	slli	a1, a1, 12
	addi	a1, a1, 819
	call	pow
	fmv.d.x	ft0, a0
	j	.LBB24_5
.LBB24_5:                               # %cond.end
                                        #   in Loop: Header=BB24_1 Depth=1
	fsd	ft0, -56(s0)
	lbu	a1, -41(s0)
	mv	a0, s1
	call	_ZN3glm3vecILi3EdLNS_9qualifierE0EEixEi
	fld	ft0, -56(s0)
	fsd	ft0, 0(a0)
	j	.LBB24_6
.LBB24_6:                               # %for.inc
                                        #   in Loop: Header=BB24_1 Depth=1
	lb	a0, -41(s0)
	addi	a0, a0, 1
	sb	a0, -41(s0)
	j	.LBB24_1
.LBB24_7:                               # %for.end
	ld	s1, 40(sp)
	ld	s0, 48(sp)
	.cfi_def_cfa sp, 64
	ld	ra, 56(sp)
	.cfi_restore ra
	.cfi_restore s0
	.cfi_restore s1
	addi	sp, sp, 64
	.cfi_def_cfa_offset 0
	ret
.Lfunc_end24:
	.size	_ZN4sRGB11gammaExpandERKN3glm3vecILi3EdLNS0_9qualifierE0EEE, .Lfunc_end24-_ZN4sRGB11gammaExpandERKN3glm3vecILi3EdLNS0_9qualifierE0EEE
	.cfi_endproc
                                        # -- End function
	.section	.text._ZNK8nlohmann10basic_jsonISt3mapSt6vectorNSt7__cxx1112basic_stringIcSt11char_traitsIcESaIcEEEblmdSaNS_14adl_serializerEE4findIRA10_KcEENS_6detail9iter_implIKSA_EEOT_,"axG",@progbits,_ZNK8nlohmann10basic_jsonISt3mapSt6vectorNSt7__cxx1112basic_stringIcSt11char_traitsIcESaIcEEEblmdSaNS_14adl_serializerEE4findIRA10_KcEENS_6detail9iter_implIKSA_EEOT_,comdat
	.weak	_ZNK8nlohmann10basic_jsonISt3mapSt6vectorNSt7__cxx1112basic_stringIcSt11char_traitsIcESaIcEEEblmdSaNS_14adl_serializerEE4findIRA10_KcEENS_6detail9iter_implIKSA_EEOT_ # -- Begin function _ZNK8nlohmann10basic_jsonISt3mapSt6vectorNSt7__cxx1112basic_stringIcSt11char_traitsIcESaIcEEEblmdSaNS_14adl_serializerEE4findIRA10_KcEENS_6detail9iter_implIKSA_EEOT_
	.p2align	2
	.type	_ZNK8nlohmann10basic_jsonISt3mapSt6vectorNSt7__cxx1112basic_stringIcSt11char_traitsIcESaIcEEEblmdSaNS_14adl_serializerEE4findIRA10_KcEENS_6detail9iter_implIKSA_EEOT_,@function
_ZNK8nlohmann10basic_jsonISt3mapSt6vectorNSt7__cxx1112basic_stringIcSt11char_traitsIcESaIcEEEblmdSaNS_14adl_serializerEE4findIRA10_KcEENS_6detail9iter_implIKSA_EEOT_: # @_ZNK8nlohmann10basic_jsonISt3mapSt6vectorNSt7__cxx1112basic_stringIcSt11char_traitsIcESaIcEEEblmdSaNS_14adl_serializerEE4findIRA10_KcEENS_6detail9iter_implIKSA_EEOT_
	.cfi_startproc
# %bb.0:                                # %entry
	addi	sp, sp, -64
	.cfi_def_cfa_offset 64
	sd	ra, 56(sp)
	sd	s0, 48(sp)
	sd	s1, 40(sp)
	sd	s2, 32(sp)
	.cfi_offset ra, -8
	.cfi_offset s0, -16
	.cfi_offset s1, -24
	.cfi_offset s2, -32
	addi	s0, sp, 64
	.cfi_def_cfa s0, 0
	mv	s2, a0
	sd	s2, -40(s0)
	sd	a1, -48(s0)
	sd	a2, -56(s0)
	ld	s1, -48(s0)
	mv	a0, s2
	mv	a1, s1
	call	_ZNK8nlohmann10basic_jsonISt3mapSt6vectorNSt7__cxx1112basic_stringIcSt11char_traitsIcESaIcEEEblmdSaNS_14adl_serializerEE4cendEv
	mv	a0, s1
	call	_ZNK8nlohmann10basic_jsonISt3mapSt6vectorNSt7__cxx1112basic_stringIcSt11char_traitsIcESaIcEEEblmdSaNS_14adl_serializerEE9is_objectEv
	beqz	a0, .LBB25_2
	j	.LBB25_1
.LBB25_1:                               # %if.then
	ld	s1, 8(s1)
	ld	a0, -56(s0)
	call	_ZSt7forwardIRA10_KcEOT_RNSt16remove_referenceIS3_E4typeE
	mv	a1, a0
	mv	a0, s1
	call	_ZNSt3mapINSt7__cxx1112basic_stringIcSt11char_traitsIcESaIcEEEN8nlohmann10basic_jsonIS_St6vectorS5_blmdSaNS6_14adl_serializerEEESt4lessIvESaISt4pairIKS5_SA_EEE4findIA10_cEEDTcldtdtdefpT4_M_t10_M_find_trfp_EERKT_
	sd	a0, -64(s0)
	ld	a0, -64(s0)
	sd	a0, 8(s2)
	j	.LBB25_2
.LBB25_2:                               # %if.end
	ld	s2, 32(sp)
	ld	s1, 40(sp)
	ld	s0, 48(sp)
	.cfi_def_cfa sp, 64
	ld	ra, 56(sp)
	.cfi_restore ra
	.cfi_restore s0
	.cfi_restore s1
	.cfi_restore s2
	addi	sp, sp, 64
	.cfi_def_cfa_offset 0
	ret
.Lfunc_end25:
	.size	_ZNK8nlohmann10basic_jsonISt3mapSt6vectorNSt7__cxx1112basic_stringIcSt11char_traitsIcESaIcEEEblmdSaNS_14adl_serializerEE4findIRA10_KcEENS_6detail9iter_implIKSA_EEOT_, .Lfunc_end25-_ZNK8nlohmann10basic_jsonISt3mapSt6vectorNSt7__cxx1112basic_stringIcSt11char_traitsIcESaIcEEEblmdSaNS_14adl_serializerEE4findIRA10_KcEENS_6detail9iter_implIKSA_EEOT_
	.cfi_endproc
                                        # -- End function
	.section	.text._ZNK8nlohmann6detail9iter_implIKNS_10basic_jsonISt3mapSt6vectorNSt7__cxx1112basic_stringIcSt11char_traitsIcESaIcEEEblmdSaNS_14adl_serializerEEEEneERKSE_,"axG",@progbits,_ZNK8nlohmann6detail9iter_implIKNS_10basic_jsonISt3mapSt6vectorNSt7__cxx1112basic_stringIcSt11char_traitsIcESaIcEEEblmdSaNS_14adl_serializerEEEEneERKSE_,comdat
	.weak	_ZNK8nlohmann6detail9iter_implIKNS_10basic_jsonISt3mapSt6vectorNSt7__cxx1112basic_stringIcSt11char_traitsIcESaIcEEEblmdSaNS_14adl_serializerEEEEneERKSE_ # -- Begin function _ZNK8nlohmann6detail9iter_implIKNS_10basic_jsonISt3mapSt6vectorNSt7__cxx1112basic_stringIcSt11char_traitsIcESaIcEEEblmdSaNS_14adl_serializerEEEEneERKSE_
	.p2align	2
	.type	_ZNK8nlohmann6detail9iter_implIKNS_10basic_jsonISt3mapSt6vectorNSt7__cxx1112basic_stringIcSt11char_traitsIcESaIcEEEblmdSaNS_14adl_serializerEEEEneERKSE_,@function
_ZNK8nlohmann6detail9iter_implIKNS_10basic_jsonISt3mapSt6vectorNSt7__cxx1112basic_stringIcSt11char_traitsIcESaIcEEEblmdSaNS_14adl_serializerEEEEneERKSE_: # @_ZNK8nlohmann6detail9iter_implIKNS_10basic_jsonISt3mapSt6vectorNSt7__cxx1112basic_stringIcSt11char_traitsIcESaIcEEEblmdSaNS_14adl_serializerEEEEneERKSE_
	.cfi_startproc
# %bb.0:                                # %entry
	addi	sp, sp, -32
	.cfi_def_cfa_offset 32
	sd	ra, 24(sp)
	sd	s0, 16(sp)
	.cfi_offset ra, -8
	.cfi_offset s0, -16
	addi	s0, sp, 32
	.cfi_def_cfa s0, 0
	sd	a0, -24(s0)
	sd	a1, -32(s0)
	ld	a0, -24(s0)
	ld	a1, -32(s0)
	call	_ZNK8nlohmann6detail9iter_implIKNS_10basic_jsonISt3mapSt6vectorNSt7__cxx1112basic_stringIcSt11char_traitsIcESaIcEEEblmdSaNS_14adl_serializerEEEEeqERKSE_
	xori	a0, a0, 1
	ld	s0, 16(sp)
	.cfi_def_cfa sp, 32
	ld	ra, 24(sp)
	.cfi_restore ra
	.cfi_restore s0
	addi	sp, sp, 32
	.cfi_def_cfa_offset 0
	ret
.Lfunc_end26:
	.size	_ZNK8nlohmann6detail9iter_implIKNS_10basic_jsonISt3mapSt6vectorNSt7__cxx1112basic_stringIcSt11char_traitsIcESaIcEEEblmdSaNS_14adl_serializerEEEEneERKSE_, .Lfunc_end26-_ZNK8nlohmann6detail9iter_implIKNS_10basic_jsonISt3mapSt6vectorNSt7__cxx1112basic_stringIcSt11char_traitsIcESaIcEEEblmdSaNS_14adl_serializerEEEEneERKSE_
	.cfi_endproc
                                        # -- End function
	.section	.text._ZNK8nlohmann10basic_jsonISt3mapSt6vectorNSt7__cxx1112basic_stringIcSt11char_traitsIcESaIcEEEblmdSaNS_14adl_serializerEE3endEv,"axG",@progbits,_ZNK8nlohmann10basic_jsonISt3mapSt6vectorNSt7__cxx1112basic_stringIcSt11char_traitsIcESaIcEEEblmdSaNS_14adl_serializerEE3endEv,comdat
	.weak	_ZNK8nlohmann10basic_jsonISt3mapSt6vectorNSt7__cxx1112basic_stringIcSt11char_traitsIcESaIcEEEblmdSaNS_14adl_serializerEE3endEv # -- Begin function _ZNK8nlohmann10basic_jsonISt3mapSt6vectorNSt7__cxx1112basic_stringIcSt11char_traitsIcESaIcEEEblmdSaNS_14adl_serializerEE3endEv
	.p2align	2
	.type	_ZNK8nlohmann10basic_jsonISt3mapSt6vectorNSt7__cxx1112basic_stringIcSt11char_traitsIcESaIcEEEblmdSaNS_14adl_serializerEE3endEv,@function
_ZNK8nlohmann10basic_jsonISt3mapSt6vectorNSt7__cxx1112basic_stringIcSt11char_traitsIcESaIcEEEblmdSaNS_14adl_serializerEE3endEv: # @_ZNK8nlohmann10basic_jsonISt3mapSt6vectorNSt7__cxx1112basic_stringIcSt11char_traitsIcESaIcEEEblmdSaNS_14adl_serializerEE3endEv
# %bb.0:                                # %entry
	addi	sp, sp, -32
	sd	ra, 24(sp)
	sd	s0, 16(sp)
	addi	s0, sp, 32
	sd	a0, -24(s0)
	sd	a1, -32(s0)
	ld	a1, -32(s0)
	call	_ZNK8nlohmann10basic_jsonISt3mapSt6vectorNSt7__cxx1112basic_stringIcSt11char_traitsIcESaIcEEEblmdSaNS_14adl_serializerEE4cendEv
	ld	s0, 16(sp)
	ld	ra, 24(sp)
	addi	sp, sp, 32
	ret
.Lfunc_end27:
	.size	_ZNK8nlohmann10basic_jsonISt3mapSt6vectorNSt7__cxx1112basic_stringIcSt11char_traitsIcESaIcEEEblmdSaNS_14adl_serializerEE3endEv, .Lfunc_end27-_ZNK8nlohmann10basic_jsonISt3mapSt6vectorNSt7__cxx1112basic_stringIcSt11char_traitsIcESaIcEEEblmdSaNS_14adl_serializerEE3endEv
                                        # -- End function
	.section	.text._ZNK8nlohmann10basic_jsonISt3mapSt6vectorNSt7__cxx1112basic_stringIcSt11char_traitsIcESaIcEEEblmdSaNS_14adl_serializerEE2atERKS8_,"axG",@progbits,_ZNK8nlohmann10basic_jsonISt3mapSt6vectorNSt7__cxx1112basic_stringIcSt11char_traitsIcESaIcEEEblmdSaNS_14adl_serializerEE2atERKS8_,comdat
	.weak	_ZNK8nlohmann10basic_jsonISt3mapSt6vectorNSt7__cxx1112basic_stringIcSt11char_traitsIcESaIcEEEblmdSaNS_14adl_serializerEE2atERKS8_ # -- Begin function _ZNK8nlohmann10basic_jsonISt3mapSt6vectorNSt7__cxx1112basic_stringIcSt11char_traitsIcESaIcEEEblmdSaNS_14adl_serializerEE2atERKS8_
	.p2align	2
	.type	_ZNK8nlohmann10basic_jsonISt3mapSt6vectorNSt7__cxx1112basic_stringIcSt11char_traitsIcESaIcEEEblmdSaNS_14adl_serializerEE2atERKS8_,@function
_ZNK8nlohmann10basic_jsonISt3mapSt6vectorNSt7__cxx1112basic_stringIcSt11char_traitsIcESaIcEEEblmdSaNS_14adl_serializerEE2atERKS8_: # @_ZNK8nlohmann10basic_jsonISt3mapSt6vectorNSt7__cxx1112basic_stringIcSt11char_traitsIcESaIcEEEblmdSaNS_14adl_serializerEE2atERKS8_
.Lfunc_begin3:
	.cfi_startproc
	.cfi_personality 155, DW.ref.__gxx_personality_v0
	.cfi_lsda 27, .Lexception3
# %bb.0:                                # %entry
	addi	sp, sp, -256
	.cfi_def_cfa_offset 256
	sd	ra, 248(sp)
	sd	s0, 240(sp)
	sd	s1, 232(sp)
	sd	s2, 224(sp)
	.cfi_offset ra, -8
	.cfi_offset s0, -16
	.cfi_offset s1, -24
	.cfi_offset s2, -32
	addi	s0, sp, 256
	.cfi_def_cfa s0, 0
	sd	a0, -64(s0)
	sd	a1, -72(s0)
	ld	s1, -64(s0)
	mv	a0, s1
	call	_ZNK8nlohmann10basic_jsonISt3mapSt6vectorNSt7__cxx1112basic_stringIcSt11char_traitsIcESaIcEEEblmdSaNS_14adl_serializerEE9is_objectEv
	beqz	a0, .LBB28_17
	j	.LBB28_1
.LBB28_1:                               # %if.then
	ld	a0, 8(s1)
	ld	a1, -72(s0)
.Ltmp138:
	call	_ZNSt3mapINSt7__cxx1112basic_stringIcSt11char_traitsIcESaIcEEEN8nlohmann10basic_jsonIS_St6vectorS5_blmdSaNS6_14adl_serializerEEESt4lessIvESaISt4pairIKS5_SA_EEE2atERSE_
.Ltmp139:
	j	.LBB28_2
.LBB28_2:                               # %invoke.cont
	ld	s2, 224(sp)
	ld	s1, 232(sp)
	ld	s0, 240(sp)
	.cfi_def_cfa sp, 256
	ld	ra, 248(sp)
	.cfi_restore ra
	.cfi_restore s0
	.cfi_restore s1
	.cfi_restore s2
	addi	sp, sp, 256
	.cfi_def_cfa_offset 0
	ret
.LBB28_3:                               # %lpad
.Ltmp140:
	sd	a0, -80(s0)
	sw	a1, -84(s0)
	j	.LBB28_4
.LBB28_4:                               # %catch.dispatch
	lw	a0, -84(s0)
	addi	a1, zero, 1
	bne	a0, a1, .LBB28_28
	j	.LBB28_5
.LBB28_5:                               # %catch
	ld	a0, -80(s0)
	call	__cxa_begin_catch
	sd	a0, -96(s0)
	addi	a0, zero, 32
	call	__cxa_allocate_exception
	mv	s1, a0
	addi	a0, zero, 1
	sb	a0, -161(s0)
	ld	a2, -72(s0)
.Ltmp141:
	lui	a0, %hi(.L.str.67)
	addi	a1, a0, %lo(.L.str.67)
	addi	a0, s0, -160
	call	_ZStplIcSt11char_traitsIcESaIcEENSt7__cxx1112basic_stringIT_T0_T1_EEPKS5_RKS8_
.Ltmp142:
	j	.LBB28_6
.LBB28_6:                               # %invoke.cont6
.Ltmp144:
	lui	a0, %hi(.L.str.68)
	addi	a2, a0, %lo(.L.str.68)
	addi	a0, s0, -128
	addi	a1, s0, -160
	call	_ZStplIcSt11char_traitsIcESaIcEENSt7__cxx1112basic_stringIT_T0_T1_EEOS8_PKS5_
.Ltmp145:
	j	.LBB28_7
.LBB28_7:                               # %invoke.cont8
.Ltmp147:
	addi	a2, s0, -128
	mv	a0, s1
	addi	a1, zero, 403
	call	_ZN8nlohmann6detail12out_of_range6createEiRKNSt7__cxx1112basic_stringIcSt11char_traitsIcESaIcEEE
.Ltmp148:
	j	.LBB28_8
.LBB28_8:                               # %invoke.cont10
	sb	zero, -161(s0)
.Ltmp149:
	lui	a0, %hi(_ZTIN8nlohmann6detail12out_of_rangeE)
	addi	a1, a0, %lo(_ZTIN8nlohmann6detail12out_of_rangeE)
	lui	a0, %hi(_ZN8nlohmann6detail12out_of_rangeD2Ev)
	addi	a2, a0, %lo(_ZN8nlohmann6detail12out_of_rangeD2Ev)
	mv	a0, s1
	call	__cxa_throw
.Ltmp150:
	j	.LBB28_30
.LBB28_9:                               # %lpad5
.Ltmp143:
	sd	a0, -80(s0)
	sw	a1, -84(s0)
	j	.LBB28_13
.LBB28_10:                              # %lpad7
.Ltmp146:
	sd	a0, -80(s0)
	sw	a1, -84(s0)
	j	.LBB28_12
.LBB28_11:                              # %lpad9
.Ltmp151:
	sd	a0, -80(s0)
	sw	a1, -84(s0)
	addi	a0, s0, -128
	call	_ZNSt7__cxx1112basic_stringIcSt11char_traitsIcESaIcEED1Ev
	j	.LBB28_12
.LBB28_12:                              # %ehcleanup
	addi	a0, s0, -160
	call	_ZNSt7__cxx1112basic_stringIcSt11char_traitsIcESaIcEED1Ev
	j	.LBB28_13
.LBB28_13:                              # %ehcleanup11
	lbu	a0, -161(s0)
	beqz	a0, .LBB28_15
	j	.LBB28_14
.LBB28_14:                              # %cleanup.action
	mv	a0, s1
	call	__cxa_free_exception
	j	.LBB28_15
.LBB28_15:                              # %cleanup.done
.Ltmp152:
	call	__cxa_end_catch
.Ltmp153:
	j	.LBB28_16
.LBB28_16:                              # %invoke.cont13
	j	.LBB28_28
.LBB28_17:                              # %if.else
	addi	a0, zero, 32
	call	__cxa_allocate_exception
	mv	s2, a0
	addi	a0, zero, 1
	sb	a0, -241(s0)
	mv	a0, s1
	call	_ZNK8nlohmann10basic_jsonISt3mapSt6vectorNSt7__cxx1112basic_stringIcSt11char_traitsIcESaIcEEEblmdSaNS_14adl_serializerEE9type_nameEv
	mv	a1, a0
	addi	a2, s0, -240
	sd	a2, -56(s0)
	ld	a0, -56(s0)
	sd	a0, -48(s0)
.Ltmp127:
	addi	a0, s0, -232
	call	_ZNSt7__cxx1112basic_stringIcSt11char_traitsIcESaIcEEC2IS3_EEPKcRKS3_
.Ltmp128:
	j	.LBB28_18
.LBB28_18:                              # %invoke.cont20
.Ltmp130:
	lui	a0, %hi(.L.str.69)
	addi	a1, a0, %lo(.L.str.69)
	addi	a0, s0, -200
	addi	a2, s0, -232
	call	_ZStplIcSt11char_traitsIcESaIcEENSt7__cxx1112basic_stringIT_T0_T1_EEPKS5_OS8_
.Ltmp131:
	j	.LBB28_19
.LBB28_19:                              # %invoke.cont22
.Ltmp133:
	addi	a2, s0, -200
	mv	a0, s2
	addi	a1, zero, 304
	call	_ZN8nlohmann6detail10type_error6createEiRKNSt7__cxx1112basic_stringIcSt11char_traitsIcESaIcEEE
.Ltmp134:
	j	.LBB28_20
.LBB28_20:                              # %invoke.cont24
	sb	zero, -241(s0)
.Ltmp135:
	lui	a0, %hi(_ZTIN8nlohmann6detail10type_errorE)
	addi	a1, a0, %lo(_ZTIN8nlohmann6detail10type_errorE)
	lui	a0, %hi(_ZN8nlohmann6detail10type_errorD2Ev)
	addi	a2, a0, %lo(_ZN8nlohmann6detail10type_errorD2Ev)
	mv	a0, s2
	call	__cxa_throw
.Ltmp136:
	j	.LBB28_30
.LBB28_21:                              # %lpad19
.Ltmp129:
	sd	a0, -80(s0)
	sw	a1, -84(s0)
	j	.LBB28_25
.LBB28_22:                              # %lpad21
.Ltmp132:
	sd	a0, -80(s0)
	sw	a1, -84(s0)
	j	.LBB28_24
.LBB28_23:                              # %lpad23
.Ltmp137:
	sd	a0, -80(s0)
	sw	a1, -84(s0)
	addi	a0, s0, -200
	call	_ZNSt7__cxx1112basic_stringIcSt11char_traitsIcESaIcEED1Ev
	j	.LBB28_24
.LBB28_24:                              # %ehcleanup27
	addi	a0, s0, -232
	call	_ZNSt7__cxx1112basic_stringIcSt11char_traitsIcESaIcEED1Ev
	j	.LBB28_25
.LBB28_25:                              # %ehcleanup28
	addi	a0, s0, -240
	sd	a0, -40(s0)
	ld	a0, -40(s0)
	call	_ZNSt15__new_allocatorIcED2Ev
	lbu	a0, -241(s0)
	beqz	a0, .LBB28_27
	j	.LBB28_26
.LBB28_26:                              # %cleanup.action31
	mv	a0, s2
	call	__cxa_free_exception
	j	.LBB28_27
.LBB28_27:                              # %cleanup.done32
	j	.LBB28_28
.LBB28_28:                              # %eh.resume
	ld	a0, -80(s0)
	call	_Unwind_Resume
.LBB28_29:                              # %terminate.lpad
.Ltmp154:
	call	__clang_call_terminate
.LBB28_30:                              # %unreachable
.Lfunc_end28:
	.size	_ZNK8nlohmann10basic_jsonISt3mapSt6vectorNSt7__cxx1112basic_stringIcSt11char_traitsIcESaIcEEEblmdSaNS_14adl_serializerEE2atERKS8_, .Lfunc_end28-_ZNK8nlohmann10basic_jsonISt3mapSt6vectorNSt7__cxx1112basic_stringIcSt11char_traitsIcESaIcEEEblmdSaNS_14adl_serializerEE2atERKS8_
	.cfi_endproc
	.section	.gcc_except_table,"a",@progbits
	.p2align	2
GCC_except_table28:
.Lexception3:
	.byte	255                     # @LPStart Encoding = omit
	.byte	155                     # @TType Encoding = indirect pcrel sdata4
	.uleb128 .Lttbase0-.Lttbaseref0
.Lttbaseref0:
	.byte	3                       # Call site Encoding = udata4
	.uleb128 .Lcst_end3-.Lcst_begin3
.Lcst_begin3:
	.word	.Ltmp138-.Lfunc_begin3  # >> Call Site 1 <<
	.word	.Ltmp139-.Ltmp138       #   Call between .Ltmp138 and .Ltmp139
	.word	.Ltmp140-.Lfunc_begin3  #     jumps to .Ltmp140
	.byte	1                       #   On action: 1
	.word	.Ltmp139-.Lfunc_begin3  # >> Call Site 2 <<
	.word	.Ltmp141-.Ltmp139       #   Call between .Ltmp139 and .Ltmp141
	.word	0                       #     has no landing pad
	.byte	0                       #   On action: cleanup
	.word	.Ltmp141-.Lfunc_begin3  # >> Call Site 3 <<
	.word	.Ltmp142-.Ltmp141       #   Call between .Ltmp141 and .Ltmp142
	.word	.Ltmp143-.Lfunc_begin3  #     jumps to .Ltmp143
	.byte	0                       #   On action: cleanup
	.word	.Ltmp144-.Lfunc_begin3  # >> Call Site 4 <<
	.word	.Ltmp145-.Ltmp144       #   Call between .Ltmp144 and .Ltmp145
	.word	.Ltmp146-.Lfunc_begin3  #     jumps to .Ltmp146
	.byte	0                       #   On action: cleanup
	.word	.Ltmp147-.Lfunc_begin3  # >> Call Site 5 <<
	.word	.Ltmp150-.Ltmp147       #   Call between .Ltmp147 and .Ltmp150
	.word	.Ltmp151-.Lfunc_begin3  #     jumps to .Ltmp151
	.byte	0                       #   On action: cleanup
	.word	.Ltmp150-.Lfunc_begin3  # >> Call Site 6 <<
	.word	.Ltmp152-.Ltmp150       #   Call between .Ltmp150 and .Ltmp152
	.word	0                       #     has no landing pad
	.byte	0                       #   On action: cleanup
	.word	.Ltmp152-.Lfunc_begin3  # >> Call Site 7 <<
	.word	.Ltmp153-.Ltmp152       #   Call between .Ltmp152 and .Ltmp153
	.word	.Ltmp154-.Lfunc_begin3  #     jumps to .Ltmp154
	.byte	3                       #   On action: 2
	.word	.Ltmp153-.Lfunc_begin3  # >> Call Site 8 <<
	.word	.Ltmp127-.Ltmp153       #   Call between .Ltmp153 and .Ltmp127
	.word	0                       #     has no landing pad
	.byte	0                       #   On action: cleanup
	.word	.Ltmp127-.Lfunc_begin3  # >> Call Site 9 <<
	.word	.Ltmp128-.Ltmp127       #   Call between .Ltmp127 and .Ltmp128
	.word	.Ltmp129-.Lfunc_begin3  #     jumps to .Ltmp129
	.byte	0                       #   On action: cleanup
	.word	.Ltmp130-.Lfunc_begin3  # >> Call Site 10 <<
	.word	.Ltmp131-.Ltmp130       #   Call between .Ltmp130 and .Ltmp131
	.word	.Ltmp132-.Lfunc_begin3  #     jumps to .Ltmp132
	.byte	0                       #   On action: cleanup
	.word	.Ltmp133-.Lfunc_begin3  # >> Call Site 11 <<
	.word	.Ltmp136-.Ltmp133       #   Call between .Ltmp133 and .Ltmp136
	.word	.Ltmp137-.Lfunc_begin3  #     jumps to .Ltmp137
	.byte	0                       #   On action: cleanup
	.word	.Ltmp136-.Lfunc_begin3  # >> Call Site 12 <<
	.word	.Lfunc_end28-.Ltmp136   #   Call between .Ltmp136 and .Lfunc_end28
	.word	0                       #     has no landing pad
	.byte	0                       #   On action: cleanup
.Lcst_end3:
	.byte	1                       # >> Action Record 1 <<
                                        #   Catch TypeInfo 1
	.byte	0                       #   No further actions
	.byte	2                       # >> Action Record 2 <<
                                        #   Catch TypeInfo 2
	.byte	0                       #   No further actions
	.p2align	2
                                        # >> Catch TypeInfos <<
	.word	0                       # TypeInfo 2
.Ltmp155:                               # TypeInfo 1
	.word	.L_ZTISt12out_of_range.DW.stub-.Ltmp155
.Lttbase0:
	.p2align	2
                                        # -- End function
	.section	.text._ZN8nlohmann10basic_jsonISt3mapSt6vectorNSt7__cxx1112basic_stringIcSt11char_traitsIcESaIcEEEblmdSaNS_14adl_serializerEEC2ERKSA_,"axG",@progbits,_ZN8nlohmann10basic_jsonISt3mapSt6vectorNSt7__cxx1112basic_stringIcSt11char_traitsIcESaIcEEEblmdSaNS_14adl_serializerEEC2ERKSA_,comdat
	.weak	_ZN8nlohmann10basic_jsonISt3mapSt6vectorNSt7__cxx1112basic_stringIcSt11char_traitsIcESaIcEEEblmdSaNS_14adl_serializerEEC2ERKSA_ # -- Begin function _ZN8nlohmann10basic_jsonISt3mapSt6vectorNSt7__cxx1112basic_stringIcSt11char_traitsIcESaIcEEEblmdSaNS_14adl_serializerEEC2ERKSA_
	.p2align	2
	.type	_ZN8nlohmann10basic_jsonISt3mapSt6vectorNSt7__cxx1112basic_stringIcSt11char_traitsIcESaIcEEEblmdSaNS_14adl_serializerEEC2ERKSA_,@function
_ZN8nlohmann10basic_jsonISt3mapSt6vectorNSt7__cxx1112basic_stringIcSt11char_traitsIcESaIcEEEblmdSaNS_14adl_serializerEEC2ERKSA_: # @_ZN8nlohmann10basic_jsonISt3mapSt6vectorNSt7__cxx1112basic_stringIcSt11char_traitsIcESaIcEEEblmdSaNS_14adl_serializerEEC2ERKSA_
	.cfi_startproc
# %bb.0:                                # %entry
	addi	sp, sp, -96
	.cfi_def_cfa_offset 96
	sd	ra, 88(sp)
	sd	s0, 80(sp)
	sd	s1, 72(sp)
	.cfi_offset ra, -8
	.cfi_offset s0, -16
	.cfi_offset s1, -24
	addi	s0, sp, 96
	.cfi_def_cfa s0, 0
	sd	a0, -32(s0)
	sd	a1, -40(s0)
	ld	s1, -32(s0)
	ld	a0, -40(s0)
	lb	a0, 0(a0)
	sb	a0, 0(s1)
	sd	zero, 8(s1)
	ld	a0, -40(s0)
	call	_ZNK8nlohmann10basic_jsonISt3mapSt6vectorNSt7__cxx1112basic_stringIcSt11char_traitsIcESaIcEEEblmdSaNS_14adl_serializerEE16assert_invariantEv
	lbu	a0, 0(s1)
	addi	a1, zero, 1
	beq	a0, a1, .LBB29_7
	j	.LBB29_1
.LBB29_1:                               # %entry
	andi	a1, a0, 255
	addi	a2, zero, 2
	beq	a1, a2, .LBB29_8
	j	.LBB29_2
.LBB29_2:                               # %entry
	andi	a1, a0, 255
	addi	a2, zero, 3
	beq	a1, a2, .LBB29_9
	j	.LBB29_3
.LBB29_3:                               # %entry
	andi	a1, a0, 255
	addi	a2, zero, 4
	beq	a1, a2, .LBB29_10
	j	.LBB29_4
.LBB29_4:                               # %entry
	andi	a1, a0, 255
	addi	a2, zero, 5
	beq	a1, a2, .LBB29_11
	j	.LBB29_5
.LBB29_5:                               # %entry
	andi	a1, a0, 255
	addi	a2, zero, 6
	beq	a1, a2, .LBB29_12
	j	.LBB29_6
.LBB29_6:                               # %entry
	andi	a0, a0, 255
	addi	a1, zero, 7
	beq	a0, a1, .LBB29_13
	j	.LBB29_14
.LBB29_7:                               # %sw.bb
	ld	a0, -40(s0)
	ld	a1, 8(a0)
	addi	a0, s0, -48
	call	_ZN8nlohmann10basic_jsonISt3mapSt6vectorNSt7__cxx1112basic_stringIcSt11char_traitsIcESaIcEEEblmdSaNS_14adl_serializerEE10json_valueC2ERKS1_IS8_SA_St4lessIvESaISt4pairIKS8_SA_EEE
	ld	a0, -48(s0)
	sd	a0, 8(s1)
	j	.LBB29_15
.LBB29_8:                               # %sw.bb6
	ld	a0, -40(s0)
	ld	a1, 8(a0)
	addi	a0, s0, -56
	call	_ZN8nlohmann10basic_jsonISt3mapSt6vectorNSt7__cxx1112basic_stringIcSt11char_traitsIcESaIcEEEblmdSaNS_14adl_serializerEE10json_valueC2ERKS2_ISA_SaISA_EE
	ld	a0, -56(s0)
	sd	a0, 8(s1)
	j	.LBB29_15
.LBB29_9:                               # %sw.bb10
	ld	a0, -40(s0)
	ld	a1, 8(a0)
	addi	a0, s0, -64
	call	_ZN8nlohmann10basic_jsonISt3mapSt6vectorNSt7__cxx1112basic_stringIcSt11char_traitsIcESaIcEEEblmdSaNS_14adl_serializerEE10json_valueC2ERKS8_
	ld	a0, -64(s0)
	sd	a0, 8(s1)
	j	.LBB29_15
.LBB29_10:                              # %sw.bb14
	ld	a0, -40(s0)
	lbu	a0, 8(a0)
	andi	a1, a0, 1
	addi	a0, s0, -72
	call	_ZN8nlohmann10basic_jsonISt3mapSt6vectorNSt7__cxx1112basic_stringIcSt11char_traitsIcESaIcEEEblmdSaNS_14adl_serializerEE10json_valueC2Eb
	ld	a0, -72(s0)
	sd	a0, 8(s1)
	j	.LBB29_15
.LBB29_11:                              # %sw.bb18
	ld	a0, -40(s0)
	ld	a1, 8(a0)
	addi	a0, s0, -80
	call	_ZN8nlohmann10basic_jsonISt3mapSt6vectorNSt7__cxx1112basic_stringIcSt11char_traitsIcESaIcEEEblmdSaNS_14adl_serializerEE10json_valueC2El
	ld	a0, -80(s0)
	sd	a0, 8(s1)
	j	.LBB29_15
.LBB29_12:                              # %sw.bb22
	ld	a0, -40(s0)
	ld	a1, 8(a0)
	addi	a0, s0, -88
	call	_ZN8nlohmann10basic_jsonISt3mapSt6vectorNSt7__cxx1112basic_stringIcSt11char_traitsIcESaIcEEEblmdSaNS_14adl_serializerEE10json_valueC2Em
	ld	a0, -88(s0)
	sd	a0, 8(s1)
	j	.LBB29_15
.LBB29_13:                              # %sw.bb26
	ld	a0, -40(s0)
	ld	a1, 8(a0)
	addi	a0, s0, -96
	call	_ZN8nlohmann10basic_jsonISt3mapSt6vectorNSt7__cxx1112basic_stringIcSt11char_traitsIcESaIcEEEblmdSaNS_14adl_serializerEE10json_valueC2Ed
	ld	a0, -96(s0)
	sd	a0, 8(s1)
	j	.LBB29_15
.LBB29_14:                              # %sw.default
	j	.LBB29_15
.LBB29_15:                              # %sw.epilog
	mv	a0, s1
	call	_ZNK8nlohmann10basic_jsonISt3mapSt6vectorNSt7__cxx1112basic_stringIcSt11char_traitsIcESaIcEEEblmdSaNS_14adl_serializerEE16assert_invariantEv
	ld	s1, 72(sp)
	ld	s0, 80(sp)
	.cfi_def_cfa sp, 96
	ld	ra, 88(sp)
	.cfi_restore ra
	.cfi_restore s0
	.cfi_restore s1
	addi	sp, sp, 96
	.cfi_def_cfa_offset 0
	ret
.Lfunc_end29:
	.size	_ZN8nlohmann10basic_jsonISt3mapSt6vectorNSt7__cxx1112basic_stringIcSt11char_traitsIcESaIcEEEblmdSaNS_14adl_serializerEEC2ERKSA_, .Lfunc_end29-_ZN8nlohmann10basic_jsonISt3mapSt6vectorNSt7__cxx1112basic_stringIcSt11char_traitsIcESaIcEEEblmdSaNS_14adl_serializerEEC2ERKSA_
	.cfi_endproc
                                        # -- End function
	.section	.text._ZNK8nlohmann10basic_jsonISt3mapSt6vectorNSt7__cxx1112basic_stringIcSt11char_traitsIcESaIcEEEblmdSaNS_14adl_serializerEE4typeEv,"axG",@progbits,_ZNK8nlohmann10basic_jsonISt3mapSt6vectorNSt7__cxx1112basic_stringIcSt11char_traitsIcESaIcEEEblmdSaNS_14adl_serializerEE4typeEv,comdat
	.weak	_ZNK8nlohmann10basic_jsonISt3mapSt6vectorNSt7__cxx1112basic_stringIcSt11char_traitsIcESaIcEEEblmdSaNS_14adl_serializerEE4typeEv # -- Begin function _ZNK8nlohmann10basic_jsonISt3mapSt6vectorNSt7__cxx1112basic_stringIcSt11char_traitsIcESaIcEEEblmdSaNS_14adl_serializerEE4typeEv
	.p2align	2
	.type	_ZNK8nlohmann10basic_jsonISt3mapSt6vectorNSt7__cxx1112basic_stringIcSt11char_traitsIcESaIcEEEblmdSaNS_14adl_serializerEE4typeEv,@function
_ZNK8nlohmann10basic_jsonISt3mapSt6vectorNSt7__cxx1112basic_stringIcSt11char_traitsIcESaIcEEEblmdSaNS_14adl_serializerEE4typeEv: # @_ZNK8nlohmann10basic_jsonISt3mapSt6vectorNSt7__cxx1112basic_stringIcSt11char_traitsIcESaIcEEEblmdSaNS_14adl_serializerEE4typeEv
# %bb.0:                                # %entry
	addi	sp, sp, -32
	sd	ra, 24(sp)
	sd	s0, 16(sp)
	addi	s0, sp, 32
	sd	a0, -24(s0)
	ld	a0, -24(s0)
	lbu	a0, 0(a0)
	ld	s0, 16(sp)
	ld	ra, 24(sp)
	addi	sp, sp, 32
	ret
.Lfunc_end30:
	.size	_ZNK8nlohmann10basic_jsonISt3mapSt6vectorNSt7__cxx1112basic_stringIcSt11char_traitsIcESaIcEEEblmdSaNS_14adl_serializerEE4typeEv, .Lfunc_end30-_ZNK8nlohmann10basic_jsonISt3mapSt6vectorNSt7__cxx1112basic_stringIcSt11char_traitsIcESaIcEEEblmdSaNS_14adl_serializerEE4typeEv
                                        # -- End function
	.section	.text._Z11getOptionalIdET_RKN8nlohmann10basic_jsonISt3mapSt6vectorNSt7__cxx1112basic_stringIcSt11char_traitsIcESaIcEEEblmdSaNS1_14adl_serializerEEESA_S0_,"axG",@progbits,_Z11getOptionalIdET_RKN8nlohmann10basic_jsonISt3mapSt6vectorNSt7__cxx1112basic_stringIcSt11char_traitsIcESaIcEEEblmdSaNS1_14adl_serializerEEESA_S0_,comdat
	.weak	_Z11getOptionalIdET_RKN8nlohmann10basic_jsonISt3mapSt6vectorNSt7__cxx1112basic_stringIcSt11char_traitsIcESaIcEEEblmdSaNS1_14adl_serializerEEESA_S0_ # -- Begin function _Z11getOptionalIdET_RKN8nlohmann10basic_jsonISt3mapSt6vectorNSt7__cxx1112basic_stringIcSt11char_traitsIcESaIcEEEblmdSaNS1_14adl_serializerEEESA_S0_
	.p2align	2
	.type	_Z11getOptionalIdET_RKN8nlohmann10basic_jsonISt3mapSt6vectorNSt7__cxx1112basic_stringIcSt11char_traitsIcESaIcEEEblmdSaNS1_14adl_serializerEEESA_S0_,@function
_Z11getOptionalIdET_RKN8nlohmann10basic_jsonISt3mapSt6vectorNSt7__cxx1112basic_stringIcSt11char_traitsIcESaIcEEEblmdSaNS1_14adl_serializerEEESA_S0_: # @_Z11getOptionalIdET_RKN8nlohmann10basic_jsonISt3mapSt6vectorNSt7__cxx1112basic_stringIcSt11char_traitsIcESaIcEEEblmdSaNS1_14adl_serializerEEESA_S0_
	.cfi_startproc
# %bb.0:                                # %entry
	addi	sp, sp, -128
	.cfi_def_cfa_offset 128
	sd	ra, 120(sp)
	sd	s0, 112(sp)
	sd	s1, 104(sp)
	sd	s2, 96(sp)
	sd	s3, 88(sp)
	.cfi_offset ra, -8
	.cfi_offset s0, -16
	.cfi_offset s1, -24
	.cfi_offset s2, -32
	.cfi_offset s3, -40
	addi	s0, sp, 128
	.cfi_def_cfa s0, 0
	mv	s3, a1
	fmv.d.x	ft0, a2
	sd	a0, -48(s0)
	sd	a2, -56(s0)
	fld	ft0, -56(s0)
	fsd	ft0, -64(s0)
	ld	a1, -48(s0)
	addi	s2, s0, -96
	mv	a0, s2
	mv	a2, s3
	call	_ZNK8nlohmann10basic_jsonISt3mapSt6vectorNSt7__cxx1112basic_stringIcSt11char_traitsIcESaIcEEEblmdSaNS_14adl_serializerEE4findIRS8_EENS_6detail9iter_implIKSA_EEOT_
	ld	a1, -48(s0)
	addi	s1, s0, -128
	mv	a0, s1
	call	_ZNK8nlohmann10basic_jsonISt3mapSt6vectorNSt7__cxx1112basic_stringIcSt11char_traitsIcESaIcEEEblmdSaNS_14adl_serializerEE3endEv
	mv	a0, s2
	mv	a1, s1
	call	_ZNK8nlohmann6detail9iter_implIKNS_10basic_jsonISt3mapSt6vectorNSt7__cxx1112basic_stringIcSt11char_traitsIcESaIcEEEblmdSaNS_14adl_serializerEEEEneERKSE_
	beqz	a0, .LBB31_2
	j	.LBB31_1
.LBB31_1:                               # %if.then
	ld	a0, -48(s0)
	mv	a1, s3
	call	_ZNK8nlohmann10basic_jsonISt3mapSt6vectorNSt7__cxx1112basic_stringIcSt11char_traitsIcESaIcEEEblmdSaNS_14adl_serializerEE2atERKS8_
	call	_ZNK8nlohmann10basic_jsonISt3mapSt6vectorNSt7__cxx1112basic_stringIcSt11char_traitsIcESaIcEEEblmdSaNS_14adl_serializerEE3getIddLi0EEET0_v
	sd	a0, -64(s0)
	j	.LBB31_2
.LBB31_2:                               # %if.end
	ld	a0, -64(s0)
	ld	s3, 88(sp)
	ld	s2, 96(sp)
	ld	s1, 104(sp)
	ld	s0, 112(sp)
	.cfi_def_cfa sp, 128
	ld	ra, 120(sp)
	.cfi_restore ra
	.cfi_restore s0
	.cfi_restore s1
	.cfi_restore s2
	.cfi_restore s3
	addi	sp, sp, 128
	.cfi_def_cfa_offset 0
	ret
.Lfunc_end31:
	.size	_Z11getOptionalIdET_RKN8nlohmann10basic_jsonISt3mapSt6vectorNSt7__cxx1112basic_stringIcSt11char_traitsIcESaIcEEEblmdSaNS1_14adl_serializerEEESA_S0_, .Lfunc_end31-_Z11getOptionalIdET_RKN8nlohmann10basic_jsonISt3mapSt6vectorNSt7__cxx1112basic_stringIcSt11char_traitsIcESaIcEEEblmdSaNS1_14adl_serializerEEESA_S0_
	.cfi_endproc
                                        # -- End function
	.section	.text._ZN4sRGB3RGBERKN3glm3vecILi3EdLNS0_9qualifierE0EEE,"axG",@progbits,_ZN4sRGB3RGBERKN3glm3vecILi3EdLNS0_9qualifierE0EEE,comdat
	.weak	_ZN4sRGB3RGBERKN3glm3vecILi3EdLNS0_9qualifierE0EEE # -- Begin function _ZN4sRGB3RGBERKN3glm3vecILi3EdLNS0_9qualifierE0EEE
	.p2align	2
	.type	_ZN4sRGB3RGBERKN3glm3vecILi3EdLNS0_9qualifierE0EEE,@function
_ZN4sRGB3RGBERKN3glm3vecILi3EdLNS0_9qualifierE0EEE: # @_ZN4sRGB3RGBERKN3glm3vecILi3EdLNS0_9qualifierE0EEE
	.cfi_startproc
# %bb.0:                                # %entry
	addi	sp, sp, -64
	.cfi_def_cfa_offset 64
	sd	ra, 56(sp)
	sd	s0, 48(sp)
	.cfi_offset ra, -8
	.cfi_offset s0, -16
	addi	s0, sp, 64
	.cfi_def_cfa s0, 0
	sd	a0, -24(s0)
	sd	a1, -32(s0)
	ld	a1, -32(s0)
	ld	a2, 16(a1)
	sd	a2, -40(s0)
	ld	a2, 8(a1)
	sd	a2, -48(s0)
	ld	a1, 0(a1)
	sd	a1, -56(s0)
	lui	a1, %hi(_ZN4sRGB7XYZ2RGBE)
	addi	a1, a1, %lo(_ZN4sRGB7XYZ2RGBE)
	addi	a2, s0, -56
	call	_Z4multRKN3glm3matILi3ELi3EdLNS_9qualifierE0EEENS_3vecILi3EdLS1_0EEE
	ld	s0, 48(sp)
	.cfi_def_cfa sp, 64
	ld	ra, 56(sp)
	.cfi_restore ra
	.cfi_restore s0
	addi	sp, sp, 64
	.cfi_def_cfa_offset 0
	ret
.Lfunc_end32:
	.size	_ZN4sRGB3RGBERKN3glm3vecILi3EdLNS0_9qualifierE0EEE, .Lfunc_end32-_ZN4sRGB3RGBERKN3glm3vecILi3EdLNS0_9qualifierE0EEE
	.cfi_endproc
                                        # -- End function
	.section	.sdata,"aw",@progbits
	.p2align	3               # -- Begin function _ZN3CIE10Illuminant9blackbodyEd
.LCPI33_0:
	.quad	4602678819172646912     # double 0.5
	.section	.text._ZN3CIE10Illuminant9blackbodyEd,"axG",@progbits,_ZN3CIE10Illuminant9blackbodyEd,comdat
	.weak	_ZN3CIE10Illuminant9blackbodyEd
	.p2align	2
	.type	_ZN3CIE10Illuminant9blackbodyEd,@function
_ZN3CIE10Illuminant9blackbodyEd:        # @_ZN3CIE10Illuminant9blackbodyEd
	.cfi_startproc
# %bb.0:                                # %entry
	addi	sp, sp, -160
	.cfi_def_cfa_offset 160
	sd	ra, 152(sp)
	sd	s0, 144(sp)
	sd	s1, 136(sp)
	sd	s2, 128(sp)
	sd	s3, 120(sp)
	sd	s4, 112(sp)
	.cfi_offset ra, -8
	.cfi_offset s0, -16
	.cfi_offset s1, -24
	.cfi_offset s2, -32
	.cfi_offset s3, -40
	.cfi_offset s4, -48
	addi	s0, sp, 160
	.cfi_def_cfa s0, 0
	mv	s2, a0
	fmv.d.x	ft0, a1
	sd	s2, -56(s0)
	sd	a1, -64(s0)
	fld	ft0, -64(s0)
	fsd	ft0, -72(s0)
	sd	zero, -80(s0)
	sd	zero, -88(s0)
	sd	zero, -96(s0)
	lui	a0, %hi(_ZN3CIE3CMFE)
	fld	ft0, %lo(_ZN3CIE3CMFE)(a0)
	addi	a0, a0, %lo(_ZN3CIE3CMFE)
	fld	ft1, 16(a0)
	lui	a0, %hi(.LCPI33_0)
	addi	a0, a0, %lo(.LCPI33_0)
	fld	ft2, 0(a0)
	fmul.d	ft1, ft1, ft2
	fadd.d	ft0, ft0, ft1
	fsd	ft0, -104(s0)
	j	.LBB33_1
.LBB33_1:                               # %for.cond
                                        # =>This Inner Loop Header: Depth=1
	fld	ft0, -104(s0)
	lui	a0, %hi(_ZN3CIE3CMFE)
	addi	a0, a0, %lo(_ZN3CIE3CMFE)
	fld	ft1, 8(a0)
	flt.d	a0, ft0, ft1
	xori	a0, a0, 1
	bnez	a0, .LBB33_4
	j	.LBB33_2
.LBB33_2:                               # %for.body
                                        #   in Loop: Header=BB33_1 Depth=1
	ld	a1, -104(s0)
	addi	a0, s0, -72
	call	_ZZN3CIE10Illuminant9blackbodyEdENKUldE_clEd
	mv	s1, a0
	ld	a2, -104(s0)
	lui	a0, %hi(_ZN3CIE3CMFE)
	addi	a1, a0, %lo(_ZN3CIE3CMFE)
	addi	s3, s0, -152
	mv	a0, s3
	call	_ZNK8Spectral18LinearDistributionIN3glm3vecILi3EdLNS1_9qualifierE0EEELm471EEclEd
	addi	s4, s0, -128
	mv	a0, s4
	mv	a1, s1
	mv	a2, s3
	call	_ZN3glmmlIdLNS_9qualifierE0EEENS_3vecILi3ET_XT0_EEES3_RKS4_
	addi	a0, s0, -96
	mv	a1, s4
	call	_ZN3glm3vecILi3EdLNS_9qualifierE0EEpLIdEERS2_RKNS0_ILi3ET_LS1_0EEE
	j	.LBB33_3
.LBB33_3:                               # %for.inc
                                        #   in Loop: Header=BB33_1 Depth=1
	lui	a0, %hi(_ZN3CIE3CMFE)
	addi	a0, a0, %lo(_ZN3CIE3CMFE)
	fld	ft0, 16(a0)
	fld	ft1, -104(s0)
	fadd.d	ft0, ft1, ft0
	fsd	ft0, -104(s0)
	j	.LBB33_1
.LBB33_4:                               # %for.end
	ld	a2, -88(s0)
	addi	a1, s0, -96
	mv	a0, s2
	call	_ZN3glmdvIdLNS_9qualifierE0EEENS_3vecILi3ET_XT0_EEERKS4_S3_
	ld	s4, 112(sp)
	ld	s3, 120(sp)
	ld	s2, 128(sp)
	ld	s1, 136(sp)
	ld	s0, 144(sp)
	.cfi_def_cfa sp, 160
	ld	ra, 152(sp)
	.cfi_restore ra
	.cfi_restore s0
	.cfi_restore s1
	.cfi_restore s2
	.cfi_restore s3
	.cfi_restore s4
	addi	sp, sp, 160
	.cfi_def_cfa_offset 0
	ret
.Lfunc_end33:
	.size	_ZN3CIE10Illuminant9blackbodyEd, .Lfunc_end33-_ZN3CIE10Illuminant9blackbodyEd
	.cfi_endproc
                                        # -- End function
	.section	.text._Z11getOptionalINSt7__cxx1112basic_stringIcSt11char_traitsIcESaIcEEEET_RKN8nlohmann10basic_jsonISt3mapSt6vectorS5_blmdSaNS7_14adl_serializerEEES5_S6_,"axG",@progbits,_Z11getOptionalINSt7__cxx1112basic_stringIcSt11char_traitsIcESaIcEEEET_RKN8nlohmann10basic_jsonISt3mapSt6vectorS5_blmdSaNS7_14adl_serializerEEES5_S6_,comdat
	.weak	_Z11getOptionalINSt7__cxx1112basic_stringIcSt11char_traitsIcESaIcEEEET_RKN8nlohmann10basic_jsonISt3mapSt6vectorS5_blmdSaNS7_14adl_serializerEEES5_S6_ # -- Begin function _Z11getOptionalINSt7__cxx1112basic_stringIcSt11char_traitsIcESaIcEEEET_RKN8nlohmann10basic_jsonISt3mapSt6vectorS5_blmdSaNS7_14adl_serializerEEES5_S6_
	.p2align	2
	.type	_Z11getOptionalINSt7__cxx1112basic_stringIcSt11char_traitsIcESaIcEEEET_RKN8nlohmann10basic_jsonISt3mapSt6vectorS5_blmdSaNS7_14adl_serializerEEES5_S6_,@function
_Z11getOptionalINSt7__cxx1112basic_stringIcSt11char_traitsIcESaIcEEEET_RKN8nlohmann10basic_jsonISt3mapSt6vectorS5_blmdSaNS7_14adl_serializerEEES5_S6_: # @_Z11getOptionalINSt7__cxx1112basic_stringIcSt11char_traitsIcESaIcEEEET_RKN8nlohmann10basic_jsonISt3mapSt6vectorS5_blmdSaNS7_14adl_serializerEEES5_S6_
.Lfunc_begin4:
	.cfi_startproc
	.cfi_personality 155, DW.ref.__gxx_personality_v0
	.cfi_lsda 27, .Lexception4
# %bb.0:                                # %entry
	addi	sp, sp, -176
	.cfi_def_cfa_offset 176
	sd	ra, 168(sp)
	sd	s0, 160(sp)
	sd	s1, 152(sp)
	sd	s2, 144(sp)
	sd	s3, 136(sp)
	.cfi_offset ra, -8
	.cfi_offset s0, -16
	.cfi_offset s1, -24
	.cfi_offset s2, -32
	.cfi_offset s3, -40
	addi	s0, sp, 176
	.cfi_def_cfa s0, 0
	mv	s2, a2
	mv	s1, a0
	sd	s1, -48(s0)
	sd	a1, -56(s0)
	sb	zero, -57(s0)
	mv	a0, s1
	mv	a1, a3
	call	_ZNSt7__cxx1112basic_stringIcSt11char_traitsIcESaIcEEC1ERKS4_
	ld	a1, -56(s0)
.Ltmp156:
	addi	a0, s0, -96
	mv	a2, s2
	call	_ZNK8nlohmann10basic_jsonISt3mapSt6vectorNSt7__cxx1112basic_stringIcSt11char_traitsIcESaIcEEEblmdSaNS_14adl_serializerEE4findIRS8_EENS_6detail9iter_implIKSA_EEOT_
.Ltmp157:
	j	.LBB34_1
.LBB34_1:                               # %invoke.cont
	ld	a1, -56(s0)
	addi	s3, s0, -144
	mv	a0, s3
	call	_ZNK8nlohmann10basic_jsonISt3mapSt6vectorNSt7__cxx1112basic_stringIcSt11char_traitsIcESaIcEEEblmdSaNS_14adl_serializerEE3endEv
.Ltmp158:
	addi	a0, s0, -96
	mv	a1, s3
	call	_ZNK8nlohmann6detail9iter_implIKNS_10basic_jsonISt3mapSt6vectorNSt7__cxx1112basic_stringIcSt11char_traitsIcESaIcEEEblmdSaNS_14adl_serializerEEEEneERKSE_
.Ltmp159:
	j	.LBB34_2
.LBB34_2:                               # %invoke.cont2
	andi	a0, a0, 1
	beqz	a0, .LBB34_7
	j	.LBB34_3
.LBB34_3:                               # %if.then
	ld	a0, -56(s0)
.Ltmp160:
	mv	a1, s2
	call	_ZNK8nlohmann10basic_jsonISt3mapSt6vectorNSt7__cxx1112basic_stringIcSt11char_traitsIcESaIcEEEblmdSaNS_14adl_serializerEE2atERKS8_
	mv	a1, a0
.Ltmp161:
	j	.LBB34_4
.LBB34_4:                               # %invoke.cont4
.Ltmp162:
	addi	a0, s0, -176
	call	_ZNK8nlohmann10basic_jsonISt3mapSt6vectorNSt7__cxx1112basic_stringIcSt11char_traitsIcESaIcEEEblmdSaNS_14adl_serializerEE3getIS8_S8_Li0EEET0_v
.Ltmp163:
	j	.LBB34_5
.LBB34_5:                               # %invoke.cont6
	addi	s2, s0, -176
	mv	a0, s1
	mv	a1, s2
	call	_ZNSt7__cxx1112basic_stringIcSt11char_traitsIcESaIcEEaSEOS4_
	mv	a0, s2
	call	_ZNSt7__cxx1112basic_stringIcSt11char_traitsIcESaIcEED1Ev
	j	.LBB34_7
.LBB34_6:                               # %lpad
.Ltmp164:
	sd	a0, -104(s0)
	sw	a1, -108(s0)
	mv	a0, s1
	call	_ZNSt7__cxx1112basic_stringIcSt11char_traitsIcESaIcEED1Ev
	j	.LBB34_10
.LBB34_7:                               # %if.end
	addi	a0, zero, 1
	sb	a0, -57(s0)
	lbu	a0, -57(s0)
	bnez	a0, .LBB34_9
	j	.LBB34_8
.LBB34_8:                               # %nrvo.unused
	mv	a0, s1
	call	_ZNSt7__cxx1112basic_stringIcSt11char_traitsIcESaIcEED1Ev
	j	.LBB34_9
.LBB34_9:                               # %nrvo.skipdtor
	ld	s3, 136(sp)
	ld	s2, 144(sp)
	ld	s1, 152(sp)
	ld	s0, 160(sp)
	.cfi_def_cfa sp, 176
	ld	ra, 168(sp)
	.cfi_restore ra
	.cfi_restore s0
	.cfi_restore s1
	.cfi_restore s2
	.cfi_restore s3
	addi	sp, sp, 176
	.cfi_def_cfa_offset 0
	ret
.LBB34_10:                              # %eh.resume
	ld	a0, -104(s0)
	call	_Unwind_Resume
.Lfunc_end34:
	.size	_Z11getOptionalINSt7__cxx1112basic_stringIcSt11char_traitsIcESaIcEEEET_RKN8nlohmann10basic_jsonISt3mapSt6vectorS5_blmdSaNS7_14adl_serializerEEES5_S6_, .Lfunc_end34-_Z11getOptionalINSt7__cxx1112basic_stringIcSt11char_traitsIcESaIcEEEET_RKN8nlohmann10basic_jsonISt3mapSt6vectorS5_blmdSaNS7_14adl_serializerEEES5_S6_
	.cfi_endproc
	.section	.gcc_except_table,"a",@progbits
	.p2align	2
GCC_except_table34:
.Lexception4:
	.byte	255                     # @LPStart Encoding = omit
	.byte	255                     # @TType Encoding = omit
	.byte	3                       # Call site Encoding = udata4
	.uleb128 .Lcst_end4-.Lcst_begin4
.Lcst_begin4:
	.word	.Lfunc_begin4-.Lfunc_begin4 # >> Call Site 1 <<
	.word	.Ltmp156-.Lfunc_begin4  #   Call between .Lfunc_begin4 and .Ltmp156
	.word	0                       #     has no landing pad
	.byte	0                       #   On action: cleanup
	.word	.Ltmp156-.Lfunc_begin4  # >> Call Site 2 <<
	.word	.Ltmp163-.Ltmp156       #   Call between .Ltmp156 and .Ltmp163
	.word	.Ltmp164-.Lfunc_begin4  #     jumps to .Ltmp164
	.byte	0                       #   On action: cleanup
	.word	.Ltmp163-.Lfunc_begin4  # >> Call Site 3 <<
	.word	.Lfunc_end34-.Ltmp163   #   Call between .Ltmp163 and .Lfunc_end34
	.word	0                       #     has no landing pad
	.byte	0                       #   On action: cleanup
.Lcst_end4:
	.p2align	2
                                        # -- End function
	.section	.text._ZSt9transformIN9__gnu_cxx17__normal_iteratorIPcNSt7__cxx1112basic_stringIcSt11char_traitsIcESaIcEEEEES9_PFiiEET0_T_SD_SC_T1_,"axG",@progbits,_ZSt9transformIN9__gnu_cxx17__normal_iteratorIPcNSt7__cxx1112basic_stringIcSt11char_traitsIcESaIcEEEEES9_PFiiEET0_T_SD_SC_T1_,comdat
	.weak	_ZSt9transformIN9__gnu_cxx17__normal_iteratorIPcNSt7__cxx1112basic_stringIcSt11char_traitsIcESaIcEEEEES9_PFiiEET0_T_SD_SC_T1_ # -- Begin function _ZSt9transformIN9__gnu_cxx17__normal_iteratorIPcNSt7__cxx1112basic_stringIcSt11char_traitsIcESaIcEEEEES9_PFiiEET0_T_SD_SC_T1_
	.p2align	2
	.type	_ZSt9transformIN9__gnu_cxx17__normal_iteratorIPcNSt7__cxx1112basic_stringIcSt11char_traitsIcESaIcEEEEES9_PFiiEET0_T_SD_SC_T1_,@function
_ZSt9transformIN9__gnu_cxx17__normal_iteratorIPcNSt7__cxx1112basic_stringIcSt11char_traitsIcESaIcEEEEES9_PFiiEET0_T_SD_SC_T1_: # @_ZSt9transformIN9__gnu_cxx17__normal_iteratorIPcNSt7__cxx1112basic_stringIcSt11char_traitsIcESaIcEEEEES9_PFiiEET0_T_SD_SC_T1_
	.cfi_startproc
# %bb.0:                                # %entry
	addi	sp, sp, -64
	.cfi_def_cfa_offset 64
	sd	ra, 56(sp)
	sd	s0, 48(sp)
	sd	s1, 40(sp)
	.cfi_offset ra, -8
	.cfi_offset s0, -16
	.cfi_offset s1, -24
	addi	s0, sp, 64
	.cfi_def_cfa s0, 0
	sd	a0, -40(s0)
	sd	a1, -48(s0)
	sd	a2, -56(s0)
	sd	a3, -64(s0)
	j	.LBB35_1
.LBB35_1:                               # %for.cond
                                        # =>This Inner Loop Header: Depth=1
	addi	a0, s0, -40
	addi	a1, s0, -48
	call	_ZN9__gnu_cxxneIPcNSt7__cxx1112basic_stringIcSt11char_traitsIcESaIcEEEEEbRKNS_17__normal_iteratorIT_T0_EESD_
	beqz	a0, .LBB35_4
	j	.LBB35_2
.LBB35_2:                               # %for.body
                                        #   in Loop: Header=BB35_1 Depth=1
	ld	s1, -64(s0)
	addi	a0, s0, -40
	call	_ZNK9__gnu_cxx17__normal_iteratorIPcNSt7__cxx1112basic_stringIcSt11char_traitsIcESaIcEEEEdeEv
	lbu	a0, 0(a0)
	jalr	s1
	mv	s1, a0
	addi	a0, s0, -56
	call	_ZNK9__gnu_cxx17__normal_iteratorIPcNSt7__cxx1112basic_stringIcSt11char_traitsIcESaIcEEEEdeEv
	sb	s1, 0(a0)
	j	.LBB35_3
.LBB35_3:                               # %for.inc
                                        #   in Loop: Header=BB35_1 Depth=1
	addi	a0, s0, -40
	call	_ZN9__gnu_cxx17__normal_iteratorIPcNSt7__cxx1112basic_stringIcSt11char_traitsIcESaIcEEEEppEv
	addi	a0, s0, -56
	call	_ZN9__gnu_cxx17__normal_iteratorIPcNSt7__cxx1112basic_stringIcSt11char_traitsIcESaIcEEEEppEv
	j	.LBB35_1
.LBB35_4:                               # %for.end
	ld	a0, -56(s0)
	sd	a0, -32(s0)
	ld	a0, -32(s0)
	ld	s1, 40(sp)
	ld	s0, 48(sp)
	.cfi_def_cfa sp, 64
	ld	ra, 56(sp)
	.cfi_restore ra
	.cfi_restore s0
	.cfi_restore s1
	addi	sp, sp, 64
	.cfi_def_cfa_offset 0
	ret
.Lfunc_end35:
	.size	_ZSt9transformIN9__gnu_cxx17__normal_iteratorIPcNSt7__cxx1112basic_stringIcSt11char_traitsIcESaIcEEEEES9_PFiiEET0_T_SD_SC_T1_, .Lfunc_end35-_ZSt9transformIN9__gnu_cxx17__normal_iteratorIPcNSt7__cxx1112basic_stringIcSt11char_traitsIcESaIcEEEEES9_PFiiEET0_T_SD_SC_T1_
	.cfi_endproc
                                        # -- End function
	.section	.text._ZN3CIE10Illuminant10whitePointEPKc,"axG",@progbits,_ZN3CIE10Illuminant10whitePointEPKc,comdat
	.weak	_ZN3CIE10Illuminant10whitePointEPKc # -- Begin function _ZN3CIE10Illuminant10whitePointEPKc
	.p2align	2
	.type	_ZN3CIE10Illuminant10whitePointEPKc,@function
_ZN3CIE10Illuminant10whitePointEPKc:    # @_ZN3CIE10Illuminant10whitePointEPKc
	.cfi_startproc
# %bb.0:                                # %entry
	addi	sp, sp, -96
	.cfi_def_cfa_offset 96
	sd	ra, 88(sp)
	sd	s0, 80(sp)
	sd	s1, 72(sp)
	.cfi_offset ra, -8
	.cfi_offset s0, -16
	.cfi_offset s1, -24
	addi	s0, sp, 96
	.cfi_def_cfa s0, 0
	mv	s1, a0
	sd	s1, -32(s0)
	sd	a1, -40(s0)
	lui	a0, %hi(.L__const._ZN3CIE10Illuminant10whitePointEPKc.xy)
	addi	a1, a0, %lo(.L__const._ZN3CIE10Illuminant10whitePointEPKc.xy)
	ld	a1, 8(a1)
	sd	a1, -48(s0)
	ld	a0, %lo(.L__const._ZN3CIE10Illuminant10whitePointEPKc.xy)(a0)
	sd	a0, -56(s0)
	sw	zero, -60(s0)
	j	.LBB36_1
.LBB36_1:                               # %for.cond
                                        # =>This Inner Loop Header: Depth=1
	lw	a0, -60(s0)
	addi	a1, zero, 28
	blt	a1, a0, .LBB36_6
	j	.LBB36_2
.LBB36_2:                               # %for.body
                                        #   in Loop: Header=BB36_1 Depth=1
	lw	a0, -60(s0)
	addi	a1, zero, 24
	mul	a0, a0, a1
	lui	a1, %hi(_ZN3CIE10Illuminant12white_pointsE)
	addi	a1, a1, %lo(_ZN3CIE10Illuminant12white_pointsE)
	add	a0, a0, a1
	ld	a1, 0(a0)
	addi	a0, s0, -80
	call	_ZNSt17basic_string_viewIcSt11char_traitsIcEEC2EPKc
	ld	a1, -40(s0)
	addi	a0, s0, -96
	call	_ZNSt17basic_string_viewIcSt11char_traitsIcEEC2EPKc
	ld	a1, -72(s0)
	ld	a0, -80(s0)
	ld	a3, -88(s0)
	ld	a2, -96(s0)
	call	_ZSteqIcSt11char_traitsIcEEbSt17basic_string_viewIT_T0_ENSt15__type_identityIS5_E4typeE
	beqz	a0, .LBB36_4
	j	.LBB36_3
.LBB36_3:                               # %if.then
	lw	a0, -60(s0)
	addi	a1, zero, 24
	mul	a0, a0, a1
	lui	a1, %hi(_ZN3CIE10Illuminant12white_pointsE)
	addi	a1, a1, %lo(_ZN3CIE10Illuminant12white_pointsE)
	add	a0, a1, a0
	ld	a1, 16(a0)
	sd	a1, -48(s0)
	ld	a0, 8(a0)
	sd	a0, -56(s0)
	j	.LBB36_7
.LBB36_4:                               # %if.end
                                        #   in Loop: Header=BB36_1 Depth=1
	j	.LBB36_5
.LBB36_5:                               # %for.inc
                                        #   in Loop: Header=BB36_1 Depth=1
	lw	a0, -60(s0)
	addi	a0, a0, 1
	sw	a0, -60(s0)
	j	.LBB36_1
.LBB36_6:                               # %for.end.loopexit
	j	.LBB36_7
.LBB36_7:                               # %for.end
	addi	a0, zero, 1023
	slli	a2, a0, 52
	addi	a1, s0, -56
	mv	a0, s1
	call	_ZN3CIE3XYZERKN3glm3vecILi2EdLNS0_9qualifierE0EEEd
	ld	s1, 72(sp)
	ld	s0, 80(sp)
	.cfi_def_cfa sp, 96
	ld	ra, 88(sp)
	.cfi_restore ra
	.cfi_restore s0
	.cfi_restore s1
	addi	sp, sp, 96
	.cfi_def_cfa_offset 0
	ret
.Lfunc_end36:
	.size	_ZN3CIE10Illuminant10whitePointEPKc, .Lfunc_end36-_ZN3CIE10Illuminant10whitePointEPKc
	.cfi_endproc
                                        # -- End function
	.section	.text._ZNK8nlohmann10basic_jsonISt3mapSt6vectorNSt7__cxx1112basic_stringIcSt11char_traitsIcESaIcEEEblmdSaNS_14adl_serializerEE3getIN3glm3vecILi3EdLNSC_9qualifierE0EEESF_Li0EEET0_v,"axG",@progbits,_ZNK8nlohmann10basic_jsonISt3mapSt6vectorNSt7__cxx1112basic_stringIcSt11char_traitsIcESaIcEEEblmdSaNS_14adl_serializerEE3getIN3glm3vecILi3EdLNSC_9qualifierE0EEESF_Li0EEET0_v,comdat
	.weak	_ZNK8nlohmann10basic_jsonISt3mapSt6vectorNSt7__cxx1112basic_stringIcSt11char_traitsIcESaIcEEEblmdSaNS_14adl_serializerEE3getIN3glm3vecILi3EdLNSC_9qualifierE0EEESF_Li0EEET0_v # -- Begin function _ZNK8nlohmann10basic_jsonISt3mapSt6vectorNSt7__cxx1112basic_stringIcSt11char_traitsIcESaIcEEEblmdSaNS_14adl_serializerEE3getIN3glm3vecILi3EdLNSC_9qualifierE0EEESF_Li0EEET0_v
	.p2align	2
	.type	_ZNK8nlohmann10basic_jsonISt3mapSt6vectorNSt7__cxx1112basic_stringIcSt11char_traitsIcESaIcEEEblmdSaNS_14adl_serializerEE3getIN3glm3vecILi3EdLNSC_9qualifierE0EEESF_Li0EEET0_v,@function
_ZNK8nlohmann10basic_jsonISt3mapSt6vectorNSt7__cxx1112basic_stringIcSt11char_traitsIcESaIcEEEblmdSaNS_14adl_serializerEE3getIN3glm3vecILi3EdLNSC_9qualifierE0EEESF_Li0EEET0_v: # @_ZNK8nlohmann10basic_jsonISt3mapSt6vectorNSt7__cxx1112basic_stringIcSt11char_traitsIcESaIcEEEblmdSaNS_14adl_serializerEE3getIN3glm3vecILi3EdLNSC_9qualifierE0EEESF_Li0EEET0_v
	.cfi_startproc
# %bb.0:                                # %entry
	addi	sp, sp, -32
	.cfi_def_cfa_offset 32
	sd	ra, 24(sp)
	sd	s0, 16(sp)
	.cfi_offset ra, -8
	.cfi_offset s0, -16
	addi	s0, sp, 32
	.cfi_def_cfa s0, 0
	mv	a2, a0
	sd	a2, -24(s0)
	sd	a1, -32(s0)
	ld	a0, -32(s0)
	mv	a1, a2
	call	_ZN8nlohmann14adl_serializerIN3glm3vecILi3EdLNS1_9qualifierE0EEEvE9from_jsonIRKNS_10basic_jsonISt3mapSt6vectorNSt7__cxx1112basic_stringIcSt11char_traitsIcESaIcEEEblmdSaS0_EES4_EEDTcmclL_ZNS_12_GLOBAL__N_19from_jsonEEclsr3stdE7forwardIT_Efp_Efp0_Ecvv_EEOSK_RT0_
	ld	s0, 16(sp)
	.cfi_def_cfa sp, 32
	ld	ra, 24(sp)
	.cfi_restore ra
	.cfi_restore s0
	addi	sp, sp, 32
	.cfi_def_cfa_offset 0
	ret
.Lfunc_end37:
	.size	_ZNK8nlohmann10basic_jsonISt3mapSt6vectorNSt7__cxx1112basic_stringIcSt11char_traitsIcESaIcEEEblmdSaNS_14adl_serializerEE3getIN3glm3vecILi3EdLNSC_9qualifierE0EEESF_Li0EEET0_v, .Lfunc_end37-_ZNK8nlohmann10basic_jsonISt3mapSt6vectorNSt7__cxx1112basic_stringIcSt11char_traitsIcESaIcEEEblmdSaNS_14adl_serializerEE3getIN3glm3vecILi3EdLNSC_9qualifierE0EEESF_Li0EEET0_v
	.cfi_endproc
                                        # -- End function
	.section	.text._ZN8nlohmann10basic_jsonISt3mapSt6vectorNSt7__cxx1112basic_stringIcSt11char_traitsIcESaIcEEEblmdSaNS_14adl_serializerEED2Ev,"axG",@progbits,_ZN8nlohmann10basic_jsonISt3mapSt6vectorNSt7__cxx1112basic_stringIcSt11char_traitsIcESaIcEEEblmdSaNS_14adl_serializerEED2Ev,comdat
	.weak	_ZN8nlohmann10basic_jsonISt3mapSt6vectorNSt7__cxx1112basic_stringIcSt11char_traitsIcESaIcEEEblmdSaNS_14adl_serializerEED2Ev # -- Begin function _ZN8nlohmann10basic_jsonISt3mapSt6vectorNSt7__cxx1112basic_stringIcSt11char_traitsIcESaIcEEEblmdSaNS_14adl_serializerEED2Ev
	.p2align	2
	.type	_ZN8nlohmann10basic_jsonISt3mapSt6vectorNSt7__cxx1112basic_stringIcSt11char_traitsIcESaIcEEEblmdSaNS_14adl_serializerEED2Ev,@function
_ZN8nlohmann10basic_jsonISt3mapSt6vectorNSt7__cxx1112basic_stringIcSt11char_traitsIcESaIcEEEblmdSaNS_14adl_serializerEED2Ev: # @_ZN8nlohmann10basic_jsonISt3mapSt6vectorNSt7__cxx1112basic_stringIcSt11char_traitsIcESaIcEEEblmdSaNS_14adl_serializerEED2Ev
# %bb.0:                                # %entry
	addi	sp, sp, -32
	sd	ra, 24(sp)
	sd	s0, 16(sp)
	sd	s1, 8(sp)
	addi	s0, sp, 32
	sd	a0, -32(s0)
	ld	s1, -32(s0)
	mv	a0, s1
	call	_ZNK8nlohmann10basic_jsonISt3mapSt6vectorNSt7__cxx1112basic_stringIcSt11char_traitsIcESaIcEEEblmdSaNS_14adl_serializerEE16assert_invariantEv
	addi	a0, s1, 8
	lbu	a1, 0(s1)
	call	_ZN8nlohmann10basic_jsonISt3mapSt6vectorNSt7__cxx1112basic_stringIcSt11char_traitsIcESaIcEEEblmdSaNS_14adl_serializerEE10json_value7destroyENS_6detail7value_tE
	ld	s1, 8(sp)
	ld	s0, 16(sp)
	ld	ra, 24(sp)
	addi	sp, sp, 32
	ret
.Lfunc_end38:
	.size	_ZN8nlohmann10basic_jsonISt3mapSt6vectorNSt7__cxx1112basic_stringIcSt11char_traitsIcESaIcEEEblmdSaNS_14adl_serializerEED2Ev, .Lfunc_end38-_ZN8nlohmann10basic_jsonISt3mapSt6vectorNSt7__cxx1112basic_stringIcSt11char_traitsIcESaIcEEEblmdSaNS_14adl_serializerEED2Ev
                                        # -- End function
	.section	.text._ZNK8nlohmann10basic_jsonISt3mapSt6vectorNSt7__cxx1112basic_stringIcSt11char_traitsIcESaIcEEEblmdSaNS_14adl_serializerEE4findIRA4_KcEENS_6detail9iter_implIKSA_EEOT_,"axG",@progbits,_ZNK8nlohmann10basic_jsonISt3mapSt6vectorNSt7__cxx1112basic_stringIcSt11char_traitsIcESaIcEEEblmdSaNS_14adl_serializerEE4findIRA4_KcEENS_6detail9iter_implIKSA_EEOT_,comdat
	.weak	_ZNK8nlohmann10basic_jsonISt3mapSt6vectorNSt7__cxx1112basic_stringIcSt11char_traitsIcESaIcEEEblmdSaNS_14adl_serializerEE4findIRA4_KcEENS_6detail9iter_implIKSA_EEOT_ # -- Begin function _ZNK8nlohmann10basic_jsonISt3mapSt6vectorNSt7__cxx1112basic_stringIcSt11char_traitsIcESaIcEEEblmdSaNS_14adl_serializerEE4findIRA4_KcEENS_6detail9iter_implIKSA_EEOT_
	.p2align	2
	.type	_ZNK8nlohmann10basic_jsonISt3mapSt6vectorNSt7__cxx1112basic_stringIcSt11char_traitsIcESaIcEEEblmdSaNS_14adl_serializerEE4findIRA4_KcEENS_6detail9iter_implIKSA_EEOT_,@function
_ZNK8nlohmann10basic_jsonISt3mapSt6vectorNSt7__cxx1112basic_stringIcSt11char_traitsIcESaIcEEEblmdSaNS_14adl_serializerEE4findIRA4_KcEENS_6detail9iter_implIKSA_EEOT_: # @_ZNK8nlohmann10basic_jsonISt3mapSt6vectorNSt7__cxx1112basic_stringIcSt11char_traitsIcESaIcEEEblmdSaNS_14adl_serializerEE4findIRA4_KcEENS_6detail9iter_implIKSA_EEOT_
	.cfi_startproc
# %bb.0:                                # %entry
	addi	sp, sp, -64
	.cfi_def_cfa_offset 64
	sd	ra, 56(sp)
	sd	s0, 48(sp)
	sd	s1, 40(sp)
	sd	s2, 32(sp)
	.cfi_offset ra, -8
	.cfi_offset s0, -16
	.cfi_offset s1, -24
	.cfi_offset s2, -32
	addi	s0, sp, 64
	.cfi_def_cfa s0, 0
	mv	s2, a0
	sd	s2, -40(s0)
	sd	a1, -48(s0)
	sd	a2, -56(s0)
	ld	s1, -48(s0)
	mv	a0, s2
	mv	a1, s1
	call	_ZNK8nlohmann10basic_jsonISt3mapSt6vectorNSt7__cxx1112basic_stringIcSt11char_traitsIcESaIcEEEblmdSaNS_14adl_serializerEE4cendEv
	mv	a0, s1
	call	_ZNK8nlohmann10basic_jsonISt3mapSt6vectorNSt7__cxx1112basic_stringIcSt11char_traitsIcESaIcEEEblmdSaNS_14adl_serializerEE9is_objectEv
	beqz	a0, .LBB39_2
	j	.LBB39_1
.LBB39_1:                               # %if.then
	ld	s1, 8(s1)
	ld	a0, -56(s0)
	call	_ZSt7forwardIRA4_KcEOT_RNSt16remove_referenceIS3_E4typeE
	mv	a1, a0
	mv	a0, s1
	call	_ZNSt3mapINSt7__cxx1112basic_stringIcSt11char_traitsIcESaIcEEEN8nlohmann10basic_jsonIS_St6vectorS5_blmdSaNS6_14adl_serializerEEESt4lessIvESaISt4pairIKS5_SA_EEE4findIA4_cEEDTcldtdtdefpT4_M_t10_M_find_trfp_EERKT_
	sd	a0, -64(s0)
	ld	a0, -64(s0)
	sd	a0, 8(s2)
	j	.LBB39_2
.LBB39_2:                               # %if.end
	ld	s2, 32(sp)
	ld	s1, 40(sp)
	ld	s0, 48(sp)
	.cfi_def_cfa sp, 64
	ld	ra, 56(sp)
	.cfi_restore ra
	.cfi_restore s0
	.cfi_restore s1
	.cfi_restore s2
	addi	sp, sp, 64
	.cfi_def_cfa_offset 0
	ret
.Lfunc_end39:
	.size	_ZNK8nlohmann10basic_jsonISt3mapSt6vectorNSt7__cxx1112basic_stringIcSt11char_traitsIcESaIcEEEblmdSaNS_14adl_serializerEE4findIRA4_KcEENS_6detail9iter_implIKSA_EEOT_, .Lfunc_end39-_ZNK8nlohmann10basic_jsonISt3mapSt6vectorNSt7__cxx1112basic_stringIcSt11char_traitsIcESaIcEEEblmdSaNS_14adl_serializerEE4findIRA4_KcEENS_6detail9iter_implIKSA_EEOT_
	.cfi_endproc
                                        # -- End function
	.section	.text._ZSt11make_sharedI10ComplexIORJS0_EESt10shared_ptrINSt9enable_ifIXntsr8is_arrayIT_EE5valueES3_E4typeEEDpOT0_,"axG",@progbits,_ZSt11make_sharedI10ComplexIORJS0_EESt10shared_ptrINSt9enable_ifIXntsr8is_arrayIT_EE5valueES3_E4typeEEDpOT0_,comdat
	.weak	_ZSt11make_sharedI10ComplexIORJS0_EESt10shared_ptrINSt9enable_ifIXntsr8is_arrayIT_EE5valueES3_E4typeEEDpOT0_ # -- Begin function _ZSt11make_sharedI10ComplexIORJS0_EESt10shared_ptrINSt9enable_ifIXntsr8is_arrayIT_EE5valueES3_E4typeEEDpOT0_
	.p2align	2
	.type	_ZSt11make_sharedI10ComplexIORJS0_EESt10shared_ptrINSt9enable_ifIXntsr8is_arrayIT_EE5valueES3_E4typeEEDpOT0_,@function
_ZSt11make_sharedI10ComplexIORJS0_EESt10shared_ptrINSt9enable_ifIXntsr8is_arrayIT_EE5valueES3_E4typeEEDpOT0_: # @_ZSt11make_sharedI10ComplexIORJS0_EESt10shared_ptrINSt9enable_ifIXntsr8is_arrayIT_EE5valueES3_E4typeEEDpOT0_
	.cfi_startproc
# %bb.0:                                # %entry
	addi	sp, sp, -64
	.cfi_def_cfa_offset 64
	sd	ra, 56(sp)
	sd	s0, 48(sp)
	sd	s1, 40(sp)
	.cfi_offset ra, -8
	.cfi_offset s0, -16
	.cfi_offset s1, -24
	addi	s0, sp, 64
	.cfi_def_cfa s0, 0
	mv	s1, a0
	sd	s1, -32(s0)
	sd	a1, -40(s0)
	addi	a0, s0, -48
	sd	a0, -56(s0)
	ld	a0, -40(s0)
	call	_ZSt7forwardI10ComplexIOREOT_RNSt16remove_referenceIS1_E4typeE
	mv	a2, a0
	ld	a1, -56(s0)
	mv	a0, s1
	call	_ZNSt10shared_ptrI10ComplexIOREC2ISaIvEJS0_EEESt20_Sp_alloc_shared_tagIT_EDpOT0_
	ld	s1, 40(sp)
	ld	s0, 48(sp)
	.cfi_def_cfa sp, 64
	ld	ra, 56(sp)
	.cfi_restore ra
	.cfi_restore s0
	.cfi_restore s1
	addi	sp, sp, 64
	.cfi_def_cfa_offset 0
	ret
.Lfunc_end40:
	.size	_ZSt11make_sharedI10ComplexIORJS0_EESt10shared_ptrINSt9enable_ifIXntsr8is_arrayIT_EE5valueES3_E4typeEEDpOT0_, .Lfunc_end40-_ZSt11make_sharedI10ComplexIORJS0_EESt10shared_ptrINSt9enable_ifIXntsr8is_arrayIT_EE5valueES3_E4typeEEDpOT0_
	.cfi_endproc
                                        # -- End function
	.section	.text._ZNK8nlohmann10basic_jsonISt3mapSt6vectorNSt7__cxx1112basic_stringIcSt11char_traitsIcESaIcEEEblmdSaNS_14adl_serializerEE3getI10ComplexIORSC_Li0EEET0_v,"axG",@progbits,_ZNK8nlohmann10basic_jsonISt3mapSt6vectorNSt7__cxx1112basic_stringIcSt11char_traitsIcESaIcEEEblmdSaNS_14adl_serializerEE3getI10ComplexIORSC_Li0EEET0_v,comdat
	.weak	_ZNK8nlohmann10basic_jsonISt3mapSt6vectorNSt7__cxx1112basic_stringIcSt11char_traitsIcESaIcEEEblmdSaNS_14adl_serializerEE3getI10ComplexIORSC_Li0EEET0_v # -- Begin function _ZNK8nlohmann10basic_jsonISt3mapSt6vectorNSt7__cxx1112basic_stringIcSt11char_traitsIcESaIcEEEblmdSaNS_14adl_serializerEE3getI10ComplexIORSC_Li0EEET0_v
	.p2align	2
	.type	_ZNK8nlohmann10basic_jsonISt3mapSt6vectorNSt7__cxx1112basic_stringIcSt11char_traitsIcESaIcEEEblmdSaNS_14adl_serializerEE3getI10ComplexIORSC_Li0EEET0_v,@function
_ZNK8nlohmann10basic_jsonISt3mapSt6vectorNSt7__cxx1112basic_stringIcSt11char_traitsIcESaIcEEEblmdSaNS_14adl_serializerEE3getI10ComplexIORSC_Li0EEET0_v: # @_ZNK8nlohmann10basic_jsonISt3mapSt6vectorNSt7__cxx1112basic_stringIcSt11char_traitsIcESaIcEEEblmdSaNS_14adl_serializerEE3getI10ComplexIORSC_Li0EEET0_v
	.cfi_startproc
# %bb.0:                                # %entry
	addi	sp, sp, -48
	.cfi_def_cfa_offset 48
	sd	ra, 40(sp)
	sd	s0, 32(sp)
	sd	s1, 24(sp)
	sd	s2, 16(sp)
	.cfi_offset ra, -8
	.cfi_offset s0, -16
	.cfi_offset s1, -24
	.cfi_offset s2, -32
	addi	s0, sp, 48
	.cfi_def_cfa s0, 0
	mv	s1, a0
	sd	s1, -40(s0)
	sd	a1, -48(s0)
	ld	s2, -48(s0)
	mv	a0, s1
	call	_ZN10ComplexIORC2Ev
	mv	a0, s2
	mv	a1, s1
	call	_ZN8nlohmann14adl_serializerI10ComplexIORvE9from_jsonIRKNS_10basic_jsonISt3mapSt6vectorNSt7__cxx1112basic_stringIcSt11char_traitsIcESaIcEEEblmdSaS0_EES1_EEDTcmclL_ZNS_12_GLOBAL__N_19from_jsonEEclsr3stdE7forwardIT_Efp_Efp0_Ecvv_EEOSH_RT0_
	ld	s2, 16(sp)
	ld	s1, 24(sp)
	ld	s0, 32(sp)
	.cfi_def_cfa sp, 48
	ld	ra, 40(sp)
	.cfi_restore ra
	.cfi_restore s0
	.cfi_restore s1
	.cfi_restore s2
	addi	sp, sp, 48
	.cfi_def_cfa_offset 0
	ret
.Lfunc_end41:
	.size	_ZNK8nlohmann10basic_jsonISt3mapSt6vectorNSt7__cxx1112basic_stringIcSt11char_traitsIcESaIcEEEblmdSaNS_14adl_serializerEE3getI10ComplexIORSC_Li0EEET0_v, .Lfunc_end41-_ZNK8nlohmann10basic_jsonISt3mapSt6vectorNSt7__cxx1112basic_stringIcSt11char_traitsIcESaIcEEEblmdSaNS_14adl_serializerEE3getI10ComplexIORSC_Li0EEET0_v
	.cfi_endproc
                                        # -- End function
	.section	.text._ZNSt10shared_ptrI10ComplexIOREaSEOS1_,"axG",@progbits,_ZNSt10shared_ptrI10ComplexIOREaSEOS1_,comdat
	.weak	_ZNSt10shared_ptrI10ComplexIOREaSEOS1_ # -- Begin function _ZNSt10shared_ptrI10ComplexIOREaSEOS1_
	.p2align	2
	.type	_ZNSt10shared_ptrI10ComplexIOREaSEOS1_,@function
_ZNSt10shared_ptrI10ComplexIOREaSEOS1_: # @_ZNSt10shared_ptrI10ComplexIOREaSEOS1_
# %bb.0:                                # %entry
	addi	sp, sp, -48
	sd	ra, 40(sp)
	sd	s0, 32(sp)
	sd	s1, 24(sp)
	addi	s0, sp, 48
	sd	a0, -32(s0)
	sd	a1, -40(s0)
	ld	s1, -32(s0)
	ld	a0, -40(s0)
	call	_ZSt4moveIRSt10shared_ptrI10ComplexIOREEONSt16remove_referenceIT_E4typeEOS5_
	mv	a1, a0
	mv	a0, s1
	call	_ZNSt12__shared_ptrI10ComplexIORLN9__gnu_cxx12_Lock_policyE0EEaSEOS3_
	mv	a0, s1
	ld	s1, 24(sp)
	ld	s0, 32(sp)
	ld	ra, 40(sp)
	addi	sp, sp, 48
	ret
.Lfunc_end42:
	.size	_ZNSt10shared_ptrI10ComplexIOREaSEOS1_, .Lfunc_end42-_ZNSt10shared_ptrI10ComplexIOREaSEOS1_
                                        # -- End function
	.section	.text._ZNSt10shared_ptrI10ComplexIORED2Ev,"axG",@progbits,_ZNSt10shared_ptrI10ComplexIORED2Ev,comdat
	.weak	_ZNSt10shared_ptrI10ComplexIORED2Ev # -- Begin function _ZNSt10shared_ptrI10ComplexIORED2Ev
	.p2align	2
	.type	_ZNSt10shared_ptrI10ComplexIORED2Ev,@function
_ZNSt10shared_ptrI10ComplexIORED2Ev:    # @_ZNSt10shared_ptrI10ComplexIORED2Ev
# %bb.0:                                # %entry
	addi	sp, sp, -32
	sd	ra, 24(sp)
	sd	s0, 16(sp)
	addi	s0, sp, 32
	sd	a0, -24(s0)
	ld	a0, -24(s0)
	call	_ZNSt12__shared_ptrI10ComplexIORLN9__gnu_cxx12_Lock_policyE0EED2Ev
	ld	s0, 16(sp)
	ld	ra, 24(sp)
	addi	sp, sp, 32
	ret
.Lfunc_end43:
	.size	_ZNSt10shared_ptrI10ComplexIORED2Ev, .Lfunc_end43-_ZNSt10shared_ptrI10ComplexIORED2Ev
                                        # -- End function
	.section	.text._ZNK8nlohmann10basic_jsonISt3mapSt6vectorNSt7__cxx1112basic_stringIcSt11char_traitsIcESaIcEEEblmdSaNS_14adl_serializerEE6get_toIdLi0EEERT_SD_,"axG",@progbits,_ZNK8nlohmann10basic_jsonISt3mapSt6vectorNSt7__cxx1112basic_stringIcSt11char_traitsIcESaIcEEEblmdSaNS_14adl_serializerEE6get_toIdLi0EEERT_SD_,comdat
	.weak	_ZNK8nlohmann10basic_jsonISt3mapSt6vectorNSt7__cxx1112basic_stringIcSt11char_traitsIcESaIcEEEblmdSaNS_14adl_serializerEE6get_toIdLi0EEERT_SD_ # -- Begin function _ZNK8nlohmann10basic_jsonISt3mapSt6vectorNSt7__cxx1112basic_stringIcSt11char_traitsIcESaIcEEEblmdSaNS_14adl_serializerEE6get_toIdLi0EEERT_SD_
	.p2align	2
	.type	_ZNK8nlohmann10basic_jsonISt3mapSt6vectorNSt7__cxx1112basic_stringIcSt11char_traitsIcESaIcEEEblmdSaNS_14adl_serializerEE6get_toIdLi0EEERT_SD_,@function
_ZNK8nlohmann10basic_jsonISt3mapSt6vectorNSt7__cxx1112basic_stringIcSt11char_traitsIcESaIcEEEblmdSaNS_14adl_serializerEE6get_toIdLi0EEERT_SD_: # @_ZNK8nlohmann10basic_jsonISt3mapSt6vectorNSt7__cxx1112basic_stringIcSt11char_traitsIcESaIcEEEblmdSaNS_14adl_serializerEE6get_toIdLi0EEERT_SD_
	.cfi_startproc
# %bb.0:                                # %entry
	addi	sp, sp, -32
	.cfi_def_cfa_offset 32
	sd	ra, 24(sp)
	sd	s0, 16(sp)
	.cfi_offset ra, -8
	.cfi_offset s0, -16
	addi	s0, sp, 32
	.cfi_def_cfa s0, 0
	sd	a0, -24(s0)
	sd	a1, -32(s0)
	ld	a0, -24(s0)
	ld	a1, -32(s0)
	call	_ZN8nlohmann14adl_serializerIdvE9from_jsonIRKNS_10basic_jsonISt3mapSt6vectorNSt7__cxx1112basic_stringIcSt11char_traitsIcESaIcEEEblmdSaS0_EEdEEDTcmclL_ZNS_12_GLOBAL__N_19from_jsonEEclsr3stdE7forwardIT_Efp_Efp0_Ecvv_EEOSG_RT0_
	ld	a0, -32(s0)
	ld	s0, 16(sp)
	.cfi_def_cfa sp, 32
	ld	ra, 24(sp)
	.cfi_restore ra
	.cfi_restore s0
	addi	sp, sp, 32
	.cfi_def_cfa_offset 0
	ret
.Lfunc_end44:
	.size	_ZNK8nlohmann10basic_jsonISt3mapSt6vectorNSt7__cxx1112basic_stringIcSt11char_traitsIcESaIcEEEblmdSaNS_14adl_serializerEE6get_toIdLi0EEERT_SD_, .Lfunc_end44-_ZNK8nlohmann10basic_jsonISt3mapSt6vectorNSt7__cxx1112basic_stringIcSt11char_traitsIcESaIcEEEblmdSaNS_14adl_serializerEE6get_toIdLi0EEERT_SD_
	.cfi_endproc
                                        # -- End function
	.text
	.globl	_ZSt9from_jsonRKN8nlohmann10basic_jsonISt3mapSt6vectorNSt7__cxx1112basic_stringIcSt11char_traitsIcESaIcEEEblmdSaNS_14adl_serializerEEERSt10shared_ptrI8MaterialE # -- Begin function _ZSt9from_jsonRKN8nlohmann10basic_jsonISt3mapSt6vectorNSt7__cxx1112basic_stringIcSt11char_traitsIcESaIcEEEblmdSaNS_14adl_serializerEEERSt10shared_ptrI8MaterialE
	.p2align	2
	.type	_ZSt9from_jsonRKN8nlohmann10basic_jsonISt3mapSt6vectorNSt7__cxx1112basic_stringIcSt11char_traitsIcESaIcEEEblmdSaNS_14adl_serializerEEERSt10shared_ptrI8MaterialE,@function
_ZSt9from_jsonRKN8nlohmann10basic_jsonISt3mapSt6vectorNSt7__cxx1112basic_stringIcSt11char_traitsIcESaIcEEEblmdSaNS_14adl_serializerEEERSt10shared_ptrI8MaterialE: # @_ZSt9from_jsonRKN8nlohmann10basic_jsonISt3mapSt6vectorNSt7__cxx1112basic_stringIcSt11char_traitsIcESaIcEEEblmdSaNS_14adl_serializerEEERSt10shared_ptrI8MaterialE
.Lfunc_begin5:
	.cfi_startproc
	.cfi_personality 155, DW.ref.__gxx_personality_v0
	.cfi_lsda 27, .Lexception5
# %bb.0:                                # %entry
	addi	sp, sp, -256
	.cfi_def_cfa_offset 256
	sd	ra, 248(sp)
	sd	s0, 240(sp)
	sd	s1, 232(sp)
	.cfi_offset ra, -8
	.cfi_offset s0, -16
	.cfi_offset s1, -24
	addi	s0, sp, 256
	.cfi_def_cfa s0, 0
	sd	a0, -32(s0)
	sd	a1, -40(s0)
	ld	a1, -32(s0)
	addi	s1, s0, -240
	mv	a0, s1
	call	_ZNK8nlohmann10basic_jsonISt3mapSt6vectorNSt7__cxx1112basic_stringIcSt11char_traitsIcESaIcEEEblmdSaNS_14adl_serializerEE3getI8MaterialSC_Li0EEET0_v
.Ltmp165:
	addi	a0, s0, -56
	mv	a1, s1
	call	_ZSt11make_sharedI8MaterialJS0_EESt10shared_ptrINSt9enable_ifIXntsr8is_arrayIT_EE5valueES3_E4typeEEDpOT0_
.Ltmp166:
	j	.LBB45_1
.LBB45_1:                               # %invoke.cont
	ld	a0, -40(s0)
	addi	s1, s0, -56
	mv	a1, s1
	call	_ZNSt10shared_ptrI8MaterialEaSEOS1_
	mv	a0, s1
	call	_ZNSt10shared_ptrI8MaterialED2Ev
	addi	a0, s0, -240
	call	_ZN8MaterialD2Ev
	ld	s1, 232(sp)
	ld	s0, 240(sp)
	.cfi_def_cfa sp, 256
	ld	ra, 248(sp)
	.cfi_restore ra
	.cfi_restore s0
	.cfi_restore s1
	addi	sp, sp, 256
	.cfi_def_cfa_offset 0
	ret
.LBB45_2:                               # %lpad
.Ltmp167:
	sd	a0, -248(s0)
	sw	a1, -252(s0)
	addi	a0, s0, -240
	call	_ZN8MaterialD2Ev
	j	.LBB45_3
.LBB45_3:                               # %eh.resume
	ld	a0, -248(s0)
	call	_Unwind_Resume
.Lfunc_end45:
	.size	_ZSt9from_jsonRKN8nlohmann10basic_jsonISt3mapSt6vectorNSt7__cxx1112basic_stringIcSt11char_traitsIcESaIcEEEblmdSaNS_14adl_serializerEEERSt10shared_ptrI8MaterialE, .Lfunc_end45-_ZSt9from_jsonRKN8nlohmann10basic_jsonISt3mapSt6vectorNSt7__cxx1112basic_stringIcSt11char_traitsIcESaIcEEEblmdSaNS_14adl_serializerEEERSt10shared_ptrI8MaterialE
	.cfi_endproc
	.section	.gcc_except_table,"a",@progbits
	.p2align	2
GCC_except_table45:
.Lexception5:
	.byte	255                     # @LPStart Encoding = omit
	.byte	255                     # @TType Encoding = omit
	.byte	3                       # Call site Encoding = udata4
	.uleb128 .Lcst_end5-.Lcst_begin5
.Lcst_begin5:
	.word	.Lfunc_begin5-.Lfunc_begin5 # >> Call Site 1 <<
	.word	.Ltmp165-.Lfunc_begin5  #   Call between .Lfunc_begin5 and .Ltmp165
	.word	0                       #     has no landing pad
	.byte	0                       #   On action: cleanup
	.word	.Ltmp165-.Lfunc_begin5  # >> Call Site 2 <<
	.word	.Ltmp166-.Ltmp165       #   Call between .Ltmp165 and .Ltmp166
	.word	.Ltmp167-.Lfunc_begin5  #     jumps to .Ltmp167
	.byte	0                       #   On action: cleanup
	.word	.Ltmp166-.Lfunc_begin5  # >> Call Site 3 <<
	.word	.Lfunc_end45-.Ltmp166   #   Call between .Ltmp166 and .Lfunc_end45
	.word	0                       #     has no landing pad
	.byte	0                       #   On action: cleanup
.Lcst_end5:
	.p2align	2
                                        # -- End function
	.section	.text._ZSt11make_sharedI8MaterialJS0_EESt10shared_ptrINSt9enable_ifIXntsr8is_arrayIT_EE5valueES3_E4typeEEDpOT0_,"axG",@progbits,_ZSt11make_sharedI8MaterialJS0_EESt10shared_ptrINSt9enable_ifIXntsr8is_arrayIT_EE5valueES3_E4typeEEDpOT0_,comdat
	.weak	_ZSt11make_sharedI8MaterialJS0_EESt10shared_ptrINSt9enable_ifIXntsr8is_arrayIT_EE5valueES3_E4typeEEDpOT0_ # -- Begin function _ZSt11make_sharedI8MaterialJS0_EESt10shared_ptrINSt9enable_ifIXntsr8is_arrayIT_EE5valueES3_E4typeEEDpOT0_
	.p2align	2
	.type	_ZSt11make_sharedI8MaterialJS0_EESt10shared_ptrINSt9enable_ifIXntsr8is_arrayIT_EE5valueES3_E4typeEEDpOT0_,@function
_ZSt11make_sharedI8MaterialJS0_EESt10shared_ptrINSt9enable_ifIXntsr8is_arrayIT_EE5valueES3_E4typeEEDpOT0_: # @_ZSt11make_sharedI8MaterialJS0_EESt10shared_ptrINSt9enable_ifIXntsr8is_arrayIT_EE5valueES3_E4typeEEDpOT0_
	.cfi_startproc
# %bb.0:                                # %entry
	addi	sp, sp, -64
	.cfi_def_cfa_offset 64
	sd	ra, 56(sp)
	sd	s0, 48(sp)
	sd	s1, 40(sp)
	.cfi_offset ra, -8
	.cfi_offset s0, -16
	.cfi_offset s1, -24
	addi	s0, sp, 64
	.cfi_def_cfa s0, 0
	mv	s1, a0
	sd	s1, -32(s0)
	sd	a1, -40(s0)
	addi	a0, s0, -48
	sd	a0, -56(s0)
	ld	a0, -40(s0)
	call	_ZSt7forwardI8MaterialEOT_RNSt16remove_referenceIS1_E4typeE
	mv	a2, a0
	ld	a1, -56(s0)
	mv	a0, s1
	call	_ZNSt10shared_ptrI8MaterialEC2ISaIvEJS0_EEESt20_Sp_alloc_shared_tagIT_EDpOT0_
	ld	s1, 40(sp)
	ld	s0, 48(sp)
	.cfi_def_cfa sp, 64
	ld	ra, 56(sp)
	.cfi_restore ra
	.cfi_restore s0
	.cfi_restore s1
	addi	sp, sp, 64
	.cfi_def_cfa_offset 0
	ret
.Lfunc_end46:
	.size	_ZSt11make_sharedI8MaterialJS0_EESt10shared_ptrINSt9enable_ifIXntsr8is_arrayIT_EE5valueES3_E4typeEEDpOT0_, .Lfunc_end46-_ZSt11make_sharedI8MaterialJS0_EESt10shared_ptrINSt9enable_ifIXntsr8is_arrayIT_EE5valueES3_E4typeEEDpOT0_
	.cfi_endproc
                                        # -- End function
	.section	.text._ZNK8nlohmann10basic_jsonISt3mapSt6vectorNSt7__cxx1112basic_stringIcSt11char_traitsIcESaIcEEEblmdSaNS_14adl_serializerEE3getI8MaterialSC_Li0EEET0_v,"axG",@progbits,_ZNK8nlohmann10basic_jsonISt3mapSt6vectorNSt7__cxx1112basic_stringIcSt11char_traitsIcESaIcEEEblmdSaNS_14adl_serializerEE3getI8MaterialSC_Li0EEET0_v,comdat
	.weak	_ZNK8nlohmann10basic_jsonISt3mapSt6vectorNSt7__cxx1112basic_stringIcSt11char_traitsIcESaIcEEEblmdSaNS_14adl_serializerEE3getI8MaterialSC_Li0EEET0_v # -- Begin function _ZNK8nlohmann10basic_jsonISt3mapSt6vectorNSt7__cxx1112basic_stringIcSt11char_traitsIcESaIcEEEblmdSaNS_14adl_serializerEE3getI8MaterialSC_Li0EEET0_v
	.p2align	2
	.type	_ZNK8nlohmann10basic_jsonISt3mapSt6vectorNSt7__cxx1112basic_stringIcSt11char_traitsIcESaIcEEEblmdSaNS_14adl_serializerEE3getI8MaterialSC_Li0EEET0_v,@function
_ZNK8nlohmann10basic_jsonISt3mapSt6vectorNSt7__cxx1112basic_stringIcSt11char_traitsIcESaIcEEEblmdSaNS_14adl_serializerEE3getI8MaterialSC_Li0EEET0_v: # @_ZNK8nlohmann10basic_jsonISt3mapSt6vectorNSt7__cxx1112basic_stringIcSt11char_traitsIcESaIcEEEblmdSaNS_14adl_serializerEE3getI8MaterialSC_Li0EEET0_v
.Lfunc_begin6:
	.cfi_startproc
	.cfi_personality 155, DW.ref.__gxx_personality_v0
	.cfi_lsda 27, .Lexception6
# %bb.0:                                # %entry
	addi	sp, sp, -80
	.cfi_def_cfa_offset 80
	sd	ra, 72(sp)
	sd	s0, 64(sp)
	sd	s1, 56(sp)
	sd	s2, 48(sp)
	.cfi_offset ra, -8
	.cfi_offset s0, -16
	.cfi_offset s1, -24
	.cfi_offset s2, -32
	addi	s0, sp, 80
	.cfi_def_cfa s0, 0
	mv	s1, a0
	sd	s1, -40(s0)
	sd	a1, -48(s0)
	ld	s2, -48(s0)
	sb	zero, -49(s0)
	mv	a0, s1
	call	_ZN8MaterialC2Ev
.Ltmp168:
	mv	a0, s2
	mv	a1, s1
	call	_ZN8nlohmann14adl_serializerI8MaterialvE9from_jsonIRKNS_10basic_jsonISt3mapSt6vectorNSt7__cxx1112basic_stringIcSt11char_traitsIcESaIcEEEblmdSaS0_EES1_EEDTcmclL_ZNS_12_GLOBAL__N_19from_jsonEEclsr3stdE7forwardIT_Efp_Efp0_Ecvv_EEOSH_RT0_
.Ltmp169:
	j	.LBB47_1
.LBB47_1:                               # %invoke.cont
	addi	a0, zero, 1
	sb	a0, -49(s0)
	lbu	a0, -49(s0)
	bnez	a0, .LBB47_4
	j	.LBB47_3
.LBB47_2:                               # %lpad
.Ltmp170:
	sd	a0, -64(s0)
	sw	a1, -68(s0)
	mv	a0, s1
	call	_ZN8MaterialD2Ev
	j	.LBB47_5
.LBB47_3:                               # %nrvo.unused
	mv	a0, s1
	call	_ZN8MaterialD2Ev
	j	.LBB47_4
.LBB47_4:                               # %nrvo.skipdtor
	ld	s2, 48(sp)
	ld	s1, 56(sp)
	ld	s0, 64(sp)
	.cfi_def_cfa sp, 80
	ld	ra, 72(sp)
	.cfi_restore ra
	.cfi_restore s0
	.cfi_restore s1
	.cfi_restore s2
	addi	sp, sp, 80
	.cfi_def_cfa_offset 0
	ret
.LBB47_5:                               # %eh.resume
	ld	a0, -64(s0)
	call	_Unwind_Resume
.Lfunc_end47:
	.size	_ZNK8nlohmann10basic_jsonISt3mapSt6vectorNSt7__cxx1112basic_stringIcSt11char_traitsIcESaIcEEEblmdSaNS_14adl_serializerEE3getI8MaterialSC_Li0EEET0_v, .Lfunc_end47-_ZNK8nlohmann10basic_jsonISt3mapSt6vectorNSt7__cxx1112basic_stringIcSt11char_traitsIcESaIcEEEblmdSaNS_14adl_serializerEE3getI8MaterialSC_Li0EEET0_v
	.cfi_endproc
	.section	.gcc_except_table,"a",@progbits
	.p2align	2
GCC_except_table47:
.Lexception6:
	.byte	255                     # @LPStart Encoding = omit
	.byte	255                     # @TType Encoding = omit
	.byte	3                       # Call site Encoding = udata4
	.uleb128 .Lcst_end6-.Lcst_begin6
.Lcst_begin6:
	.word	.Lfunc_begin6-.Lfunc_begin6 # >> Call Site 1 <<
	.word	.Ltmp168-.Lfunc_begin6  #   Call between .Lfunc_begin6 and .Ltmp168
	.word	0                       #     has no landing pad
	.byte	0                       #   On action: cleanup
	.word	.Ltmp168-.Lfunc_begin6  # >> Call Site 2 <<
	.word	.Ltmp169-.Ltmp168       #   Call between .Ltmp168 and .Ltmp169
	.word	.Ltmp170-.Lfunc_begin6  #     jumps to .Ltmp170
	.byte	0                       #   On action: cleanup
	.word	.Ltmp169-.Lfunc_begin6  # >> Call Site 3 <<
	.word	.Lfunc_end47-.Ltmp169   #   Call between .Ltmp169 and .Lfunc_end47
	.word	0                       #     has no landing pad
	.byte	0                       #   On action: cleanup
.Lcst_end6:
	.p2align	2
                                        # -- End function
	.section	.text._ZNSt10shared_ptrI8MaterialEaSEOS1_,"axG",@progbits,_ZNSt10shared_ptrI8MaterialEaSEOS1_,comdat
	.weak	_ZNSt10shared_ptrI8MaterialEaSEOS1_ # -- Begin function _ZNSt10shared_ptrI8MaterialEaSEOS1_
	.p2align	2
	.type	_ZNSt10shared_ptrI8MaterialEaSEOS1_,@function
_ZNSt10shared_ptrI8MaterialEaSEOS1_:    # @_ZNSt10shared_ptrI8MaterialEaSEOS1_
# %bb.0:                                # %entry
	addi	sp, sp, -48
	sd	ra, 40(sp)
	sd	s0, 32(sp)
	sd	s1, 24(sp)
	addi	s0, sp, 48
	sd	a0, -32(s0)
	sd	a1, -40(s0)
	ld	s1, -32(s0)
	ld	a0, -40(s0)
	call	_ZSt4moveIRSt10shared_ptrI8MaterialEEONSt16remove_referenceIT_E4typeEOS5_
	mv	a1, a0
	mv	a0, s1
	call	_ZNSt12__shared_ptrI8MaterialLN9__gnu_cxx12_Lock_policyE0EEaSEOS3_
	mv	a0, s1
	ld	s1, 24(sp)
	ld	s0, 32(sp)
	ld	ra, 40(sp)
	addi	sp, sp, 48
	ret
.Lfunc_end48:
	.size	_ZNSt10shared_ptrI8MaterialEaSEOS1_, .Lfunc_end48-_ZNSt10shared_ptrI8MaterialEaSEOS1_
                                        # -- End function
	.section	.text._ZNSt10shared_ptrI8MaterialED2Ev,"axG",@progbits,_ZNSt10shared_ptrI8MaterialED2Ev,comdat
	.weak	_ZNSt10shared_ptrI8MaterialED2Ev # -- Begin function _ZNSt10shared_ptrI8MaterialED2Ev
	.p2align	2
	.type	_ZNSt10shared_ptrI8MaterialED2Ev,@function
_ZNSt10shared_ptrI8MaterialED2Ev:       # @_ZNSt10shared_ptrI8MaterialED2Ev
# %bb.0:                                # %entry
	addi	sp, sp, -32
	sd	ra, 24(sp)
	sd	s0, 16(sp)
	addi	s0, sp, 32
	sd	a0, -24(s0)
	ld	a0, -24(s0)
	call	_ZNSt12__shared_ptrI8MaterialLN9__gnu_cxx12_Lock_policyE0EED2Ev
	ld	s0, 16(sp)
	ld	ra, 24(sp)
	addi	sp, sp, 32
	ret
.Lfunc_end49:
	.size	_ZNSt10shared_ptrI8MaterialED2Ev, .Lfunc_end49-_ZNSt10shared_ptrI8MaterialED2Ev
                                        # -- End function
	.section	.text._ZN8MaterialD2Ev,"axG",@progbits,_ZN8MaterialD2Ev,comdat
	.weak	_ZN8MaterialD2Ev        # -- Begin function _ZN8MaterialD2Ev
	.p2align	2
	.type	_ZN8MaterialD2Ev,@function
_ZN8MaterialD2Ev:                       # @_ZN8MaterialD2Ev
# %bb.0:                                # %entry
	addi	sp, sp, -32
	sd	ra, 24(sp)
	sd	s0, 16(sp)
	addi	s0, sp, 32
	sd	a0, -24(s0)
	ld	a0, -24(s0)
	addi	a0, a0, 128
	call	_ZNSt10shared_ptrI10ComplexIORED2Ev
	ld	s0, 16(sp)
	ld	ra, 24(sp)
	addi	sp, sp, 32
	ret
.Lfunc_end50:
	.size	_ZN8MaterialD2Ev, .Lfunc_end50-_ZN8MaterialD2Ev
                                        # -- End function
	.section	.text._ZN3glm3vecILi3EdLNS_9qualifierE0EEC2Eddd,"axG",@progbits,_ZN3glm3vecILi3EdLNS_9qualifierE0EEC2Eddd,comdat
	.weak	_ZN3glm3vecILi3EdLNS_9qualifierE0EEC2Eddd # -- Begin function _ZN3glm3vecILi3EdLNS_9qualifierE0EEC2Eddd
	.p2align	2
	.type	_ZN3glm3vecILi3EdLNS_9qualifierE0EEC2Eddd,@function
_ZN3glm3vecILi3EdLNS_9qualifierE0EEC2Eddd: # @_ZN3glm3vecILi3EdLNS_9qualifierE0EEC2Eddd
# %bb.0:                                # %entry
	addi	sp, sp, -48
	sd	ra, 40(sp)
	sd	s0, 32(sp)
	addi	s0, sp, 48
	fmv.d.x	ft0, a3
	fmv.d.x	ft0, a2
	fmv.d.x	ft0, a1
	sd	a0, -24(s0)
	sd	a1, -32(s0)
	sd	a2, -40(s0)
	sd	a3, -48(s0)
	ld	a0, -24(s0)
	fld	ft0, -32(s0)
	fsd	ft0, 0(a0)
	fld	ft0, -40(s0)
	fsd	ft0, 8(a0)
	fld	ft0, -48(s0)
	fsd	ft0, 16(a0)
	ld	s0, 32(sp)
	ld	ra, 40(sp)
	addi	sp, sp, 48
	ret
.Lfunc_end51:
	.size	_ZN3glm3vecILi3EdLNS_9qualifierE0EEC2Eddd, .Lfunc_end51-_ZN3glm3vecILi3EdLNS_9qualifierE0EEC2Eddd
                                        # -- End function
	.section	.text._ZN3glm3minIdEET_S1_S1_,"axG",@progbits,_ZN3glm3minIdEET_S1_S1_,comdat
	.weak	_ZN3glm3minIdEET_S1_S1_ # -- Begin function _ZN3glm3minIdEET_S1_S1_
	.p2align	2
	.type	_ZN3glm3minIdEET_S1_S1_,@function
_ZN3glm3minIdEET_S1_S1_:                # @_ZN3glm3minIdEET_S1_S1_
# %bb.0:                                # %entry
	addi	sp, sp, -32
	sd	ra, 24(sp)
	sd	s0, 16(sp)
	addi	s0, sp, 32
	fmv.d.x	ft0, a1
	fmv.d.x	ft0, a0
	sd	a0, -24(s0)
	sd	a1, -32(s0)
	fld	ft0, -32(s0)
	fld	ft1, -24(s0)
	flt.d	a0, ft0, ft1
	xori	a0, a0, 1
	bnez	a0, .LBB52_2
	j	.LBB52_1
.LBB52_1:                               # %cond.true
	fld	ft0, -32(s0)
	j	.LBB52_3
.LBB52_2:                               # %cond.false
	fld	ft0, -24(s0)
	j	.LBB52_3
.LBB52_3:                               # %cond.end
	fmv.x.d	a0, ft0
	ld	s0, 16(sp)
	ld	ra, 24(sp)
	addi	sp, sp, 32
	ret
.Lfunc_end52:
	.size	_ZN3glm3minIdEET_S1_S1_, .Lfunc_end52-_ZN3glm3minIdEET_S1_S1_
                                        # -- End function
	.section	.text._ZN3glm3maxIdEET_S1_S1_,"axG",@progbits,_ZN3glm3maxIdEET_S1_S1_,comdat
	.weak	_ZN3glm3maxIdEET_S1_S1_ # -- Begin function _ZN3glm3maxIdEET_S1_S1_
	.p2align	2
	.type	_ZN3glm3maxIdEET_S1_S1_,@function
_ZN3glm3maxIdEET_S1_S1_:                # @_ZN3glm3maxIdEET_S1_S1_
# %bb.0:                                # %entry
	addi	sp, sp, -32
	sd	ra, 24(sp)
	sd	s0, 16(sp)
	addi	s0, sp, 32
	fmv.d.x	ft0, a1
	fmv.d.x	ft0, a0
	sd	a0, -24(s0)
	sd	a1, -32(s0)
	fld	ft0, -24(s0)
	fld	ft1, -32(s0)
	flt.d	a0, ft0, ft1
	xori	a0, a0, 1
	bnez	a0, .LBB53_2
	j	.LBB53_1
.LBB53_1:                               # %cond.true
	fld	ft0, -32(s0)
	j	.LBB53_3
.LBB53_2:                               # %cond.false
	fld	ft0, -24(s0)
	j	.LBB53_3
.LBB53_3:                               # %cond.end
	fmv.x.d	a0, ft0
	ld	s0, 16(sp)
	ld	ra, 24(sp)
	addi	sp, sp, 32
	ret
.Lfunc_end53:
	.size	_ZN3glm3maxIdEET_S1_S1_, .Lfunc_end53-_ZN3glm3maxIdEET_S1_S1_
                                        # -- End function
	.section	.text._ZNK8nlohmann10basic_jsonISt3mapSt6vectorNSt7__cxx1112basic_stringIcSt11char_traitsIcESaIcEEEblmdSaNS_14adl_serializerEE4findIRKS8_EENS_6detail9iter_implIKSA_EEOT_,"axG",@progbits,_ZNK8nlohmann10basic_jsonISt3mapSt6vectorNSt7__cxx1112basic_stringIcSt11char_traitsIcESaIcEEEblmdSaNS_14adl_serializerEE4findIRKS8_EENS_6detail9iter_implIKSA_EEOT_,comdat
	.weak	_ZNK8nlohmann10basic_jsonISt3mapSt6vectorNSt7__cxx1112basic_stringIcSt11char_traitsIcESaIcEEEblmdSaNS_14adl_serializerEE4findIRKS8_EENS_6detail9iter_implIKSA_EEOT_ # -- Begin function _ZNK8nlohmann10basic_jsonISt3mapSt6vectorNSt7__cxx1112basic_stringIcSt11char_traitsIcESaIcEEEblmdSaNS_14adl_serializerEE4findIRKS8_EENS_6detail9iter_implIKSA_EEOT_
	.p2align	2
	.type	_ZNK8nlohmann10basic_jsonISt3mapSt6vectorNSt7__cxx1112basic_stringIcSt11char_traitsIcESaIcEEEblmdSaNS_14adl_serializerEE4findIRKS8_EENS_6detail9iter_implIKSA_EEOT_,@function
_ZNK8nlohmann10basic_jsonISt3mapSt6vectorNSt7__cxx1112basic_stringIcSt11char_traitsIcESaIcEEEblmdSaNS_14adl_serializerEE4findIRKS8_EENS_6detail9iter_implIKSA_EEOT_: # @_ZNK8nlohmann10basic_jsonISt3mapSt6vectorNSt7__cxx1112basic_stringIcSt11char_traitsIcESaIcEEEblmdSaNS_14adl_serializerEE4findIRKS8_EENS_6detail9iter_implIKSA_EEOT_
	.cfi_startproc
# %bb.0:                                # %entry
	addi	sp, sp, -64
	.cfi_def_cfa_offset 64
	sd	ra, 56(sp)
	sd	s0, 48(sp)
	sd	s1, 40(sp)
	sd	s2, 32(sp)
	.cfi_offset ra, -8
	.cfi_offset s0, -16
	.cfi_offset s1, -24
	.cfi_offset s2, -32
	addi	s0, sp, 64
	.cfi_def_cfa s0, 0
	mv	s2, a0
	sd	s2, -40(s0)
	sd	a1, -48(s0)
	sd	a2, -56(s0)
	ld	s1, -48(s0)
	mv	a0, s2
	mv	a1, s1
	call	_ZNK8nlohmann10basic_jsonISt3mapSt6vectorNSt7__cxx1112basic_stringIcSt11char_traitsIcESaIcEEEblmdSaNS_14adl_serializerEE4cendEv
	mv	a0, s1
	call	_ZNK8nlohmann10basic_jsonISt3mapSt6vectorNSt7__cxx1112basic_stringIcSt11char_traitsIcESaIcEEEblmdSaNS_14adl_serializerEE9is_objectEv
	beqz	a0, .LBB54_2
	j	.LBB54_1
.LBB54_1:                               # %if.then
	ld	s1, 8(s1)
	ld	a0, -56(s0)
	call	_ZSt7forwardIRKNSt7__cxx1112basic_stringIcSt11char_traitsIcESaIcEEEEOT_RNSt16remove_referenceIS8_E4typeE
	mv	a1, a0
	mv	a0, s1
	call	_ZNSt3mapINSt7__cxx1112basic_stringIcSt11char_traitsIcESaIcEEEN8nlohmann10basic_jsonIS_St6vectorS5_blmdSaNS6_14adl_serializerEEESt4lessIvESaISt4pairIKS5_SA_EEE4findERSE_
	sd	a0, -64(s0)
	ld	a0, -64(s0)
	sd	a0, 8(s2)
	j	.LBB54_2
.LBB54_2:                               # %if.end
	ld	s2, 32(sp)
	ld	s1, 40(sp)
	ld	s0, 48(sp)
	.cfi_def_cfa sp, 64
	ld	ra, 56(sp)
	.cfi_restore ra
	.cfi_restore s0
	.cfi_restore s1
	.cfi_restore s2
	addi	sp, sp, 64
	.cfi_def_cfa_offset 0
	ret
.Lfunc_end54:
	.size	_ZNK8nlohmann10basic_jsonISt3mapSt6vectorNSt7__cxx1112basic_stringIcSt11char_traitsIcESaIcEEEblmdSaNS_14adl_serializerEE4findIRKS8_EENS_6detail9iter_implIKSA_EEOT_, .Lfunc_end54-_ZNK8nlohmann10basic_jsonISt3mapSt6vectorNSt7__cxx1112basic_stringIcSt11char_traitsIcESaIcEEEblmdSaNS_14adl_serializerEE4findIRKS8_EENS_6detail9iter_implIKSA_EEOT_
	.cfi_endproc
                                        # -- End function
	.section	.text._ZNK8nlohmann10basic_jsonISt3mapSt6vectorNSt7__cxx1112basic_stringIcSt11char_traitsIcESaIcEEEblmdSaNS_14adl_serializerEE3getIS8_S8_Li0EEET0_v,"axG",@progbits,_ZNK8nlohmann10basic_jsonISt3mapSt6vectorNSt7__cxx1112basic_stringIcSt11char_traitsIcESaIcEEEblmdSaNS_14adl_serializerEE3getIS8_S8_Li0EEET0_v,comdat
	.weak	_ZNK8nlohmann10basic_jsonISt3mapSt6vectorNSt7__cxx1112basic_stringIcSt11char_traitsIcESaIcEEEblmdSaNS_14adl_serializerEE3getIS8_S8_Li0EEET0_v # -- Begin function _ZNK8nlohmann10basic_jsonISt3mapSt6vectorNSt7__cxx1112basic_stringIcSt11char_traitsIcESaIcEEEblmdSaNS_14adl_serializerEE3getIS8_S8_Li0EEET0_v
	.p2align	2
	.type	_ZNK8nlohmann10basic_jsonISt3mapSt6vectorNSt7__cxx1112basic_stringIcSt11char_traitsIcESaIcEEEblmdSaNS_14adl_serializerEE3getIS8_S8_Li0EEET0_v,@function
_ZNK8nlohmann10basic_jsonISt3mapSt6vectorNSt7__cxx1112basic_stringIcSt11char_traitsIcESaIcEEEblmdSaNS_14adl_serializerEE3getIS8_S8_Li0EEET0_v: # @_ZNK8nlohmann10basic_jsonISt3mapSt6vectorNSt7__cxx1112basic_stringIcSt11char_traitsIcESaIcEEEblmdSaNS_14adl_serializerEE3getIS8_S8_Li0EEET0_v
.Lfunc_begin7:
	.cfi_startproc
	.cfi_personality 155, DW.ref.__gxx_personality_v0
	.cfi_lsda 27, .Lexception7
# %bb.0:                                # %entry
	addi	sp, sp, -80
	.cfi_def_cfa_offset 80
	sd	ra, 72(sp)
	sd	s0, 64(sp)
	sd	s1, 56(sp)
	sd	s2, 48(sp)
	.cfi_offset ra, -8
	.cfi_offset s0, -16
	.cfi_offset s1, -24
	.cfi_offset s2, -32
	addi	s0, sp, 80
	.cfi_def_cfa s0, 0
	mv	s1, a0
	sd	s1, -40(s0)
	sd	a1, -48(s0)
	ld	s2, -48(s0)
	sb	zero, -49(s0)
	mv	a0, s1
	call	_ZNSt7__cxx1112basic_stringIcSt11char_traitsIcESaIcEEC1Ev
.Ltmp171:
	mv	a0, s2
	mv	a1, s1
	call	_ZN8nlohmann14adl_serializerINSt7__cxx1112basic_stringIcSt11char_traitsIcESaIcEEEvE9from_jsonIRKNS_10basic_jsonISt3mapSt6vectorS6_blmdSaS0_EES6_EEDTcmclL_ZNS_12_GLOBAL__N_19from_jsonEEclsr3stdE7forwardIT_Efp_Efp0_Ecvv_EEOSG_RT0_
.Ltmp172:
	j	.LBB55_1
.LBB55_1:                               # %invoke.cont
	addi	a0, zero, 1
	sb	a0, -49(s0)
	lbu	a0, -49(s0)
	bnez	a0, .LBB55_4
	j	.LBB55_3
.LBB55_2:                               # %lpad
.Ltmp173:
	sd	a0, -64(s0)
	sw	a1, -68(s0)
	mv	a0, s1
	call	_ZNSt7__cxx1112basic_stringIcSt11char_traitsIcESaIcEED1Ev
	j	.LBB55_5
.LBB55_3:                               # %nrvo.unused
	mv	a0, s1
	call	_ZNSt7__cxx1112basic_stringIcSt11char_traitsIcESaIcEED1Ev
	j	.LBB55_4
.LBB55_4:                               # %nrvo.skipdtor
	ld	s2, 48(sp)
	ld	s1, 56(sp)
	ld	s0, 64(sp)
	.cfi_def_cfa sp, 80
	ld	ra, 72(sp)
	.cfi_restore ra
	.cfi_restore s0
	.cfi_restore s1
	.cfi_restore s2
	addi	sp, sp, 80
	.cfi_def_cfa_offset 0
	ret
.LBB55_5:                               # %eh.resume
	ld	a0, -64(s0)
	call	_Unwind_Resume
.Lfunc_end55:
	.size	_ZNK8nlohmann10basic_jsonISt3mapSt6vectorNSt7__cxx1112basic_stringIcSt11char_traitsIcESaIcEEEblmdSaNS_14adl_serializerEE3getIS8_S8_Li0EEET0_v, .Lfunc_end55-_ZNK8nlohmann10basic_jsonISt3mapSt6vectorNSt7__cxx1112basic_stringIcSt11char_traitsIcESaIcEEEblmdSaNS_14adl_serializerEE3getIS8_S8_Li0EEET0_v
	.cfi_endproc
	.section	.gcc_except_table,"a",@progbits
	.p2align	2
GCC_except_table55:
.Lexception7:
	.byte	255                     # @LPStart Encoding = omit
	.byte	255                     # @TType Encoding = omit
	.byte	3                       # Call site Encoding = udata4
	.uleb128 .Lcst_end7-.Lcst_begin7
.Lcst_begin7:
	.word	.Ltmp171-.Lfunc_begin7  # >> Call Site 1 <<
	.word	.Ltmp172-.Ltmp171       #   Call between .Ltmp171 and .Ltmp172
	.word	.Ltmp173-.Lfunc_begin7  #     jumps to .Ltmp173
	.byte	0                       #   On action: cleanup
	.word	.Ltmp172-.Lfunc_begin7  # >> Call Site 2 <<
	.word	.Lfunc_end55-.Ltmp172   #   Call between .Ltmp172 and .Lfunc_end55
	.word	0                       #     has no landing pad
	.byte	0                       #   On action: cleanup
.Lcst_end7:
	.p2align	2
                                        # -- End function
	.section	.text._ZSt3hexRSt8ios_base,"axG",@progbits,_ZSt3hexRSt8ios_base,comdat
	.weak	_ZSt3hexRSt8ios_base    # -- Begin function _ZSt3hexRSt8ios_base
	.p2align	2
	.type	_ZSt3hexRSt8ios_base,@function
_ZSt3hexRSt8ios_base:                   # @_ZSt3hexRSt8ios_base
	.cfi_startproc
# %bb.0:                                # %entry
	addi	sp, sp, -32
	.cfi_def_cfa_offset 32
	sd	ra, 24(sp)
	sd	s0, 16(sp)
	.cfi_offset ra, -8
	.cfi_offset s0, -16
	addi	s0, sp, 32
	.cfi_def_cfa s0, 0
	sd	a0, -24(s0)
	ld	a0, -24(s0)
	addi	a1, zero, 8
	addi	a2, zero, 74
	call	_ZNSt8ios_base4setfESt13_Ios_FmtflagsS0_
	ld	a0, -24(s0)
	ld	s0, 16(sp)
	.cfi_def_cfa sp, 32
	ld	ra, 24(sp)
	.cfi_restore ra
	.cfi_restore s0
	addi	sp, sp, 32
	.cfi_def_cfa_offset 0
	ret
.Lfunc_end56:
	.size	_ZSt3hexRSt8ios_base, .Lfunc_end56-_ZSt3hexRSt8ios_base
	.cfi_endproc
                                        # -- End function
	.section	.text._Z10intToColorj,"axG",@progbits,_Z10intToColorj,comdat
	.weak	_Z10intToColorj         # -- Begin function _Z10intToColorj
	.p2align	2
	.type	_Z10intToColorj,@function
_Z10intToColorj:                        # @_Z10intToColorj
	.cfi_startproc
# %bb.0:                                # %entry
	addi	sp, sp, -80
	.cfi_def_cfa_offset 80
	sd	ra, 72(sp)
	sd	s0, 64(sp)
	sd	s1, 56(sp)
	sd	s2, 48(sp)
	.cfi_offset ra, -8
	.cfi_offset s0, -16
	.cfi_offset s1, -24
	.cfi_offset s2, -32
	addi	s0, sp, 80
	.cfi_def_cfa s0, 0
	mv	s1, a0
	sd	s1, -40(s0)
	sw	a1, -44(s0)
	lwu	a0, -44(s0)
	srli	a1, a0, 16
	andi	a1, a1, 255
	srli	a2, a0, 8
	andi	a2, a2, 255
	andi	a3, a0, 255
	addi	s2, s0, -72
	mv	a0, s2
	call	_ZN3glm3vecILi3EdLNS_9qualifierE0EEC2IjjjEET_T0_T1_
	lui	a0, 32
	addiw	a0, a0, 895
	slli	a2, a0, 45
	mv	a0, s1
	mv	a1, s2
	call	_ZN3glmdvIdLNS_9qualifierE0EEENS_3vecILi3ET_XT0_EEERKS4_S3_
	ld	s2, 48(sp)
	ld	s1, 56(sp)
	ld	s0, 64(sp)
	.cfi_def_cfa sp, 80
	ld	ra, 72(sp)
	.cfi_restore ra
	.cfi_restore s0
	.cfi_restore s1
	.cfi_restore s2
	addi	sp, sp, 80
	.cfi_def_cfa_offset 0
	ret
.Lfunc_end57:
	.size	_Z10intToColorj, .Lfunc_end57-_Z10intToColorj
	.cfi_endproc
                                        # -- End function
	.section	.text._ZNK8nlohmann10basic_jsonISt3mapSt6vectorNSt7__cxx1112basic_stringIcSt11char_traitsIcESaIcEEEblmdSaNS_14adl_serializerEE4cendEv,"axG",@progbits,_ZNK8nlohmann10basic_jsonISt3mapSt6vectorNSt7__cxx1112basic_stringIcSt11char_traitsIcESaIcEEEblmdSaNS_14adl_serializerEE4cendEv,comdat
	.weak	_ZNK8nlohmann10basic_jsonISt3mapSt6vectorNSt7__cxx1112basic_stringIcSt11char_traitsIcESaIcEEEblmdSaNS_14adl_serializerEE4cendEv # -- Begin function _ZNK8nlohmann10basic_jsonISt3mapSt6vectorNSt7__cxx1112basic_stringIcSt11char_traitsIcESaIcEEEblmdSaNS_14adl_serializerEE4cendEv
	.p2align	2
	.type	_ZNK8nlohmann10basic_jsonISt3mapSt6vectorNSt7__cxx1112basic_stringIcSt11char_traitsIcESaIcEEEblmdSaNS_14adl_serializerEE4cendEv,@function
_ZNK8nlohmann10basic_jsonISt3mapSt6vectorNSt7__cxx1112basic_stringIcSt11char_traitsIcESaIcEEEblmdSaNS_14adl_serializerEE4cendEv: # @_ZNK8nlohmann10basic_jsonISt3mapSt6vectorNSt7__cxx1112basic_stringIcSt11char_traitsIcESaIcEEEblmdSaNS_14adl_serializerEE4cendEv
# %bb.0:                                # %entry
	addi	sp, sp, -48
	sd	ra, 40(sp)
	sd	s0, 32(sp)
	sd	s1, 24(sp)
	addi	s0, sp, 48
	mv	s1, a0
	sd	s1, -32(s0)
	sd	a1, -40(s0)
	ld	a1, -40(s0)
	mv	a0, s1
	call	_ZN8nlohmann6detail9iter_implIKNS_10basic_jsonISt3mapSt6vectorNSt7__cxx1112basic_stringIcSt11char_traitsIcESaIcEEEblmdSaNS_14adl_serializerEEEEC2EPSD_
	mv	a0, s1
	call	_ZN8nlohmann6detail9iter_implIKNS_10basic_jsonISt3mapSt6vectorNSt7__cxx1112basic_stringIcSt11char_traitsIcESaIcEEEblmdSaNS_14adl_serializerEEEE7set_endEv
	ld	s1, 24(sp)
	ld	s0, 32(sp)
	ld	ra, 40(sp)
	addi	sp, sp, 48
	ret
.Lfunc_end58:
	.size	_ZNK8nlohmann10basic_jsonISt3mapSt6vectorNSt7__cxx1112basic_stringIcSt11char_traitsIcESaIcEEEblmdSaNS_14adl_serializerEE4cendEv, .Lfunc_end58-_ZNK8nlohmann10basic_jsonISt3mapSt6vectorNSt7__cxx1112basic_stringIcSt11char_traitsIcESaIcEEEblmdSaNS_14adl_serializerEE4cendEv
                                        # -- End function
	.section	.text._ZNK8nlohmann10basic_jsonISt3mapSt6vectorNSt7__cxx1112basic_stringIcSt11char_traitsIcESaIcEEEblmdSaNS_14adl_serializerEE9is_objectEv,"axG",@progbits,_ZNK8nlohmann10basic_jsonISt3mapSt6vectorNSt7__cxx1112basic_stringIcSt11char_traitsIcESaIcEEEblmdSaNS_14adl_serializerEE9is_objectEv,comdat
	.weak	_ZNK8nlohmann10basic_jsonISt3mapSt6vectorNSt7__cxx1112basic_stringIcSt11char_traitsIcESaIcEEEblmdSaNS_14adl_serializerEE9is_objectEv # -- Begin function _ZNK8nlohmann10basic_jsonISt3mapSt6vectorNSt7__cxx1112basic_stringIcSt11char_traitsIcESaIcEEEblmdSaNS_14adl_serializerEE9is_objectEv
	.p2align	2
	.type	_ZNK8nlohmann10basic_jsonISt3mapSt6vectorNSt7__cxx1112basic_stringIcSt11char_traitsIcESaIcEEEblmdSaNS_14adl_serializerEE9is_objectEv,@function
_ZNK8nlohmann10basic_jsonISt3mapSt6vectorNSt7__cxx1112basic_stringIcSt11char_traitsIcESaIcEEEblmdSaNS_14adl_serializerEE9is_objectEv: # @_ZNK8nlohmann10basic_jsonISt3mapSt6vectorNSt7__cxx1112basic_stringIcSt11char_traitsIcESaIcEEEblmdSaNS_14adl_serializerEE9is_objectEv
# %bb.0:                                # %entry
	addi	sp, sp, -32
	sd	ra, 24(sp)
	sd	s0, 16(sp)
	addi	s0, sp, 32
	sd	a0, -24(s0)
	ld	a0, -24(s0)
	lbu	a0, 0(a0)
	xori	a0, a0, 1
	seqz	a0, a0
	ld	s0, 16(sp)
	ld	ra, 24(sp)
	addi	sp, sp, 32
	ret
.Lfunc_end59:
	.size	_ZNK8nlohmann10basic_jsonISt3mapSt6vectorNSt7__cxx1112basic_stringIcSt11char_traitsIcESaIcEEEblmdSaNS_14adl_serializerEE9is_objectEv, .Lfunc_end59-_ZNK8nlohmann10basic_jsonISt3mapSt6vectorNSt7__cxx1112basic_stringIcSt11char_traitsIcESaIcEEEblmdSaNS_14adl_serializerEE9is_objectEv
                                        # -- End function
	.section	.text._ZNSt3mapINSt7__cxx1112basic_stringIcSt11char_traitsIcESaIcEEEN8nlohmann10basic_jsonIS_St6vectorS5_blmdSaNS6_14adl_serializerEEESt4lessIvESaISt4pairIKS5_SA_EEE4findERSE_,"axG",@progbits,_ZNSt3mapINSt7__cxx1112basic_stringIcSt11char_traitsIcESaIcEEEN8nlohmann10basic_jsonIS_St6vectorS5_blmdSaNS6_14adl_serializerEEESt4lessIvESaISt4pairIKS5_SA_EEE4findERSE_,comdat
	.weak	_ZNSt3mapINSt7__cxx1112basic_stringIcSt11char_traitsIcESaIcEEEN8nlohmann10basic_jsonIS_St6vectorS5_blmdSaNS6_14adl_serializerEEESt4lessIvESaISt4pairIKS5_SA_EEE4findERSE_ # -- Begin function _ZNSt3mapINSt7__cxx1112basic_stringIcSt11char_traitsIcESaIcEEEN8nlohmann10basic_jsonIS_St6vectorS5_blmdSaNS6_14adl_serializerEEESt4lessIvESaISt4pairIKS5_SA_EEE4findERSE_
	.p2align	2
	.type	_ZNSt3mapINSt7__cxx1112basic_stringIcSt11char_traitsIcESaIcEEEN8nlohmann10basic_jsonIS_St6vectorS5_blmdSaNS6_14adl_serializerEEESt4lessIvESaISt4pairIKS5_SA_EEE4findERSE_,@function
_ZNSt3mapINSt7__cxx1112basic_stringIcSt11char_traitsIcESaIcEEEN8nlohmann10basic_jsonIS_St6vectorS5_blmdSaNS6_14adl_serializerEEESt4lessIvESaISt4pairIKS5_SA_EEE4findERSE_: # @_ZNSt3mapINSt7__cxx1112basic_stringIcSt11char_traitsIcESaIcEEEN8nlohmann10basic_jsonIS_St6vectorS5_blmdSaNS6_14adl_serializerEEESt4lessIvESaISt4pairIKS5_SA_EEE4findERSE_
	.cfi_startproc
# %bb.0:                                # %entry
	addi	sp, sp, -48
	.cfi_def_cfa_offset 48
	sd	ra, 40(sp)
	sd	s0, 32(sp)
	.cfi_offset ra, -8
	.cfi_offset s0, -16
	addi	s0, sp, 48
	.cfi_def_cfa s0, 0
	sd	a0, -32(s0)
	sd	a1, -40(s0)
	ld	a0, -32(s0)
	ld	a1, -40(s0)
	call	_ZNSt8_Rb_treeINSt7__cxx1112basic_stringIcSt11char_traitsIcESaIcEEESt4pairIKS5_N8nlohmann10basic_jsonISt3mapSt6vectorS5_blmdSaNS8_14adl_serializerEEEESt10_Select1stISE_ESt4lessIvESaISE_EE4findERS7_
	sd	a0, -24(s0)
	ld	a0, -24(s0)
	ld	s0, 32(sp)
	.cfi_def_cfa sp, 48
	ld	ra, 40(sp)
	.cfi_restore ra
	.cfi_restore s0
	addi	sp, sp, 48
	.cfi_def_cfa_offset 0
	ret
.Lfunc_end60:
	.size	_ZNSt3mapINSt7__cxx1112basic_stringIcSt11char_traitsIcESaIcEEEN8nlohmann10basic_jsonIS_St6vectorS5_blmdSaNS6_14adl_serializerEEESt4lessIvESaISt4pairIKS5_SA_EEE4findERSE_, .Lfunc_end60-_ZNSt3mapINSt7__cxx1112basic_stringIcSt11char_traitsIcESaIcEEEN8nlohmann10basic_jsonIS_St6vectorS5_blmdSaNS6_14adl_serializerEEESt4lessIvESaISt4pairIKS5_SA_EEE4findERSE_
	.cfi_endproc
                                        # -- End function
	.section	.text._ZSt7forwardIRKNSt7__cxx1112basic_stringIcSt11char_traitsIcESaIcEEEEOT_RNSt16remove_referenceIS8_E4typeE,"axG",@progbits,_ZSt7forwardIRKNSt7__cxx1112basic_stringIcSt11char_traitsIcESaIcEEEEOT_RNSt16remove_referenceIS8_E4typeE,comdat
	.weak	_ZSt7forwardIRKNSt7__cxx1112basic_stringIcSt11char_traitsIcESaIcEEEEOT_RNSt16remove_referenceIS8_E4typeE # -- Begin function _ZSt7forwardIRKNSt7__cxx1112basic_stringIcSt11char_traitsIcESaIcEEEEOT_RNSt16remove_referenceIS8_E4typeE
	.p2align	2
	.type	_ZSt7forwardIRKNSt7__cxx1112basic_stringIcSt11char_traitsIcESaIcEEEEOT_RNSt16remove_referenceIS8_E4typeE,@function
_ZSt7forwardIRKNSt7__cxx1112basic_stringIcSt11char_traitsIcESaIcEEEEOT_RNSt16remove_referenceIS8_E4typeE: # @_ZSt7forwardIRKNSt7__cxx1112basic_stringIcSt11char_traitsIcESaIcEEEEOT_RNSt16remove_referenceIS8_E4typeE
# %bb.0:                                # %entry
	addi	sp, sp, -32
	sd	ra, 24(sp)
	sd	s0, 16(sp)
	addi	s0, sp, 32
	sd	a0, -24(s0)
	ld	a0, -24(s0)
	ld	s0, 16(sp)
	ld	ra, 24(sp)
	addi	sp, sp, 32
	ret
.Lfunc_end61:
	.size	_ZSt7forwardIRKNSt7__cxx1112basic_stringIcSt11char_traitsIcESaIcEEEEOT_RNSt16remove_referenceIS8_E4typeE, .Lfunc_end61-_ZSt7forwardIRKNSt7__cxx1112basic_stringIcSt11char_traitsIcESaIcEEEEOT_RNSt16remove_referenceIS8_E4typeE
                                        # -- End function
	.section	.text._ZN8nlohmann6detail9iter_implIKNS_10basic_jsonISt3mapSt6vectorNSt7__cxx1112basic_stringIcSt11char_traitsIcESaIcEEEblmdSaNS_14adl_serializerEEEEC2EPSD_,"axG",@progbits,_ZN8nlohmann6detail9iter_implIKNS_10basic_jsonISt3mapSt6vectorNSt7__cxx1112basic_stringIcSt11char_traitsIcESaIcEEEblmdSaNS_14adl_serializerEEEEC2EPSD_,comdat
	.weak	_ZN8nlohmann6detail9iter_implIKNS_10basic_jsonISt3mapSt6vectorNSt7__cxx1112basic_stringIcSt11char_traitsIcESaIcEEEblmdSaNS_14adl_serializerEEEEC2EPSD_ # -- Begin function _ZN8nlohmann6detail9iter_implIKNS_10basic_jsonISt3mapSt6vectorNSt7__cxx1112basic_stringIcSt11char_traitsIcESaIcEEEblmdSaNS_14adl_serializerEEEEC2EPSD_
	.p2align	2
	.type	_ZN8nlohmann6detail9iter_implIKNS_10basic_jsonISt3mapSt6vectorNSt7__cxx1112basic_stringIcSt11char_traitsIcESaIcEEEblmdSaNS_14adl_serializerEEEEC2EPSD_,@function
_ZN8nlohmann6detail9iter_implIKNS_10basic_jsonISt3mapSt6vectorNSt7__cxx1112basic_stringIcSt11char_traitsIcESaIcEEEblmdSaNS_14adl_serializerEEEEC2EPSD_: # @_ZN8nlohmann6detail9iter_implIKNS_10basic_jsonISt3mapSt6vectorNSt7__cxx1112basic_stringIcSt11char_traitsIcESaIcEEEblmdSaNS_14adl_serializerEEEEC2EPSD_
.Lfunc_begin8:
	.cfi_startproc
	.cfi_personality 155, DW.ref.__gxx_personality_v0
	.cfi_lsda 27, .Lexception8
# %bb.0:                                # %entry
	addi	sp, sp, -64
	.cfi_def_cfa_offset 64
	sd	ra, 56(sp)
	sd	s0, 48(sp)
	sd	s1, 40(sp)
	.cfi_offset ra, -8
	.cfi_offset s0, -16
	.cfi_offset s1, -24
	addi	s0, sp, 64
	.cfi_def_cfa s0, 0
	sd	a0, -32(s0)
	sd	a1, -40(s0)
	ld	s1, -32(s0)
	ld	a0, -40(s0)
	sd	a0, 0(s1)
	addi	a0, s1, 8
	call	_ZNSt17_Rb_tree_iteratorISt4pairIKNSt7__cxx1112basic_stringIcSt11char_traitsIcESaIcEEEN8nlohmann10basic_jsonISt3mapSt6vectorS6_blmdSaNS8_14adl_serializerEEEEEC2Ev
	addi	a0, s1, 16
	call	_ZN9__gnu_cxx17__normal_iteratorIPN8nlohmann10basic_jsonISt3mapSt6vectorNSt7__cxx1112basic_stringIcSt11char_traitsIcESaIcEEEblmdSaNS1_14adl_serializerEEES4_ISC_SaISC_EEEC2Ev
	addi	a0, s1, 24
	sd	zero, 24(s1)
	call	_ZN8nlohmann6detail20primitive_iterator_tC2Ev
	ld	a0, 0(s1)
	beqz	a0, .LBB62_2
	j	.LBB62_1
.LBB62_1:                               # %cond.true
	j	.LBB62_4
.LBB62_2:                               # %cond.false
.Ltmp174:
	lui	a0, %hi(.L.str.13)
	addi	a0, a0, %lo(.L.str.13)
	lui	a1, %hi(.L__PRETTY_FUNCTION__._ZN8nlohmann6detail9iter_implIKNS_10basic_jsonISt3mapSt6vectorNSt7__cxx1112basic_stringIcSt11char_traitsIcESaIcEEEblmdSaNS_14adl_serializerEEEEC2EPSD_)
	addi	a2, a1, %lo(.L__PRETTY_FUNCTION__._ZN8nlohmann6detail9iter_implIKNS_10basic_jsonISt3mapSt6vectorNSt7__cxx1112basic_stringIcSt11char_traitsIcESaIcEEEblmdSaNS_14adl_serializerEEEEC2EPSD_)
	lui	a1, %hi(.L.str.14)
	addi	a3, a1, %lo(.L.str.14)
	lui	a1, 2
	addiw	a1, a1, 1090
	call	__assert_func
.Ltmp175:
	j	.LBB62_3
.LBB62_3:                               # %invoke.cont
.LBB62_4:                               # %cond.end
	ld	a0, 0(s1)
	lbu	a0, 0(a0)
	addi	a1, zero, 1
	beq	a0, a1, .LBB62_6
	j	.LBB62_5
.LBB62_5:                               # %cond.end
	andi	a0, a0, 255
	addi	a1, zero, 2
	beq	a0, a1, .LBB62_7
	j	.LBB62_8
.LBB62_6:                               # %sw.bb
	addi	a0, s0, -48
	call	_ZNSt17_Rb_tree_iteratorISt4pairIKNSt7__cxx1112basic_stringIcSt11char_traitsIcESaIcEEEN8nlohmann10basic_jsonISt3mapSt6vectorS6_blmdSaNS8_14adl_serializerEEEEEC2Ev
	ld	a0, -48(s0)
	sd	a0, 8(s1)
	j	.LBB62_9
.LBB62_7:                               # %sw.bb6
	addi	a0, s0, -56
	call	_ZN9__gnu_cxx17__normal_iteratorIPN8nlohmann10basic_jsonISt3mapSt6vectorNSt7__cxx1112basic_stringIcSt11char_traitsIcESaIcEEEblmdSaNS1_14adl_serializerEEES4_ISC_SaISC_EEEC2Ev
	ld	a0, -56(s0)
	sd	a0, 16(s1)
	j	.LBB62_9
.LBB62_8:                               # %sw.default
	sd	zero, -64(s0)
	addi	a0, s0, -64
	call	_ZN8nlohmann6detail20primitive_iterator_tC2Ev
	ld	a0, -64(s0)
	sd	a0, 24(s1)
	j	.LBB62_9
.LBB62_9:                               # %sw.epilog
	ld	s1, 40(sp)
	ld	s0, 48(sp)
	.cfi_def_cfa sp, 64
	ld	ra, 56(sp)
	.cfi_restore ra
	.cfi_restore s0
	.cfi_restore s1
	addi	sp, sp, 64
	.cfi_def_cfa_offset 0
	ret
.LBB62_10:                              # %terminate.lpad
.Ltmp176:
	call	__clang_call_terminate
.Lfunc_end62:
	.size	_ZN8nlohmann6detail9iter_implIKNS_10basic_jsonISt3mapSt6vectorNSt7__cxx1112basic_stringIcSt11char_traitsIcESaIcEEEblmdSaNS_14adl_serializerEEEEC2EPSD_, .Lfunc_end62-_ZN8nlohmann6detail9iter_implIKNS_10basic_jsonISt3mapSt6vectorNSt7__cxx1112basic_stringIcSt11char_traitsIcESaIcEEEblmdSaNS_14adl_serializerEEEEC2EPSD_
	.cfi_endproc
	.section	.gcc_except_table,"a",@progbits
	.p2align	2
GCC_except_table62:
.Lexception8:
	.byte	255                     # @LPStart Encoding = omit
	.byte	155                     # @TType Encoding = indirect pcrel sdata4
	.uleb128 .Lttbase1-.Lttbaseref1
.Lttbaseref1:
	.byte	3                       # Call site Encoding = udata4
	.uleb128 .Lcst_end8-.Lcst_begin8
.Lcst_begin8:
	.word	.Ltmp174-.Lfunc_begin8  # >> Call Site 1 <<
	.word	.Ltmp175-.Ltmp174       #   Call between .Ltmp174 and .Ltmp175
	.word	.Ltmp176-.Lfunc_begin8  #     jumps to .Ltmp176
	.byte	1                       #   On action: 1
.Lcst_end8:
	.byte	1                       # >> Action Record 1 <<
                                        #   Catch TypeInfo 1
	.byte	0                       #   No further actions
	.p2align	2
                                        # >> Catch TypeInfos <<
	.word	0                       # TypeInfo 1
.Lttbase1:
	.p2align	2
                                        # -- End function
	.section	.text._ZN8nlohmann6detail9iter_implIKNS_10basic_jsonISt3mapSt6vectorNSt7__cxx1112basic_stringIcSt11char_traitsIcESaIcEEEblmdSaNS_14adl_serializerEEEE7set_endEv,"axG",@progbits,_ZN8nlohmann6detail9iter_implIKNS_10basic_jsonISt3mapSt6vectorNSt7__cxx1112basic_stringIcSt11char_traitsIcESaIcEEEblmdSaNS_14adl_serializerEEEE7set_endEv,comdat
	.weak	_ZN8nlohmann6detail9iter_implIKNS_10basic_jsonISt3mapSt6vectorNSt7__cxx1112basic_stringIcSt11char_traitsIcESaIcEEEblmdSaNS_14adl_serializerEEEE7set_endEv # -- Begin function _ZN8nlohmann6detail9iter_implIKNS_10basic_jsonISt3mapSt6vectorNSt7__cxx1112basic_stringIcSt11char_traitsIcESaIcEEEblmdSaNS_14adl_serializerEEEE7set_endEv
	.p2align	2
	.type	_ZN8nlohmann6detail9iter_implIKNS_10basic_jsonISt3mapSt6vectorNSt7__cxx1112basic_stringIcSt11char_traitsIcESaIcEEEblmdSaNS_14adl_serializerEEEE7set_endEv,@function
_ZN8nlohmann6detail9iter_implIKNS_10basic_jsonISt3mapSt6vectorNSt7__cxx1112basic_stringIcSt11char_traitsIcESaIcEEEblmdSaNS_14adl_serializerEEEE7set_endEv: # @_ZN8nlohmann6detail9iter_implIKNS_10basic_jsonISt3mapSt6vectorNSt7__cxx1112basic_stringIcSt11char_traitsIcESaIcEEEblmdSaNS_14adl_serializerEEEE7set_endEv
.Lfunc_begin9:
	.cfi_startproc
	.cfi_personality 155, DW.ref.__gxx_personality_v0
	.cfi_lsda 27, .Lexception9
# %bb.0:                                # %entry
	addi	sp, sp, -48
	.cfi_def_cfa_offset 48
	sd	ra, 40(sp)
	sd	s0, 32(sp)
	sd	s1, 24(sp)
	.cfi_offset ra, -8
	.cfi_offset s0, -16
	.cfi_offset s1, -24
	addi	s0, sp, 48
	.cfi_def_cfa s0, 0
	sd	a0, -32(s0)
	ld	s1, -32(s0)
	ld	a0, 0(s1)
	beqz	a0, .LBB63_2
	j	.LBB63_1
.LBB63_1:                               # %cond.true
	j	.LBB63_4
.LBB63_2:                               # %cond.false
.Ltmp177:
	lui	a0, %hi(.L.str.13)
	addi	a0, a0, %lo(.L.str.13)
	lui	a1, %hi(.L__PRETTY_FUNCTION__._ZN8nlohmann6detail9iter_implIKNS_10basic_jsonISt3mapSt6vectorNSt7__cxx1112basic_stringIcSt11char_traitsIcESaIcEEEblmdSaNS_14adl_serializerEEEE7set_endEv)
	addi	a2, a1, %lo(.L__PRETTY_FUNCTION__._ZN8nlohmann6detail9iter_implIKNS_10basic_jsonISt3mapSt6vectorNSt7__cxx1112basic_stringIcSt11char_traitsIcESaIcEEEblmdSaNS_14adl_serializerEEEE7set_endEv)
	lui	a1, %hi(.L.str.14)
	addi	a3, a1, %lo(.L.str.14)
	lui	a1, 2
	addiw	a1, a1, 1213
	call	__assert_func
.Ltmp178:
	j	.LBB63_3
.LBB63_3:                               # %invoke.cont
.LBB63_4:                               # %cond.end
	ld	a0, 0(s1)
	lbu	a0, 0(a0)
	addi	a1, zero, 1
	beq	a0, a1, .LBB63_6
	j	.LBB63_5
.LBB63_5:                               # %cond.end
	andi	a0, a0, 255
	addi	a1, zero, 2
	beq	a0, a1, .LBB63_7
	j	.LBB63_8
.LBB63_6:                               # %sw.bb
	ld	a0, 0(s1)
	ld	a0, 8(a0)
	call	_ZNSt3mapINSt7__cxx1112basic_stringIcSt11char_traitsIcESaIcEEEN8nlohmann10basic_jsonIS_St6vectorS5_blmdSaNS6_14adl_serializerEEESt4lessIvESaISt4pairIKS5_SA_EEE3endEv
	sd	a0, -40(s0)
	ld	a0, -40(s0)
	sd	a0, 8(s1)
	j	.LBB63_9
.LBB63_7:                               # %sw.bb4
	ld	a0, 0(s1)
	ld	a0, 8(a0)
	call	_ZNSt6vectorIN8nlohmann10basic_jsonISt3mapS_NSt7__cxx1112basic_stringIcSt11char_traitsIcESaIcEEEblmdSaNS0_14adl_serializerEEESaISA_EE3endEv
	sd	a0, -48(s0)
	ld	a0, -48(s0)
	sd	a0, 16(s1)
	j	.LBB63_9
.LBB63_8:                               # %sw.default
	addi	a0, s1, 24
	call	_ZN8nlohmann6detail20primitive_iterator_t7set_endEv
	j	.LBB63_9
.LBB63_9:                               # %sw.epilog
	ld	s1, 24(sp)
	ld	s0, 32(sp)
	.cfi_def_cfa sp, 48
	ld	ra, 40(sp)
	.cfi_restore ra
	.cfi_restore s0
	.cfi_restore s1
	addi	sp, sp, 48
	.cfi_def_cfa_offset 0
	ret
.LBB63_10:                              # %terminate.lpad
.Ltmp179:
	call	__clang_call_terminate
.Lfunc_end63:
	.size	_ZN8nlohmann6detail9iter_implIKNS_10basic_jsonISt3mapSt6vectorNSt7__cxx1112basic_stringIcSt11char_traitsIcESaIcEEEblmdSaNS_14adl_serializerEEEE7set_endEv, .Lfunc_end63-_ZN8nlohmann6detail9iter_implIKNS_10basic_jsonISt3mapSt6vectorNSt7__cxx1112basic_stringIcSt11char_traitsIcESaIcEEEblmdSaNS_14adl_serializerEEEE7set_endEv
	.cfi_endproc
	.section	.gcc_except_table,"a",@progbits
	.p2align	2
GCC_except_table63:
.Lexception9:
	.byte	255                     # @LPStart Encoding = omit
	.byte	155                     # @TType Encoding = indirect pcrel sdata4
	.uleb128 .Lttbase2-.Lttbaseref2
.Lttbaseref2:
	.byte	3                       # Call site Encoding = udata4
	.uleb128 .Lcst_end9-.Lcst_begin9
.Lcst_begin9:
	.word	.Ltmp177-.Lfunc_begin9  # >> Call Site 1 <<
	.word	.Ltmp178-.Ltmp177       #   Call between .Ltmp177 and .Ltmp178
	.word	.Ltmp179-.Lfunc_begin9  #     jumps to .Ltmp179
	.byte	1                       #   On action: 1
.Lcst_end9:
	.byte	1                       # >> Action Record 1 <<
                                        #   Catch TypeInfo 1
	.byte	0                       #   No further actions
	.p2align	2
                                        # >> Catch TypeInfos <<
	.word	0                       # TypeInfo 1
.Lttbase2:
	.p2align	2
                                        # -- End function
	.section	.text._ZNSt17_Rb_tree_iteratorISt4pairIKNSt7__cxx1112basic_stringIcSt11char_traitsIcESaIcEEEN8nlohmann10basic_jsonISt3mapSt6vectorS6_blmdSaNS8_14adl_serializerEEEEEC2Ev,"axG",@progbits,_ZNSt17_Rb_tree_iteratorISt4pairIKNSt7__cxx1112basic_stringIcSt11char_traitsIcESaIcEEEN8nlohmann10basic_jsonISt3mapSt6vectorS6_blmdSaNS8_14adl_serializerEEEEEC2Ev,comdat
	.weak	_ZNSt17_Rb_tree_iteratorISt4pairIKNSt7__cxx1112basic_stringIcSt11char_traitsIcESaIcEEEN8nlohmann10basic_jsonISt3mapSt6vectorS6_blmdSaNS8_14adl_serializerEEEEEC2Ev # -- Begin function _ZNSt17_Rb_tree_iteratorISt4pairIKNSt7__cxx1112basic_stringIcSt11char_traitsIcESaIcEEEN8nlohmann10basic_jsonISt3mapSt6vectorS6_blmdSaNS8_14adl_serializerEEEEEC2Ev
	.p2align	2
	.type	_ZNSt17_Rb_tree_iteratorISt4pairIKNSt7__cxx1112basic_stringIcSt11char_traitsIcESaIcEEEN8nlohmann10basic_jsonISt3mapSt6vectorS6_blmdSaNS8_14adl_serializerEEEEEC2Ev,@function
_ZNSt17_Rb_tree_iteratorISt4pairIKNSt7__cxx1112basic_stringIcSt11char_traitsIcESaIcEEEN8nlohmann10basic_jsonISt3mapSt6vectorS6_blmdSaNS8_14adl_serializerEEEEEC2Ev: # @_ZNSt17_Rb_tree_iteratorISt4pairIKNSt7__cxx1112basic_stringIcSt11char_traitsIcESaIcEEEN8nlohmann10basic_jsonISt3mapSt6vectorS6_blmdSaNS8_14adl_serializerEEEEEC2Ev
# %bb.0:                                # %entry
	addi	sp, sp, -32
	sd	ra, 24(sp)
	sd	s0, 16(sp)
	addi	s0, sp, 32
	sd	a0, -24(s0)
	ld	a0, -24(s0)
	sd	zero, 0(a0)
	ld	s0, 16(sp)
	ld	ra, 24(sp)
	addi	sp, sp, 32
	ret
.Lfunc_end64:
	.size	_ZNSt17_Rb_tree_iteratorISt4pairIKNSt7__cxx1112basic_stringIcSt11char_traitsIcESaIcEEEN8nlohmann10basic_jsonISt3mapSt6vectorS6_blmdSaNS8_14adl_serializerEEEEEC2Ev, .Lfunc_end64-_ZNSt17_Rb_tree_iteratorISt4pairIKNSt7__cxx1112basic_stringIcSt11char_traitsIcESaIcEEEN8nlohmann10basic_jsonISt3mapSt6vectorS6_blmdSaNS8_14adl_serializerEEEEEC2Ev
                                        # -- End function
	.section	.text._ZN9__gnu_cxx17__normal_iteratorIPN8nlohmann10basic_jsonISt3mapSt6vectorNSt7__cxx1112basic_stringIcSt11char_traitsIcESaIcEEEblmdSaNS1_14adl_serializerEEES4_ISC_SaISC_EEEC2Ev,"axG",@progbits,_ZN9__gnu_cxx17__normal_iteratorIPN8nlohmann10basic_jsonISt3mapSt6vectorNSt7__cxx1112basic_stringIcSt11char_traitsIcESaIcEEEblmdSaNS1_14adl_serializerEEES4_ISC_SaISC_EEEC2Ev,comdat
	.weak	_ZN9__gnu_cxx17__normal_iteratorIPN8nlohmann10basic_jsonISt3mapSt6vectorNSt7__cxx1112basic_stringIcSt11char_traitsIcESaIcEEEblmdSaNS1_14adl_serializerEEES4_ISC_SaISC_EEEC2Ev # -- Begin function _ZN9__gnu_cxx17__normal_iteratorIPN8nlohmann10basic_jsonISt3mapSt6vectorNSt7__cxx1112basic_stringIcSt11char_traitsIcESaIcEEEblmdSaNS1_14adl_serializerEEES4_ISC_SaISC_EEEC2Ev
	.p2align	2
	.type	_ZN9__gnu_cxx17__normal_iteratorIPN8nlohmann10basic_jsonISt3mapSt6vectorNSt7__cxx1112basic_stringIcSt11char_traitsIcESaIcEEEblmdSaNS1_14adl_serializerEEES4_ISC_SaISC_EEEC2Ev,@function
_ZN9__gnu_cxx17__normal_iteratorIPN8nlohmann10basic_jsonISt3mapSt6vectorNSt7__cxx1112basic_stringIcSt11char_traitsIcESaIcEEEblmdSaNS1_14adl_serializerEEES4_ISC_SaISC_EEEC2Ev: # @_ZN9__gnu_cxx17__normal_iteratorIPN8nlohmann10basic_jsonISt3mapSt6vectorNSt7__cxx1112basic_stringIcSt11char_traitsIcESaIcEEEblmdSaNS1_14adl_serializerEEES4_ISC_SaISC_EEEC2Ev
# %bb.0:                                # %entry
	addi	sp, sp, -32
	sd	ra, 24(sp)
	sd	s0, 16(sp)
	addi	s0, sp, 32
	sd	a0, -24(s0)
	ld	a0, -24(s0)
	sd	zero, 0(a0)
	ld	s0, 16(sp)
	ld	ra, 24(sp)
	addi	sp, sp, 32
	ret
.Lfunc_end65:
	.size	_ZN9__gnu_cxx17__normal_iteratorIPN8nlohmann10basic_jsonISt3mapSt6vectorNSt7__cxx1112basic_stringIcSt11char_traitsIcESaIcEEEblmdSaNS1_14adl_serializerEEES4_ISC_SaISC_EEEC2Ev, .Lfunc_end65-_ZN9__gnu_cxx17__normal_iteratorIPN8nlohmann10basic_jsonISt3mapSt6vectorNSt7__cxx1112basic_stringIcSt11char_traitsIcESaIcEEEblmdSaNS1_14adl_serializerEEES4_ISC_SaISC_EEEC2Ev
                                        # -- End function
	.section	.text._ZN8nlohmann6detail20primitive_iterator_tC2Ev,"axG",@progbits,_ZN8nlohmann6detail20primitive_iterator_tC2Ev,comdat
	.weak	_ZN8nlohmann6detail20primitive_iterator_tC2Ev # -- Begin function _ZN8nlohmann6detail20primitive_iterator_tC2Ev
	.p2align	2
	.type	_ZN8nlohmann6detail20primitive_iterator_tC2Ev,@function
_ZN8nlohmann6detail20primitive_iterator_tC2Ev: # @_ZN8nlohmann6detail20primitive_iterator_tC2Ev
# %bb.0:                                # %entry
	addi	sp, sp, -32
	sd	ra, 24(sp)
	sd	s0, 16(sp)
	sd	s1, 8(sp)
	addi	s0, sp, 32
	sd	a0, -32(s0)
	ld	s1, -32(s0)
	call	_ZNSt14numeric_limitsIlE3minEv
	sd	a0, 0(s1)
	ld	s1, 8(sp)
	ld	s0, 16(sp)
	ld	ra, 24(sp)
	addi	sp, sp, 32
	ret
.Lfunc_end66:
	.size	_ZN8nlohmann6detail20primitive_iterator_tC2Ev, .Lfunc_end66-_ZN8nlohmann6detail20primitive_iterator_tC2Ev
                                        # -- End function
	.section	.text.__clang_call_terminate,"axG",@progbits,__clang_call_terminate,comdat
	.hidden	__clang_call_terminate  # -- Begin function __clang_call_terminate
	.weak	__clang_call_terminate
	.p2align	2
	.type	__clang_call_terminate,@function
__clang_call_terminate:                 # @__clang_call_terminate
# %bb.0:
	addi	sp, sp, -16
	sd	ra, 8(sp)
	call	__cxa_begin_catch
	call	_ZSt9terminatev
.Lfunc_end67:
	.size	__clang_call_terminate, .Lfunc_end67-__clang_call_terminate
                                        # -- End function
	.section	.text._ZNSt14numeric_limitsIlE3minEv,"axG",@progbits,_ZNSt14numeric_limitsIlE3minEv,comdat
	.weak	_ZNSt14numeric_limitsIlE3minEv # -- Begin function _ZNSt14numeric_limitsIlE3minEv
	.p2align	2
	.type	_ZNSt14numeric_limitsIlE3minEv,@function
_ZNSt14numeric_limitsIlE3minEv:         # @_ZNSt14numeric_limitsIlE3minEv
# %bb.0:                                # %entry
	addi	sp, sp, -16
	sd	ra, 8(sp)
	sd	s0, 0(sp)
	addi	s0, sp, 16
	addi	a0, zero, -1
	slli	a0, a0, 63
	ld	s0, 0(sp)
	ld	ra, 8(sp)
	addi	sp, sp, 16
	ret
.Lfunc_end68:
	.size	_ZNSt14numeric_limitsIlE3minEv, .Lfunc_end68-_ZNSt14numeric_limitsIlE3minEv
                                        # -- End function
	.section	.text._ZNSt3mapINSt7__cxx1112basic_stringIcSt11char_traitsIcESaIcEEEN8nlohmann10basic_jsonIS_St6vectorS5_blmdSaNS6_14adl_serializerEEESt4lessIvESaISt4pairIKS5_SA_EEE3endEv,"axG",@progbits,_ZNSt3mapINSt7__cxx1112basic_stringIcSt11char_traitsIcESaIcEEEN8nlohmann10basic_jsonIS_St6vectorS5_blmdSaNS6_14adl_serializerEEESt4lessIvESaISt4pairIKS5_SA_EEE3endEv,comdat
	.weak	_ZNSt3mapINSt7__cxx1112basic_stringIcSt11char_traitsIcESaIcEEEN8nlohmann10basic_jsonIS_St6vectorS5_blmdSaNS6_14adl_serializerEEESt4lessIvESaISt4pairIKS5_SA_EEE3endEv # -- Begin function _ZNSt3mapINSt7__cxx1112basic_stringIcSt11char_traitsIcESaIcEEEN8nlohmann10basic_jsonIS_St6vectorS5_blmdSaNS6_14adl_serializerEEESt4lessIvESaISt4pairIKS5_SA_EEE3endEv
	.p2align	2
	.type	_ZNSt3mapINSt7__cxx1112basic_stringIcSt11char_traitsIcESaIcEEEN8nlohmann10basic_jsonIS_St6vectorS5_blmdSaNS6_14adl_serializerEEESt4lessIvESaISt4pairIKS5_SA_EEE3endEv,@function
_ZNSt3mapINSt7__cxx1112basic_stringIcSt11char_traitsIcESaIcEEEN8nlohmann10basic_jsonIS_St6vectorS5_blmdSaNS6_14adl_serializerEEESt4lessIvESaISt4pairIKS5_SA_EEE3endEv: # @_ZNSt3mapINSt7__cxx1112basic_stringIcSt11char_traitsIcESaIcEEEN8nlohmann10basic_jsonIS_St6vectorS5_blmdSaNS6_14adl_serializerEEESt4lessIvESaISt4pairIKS5_SA_EEE3endEv
# %bb.0:                                # %entry
	addi	sp, sp, -32
	sd	ra, 24(sp)
	sd	s0, 16(sp)
	addi	s0, sp, 32
	sd	a0, -32(s0)
	ld	a0, -32(s0)
	call	_ZNSt8_Rb_treeINSt7__cxx1112basic_stringIcSt11char_traitsIcESaIcEEESt4pairIKS5_N8nlohmann10basic_jsonISt3mapSt6vectorS5_blmdSaNS8_14adl_serializerEEEESt10_Select1stISE_ESt4lessIvESaISE_EE3endEv
	sd	a0, -24(s0)
	ld	a0, -24(s0)
	ld	s0, 16(sp)
	ld	ra, 24(sp)
	addi	sp, sp, 32
	ret
.Lfunc_end69:
	.size	_ZNSt3mapINSt7__cxx1112basic_stringIcSt11char_traitsIcESaIcEEEN8nlohmann10basic_jsonIS_St6vectorS5_blmdSaNS6_14adl_serializerEEESt4lessIvESaISt4pairIKS5_SA_EEE3endEv, .Lfunc_end69-_ZNSt3mapINSt7__cxx1112basic_stringIcSt11char_traitsIcESaIcEEEN8nlohmann10basic_jsonIS_St6vectorS5_blmdSaNS6_14adl_serializerEEESt4lessIvESaISt4pairIKS5_SA_EEE3endEv
                                        # -- End function
	.section	.text._ZNSt6vectorIN8nlohmann10basic_jsonISt3mapS_NSt7__cxx1112basic_stringIcSt11char_traitsIcESaIcEEEblmdSaNS0_14adl_serializerEEESaISA_EE3endEv,"axG",@progbits,_ZNSt6vectorIN8nlohmann10basic_jsonISt3mapS_NSt7__cxx1112basic_stringIcSt11char_traitsIcESaIcEEEblmdSaNS0_14adl_serializerEEESaISA_EE3endEv,comdat
	.weak	_ZNSt6vectorIN8nlohmann10basic_jsonISt3mapS_NSt7__cxx1112basic_stringIcSt11char_traitsIcESaIcEEEblmdSaNS0_14adl_serializerEEESaISA_EE3endEv # -- Begin function _ZNSt6vectorIN8nlohmann10basic_jsonISt3mapS_NSt7__cxx1112basic_stringIcSt11char_traitsIcESaIcEEEblmdSaNS0_14adl_serializerEEESaISA_EE3endEv
	.p2align	2
	.type	_ZNSt6vectorIN8nlohmann10basic_jsonISt3mapS_NSt7__cxx1112basic_stringIcSt11char_traitsIcESaIcEEEblmdSaNS0_14adl_serializerEEESaISA_EE3endEv,@function
_ZNSt6vectorIN8nlohmann10basic_jsonISt3mapS_NSt7__cxx1112basic_stringIcSt11char_traitsIcESaIcEEEblmdSaNS0_14adl_serializerEEESaISA_EE3endEv: # @_ZNSt6vectorIN8nlohmann10basic_jsonISt3mapS_NSt7__cxx1112basic_stringIcSt11char_traitsIcESaIcEEEblmdSaNS0_14adl_serializerEEESaISA_EE3endEv
# %bb.0:                                # %entry
	addi	sp, sp, -32
	sd	ra, 24(sp)
	sd	s0, 16(sp)
	addi	s0, sp, 32
	sd	a0, -32(s0)
	ld	a0, -32(s0)
	addi	a1, a0, 8
	addi	a0, s0, -24
	call	_ZN9__gnu_cxx17__normal_iteratorIPN8nlohmann10basic_jsonISt3mapSt6vectorNSt7__cxx1112basic_stringIcSt11char_traitsIcESaIcEEEblmdSaNS1_14adl_serializerEEES4_ISC_SaISC_EEEC2ERKSD_
	ld	a0, -24(s0)
	ld	s0, 16(sp)
	ld	ra, 24(sp)
	addi	sp, sp, 32
	ret
.Lfunc_end70:
	.size	_ZNSt6vectorIN8nlohmann10basic_jsonISt3mapS_NSt7__cxx1112basic_stringIcSt11char_traitsIcESaIcEEEblmdSaNS0_14adl_serializerEEESaISA_EE3endEv, .Lfunc_end70-_ZNSt6vectorIN8nlohmann10basic_jsonISt3mapS_NSt7__cxx1112basic_stringIcSt11char_traitsIcESaIcEEEblmdSaNS0_14adl_serializerEEESaISA_EE3endEv
                                        # -- End function
	.section	.text._ZN8nlohmann6detail20primitive_iterator_t7set_endEv,"axG",@progbits,_ZN8nlohmann6detail20primitive_iterator_t7set_endEv,comdat
	.weak	_ZN8nlohmann6detail20primitive_iterator_t7set_endEv # -- Begin function _ZN8nlohmann6detail20primitive_iterator_t7set_endEv
	.p2align	2
	.type	_ZN8nlohmann6detail20primitive_iterator_t7set_endEv,@function
_ZN8nlohmann6detail20primitive_iterator_t7set_endEv: # @_ZN8nlohmann6detail20primitive_iterator_t7set_endEv
# %bb.0:                                # %entry
	addi	sp, sp, -32
	sd	ra, 24(sp)
	sd	s0, 16(sp)
	addi	s0, sp, 32
	sd	a0, -24(s0)
	ld	a0, -24(s0)
	addi	a1, zero, 1
	sd	a1, 0(a0)
	ld	s0, 16(sp)
	ld	ra, 24(sp)
	addi	sp, sp, 32
	ret
.Lfunc_end71:
	.size	_ZN8nlohmann6detail20primitive_iterator_t7set_endEv, .Lfunc_end71-_ZN8nlohmann6detail20primitive_iterator_t7set_endEv
                                        # -- End function
	.section	.text._ZNSt8_Rb_treeINSt7__cxx1112basic_stringIcSt11char_traitsIcESaIcEEESt4pairIKS5_N8nlohmann10basic_jsonISt3mapSt6vectorS5_blmdSaNS8_14adl_serializerEEEESt10_Select1stISE_ESt4lessIvESaISE_EE3endEv,"axG",@progbits,_ZNSt8_Rb_treeINSt7__cxx1112basic_stringIcSt11char_traitsIcESaIcEEESt4pairIKS5_N8nlohmann10basic_jsonISt3mapSt6vectorS5_blmdSaNS8_14adl_serializerEEEESt10_Select1stISE_ESt4lessIvESaISE_EE3endEv,comdat
	.weak	_ZNSt8_Rb_treeINSt7__cxx1112basic_stringIcSt11char_traitsIcESaIcEEESt4pairIKS5_N8nlohmann10basic_jsonISt3mapSt6vectorS5_blmdSaNS8_14adl_serializerEEEESt10_Select1stISE_ESt4lessIvESaISE_EE3endEv # -- Begin function _ZNSt8_Rb_treeINSt7__cxx1112basic_stringIcSt11char_traitsIcESaIcEEESt4pairIKS5_N8nlohmann10basic_jsonISt3mapSt6vectorS5_blmdSaNS8_14adl_serializerEEEESt10_Select1stISE_ESt4lessIvESaISE_EE3endEv
	.p2align	2
	.type	_ZNSt8_Rb_treeINSt7__cxx1112basic_stringIcSt11char_traitsIcESaIcEEESt4pairIKS5_N8nlohmann10basic_jsonISt3mapSt6vectorS5_blmdSaNS8_14adl_serializerEEEESt10_Select1stISE_ESt4lessIvESaISE_EE3endEv,@function
_ZNSt8_Rb_treeINSt7__cxx1112basic_stringIcSt11char_traitsIcESaIcEEESt4pairIKS5_N8nlohmann10basic_jsonISt3mapSt6vectorS5_blmdSaNS8_14adl_serializerEEEESt10_Select1stISE_ESt4lessIvESaISE_EE3endEv: # @_ZNSt8_Rb_treeINSt7__cxx1112basic_stringIcSt11char_traitsIcESaIcEEESt4pairIKS5_N8nlohmann10basic_jsonISt3mapSt6vectorS5_blmdSaNS8_14adl_serializerEEEESt10_Select1stISE_ESt4lessIvESaISE_EE3endEv
# %bb.0:                                # %entry
	addi	sp, sp, -32
	sd	ra, 24(sp)
	sd	s0, 16(sp)
	addi	s0, sp, 32
	sd	a0, -32(s0)
	ld	a0, -32(s0)
	addi	a1, a0, 8
	addi	a0, s0, -24
	call	_ZNSt17_Rb_tree_iteratorISt4pairIKNSt7__cxx1112basic_stringIcSt11char_traitsIcESaIcEEEN8nlohmann10basic_jsonISt3mapSt6vectorS6_blmdSaNS8_14adl_serializerEEEEEC2EPSt18_Rb_tree_node_base
	ld	a0, -24(s0)
	ld	s0, 16(sp)
	ld	ra, 24(sp)
	addi	sp, sp, 32
	ret
.Lfunc_end72:
	.size	_ZNSt8_Rb_treeINSt7__cxx1112basic_stringIcSt11char_traitsIcESaIcEEESt4pairIKS5_N8nlohmann10basic_jsonISt3mapSt6vectorS5_blmdSaNS8_14adl_serializerEEEESt10_Select1stISE_ESt4lessIvESaISE_EE3endEv, .Lfunc_end72-_ZNSt8_Rb_treeINSt7__cxx1112basic_stringIcSt11char_traitsIcESaIcEEESt4pairIKS5_N8nlohmann10basic_jsonISt3mapSt6vectorS5_blmdSaNS8_14adl_serializerEEEESt10_Select1stISE_ESt4lessIvESaISE_EE3endEv
                                        # -- End function
	.section	.text._ZNSt17_Rb_tree_iteratorISt4pairIKNSt7__cxx1112basic_stringIcSt11char_traitsIcESaIcEEEN8nlohmann10basic_jsonISt3mapSt6vectorS6_blmdSaNS8_14adl_serializerEEEEEC2EPSt18_Rb_tree_node_base,"axG",@progbits,_ZNSt17_Rb_tree_iteratorISt4pairIKNSt7__cxx1112basic_stringIcSt11char_traitsIcESaIcEEEN8nlohmann10basic_jsonISt3mapSt6vectorS6_blmdSaNS8_14adl_serializerEEEEEC2EPSt18_Rb_tree_node_base,comdat
	.weak	_ZNSt17_Rb_tree_iteratorISt4pairIKNSt7__cxx1112basic_stringIcSt11char_traitsIcESaIcEEEN8nlohmann10basic_jsonISt3mapSt6vectorS6_blmdSaNS8_14adl_serializerEEEEEC2EPSt18_Rb_tree_node_base # -- Begin function _ZNSt17_Rb_tree_iteratorISt4pairIKNSt7__cxx1112basic_stringIcSt11char_traitsIcESaIcEEEN8nlohmann10basic_jsonISt3mapSt6vectorS6_blmdSaNS8_14adl_serializerEEEEEC2EPSt18_Rb_tree_node_base
	.p2align	2
	.type	_ZNSt17_Rb_tree_iteratorISt4pairIKNSt7__cxx1112basic_stringIcSt11char_traitsIcESaIcEEEN8nlohmann10basic_jsonISt3mapSt6vectorS6_blmdSaNS8_14adl_serializerEEEEEC2EPSt18_Rb_tree_node_base,@function
_ZNSt17_Rb_tree_iteratorISt4pairIKNSt7__cxx1112basic_stringIcSt11char_traitsIcESaIcEEEN8nlohmann10basic_jsonISt3mapSt6vectorS6_blmdSaNS8_14adl_serializerEEEEEC2EPSt18_Rb_tree_node_base: # @_ZNSt17_Rb_tree_iteratorISt4pairIKNSt7__cxx1112basic_stringIcSt11char_traitsIcESaIcEEEN8nlohmann10basic_jsonISt3mapSt6vectorS6_blmdSaNS8_14adl_serializerEEEEEC2EPSt18_Rb_tree_node_base
# %bb.0:                                # %entry
	addi	sp, sp, -32
	sd	ra, 24(sp)
	sd	s0, 16(sp)
	addi	s0, sp, 32
	sd	a0, -24(s0)
	sd	a1, -32(s0)
	ld	a0, -24(s0)
	ld	a1, -32(s0)
	sd	a1, 0(a0)
	ld	s0, 16(sp)
	ld	ra, 24(sp)
	addi	sp, sp, 32
	ret
.Lfunc_end73:
	.size	_ZNSt17_Rb_tree_iteratorISt4pairIKNSt7__cxx1112basic_stringIcSt11char_traitsIcESaIcEEEN8nlohmann10basic_jsonISt3mapSt6vectorS6_blmdSaNS8_14adl_serializerEEEEEC2EPSt18_Rb_tree_node_base, .Lfunc_end73-_ZNSt17_Rb_tree_iteratorISt4pairIKNSt7__cxx1112basic_stringIcSt11char_traitsIcESaIcEEEN8nlohmann10basic_jsonISt3mapSt6vectorS6_blmdSaNS8_14adl_serializerEEEEEC2EPSt18_Rb_tree_node_base
                                        # -- End function
	.section	.text._ZN9__gnu_cxx17__normal_iteratorIPN8nlohmann10basic_jsonISt3mapSt6vectorNSt7__cxx1112basic_stringIcSt11char_traitsIcESaIcEEEblmdSaNS1_14adl_serializerEEES4_ISC_SaISC_EEEC2ERKSD_,"axG",@progbits,_ZN9__gnu_cxx17__normal_iteratorIPN8nlohmann10basic_jsonISt3mapSt6vectorNSt7__cxx1112basic_stringIcSt11char_traitsIcESaIcEEEblmdSaNS1_14adl_serializerEEES4_ISC_SaISC_EEEC2ERKSD_,comdat
	.weak	_ZN9__gnu_cxx17__normal_iteratorIPN8nlohmann10basic_jsonISt3mapSt6vectorNSt7__cxx1112basic_stringIcSt11char_traitsIcESaIcEEEblmdSaNS1_14adl_serializerEEES4_ISC_SaISC_EEEC2ERKSD_ # -- Begin function _ZN9__gnu_cxx17__normal_iteratorIPN8nlohmann10basic_jsonISt3mapSt6vectorNSt7__cxx1112basic_stringIcSt11char_traitsIcESaIcEEEblmdSaNS1_14adl_serializerEEES4_ISC_SaISC_EEEC2ERKSD_
	.p2align	2
	.type	_ZN9__gnu_cxx17__normal_iteratorIPN8nlohmann10basic_jsonISt3mapSt6vectorNSt7__cxx1112basic_stringIcSt11char_traitsIcESaIcEEEblmdSaNS1_14adl_serializerEEES4_ISC_SaISC_EEEC2ERKSD_,@function
_ZN9__gnu_cxx17__normal_iteratorIPN8nlohmann10basic_jsonISt3mapSt6vectorNSt7__cxx1112basic_stringIcSt11char_traitsIcESaIcEEEblmdSaNS1_14adl_serializerEEES4_ISC_SaISC_EEEC2ERKSD_: # @_ZN9__gnu_cxx17__normal_iteratorIPN8nlohmann10basic_jsonISt3mapSt6vectorNSt7__cxx1112basic_stringIcSt11char_traitsIcESaIcEEEblmdSaNS1_14adl_serializerEEES4_ISC_SaISC_EEEC2ERKSD_
# %bb.0:                                # %entry
	addi	sp, sp, -32
	sd	ra, 24(sp)
	sd	s0, 16(sp)
	addi	s0, sp, 32
	sd	a0, -24(s0)
	sd	a1, -32(s0)
	ld	a0, -24(s0)
	ld	a1, -32(s0)
	ld	a1, 0(a1)
	sd	a1, 0(a0)
	ld	s0, 16(sp)
	ld	ra, 24(sp)
	addi	sp, sp, 32
	ret
.Lfunc_end74:
	.size	_ZN9__gnu_cxx17__normal_iteratorIPN8nlohmann10basic_jsonISt3mapSt6vectorNSt7__cxx1112basic_stringIcSt11char_traitsIcESaIcEEEblmdSaNS1_14adl_serializerEEES4_ISC_SaISC_EEEC2ERKSD_, .Lfunc_end74-_ZN9__gnu_cxx17__normal_iteratorIPN8nlohmann10basic_jsonISt3mapSt6vectorNSt7__cxx1112basic_stringIcSt11char_traitsIcESaIcEEEblmdSaNS1_14adl_serializerEEES4_ISC_SaISC_EEEC2ERKSD_
                                        # -- End function
	.section	.text._ZNSt8_Rb_treeINSt7__cxx1112basic_stringIcSt11char_traitsIcESaIcEEESt4pairIKS5_N8nlohmann10basic_jsonISt3mapSt6vectorS5_blmdSaNS8_14adl_serializerEEEESt10_Select1stISE_ESt4lessIvESaISE_EE4findERS7_,"axG",@progbits,_ZNSt8_Rb_treeINSt7__cxx1112basic_stringIcSt11char_traitsIcESaIcEEESt4pairIKS5_N8nlohmann10basic_jsonISt3mapSt6vectorS5_blmdSaNS8_14adl_serializerEEEESt10_Select1stISE_ESt4lessIvESaISE_EE4findERS7_,comdat
	.weak	_ZNSt8_Rb_treeINSt7__cxx1112basic_stringIcSt11char_traitsIcESaIcEEESt4pairIKS5_N8nlohmann10basic_jsonISt3mapSt6vectorS5_blmdSaNS8_14adl_serializerEEEESt10_Select1stISE_ESt4lessIvESaISE_EE4findERS7_ # -- Begin function _ZNSt8_Rb_treeINSt7__cxx1112basic_stringIcSt11char_traitsIcESaIcEEESt4pairIKS5_N8nlohmann10basic_jsonISt3mapSt6vectorS5_blmdSaNS8_14adl_serializerEEEESt10_Select1stISE_ESt4lessIvESaISE_EE4findERS7_
	.p2align	2
	.type	_ZNSt8_Rb_treeINSt7__cxx1112basic_stringIcSt11char_traitsIcESaIcEEESt4pairIKS5_N8nlohmann10basic_jsonISt3mapSt6vectorS5_blmdSaNS8_14adl_serializerEEEESt10_Select1stISE_ESt4lessIvESaISE_EE4findERS7_,@function
_ZNSt8_Rb_treeINSt7__cxx1112basic_stringIcSt11char_traitsIcESaIcEEESt4pairIKS5_N8nlohmann10basic_jsonISt3mapSt6vectorS5_blmdSaNS8_14adl_serializerEEEESt10_Select1stISE_ESt4lessIvESaISE_EE4findERS7_: # @_ZNSt8_Rb_treeINSt7__cxx1112basic_stringIcSt11char_traitsIcESaIcEEESt4pairIKS5_N8nlohmann10basic_jsonISt3mapSt6vectorS5_blmdSaNS8_14adl_serializerEEEESt10_Select1stISE_ESt4lessIvESaISE_EE4findERS7_
	.cfi_startproc
# %bb.0:                                # %entry
	addi	sp, sp, -80
	.cfi_def_cfa_offset 80
	sd	ra, 72(sp)
	sd	s0, 64(sp)
	sd	s1, 56(sp)
	sd	s2, 48(sp)
	.cfi_offset ra, -8
	.cfi_offset s0, -16
	.cfi_offset s1, -24
	.cfi_offset s2, -32
	addi	s0, sp, 80
	.cfi_def_cfa s0, 0
	sd	a0, -48(s0)
	sd	a1, -56(s0)
	ld	s1, -48(s0)
	mv	a0, s1
	call	_ZNSt8_Rb_treeINSt7__cxx1112basic_stringIcSt11char_traitsIcESaIcEEESt4pairIKS5_N8nlohmann10basic_jsonISt3mapSt6vectorS5_blmdSaNS8_14adl_serializerEEEESt10_Select1stISE_ESt4lessIvESaISE_EE8_M_beginEv
	mv	s2, a0
	mv	a0, s1
	call	_ZNSt8_Rb_treeINSt7__cxx1112basic_stringIcSt11char_traitsIcESaIcEEESt4pairIKS5_N8nlohmann10basic_jsonISt3mapSt6vectorS5_blmdSaNS8_14adl_serializerEEEESt10_Select1stISE_ESt4lessIvESaISE_EE6_M_endEv
	mv	a2, a0
	ld	a3, -56(s0)
	mv	a0, s1
	mv	a1, s2
	call	_ZNSt8_Rb_treeINSt7__cxx1112basic_stringIcSt11char_traitsIcESaIcEEESt4pairIKS5_N8nlohmann10basic_jsonISt3mapSt6vectorS5_blmdSaNS8_14adl_serializerEEEESt10_Select1stISE_ESt4lessIvESaISE_EE14_M_lower_boundEPSt13_Rb_tree_nodeISE_EPSt18_Rb_tree_node_baseRS7_
	sd	a0, -64(s0)
	mv	a0, s1
	call	_ZNSt8_Rb_treeINSt7__cxx1112basic_stringIcSt11char_traitsIcESaIcEEESt4pairIKS5_N8nlohmann10basic_jsonISt3mapSt6vectorS5_blmdSaNS8_14adl_serializerEEEESt10_Select1stISE_ESt4lessIvESaISE_EE3endEv
	sd	a0, -72(s0)
	addi	a0, s0, -64
	addi	a1, s0, -72
	call	_ZSteqRKSt17_Rb_tree_iteratorISt4pairIKNSt7__cxx1112basic_stringIcSt11char_traitsIcESaIcEEEN8nlohmann10basic_jsonISt3mapSt6vectorS6_blmdSaNS8_14adl_serializerEEEEESH_
	bnez	a0, .LBB75_2
	j	.LBB75_1
.LBB75_1:                               # %lor.lhs.false
	ld	s2, -56(s0)
	ld	a0, -64(s0)
	call	_ZNSt8_Rb_treeINSt7__cxx1112basic_stringIcSt11char_traitsIcESaIcEEESt4pairIKS5_N8nlohmann10basic_jsonISt3mapSt6vectorS5_blmdSaNS8_14adl_serializerEEEESt10_Select1stISE_ESt4lessIvESaISE_EE6_S_keyEPKSt18_Rb_tree_node_base
	mv	a2, a0
	mv	a0, s1
	mv	a1, s2
	call	_ZNKSt4lessIvEclIRKNSt7__cxx1112basic_stringIcSt11char_traitsIcESaIcEEES9_EEDTltclsr3stdE7forwardIT_Efp_Eclsr3stdE7forwardIT0_Efp0_EEOSA_OSB_
	beqz	a0, .LBB75_3
	j	.LBB75_2
.LBB75_2:                               # %cond.true
	mv	a0, s1
	call	_ZNSt8_Rb_treeINSt7__cxx1112basic_stringIcSt11char_traitsIcESaIcEEESt4pairIKS5_N8nlohmann10basic_jsonISt3mapSt6vectorS5_blmdSaNS8_14adl_serializerEEEESt10_Select1stISE_ESt4lessIvESaISE_EE3endEv
	sd	a0, -40(s0)
	j	.LBB75_4
.LBB75_3:                               # %cond.false
	ld	a0, -64(s0)
	sd	a0, -40(s0)
	j	.LBB75_4
.LBB75_4:                               # %cond.end
	ld	a0, -40(s0)
	ld	s2, 48(sp)
	ld	s1, 56(sp)
	ld	s0, 64(sp)
	.cfi_def_cfa sp, 80
	ld	ra, 72(sp)
	.cfi_restore ra
	.cfi_restore s0
	.cfi_restore s1
	.cfi_restore s2
	addi	sp, sp, 80
	.cfi_def_cfa_offset 0
	ret
.Lfunc_end75:
	.size	_ZNSt8_Rb_treeINSt7__cxx1112basic_stringIcSt11char_traitsIcESaIcEEESt4pairIKS5_N8nlohmann10basic_jsonISt3mapSt6vectorS5_blmdSaNS8_14adl_serializerEEEESt10_Select1stISE_ESt4lessIvESaISE_EE4findERS7_, .Lfunc_end75-_ZNSt8_Rb_treeINSt7__cxx1112basic_stringIcSt11char_traitsIcESaIcEEESt4pairIKS5_N8nlohmann10basic_jsonISt3mapSt6vectorS5_blmdSaNS8_14adl_serializerEEEESt10_Select1stISE_ESt4lessIvESaISE_EE4findERS7_
	.cfi_endproc
                                        # -- End function
	.section	.text._ZNSt8_Rb_treeINSt7__cxx1112basic_stringIcSt11char_traitsIcESaIcEEESt4pairIKS5_N8nlohmann10basic_jsonISt3mapSt6vectorS5_blmdSaNS8_14adl_serializerEEEESt10_Select1stISE_ESt4lessIvESaISE_EE14_M_lower_boundEPSt13_Rb_tree_nodeISE_EPSt18_Rb_tree_node_baseRS7_,"axG",@progbits,_ZNSt8_Rb_treeINSt7__cxx1112basic_stringIcSt11char_traitsIcESaIcEEESt4pairIKS5_N8nlohmann10basic_jsonISt3mapSt6vectorS5_blmdSaNS8_14adl_serializerEEEESt10_Select1stISE_ESt4lessIvESaISE_EE14_M_lower_boundEPSt13_Rb_tree_nodeISE_EPSt18_Rb_tree_node_baseRS7_,comdat
	.weak	_ZNSt8_Rb_treeINSt7__cxx1112basic_stringIcSt11char_traitsIcESaIcEEESt4pairIKS5_N8nlohmann10basic_jsonISt3mapSt6vectorS5_blmdSaNS8_14adl_serializerEEEESt10_Select1stISE_ESt4lessIvESaISE_EE14_M_lower_boundEPSt13_Rb_tree_nodeISE_EPSt18_Rb_tree_node_baseRS7_ # -- Begin function _ZNSt8_Rb_treeINSt7__cxx1112basic_stringIcSt11char_traitsIcESaIcEEESt4pairIKS5_N8nlohmann10basic_jsonISt3mapSt6vectorS5_blmdSaNS8_14adl_serializerEEEESt10_Select1stISE_ESt4lessIvESaISE_EE14_M_lower_boundEPSt13_Rb_tree_nodeISE_EPSt18_Rb_tree_node_baseRS7_
	.p2align	2
	.type	_ZNSt8_Rb_treeINSt7__cxx1112basic_stringIcSt11char_traitsIcESaIcEEESt4pairIKS5_N8nlohmann10basic_jsonISt3mapSt6vectorS5_blmdSaNS8_14adl_serializerEEEESt10_Select1stISE_ESt4lessIvESaISE_EE14_M_lower_boundEPSt13_Rb_tree_nodeISE_EPSt18_Rb_tree_node_baseRS7_,@function
_ZNSt8_Rb_treeINSt7__cxx1112basic_stringIcSt11char_traitsIcESaIcEEESt4pairIKS5_N8nlohmann10basic_jsonISt3mapSt6vectorS5_blmdSaNS8_14adl_serializerEEEESt10_Select1stISE_ESt4lessIvESaISE_EE14_M_lower_boundEPSt13_Rb_tree_nodeISE_EPSt18_Rb_tree_node_baseRS7_: # @_ZNSt8_Rb_treeINSt7__cxx1112basic_stringIcSt11char_traitsIcESaIcEEESt4pairIKS5_N8nlohmann10basic_jsonISt3mapSt6vectorS5_blmdSaNS8_14adl_serializerEEEESt10_Select1stISE_ESt4lessIvESaISE_EE14_M_lower_boundEPSt13_Rb_tree_nodeISE_EPSt18_Rb_tree_node_baseRS7_
	.cfi_startproc
# %bb.0:                                # %entry
	addi	sp, sp, -64
	.cfi_def_cfa_offset 64
	sd	ra, 56(sp)
	sd	s0, 48(sp)
	sd	s1, 40(sp)
	.cfi_offset ra, -8
	.cfi_offset s0, -16
	.cfi_offset s1, -24
	addi	s0, sp, 64
	.cfi_def_cfa s0, 0
	sd	a0, -40(s0)
	sd	a1, -48(s0)
	sd	a2, -56(s0)
	sd	a3, -64(s0)
	ld	s1, -40(s0)
	j	.LBB76_1
.LBB76_1:                               # %while.cond
                                        # =>This Inner Loop Header: Depth=1
	ld	a0, -48(s0)
	beqz	a0, .LBB76_6
	j	.LBB76_2
.LBB76_2:                               # %while.body
                                        #   in Loop: Header=BB76_1 Depth=1
	ld	a0, -48(s0)
	call	_ZNSt8_Rb_treeINSt7__cxx1112basic_stringIcSt11char_traitsIcESaIcEEESt4pairIKS5_N8nlohmann10basic_jsonISt3mapSt6vectorS5_blmdSaNS8_14adl_serializerEEEESt10_Select1stISE_ESt4lessIvESaISE_EE6_S_keyEPKSt13_Rb_tree_nodeISE_E
	mv	a1, a0
	ld	a2, -64(s0)
	mv	a0, s1
	call	_ZNKSt4lessIvEclIRKNSt7__cxx1112basic_stringIcSt11char_traitsIcESaIcEEES9_EEDTltclsr3stdE7forwardIT_Efp_Eclsr3stdE7forwardIT0_Efp0_EEOSA_OSB_
	bnez	a0, .LBB76_4
	j	.LBB76_3
.LBB76_3:                               # %if.then
                                        #   in Loop: Header=BB76_1 Depth=1
	ld	a0, -48(s0)
	sd	a0, -56(s0)
	ld	a0, -48(s0)
	call	_ZNSt8_Rb_treeINSt7__cxx1112basic_stringIcSt11char_traitsIcESaIcEEESt4pairIKS5_N8nlohmann10basic_jsonISt3mapSt6vectorS5_blmdSaNS8_14adl_serializerEEEESt10_Select1stISE_ESt4lessIvESaISE_EE7_S_leftEPSt18_Rb_tree_node_base
	sd	a0, -48(s0)
	j	.LBB76_5
.LBB76_4:                               # %if.else
                                        #   in Loop: Header=BB76_1 Depth=1
	ld	a0, -48(s0)
	call	_ZNSt8_Rb_treeINSt7__cxx1112basic_stringIcSt11char_traitsIcESaIcEEESt4pairIKS5_N8nlohmann10basic_jsonISt3mapSt6vectorS5_blmdSaNS8_14adl_serializerEEEESt10_Select1stISE_ESt4lessIvESaISE_EE8_S_rightEPSt18_Rb_tree_node_base
	sd	a0, -48(s0)
	j	.LBB76_5
.LBB76_5:                               # %if.end
                                        #   in Loop: Header=BB76_1 Depth=1
	j	.LBB76_1
.LBB76_6:                               # %while.end
	ld	a1, -56(s0)
	addi	a0, s0, -32
	call	_ZNSt17_Rb_tree_iteratorISt4pairIKNSt7__cxx1112basic_stringIcSt11char_traitsIcESaIcEEEN8nlohmann10basic_jsonISt3mapSt6vectorS6_blmdSaNS8_14adl_serializerEEEEEC2EPSt18_Rb_tree_node_base
	ld	a0, -32(s0)
	ld	s1, 40(sp)
	ld	s0, 48(sp)
	.cfi_def_cfa sp, 64
	ld	ra, 56(sp)
	.cfi_restore ra
	.cfi_restore s0
	.cfi_restore s1
	addi	sp, sp, 64
	.cfi_def_cfa_offset 0
	ret
.Lfunc_end76:
	.size	_ZNSt8_Rb_treeINSt7__cxx1112basic_stringIcSt11char_traitsIcESaIcEEESt4pairIKS5_N8nlohmann10basic_jsonISt3mapSt6vectorS5_blmdSaNS8_14adl_serializerEEEESt10_Select1stISE_ESt4lessIvESaISE_EE14_M_lower_boundEPSt13_Rb_tree_nodeISE_EPSt18_Rb_tree_node_baseRS7_, .Lfunc_end76-_ZNSt8_Rb_treeINSt7__cxx1112basic_stringIcSt11char_traitsIcESaIcEEESt4pairIKS5_N8nlohmann10basic_jsonISt3mapSt6vectorS5_blmdSaNS8_14adl_serializerEEEESt10_Select1stISE_ESt4lessIvESaISE_EE14_M_lower_boundEPSt13_Rb_tree_nodeISE_EPSt18_Rb_tree_node_baseRS7_
	.cfi_endproc
                                        # -- End function
	.section	.text._ZNSt8_Rb_treeINSt7__cxx1112basic_stringIcSt11char_traitsIcESaIcEEESt4pairIKS5_N8nlohmann10basic_jsonISt3mapSt6vectorS5_blmdSaNS8_14adl_serializerEEEESt10_Select1stISE_ESt4lessIvESaISE_EE8_M_beginEv,"axG",@progbits,_ZNSt8_Rb_treeINSt7__cxx1112basic_stringIcSt11char_traitsIcESaIcEEESt4pairIKS5_N8nlohmann10basic_jsonISt3mapSt6vectorS5_blmdSaNS8_14adl_serializerEEEESt10_Select1stISE_ESt4lessIvESaISE_EE8_M_beginEv,comdat
	.weak	_ZNSt8_Rb_treeINSt7__cxx1112basic_stringIcSt11char_traitsIcESaIcEEESt4pairIKS5_N8nlohmann10basic_jsonISt3mapSt6vectorS5_blmdSaNS8_14adl_serializerEEEESt10_Select1stISE_ESt4lessIvESaISE_EE8_M_beginEv # -- Begin function _ZNSt8_Rb_treeINSt7__cxx1112basic_stringIcSt11char_traitsIcESaIcEEESt4pairIKS5_N8nlohmann10basic_jsonISt3mapSt6vectorS5_blmdSaNS8_14adl_serializerEEEESt10_Select1stISE_ESt4lessIvESaISE_EE8_M_beginEv
	.p2align	2
	.type	_ZNSt8_Rb_treeINSt7__cxx1112basic_stringIcSt11char_traitsIcESaIcEEESt4pairIKS5_N8nlohmann10basic_jsonISt3mapSt6vectorS5_blmdSaNS8_14adl_serializerEEEESt10_Select1stISE_ESt4lessIvESaISE_EE8_M_beginEv,@function
_ZNSt8_Rb_treeINSt7__cxx1112basic_stringIcSt11char_traitsIcESaIcEEESt4pairIKS5_N8nlohmann10basic_jsonISt3mapSt6vectorS5_blmdSaNS8_14adl_serializerEEEESt10_Select1stISE_ESt4lessIvESaISE_EE8_M_beginEv: # @_ZNSt8_Rb_treeINSt7__cxx1112basic_stringIcSt11char_traitsIcESaIcEEESt4pairIKS5_N8nlohmann10basic_jsonISt3mapSt6vectorS5_blmdSaNS8_14adl_serializerEEEESt10_Select1stISE_ESt4lessIvESaISE_EE8_M_beginEv
# %bb.0:                                # %entry
	addi	sp, sp, -32
	sd	ra, 24(sp)
	sd	s0, 16(sp)
	addi	s0, sp, 32
	sd	a0, -24(s0)
	ld	a0, -24(s0)
	call	_ZNKSt8_Rb_treeINSt7__cxx1112basic_stringIcSt11char_traitsIcESaIcEEESt4pairIKS5_N8nlohmann10basic_jsonISt3mapSt6vectorS5_blmdSaNS8_14adl_serializerEEEESt10_Select1stISE_ESt4lessIvESaISE_EE9_M_mbeginEv
	ld	s0, 16(sp)
	ld	ra, 24(sp)
	addi	sp, sp, 32
	ret
.Lfunc_end77:
	.size	_ZNSt8_Rb_treeINSt7__cxx1112basic_stringIcSt11char_traitsIcESaIcEEESt4pairIKS5_N8nlohmann10basic_jsonISt3mapSt6vectorS5_blmdSaNS8_14adl_serializerEEEESt10_Select1stISE_ESt4lessIvESaISE_EE8_M_beginEv, .Lfunc_end77-_ZNSt8_Rb_treeINSt7__cxx1112basic_stringIcSt11char_traitsIcESaIcEEESt4pairIKS5_N8nlohmann10basic_jsonISt3mapSt6vectorS5_blmdSaNS8_14adl_serializerEEEESt10_Select1stISE_ESt4lessIvESaISE_EE8_M_beginEv
                                        # -- End function
	.section	.text._ZNSt8_Rb_treeINSt7__cxx1112basic_stringIcSt11char_traitsIcESaIcEEESt4pairIKS5_N8nlohmann10basic_jsonISt3mapSt6vectorS5_blmdSaNS8_14adl_serializerEEEESt10_Select1stISE_ESt4lessIvESaISE_EE6_M_endEv,"axG",@progbits,_ZNSt8_Rb_treeINSt7__cxx1112basic_stringIcSt11char_traitsIcESaIcEEESt4pairIKS5_N8nlohmann10basic_jsonISt3mapSt6vectorS5_blmdSaNS8_14adl_serializerEEEESt10_Select1stISE_ESt4lessIvESaISE_EE6_M_endEv,comdat
	.weak	_ZNSt8_Rb_treeINSt7__cxx1112basic_stringIcSt11char_traitsIcESaIcEEESt4pairIKS5_N8nlohmann10basic_jsonISt3mapSt6vectorS5_blmdSaNS8_14adl_serializerEEEESt10_Select1stISE_ESt4lessIvESaISE_EE6_M_endEv # -- Begin function _ZNSt8_Rb_treeINSt7__cxx1112basic_stringIcSt11char_traitsIcESaIcEEESt4pairIKS5_N8nlohmann10basic_jsonISt3mapSt6vectorS5_blmdSaNS8_14adl_serializerEEEESt10_Select1stISE_ESt4lessIvESaISE_EE6_M_endEv
	.p2align	2
	.type	_ZNSt8_Rb_treeINSt7__cxx1112basic_stringIcSt11char_traitsIcESaIcEEESt4pairIKS5_N8nlohmann10basic_jsonISt3mapSt6vectorS5_blmdSaNS8_14adl_serializerEEEESt10_Select1stISE_ESt4lessIvESaISE_EE6_M_endEv,@function
_ZNSt8_Rb_treeINSt7__cxx1112basic_stringIcSt11char_traitsIcESaIcEEESt4pairIKS5_N8nlohmann10basic_jsonISt3mapSt6vectorS5_blmdSaNS8_14adl_serializerEEEESt10_Select1stISE_ESt4lessIvESaISE_EE6_M_endEv: # @_ZNSt8_Rb_treeINSt7__cxx1112basic_stringIcSt11char_traitsIcESaIcEEESt4pairIKS5_N8nlohmann10basic_jsonISt3mapSt6vectorS5_blmdSaNS8_14adl_serializerEEEESt10_Select1stISE_ESt4lessIvESaISE_EE6_M_endEv
# %bb.0:                                # %entry
	addi	sp, sp, -32
	sd	ra, 24(sp)
	sd	s0, 16(sp)
	addi	s0, sp, 32
	sd	a0, -24(s0)
	ld	a0, -24(s0)
	addi	a0, a0, 8
	ld	s0, 16(sp)
	ld	ra, 24(sp)
	addi	sp, sp, 32
	ret
.Lfunc_end78:
	.size	_ZNSt8_Rb_treeINSt7__cxx1112basic_stringIcSt11char_traitsIcESaIcEEESt4pairIKS5_N8nlohmann10basic_jsonISt3mapSt6vectorS5_blmdSaNS8_14adl_serializerEEEESt10_Select1stISE_ESt4lessIvESaISE_EE6_M_endEv, .Lfunc_end78-_ZNSt8_Rb_treeINSt7__cxx1112basic_stringIcSt11char_traitsIcESaIcEEESt4pairIKS5_N8nlohmann10basic_jsonISt3mapSt6vectorS5_blmdSaNS8_14adl_serializerEEEESt10_Select1stISE_ESt4lessIvESaISE_EE6_M_endEv
                                        # -- End function
	.section	.text._ZSteqRKSt17_Rb_tree_iteratorISt4pairIKNSt7__cxx1112basic_stringIcSt11char_traitsIcESaIcEEEN8nlohmann10basic_jsonISt3mapSt6vectorS6_blmdSaNS8_14adl_serializerEEEEESH_,"axG",@progbits,_ZSteqRKSt17_Rb_tree_iteratorISt4pairIKNSt7__cxx1112basic_stringIcSt11char_traitsIcESaIcEEEN8nlohmann10basic_jsonISt3mapSt6vectorS6_blmdSaNS8_14adl_serializerEEEEESH_,comdat
	.weak	_ZSteqRKSt17_Rb_tree_iteratorISt4pairIKNSt7__cxx1112basic_stringIcSt11char_traitsIcESaIcEEEN8nlohmann10basic_jsonISt3mapSt6vectorS6_blmdSaNS8_14adl_serializerEEEEESH_ # -- Begin function _ZSteqRKSt17_Rb_tree_iteratorISt4pairIKNSt7__cxx1112basic_stringIcSt11char_traitsIcESaIcEEEN8nlohmann10basic_jsonISt3mapSt6vectorS6_blmdSaNS8_14adl_serializerEEEEESH_
	.p2align	2
	.type	_ZSteqRKSt17_Rb_tree_iteratorISt4pairIKNSt7__cxx1112basic_stringIcSt11char_traitsIcESaIcEEEN8nlohmann10basic_jsonISt3mapSt6vectorS6_blmdSaNS8_14adl_serializerEEEEESH_,@function
_ZSteqRKSt17_Rb_tree_iteratorISt4pairIKNSt7__cxx1112basic_stringIcSt11char_traitsIcESaIcEEEN8nlohmann10basic_jsonISt3mapSt6vectorS6_blmdSaNS8_14adl_serializerEEEEESH_: # @_ZSteqRKSt17_Rb_tree_iteratorISt4pairIKNSt7__cxx1112basic_stringIcSt11char_traitsIcESaIcEEEN8nlohmann10basic_jsonISt3mapSt6vectorS6_blmdSaNS8_14adl_serializerEEEEESH_
# %bb.0:                                # %entry
	addi	sp, sp, -32
	sd	ra, 24(sp)
	sd	s0, 16(sp)
	addi	s0, sp, 32
	sd	a0, -24(s0)
	sd	a1, -32(s0)
	ld	a0, -24(s0)
	ld	a0, 0(a0)
	ld	a1, -32(s0)
	ld	a1, 0(a1)
	xor	a0, a0, a1
	seqz	a0, a0
	ld	s0, 16(sp)
	ld	ra, 24(sp)
	addi	sp, sp, 32
	ret
.Lfunc_end79:
	.size	_ZSteqRKSt17_Rb_tree_iteratorISt4pairIKNSt7__cxx1112basic_stringIcSt11char_traitsIcESaIcEEEN8nlohmann10basic_jsonISt3mapSt6vectorS6_blmdSaNS8_14adl_serializerEEEEESH_, .Lfunc_end79-_ZSteqRKSt17_Rb_tree_iteratorISt4pairIKNSt7__cxx1112basic_stringIcSt11char_traitsIcESaIcEEEN8nlohmann10basic_jsonISt3mapSt6vectorS6_blmdSaNS8_14adl_serializerEEEEESH_
                                        # -- End function
	.section	.text._ZNKSt4lessIvEclIRKNSt7__cxx1112basic_stringIcSt11char_traitsIcESaIcEEES9_EEDTltclsr3stdE7forwardIT_Efp_Eclsr3stdE7forwardIT0_Efp0_EEOSA_OSB_,"axG",@progbits,_ZNKSt4lessIvEclIRKNSt7__cxx1112basic_stringIcSt11char_traitsIcESaIcEEES9_EEDTltclsr3stdE7forwardIT_Efp_Eclsr3stdE7forwardIT0_Efp0_EEOSA_OSB_,comdat
	.weak	_ZNKSt4lessIvEclIRKNSt7__cxx1112basic_stringIcSt11char_traitsIcESaIcEEES9_EEDTltclsr3stdE7forwardIT_Efp_Eclsr3stdE7forwardIT0_Efp0_EEOSA_OSB_ # -- Begin function _ZNKSt4lessIvEclIRKNSt7__cxx1112basic_stringIcSt11char_traitsIcESaIcEEES9_EEDTltclsr3stdE7forwardIT_Efp_Eclsr3stdE7forwardIT0_Efp0_EEOSA_OSB_
	.p2align	2
	.type	_ZNKSt4lessIvEclIRKNSt7__cxx1112basic_stringIcSt11char_traitsIcESaIcEEES9_EEDTltclsr3stdE7forwardIT_Efp_Eclsr3stdE7forwardIT0_Efp0_EEOSA_OSB_,@function
_ZNKSt4lessIvEclIRKNSt7__cxx1112basic_stringIcSt11char_traitsIcESaIcEEES9_EEDTltclsr3stdE7forwardIT_Efp_Eclsr3stdE7forwardIT0_Efp0_EEOSA_OSB_: # @_ZNKSt4lessIvEclIRKNSt7__cxx1112basic_stringIcSt11char_traitsIcESaIcEEES9_EEDTltclsr3stdE7forwardIT_Efp_Eclsr3stdE7forwardIT0_Efp0_EEOSA_OSB_
.Lfunc_begin10:
	.cfi_startproc
	.cfi_personality 155, DW.ref.__gxx_personality_v0
	.cfi_lsda 27, .Lexception10
# %bb.0:                                # %entry
	addi	sp, sp, -64
	.cfi_def_cfa_offset 64
	sd	ra, 56(sp)
	sd	s0, 48(sp)
	sd	s1, 40(sp)
	.cfi_offset ra, -8
	.cfi_offset s0, -16
	.cfi_offset s1, -24
	addi	s0, sp, 64
	.cfi_def_cfa s0, 0
	sd	a0, -32(s0)
	sd	a1, -40(s0)
	sd	a2, -48(s0)
	ld	a0, -40(s0)
	call	_ZSt7forwardIRKNSt7__cxx1112basic_stringIcSt11char_traitsIcESaIcEEEEOT_RNSt16remove_referenceIS8_E4typeE
	mv	s1, a0
	ld	a0, -48(s0)
	call	_ZSt7forwardIRKNSt7__cxx1112basic_stringIcSt11char_traitsIcESaIcEEEEOT_RNSt16remove_referenceIS8_E4typeE
	mv	a1, a0
.Ltmp180:
	mv	a0, s1
	call	_ZNSt4lessIvE6_S_cmpIRKNSt7__cxx1112basic_stringIcSt11char_traitsIcESaIcEEES9_EEDcOT_OT0_St17integral_constantIbLb0EE
.Ltmp181:
	j	.LBB80_1
.LBB80_1:                               # %invoke.cont
	andi	a0, a0, 1
	ld	s1, 40(sp)
	ld	s0, 48(sp)
	.cfi_def_cfa sp, 64
	ld	ra, 56(sp)
	.cfi_restore ra
	.cfi_restore s0
	.cfi_restore s1
	addi	sp, sp, 64
	.cfi_def_cfa_offset 0
	ret
.LBB80_2:                               # %terminate.lpad
.Ltmp182:
	call	__clang_call_terminate
.Lfunc_end80:
	.size	_ZNKSt4lessIvEclIRKNSt7__cxx1112basic_stringIcSt11char_traitsIcESaIcEEES9_EEDTltclsr3stdE7forwardIT_Efp_Eclsr3stdE7forwardIT0_Efp0_EEOSA_OSB_, .Lfunc_end80-_ZNKSt4lessIvEclIRKNSt7__cxx1112basic_stringIcSt11char_traitsIcESaIcEEES9_EEDTltclsr3stdE7forwardIT_Efp_Eclsr3stdE7forwardIT0_Efp0_EEOSA_OSB_
	.cfi_endproc
	.section	.gcc_except_table,"a",@progbits
	.p2align	2
GCC_except_table80:
.Lexception10:
	.byte	255                     # @LPStart Encoding = omit
	.byte	155                     # @TType Encoding = indirect pcrel sdata4
	.uleb128 .Lttbase3-.Lttbaseref3
.Lttbaseref3:
	.byte	3                       # Call site Encoding = udata4
	.uleb128 .Lcst_end10-.Lcst_begin10
.Lcst_begin10:
	.word	.Ltmp180-.Lfunc_begin10 # >> Call Site 1 <<
	.word	.Ltmp181-.Ltmp180       #   Call between .Ltmp180 and .Ltmp181
	.word	.Ltmp182-.Lfunc_begin10 #     jumps to .Ltmp182
	.byte	1                       #   On action: 1
.Lcst_end10:
	.byte	1                       # >> Action Record 1 <<
                                        #   Catch TypeInfo 1
	.byte	0                       #   No further actions
	.p2align	2
                                        # >> Catch TypeInfos <<
	.word	0                       # TypeInfo 1
.Lttbase3:
	.p2align	2
                                        # -- End function
	.section	.text._ZNSt8_Rb_treeINSt7__cxx1112basic_stringIcSt11char_traitsIcESaIcEEESt4pairIKS5_N8nlohmann10basic_jsonISt3mapSt6vectorS5_blmdSaNS8_14adl_serializerEEEESt10_Select1stISE_ESt4lessIvESaISE_EE6_S_keyEPKSt18_Rb_tree_node_base,"axG",@progbits,_ZNSt8_Rb_treeINSt7__cxx1112basic_stringIcSt11char_traitsIcESaIcEEESt4pairIKS5_N8nlohmann10basic_jsonISt3mapSt6vectorS5_blmdSaNS8_14adl_serializerEEEESt10_Select1stISE_ESt4lessIvESaISE_EE6_S_keyEPKSt18_Rb_tree_node_base,comdat
	.weak	_ZNSt8_Rb_treeINSt7__cxx1112basic_stringIcSt11char_traitsIcESaIcEEESt4pairIKS5_N8nlohmann10basic_jsonISt3mapSt6vectorS5_blmdSaNS8_14adl_serializerEEEESt10_Select1stISE_ESt4lessIvESaISE_EE6_S_keyEPKSt18_Rb_tree_node_base # -- Begin function _ZNSt8_Rb_treeINSt7__cxx1112basic_stringIcSt11char_traitsIcESaIcEEESt4pairIKS5_N8nlohmann10basic_jsonISt3mapSt6vectorS5_blmdSaNS8_14adl_serializerEEEESt10_Select1stISE_ESt4lessIvESaISE_EE6_S_keyEPKSt18_Rb_tree_node_base
	.p2align	2
	.type	_ZNSt8_Rb_treeINSt7__cxx1112basic_stringIcSt11char_traitsIcESaIcEEESt4pairIKS5_N8nlohmann10basic_jsonISt3mapSt6vectorS5_blmdSaNS8_14adl_serializerEEEESt10_Select1stISE_ESt4lessIvESaISE_EE6_S_keyEPKSt18_Rb_tree_node_base,@function
_ZNSt8_Rb_treeINSt7__cxx1112basic_stringIcSt11char_traitsIcESaIcEEESt4pairIKS5_N8nlohmann10basic_jsonISt3mapSt6vectorS5_blmdSaNS8_14adl_serializerEEEESt10_Select1stISE_ESt4lessIvESaISE_EE6_S_keyEPKSt18_Rb_tree_node_base: # @_ZNSt8_Rb_treeINSt7__cxx1112basic_stringIcSt11char_traitsIcESaIcEEESt4pairIKS5_N8nlohmann10basic_jsonISt3mapSt6vectorS5_blmdSaNS8_14adl_serializerEEEESt10_Select1stISE_ESt4lessIvESaISE_EE6_S_keyEPKSt18_Rb_tree_node_base
	.cfi_startproc
# %bb.0:                                # %entry
	addi	sp, sp, -32
	.cfi_def_cfa_offset 32
	sd	ra, 24(sp)
	sd	s0, 16(sp)
	.cfi_offset ra, -8
	.cfi_offset s0, -16
	addi	s0, sp, 32
	.cfi_def_cfa s0, 0
	sd	a0, -24(s0)
	ld	a0, -24(s0)
	call	_ZNSt8_Rb_treeINSt7__cxx1112basic_stringIcSt11char_traitsIcESaIcEEESt4pairIKS5_N8nlohmann10basic_jsonISt3mapSt6vectorS5_blmdSaNS8_14adl_serializerEEEESt10_Select1stISE_ESt4lessIvESaISE_EE6_S_keyEPKSt13_Rb_tree_nodeISE_E
	ld	s0, 16(sp)
	.cfi_def_cfa sp, 32
	ld	ra, 24(sp)
	.cfi_restore ra
	.cfi_restore s0
	addi	sp, sp, 32
	.cfi_def_cfa_offset 0
	ret
.Lfunc_end81:
	.size	_ZNSt8_Rb_treeINSt7__cxx1112basic_stringIcSt11char_traitsIcESaIcEEESt4pairIKS5_N8nlohmann10basic_jsonISt3mapSt6vectorS5_blmdSaNS8_14adl_serializerEEEESt10_Select1stISE_ESt4lessIvESaISE_EE6_S_keyEPKSt18_Rb_tree_node_base, .Lfunc_end81-_ZNSt8_Rb_treeINSt7__cxx1112basic_stringIcSt11char_traitsIcESaIcEEESt4pairIKS5_N8nlohmann10basic_jsonISt3mapSt6vectorS5_blmdSaNS8_14adl_serializerEEEESt10_Select1stISE_ESt4lessIvESaISE_EE6_S_keyEPKSt18_Rb_tree_node_base
	.cfi_endproc
                                        # -- End function
	.section	.text._ZNSt8_Rb_treeINSt7__cxx1112basic_stringIcSt11char_traitsIcESaIcEEESt4pairIKS5_N8nlohmann10basic_jsonISt3mapSt6vectorS5_blmdSaNS8_14adl_serializerEEEESt10_Select1stISE_ESt4lessIvESaISE_EE6_S_keyEPKSt13_Rb_tree_nodeISE_E,"axG",@progbits,_ZNSt8_Rb_treeINSt7__cxx1112basic_stringIcSt11char_traitsIcESaIcEEESt4pairIKS5_N8nlohmann10basic_jsonISt3mapSt6vectorS5_blmdSaNS8_14adl_serializerEEEESt10_Select1stISE_ESt4lessIvESaISE_EE6_S_keyEPKSt13_Rb_tree_nodeISE_E,comdat
	.weak	_ZNSt8_Rb_treeINSt7__cxx1112basic_stringIcSt11char_traitsIcESaIcEEESt4pairIKS5_N8nlohmann10basic_jsonISt3mapSt6vectorS5_blmdSaNS8_14adl_serializerEEEESt10_Select1stISE_ESt4lessIvESaISE_EE6_S_keyEPKSt13_Rb_tree_nodeISE_E # -- Begin function _ZNSt8_Rb_treeINSt7__cxx1112basic_stringIcSt11char_traitsIcESaIcEEESt4pairIKS5_N8nlohmann10basic_jsonISt3mapSt6vectorS5_blmdSaNS8_14adl_serializerEEEESt10_Select1stISE_ESt4lessIvESaISE_EE6_S_keyEPKSt13_Rb_tree_nodeISE_E
	.p2align	2
	.type	_ZNSt8_Rb_treeINSt7__cxx1112basic_stringIcSt11char_traitsIcESaIcEEESt4pairIKS5_N8nlohmann10basic_jsonISt3mapSt6vectorS5_blmdSaNS8_14adl_serializerEEEESt10_Select1stISE_ESt4lessIvESaISE_EE6_S_keyEPKSt13_Rb_tree_nodeISE_E,@function
_ZNSt8_Rb_treeINSt7__cxx1112basic_stringIcSt11char_traitsIcESaIcEEESt4pairIKS5_N8nlohmann10basic_jsonISt3mapSt6vectorS5_blmdSaNS8_14adl_serializerEEEESt10_Select1stISE_ESt4lessIvESaISE_EE6_S_keyEPKSt13_Rb_tree_nodeISE_E: # @_ZNSt8_Rb_treeINSt7__cxx1112basic_stringIcSt11char_traitsIcESaIcEEESt4pairIKS5_N8nlohmann10basic_jsonISt3mapSt6vectorS5_blmdSaNS8_14adl_serializerEEEESt10_Select1stISE_ESt4lessIvESaISE_EE6_S_keyEPKSt13_Rb_tree_nodeISE_E
	.cfi_startproc
# %bb.0:                                # %entry
	addi	sp, sp, -32
	.cfi_def_cfa_offset 32
	sd	ra, 24(sp)
	sd	s0, 16(sp)
	.cfi_offset ra, -8
	.cfi_offset s0, -16
	addi	s0, sp, 32
	.cfi_def_cfa s0, 0
	sd	a0, -24(s0)
	ld	a0, -24(s0)
	call	_ZNKSt13_Rb_tree_nodeISt4pairIKNSt7__cxx1112basic_stringIcSt11char_traitsIcESaIcEEEN8nlohmann10basic_jsonISt3mapSt6vectorS6_blmdSaNS8_14adl_serializerEEEEE9_M_valptrEv
	mv	a1, a0
	addi	a0, s0, -32
	call	_ZNKSt10_Select1stISt4pairIKNSt7__cxx1112basic_stringIcSt11char_traitsIcESaIcEEEN8nlohmann10basic_jsonISt3mapSt6vectorS6_blmdSaNS8_14adl_serializerEEEEEclERKSE_
	ld	s0, 16(sp)
	.cfi_def_cfa sp, 32
	ld	ra, 24(sp)
	.cfi_restore ra
	.cfi_restore s0
	addi	sp, sp, 32
	.cfi_def_cfa_offset 0
	ret
.Lfunc_end82:
	.size	_ZNSt8_Rb_treeINSt7__cxx1112basic_stringIcSt11char_traitsIcESaIcEEESt4pairIKS5_N8nlohmann10basic_jsonISt3mapSt6vectorS5_blmdSaNS8_14adl_serializerEEEESt10_Select1stISE_ESt4lessIvESaISE_EE6_S_keyEPKSt13_Rb_tree_nodeISE_E, .Lfunc_end82-_ZNSt8_Rb_treeINSt7__cxx1112basic_stringIcSt11char_traitsIcESaIcEEESt4pairIKS5_N8nlohmann10basic_jsonISt3mapSt6vectorS5_blmdSaNS8_14adl_serializerEEEESt10_Select1stISE_ESt4lessIvESaISE_EE6_S_keyEPKSt13_Rb_tree_nodeISE_E
	.cfi_endproc
                                        # -- End function
	.section	.text._ZNSt8_Rb_treeINSt7__cxx1112basic_stringIcSt11char_traitsIcESaIcEEESt4pairIKS5_N8nlohmann10basic_jsonISt3mapSt6vectorS5_blmdSaNS8_14adl_serializerEEEESt10_Select1stISE_ESt4lessIvESaISE_EE7_S_leftEPSt18_Rb_tree_node_base,"axG",@progbits,_ZNSt8_Rb_treeINSt7__cxx1112basic_stringIcSt11char_traitsIcESaIcEEESt4pairIKS5_N8nlohmann10basic_jsonISt3mapSt6vectorS5_blmdSaNS8_14adl_serializerEEEESt10_Select1stISE_ESt4lessIvESaISE_EE7_S_leftEPSt18_Rb_tree_node_base,comdat
	.weak	_ZNSt8_Rb_treeINSt7__cxx1112basic_stringIcSt11char_traitsIcESaIcEEESt4pairIKS5_N8nlohmann10basic_jsonISt3mapSt6vectorS5_blmdSaNS8_14adl_serializerEEEESt10_Select1stISE_ESt4lessIvESaISE_EE7_S_leftEPSt18_Rb_tree_node_base # -- Begin function _ZNSt8_Rb_treeINSt7__cxx1112basic_stringIcSt11char_traitsIcESaIcEEESt4pairIKS5_N8nlohmann10basic_jsonISt3mapSt6vectorS5_blmdSaNS8_14adl_serializerEEEESt10_Select1stISE_ESt4lessIvESaISE_EE7_S_leftEPSt18_Rb_tree_node_base
	.p2align	2
	.type	_ZNSt8_Rb_treeINSt7__cxx1112basic_stringIcSt11char_traitsIcESaIcEEESt4pairIKS5_N8nlohmann10basic_jsonISt3mapSt6vectorS5_blmdSaNS8_14adl_serializerEEEESt10_Select1stISE_ESt4lessIvESaISE_EE7_S_leftEPSt18_Rb_tree_node_base,@function
_ZNSt8_Rb_treeINSt7__cxx1112basic_stringIcSt11char_traitsIcESaIcEEESt4pairIKS5_N8nlohmann10basic_jsonISt3mapSt6vectorS5_blmdSaNS8_14adl_serializerEEEESt10_Select1stISE_ESt4lessIvESaISE_EE7_S_leftEPSt18_Rb_tree_node_base: # @_ZNSt8_Rb_treeINSt7__cxx1112basic_stringIcSt11char_traitsIcESaIcEEESt4pairIKS5_N8nlohmann10basic_jsonISt3mapSt6vectorS5_blmdSaNS8_14adl_serializerEEEESt10_Select1stISE_ESt4lessIvESaISE_EE7_S_leftEPSt18_Rb_tree_node_base
# %bb.0:                                # %entry
	addi	sp, sp, -32
	sd	ra, 24(sp)
	sd	s0, 16(sp)
	addi	s0, sp, 32
	sd	a0, -24(s0)
	ld	a0, -24(s0)
	ld	a0, 16(a0)
	ld	s0, 16(sp)
	ld	ra, 24(sp)
	addi	sp, sp, 32
	ret
.Lfunc_end83:
	.size	_ZNSt8_Rb_treeINSt7__cxx1112basic_stringIcSt11char_traitsIcESaIcEEESt4pairIKS5_N8nlohmann10basic_jsonISt3mapSt6vectorS5_blmdSaNS8_14adl_serializerEEEESt10_Select1stISE_ESt4lessIvESaISE_EE7_S_leftEPSt18_Rb_tree_node_base, .Lfunc_end83-_ZNSt8_Rb_treeINSt7__cxx1112basic_stringIcSt11char_traitsIcESaIcEEESt4pairIKS5_N8nlohmann10basic_jsonISt3mapSt6vectorS5_blmdSaNS8_14adl_serializerEEEESt10_Select1stISE_ESt4lessIvESaISE_EE7_S_leftEPSt18_Rb_tree_node_base
                                        # -- End function
	.section	.text._ZNSt8_Rb_treeINSt7__cxx1112basic_stringIcSt11char_traitsIcESaIcEEESt4pairIKS5_N8nlohmann10basic_jsonISt3mapSt6vectorS5_blmdSaNS8_14adl_serializerEEEESt10_Select1stISE_ESt4lessIvESaISE_EE8_S_rightEPSt18_Rb_tree_node_base,"axG",@progbits,_ZNSt8_Rb_treeINSt7__cxx1112basic_stringIcSt11char_traitsIcESaIcEEESt4pairIKS5_N8nlohmann10basic_jsonISt3mapSt6vectorS5_blmdSaNS8_14adl_serializerEEEESt10_Select1stISE_ESt4lessIvESaISE_EE8_S_rightEPSt18_Rb_tree_node_base,comdat
	.weak	_ZNSt8_Rb_treeINSt7__cxx1112basic_stringIcSt11char_traitsIcESaIcEEESt4pairIKS5_N8nlohmann10basic_jsonISt3mapSt6vectorS5_blmdSaNS8_14adl_serializerEEEESt10_Select1stISE_ESt4lessIvESaISE_EE8_S_rightEPSt18_Rb_tree_node_base # -- Begin function _ZNSt8_Rb_treeINSt7__cxx1112basic_stringIcSt11char_traitsIcESaIcEEESt4pairIKS5_N8nlohmann10basic_jsonISt3mapSt6vectorS5_blmdSaNS8_14adl_serializerEEEESt10_Select1stISE_ESt4lessIvESaISE_EE8_S_rightEPSt18_Rb_tree_node_base
	.p2align	2
	.type	_ZNSt8_Rb_treeINSt7__cxx1112basic_stringIcSt11char_traitsIcESaIcEEESt4pairIKS5_N8nlohmann10basic_jsonISt3mapSt6vectorS5_blmdSaNS8_14adl_serializerEEEESt10_Select1stISE_ESt4lessIvESaISE_EE8_S_rightEPSt18_Rb_tree_node_base,@function
_ZNSt8_Rb_treeINSt7__cxx1112basic_stringIcSt11char_traitsIcESaIcEEESt4pairIKS5_N8nlohmann10basic_jsonISt3mapSt6vectorS5_blmdSaNS8_14adl_serializerEEEESt10_Select1stISE_ESt4lessIvESaISE_EE8_S_rightEPSt18_Rb_tree_node_base: # @_ZNSt8_Rb_treeINSt7__cxx1112basic_stringIcSt11char_traitsIcESaIcEEESt4pairIKS5_N8nlohmann10basic_jsonISt3mapSt6vectorS5_blmdSaNS8_14adl_serializerEEEESt10_Select1stISE_ESt4lessIvESaISE_EE8_S_rightEPSt18_Rb_tree_node_base
# %bb.0:                                # %entry
	addi	sp, sp, -32
	sd	ra, 24(sp)
	sd	s0, 16(sp)
	addi	s0, sp, 32
	sd	a0, -24(s0)
	ld	a0, -24(s0)
	ld	a0, 24(a0)
	ld	s0, 16(sp)
	ld	ra, 24(sp)
	addi	sp, sp, 32
	ret
.Lfunc_end84:
	.size	_ZNSt8_Rb_treeINSt7__cxx1112basic_stringIcSt11char_traitsIcESaIcEEESt4pairIKS5_N8nlohmann10basic_jsonISt3mapSt6vectorS5_blmdSaNS8_14adl_serializerEEEESt10_Select1stISE_ESt4lessIvESaISE_EE8_S_rightEPSt18_Rb_tree_node_base, .Lfunc_end84-_ZNSt8_Rb_treeINSt7__cxx1112basic_stringIcSt11char_traitsIcESaIcEEESt4pairIKS5_N8nlohmann10basic_jsonISt3mapSt6vectorS5_blmdSaNS8_14adl_serializerEEEESt10_Select1stISE_ESt4lessIvESaISE_EE8_S_rightEPSt18_Rb_tree_node_base
                                        # -- End function
	.section	.text._ZNKSt10_Select1stISt4pairIKNSt7__cxx1112basic_stringIcSt11char_traitsIcESaIcEEEN8nlohmann10basic_jsonISt3mapSt6vectorS6_blmdSaNS8_14adl_serializerEEEEEclERKSE_,"axG",@progbits,_ZNKSt10_Select1stISt4pairIKNSt7__cxx1112basic_stringIcSt11char_traitsIcESaIcEEEN8nlohmann10basic_jsonISt3mapSt6vectorS6_blmdSaNS8_14adl_serializerEEEEEclERKSE_,comdat
	.weak	_ZNKSt10_Select1stISt4pairIKNSt7__cxx1112basic_stringIcSt11char_traitsIcESaIcEEEN8nlohmann10basic_jsonISt3mapSt6vectorS6_blmdSaNS8_14adl_serializerEEEEEclERKSE_ # -- Begin function _ZNKSt10_Select1stISt4pairIKNSt7__cxx1112basic_stringIcSt11char_traitsIcESaIcEEEN8nlohmann10basic_jsonISt3mapSt6vectorS6_blmdSaNS8_14adl_serializerEEEEEclERKSE_
	.p2align	2
	.type	_ZNKSt10_Select1stISt4pairIKNSt7__cxx1112basic_stringIcSt11char_traitsIcESaIcEEEN8nlohmann10basic_jsonISt3mapSt6vectorS6_blmdSaNS8_14adl_serializerEEEEEclERKSE_,@function
_ZNKSt10_Select1stISt4pairIKNSt7__cxx1112basic_stringIcSt11char_traitsIcESaIcEEEN8nlohmann10basic_jsonISt3mapSt6vectorS6_blmdSaNS8_14adl_serializerEEEEEclERKSE_: # @_ZNKSt10_Select1stISt4pairIKNSt7__cxx1112basic_stringIcSt11char_traitsIcESaIcEEEN8nlohmann10basic_jsonISt3mapSt6vectorS6_blmdSaNS8_14adl_serializerEEEEEclERKSE_
# %bb.0:                                # %entry
	addi	sp, sp, -32
	sd	ra, 24(sp)
	sd	s0, 16(sp)
	addi	s0, sp, 32
	sd	a0, -24(s0)
	sd	a1, -32(s0)
	ld	a0, -32(s0)
	ld	s0, 16(sp)
	ld	ra, 24(sp)
	addi	sp, sp, 32
	ret
.Lfunc_end85:
	.size	_ZNKSt10_Select1stISt4pairIKNSt7__cxx1112basic_stringIcSt11char_traitsIcESaIcEEEN8nlohmann10basic_jsonISt3mapSt6vectorS6_blmdSaNS8_14adl_serializerEEEEEclERKSE_, .Lfunc_end85-_ZNKSt10_Select1stISt4pairIKNSt7__cxx1112basic_stringIcSt11char_traitsIcESaIcEEEN8nlohmann10basic_jsonISt3mapSt6vectorS6_blmdSaNS8_14adl_serializerEEEEEclERKSE_
                                        # -- End function
	.section	.text._ZNKSt13_Rb_tree_nodeISt4pairIKNSt7__cxx1112basic_stringIcSt11char_traitsIcESaIcEEEN8nlohmann10basic_jsonISt3mapSt6vectorS6_blmdSaNS8_14adl_serializerEEEEE9_M_valptrEv,"axG",@progbits,_ZNKSt13_Rb_tree_nodeISt4pairIKNSt7__cxx1112basic_stringIcSt11char_traitsIcESaIcEEEN8nlohmann10basic_jsonISt3mapSt6vectorS6_blmdSaNS8_14adl_serializerEEEEE9_M_valptrEv,comdat
	.weak	_ZNKSt13_Rb_tree_nodeISt4pairIKNSt7__cxx1112basic_stringIcSt11char_traitsIcESaIcEEEN8nlohmann10basic_jsonISt3mapSt6vectorS6_blmdSaNS8_14adl_serializerEEEEE9_M_valptrEv # -- Begin function _ZNKSt13_Rb_tree_nodeISt4pairIKNSt7__cxx1112basic_stringIcSt11char_traitsIcESaIcEEEN8nlohmann10basic_jsonISt3mapSt6vectorS6_blmdSaNS8_14adl_serializerEEEEE9_M_valptrEv
	.p2align	2
	.type	_ZNKSt13_Rb_tree_nodeISt4pairIKNSt7__cxx1112basic_stringIcSt11char_traitsIcESaIcEEEN8nlohmann10basic_jsonISt3mapSt6vectorS6_blmdSaNS8_14adl_serializerEEEEE9_M_valptrEv,@function
_ZNKSt13_Rb_tree_nodeISt4pairIKNSt7__cxx1112basic_stringIcSt11char_traitsIcESaIcEEEN8nlohmann10basic_jsonISt3mapSt6vectorS6_blmdSaNS8_14adl_serializerEEEEE9_M_valptrEv: # @_ZNKSt13_Rb_tree_nodeISt4pairIKNSt7__cxx1112basic_stringIcSt11char_traitsIcESaIcEEEN8nlohmann10basic_jsonISt3mapSt6vectorS6_blmdSaNS8_14adl_serializerEEEEE9_M_valptrEv
# %bb.0:                                # %entry
	addi	sp, sp, -32
	sd	ra, 24(sp)
	sd	s0, 16(sp)
	addi	s0, sp, 32
	sd	a0, -24(s0)
	ld	a0, -24(s0)
	addi	a0, a0, 32
	call	_ZNK9__gnu_cxx16__aligned_membufISt4pairIKNSt7__cxx1112basic_stringIcSt11char_traitsIcESaIcEEEN8nlohmann10basic_jsonISt3mapSt6vectorS7_blmdSaNS9_14adl_serializerEEEEE6_M_ptrEv
	ld	s0, 16(sp)
	ld	ra, 24(sp)
	addi	sp, sp, 32
	ret
.Lfunc_end86:
	.size	_ZNKSt13_Rb_tree_nodeISt4pairIKNSt7__cxx1112basic_stringIcSt11char_traitsIcESaIcEEEN8nlohmann10basic_jsonISt3mapSt6vectorS6_blmdSaNS8_14adl_serializerEEEEE9_M_valptrEv, .Lfunc_end86-_ZNKSt13_Rb_tree_nodeISt4pairIKNSt7__cxx1112basic_stringIcSt11char_traitsIcESaIcEEEN8nlohmann10basic_jsonISt3mapSt6vectorS6_blmdSaNS8_14adl_serializerEEEEE9_M_valptrEv
                                        # -- End function
	.section	.text._ZNK9__gnu_cxx16__aligned_membufISt4pairIKNSt7__cxx1112basic_stringIcSt11char_traitsIcESaIcEEEN8nlohmann10basic_jsonISt3mapSt6vectorS7_blmdSaNS9_14adl_serializerEEEEE6_M_ptrEv,"axG",@progbits,_ZNK9__gnu_cxx16__aligned_membufISt4pairIKNSt7__cxx1112basic_stringIcSt11char_traitsIcESaIcEEEN8nlohmann10basic_jsonISt3mapSt6vectorS7_blmdSaNS9_14adl_serializerEEEEE6_M_ptrEv,comdat
	.weak	_ZNK9__gnu_cxx16__aligned_membufISt4pairIKNSt7__cxx1112basic_stringIcSt11char_traitsIcESaIcEEEN8nlohmann10basic_jsonISt3mapSt6vectorS7_blmdSaNS9_14adl_serializerEEEEE6_M_ptrEv # -- Begin function _ZNK9__gnu_cxx16__aligned_membufISt4pairIKNSt7__cxx1112basic_stringIcSt11char_traitsIcESaIcEEEN8nlohmann10basic_jsonISt3mapSt6vectorS7_blmdSaNS9_14adl_serializerEEEEE6_M_ptrEv
	.p2align	2
	.type	_ZNK9__gnu_cxx16__aligned_membufISt4pairIKNSt7__cxx1112basic_stringIcSt11char_traitsIcESaIcEEEN8nlohmann10basic_jsonISt3mapSt6vectorS7_blmdSaNS9_14adl_serializerEEEEE6_M_ptrEv,@function
_ZNK9__gnu_cxx16__aligned_membufISt4pairIKNSt7__cxx1112basic_stringIcSt11char_traitsIcESaIcEEEN8nlohmann10basic_jsonISt3mapSt6vectorS7_blmdSaNS9_14adl_serializerEEEEE6_M_ptrEv: # @_ZNK9__gnu_cxx16__aligned_membufISt4pairIKNSt7__cxx1112basic_stringIcSt11char_traitsIcESaIcEEEN8nlohmann10basic_jsonISt3mapSt6vectorS7_blmdSaNS9_14adl_serializerEEEEE6_M_ptrEv
# %bb.0:                                # %entry
	addi	sp, sp, -32
	sd	ra, 24(sp)
	sd	s0, 16(sp)
	addi	s0, sp, 32
	sd	a0, -24(s0)
	ld	a0, -24(s0)
	call	_ZNK9__gnu_cxx16__aligned_membufISt4pairIKNSt7__cxx1112basic_stringIcSt11char_traitsIcESaIcEEEN8nlohmann10basic_jsonISt3mapSt6vectorS7_blmdSaNS9_14adl_serializerEEEEE7_M_addrEv
	ld	s0, 16(sp)
	ld	ra, 24(sp)
	addi	sp, sp, 32
	ret
.Lfunc_end87:
	.size	_ZNK9__gnu_cxx16__aligned_membufISt4pairIKNSt7__cxx1112basic_stringIcSt11char_traitsIcESaIcEEEN8nlohmann10basic_jsonISt3mapSt6vectorS7_blmdSaNS9_14adl_serializerEEEEE6_M_ptrEv, .Lfunc_end87-_ZNK9__gnu_cxx16__aligned_membufISt4pairIKNSt7__cxx1112basic_stringIcSt11char_traitsIcESaIcEEEN8nlohmann10basic_jsonISt3mapSt6vectorS7_blmdSaNS9_14adl_serializerEEEEE6_M_ptrEv
                                        # -- End function
	.section	.text._ZNK9__gnu_cxx16__aligned_membufISt4pairIKNSt7__cxx1112basic_stringIcSt11char_traitsIcESaIcEEEN8nlohmann10basic_jsonISt3mapSt6vectorS7_blmdSaNS9_14adl_serializerEEEEE7_M_addrEv,"axG",@progbits,_ZNK9__gnu_cxx16__aligned_membufISt4pairIKNSt7__cxx1112basic_stringIcSt11char_traitsIcESaIcEEEN8nlohmann10basic_jsonISt3mapSt6vectorS7_blmdSaNS9_14adl_serializerEEEEE7_M_addrEv,comdat
	.weak	_ZNK9__gnu_cxx16__aligned_membufISt4pairIKNSt7__cxx1112basic_stringIcSt11char_traitsIcESaIcEEEN8nlohmann10basic_jsonISt3mapSt6vectorS7_blmdSaNS9_14adl_serializerEEEEE7_M_addrEv # -- Begin function _ZNK9__gnu_cxx16__aligned_membufISt4pairIKNSt7__cxx1112basic_stringIcSt11char_traitsIcESaIcEEEN8nlohmann10basic_jsonISt3mapSt6vectorS7_blmdSaNS9_14adl_serializerEEEEE7_M_addrEv
	.p2align	2
	.type	_ZNK9__gnu_cxx16__aligned_membufISt4pairIKNSt7__cxx1112basic_stringIcSt11char_traitsIcESaIcEEEN8nlohmann10basic_jsonISt3mapSt6vectorS7_blmdSaNS9_14adl_serializerEEEEE7_M_addrEv,@function
_ZNK9__gnu_cxx16__aligned_membufISt4pairIKNSt7__cxx1112basic_stringIcSt11char_traitsIcESaIcEEEN8nlohmann10basic_jsonISt3mapSt6vectorS7_blmdSaNS9_14adl_serializerEEEEE7_M_addrEv: # @_ZNK9__gnu_cxx16__aligned_membufISt4pairIKNSt7__cxx1112basic_stringIcSt11char_traitsIcESaIcEEEN8nlohmann10basic_jsonISt3mapSt6vectorS7_blmdSaNS9_14adl_serializerEEEEE7_M_addrEv
# %bb.0:                                # %entry
	addi	sp, sp, -32
	sd	ra, 24(sp)
	sd	s0, 16(sp)
	addi	s0, sp, 32
	sd	a0, -24(s0)
	ld	a0, -24(s0)
	ld	s0, 16(sp)
	ld	ra, 24(sp)
	addi	sp, sp, 32
	ret
.Lfunc_end88:
	.size	_ZNK9__gnu_cxx16__aligned_membufISt4pairIKNSt7__cxx1112basic_stringIcSt11char_traitsIcESaIcEEEN8nlohmann10basic_jsonISt3mapSt6vectorS7_blmdSaNS9_14adl_serializerEEEEE7_M_addrEv, .Lfunc_end88-_ZNK9__gnu_cxx16__aligned_membufISt4pairIKNSt7__cxx1112basic_stringIcSt11char_traitsIcESaIcEEEN8nlohmann10basic_jsonISt3mapSt6vectorS7_blmdSaNS9_14adl_serializerEEEEE7_M_addrEv
                                        # -- End function
	.section	.text._ZNKSt8_Rb_treeINSt7__cxx1112basic_stringIcSt11char_traitsIcESaIcEEESt4pairIKS5_N8nlohmann10basic_jsonISt3mapSt6vectorS5_blmdSaNS8_14adl_serializerEEEESt10_Select1stISE_ESt4lessIvESaISE_EE9_M_mbeginEv,"axG",@progbits,_ZNKSt8_Rb_treeINSt7__cxx1112basic_stringIcSt11char_traitsIcESaIcEEESt4pairIKS5_N8nlohmann10basic_jsonISt3mapSt6vectorS5_blmdSaNS8_14adl_serializerEEEESt10_Select1stISE_ESt4lessIvESaISE_EE9_M_mbeginEv,comdat
	.weak	_ZNKSt8_Rb_treeINSt7__cxx1112basic_stringIcSt11char_traitsIcESaIcEEESt4pairIKS5_N8nlohmann10basic_jsonISt3mapSt6vectorS5_blmdSaNS8_14adl_serializerEEEESt10_Select1stISE_ESt4lessIvESaISE_EE9_M_mbeginEv # -- Begin function _ZNKSt8_Rb_treeINSt7__cxx1112basic_stringIcSt11char_traitsIcESaIcEEESt4pairIKS5_N8nlohmann10basic_jsonISt3mapSt6vectorS5_blmdSaNS8_14adl_serializerEEEESt10_Select1stISE_ESt4lessIvESaISE_EE9_M_mbeginEv
	.p2align	2
	.type	_ZNKSt8_Rb_treeINSt7__cxx1112basic_stringIcSt11char_traitsIcESaIcEEESt4pairIKS5_N8nlohmann10basic_jsonISt3mapSt6vectorS5_blmdSaNS8_14adl_serializerEEEESt10_Select1stISE_ESt4lessIvESaISE_EE9_M_mbeginEv,@function
_ZNKSt8_Rb_treeINSt7__cxx1112basic_stringIcSt11char_traitsIcESaIcEEESt4pairIKS5_N8nlohmann10basic_jsonISt3mapSt6vectorS5_blmdSaNS8_14adl_serializerEEEESt10_Select1stISE_ESt4lessIvESaISE_EE9_M_mbeginEv: # @_ZNKSt8_Rb_treeINSt7__cxx1112basic_stringIcSt11char_traitsIcESaIcEEESt4pairIKS5_N8nlohmann10basic_jsonISt3mapSt6vectorS5_blmdSaNS8_14adl_serializerEEEESt10_Select1stISE_ESt4lessIvESaISE_EE9_M_mbeginEv
# %bb.0:                                # %entry
	addi	sp, sp, -32
	sd	ra, 24(sp)
	sd	s0, 16(sp)
	addi	s0, sp, 32
	sd	a0, -24(s0)
	ld	a0, -24(s0)
	ld	a0, 16(a0)
	ld	s0, 16(sp)
	ld	ra, 24(sp)
	addi	sp, sp, 32
	ret
.Lfunc_end89:
	.size	_ZNKSt8_Rb_treeINSt7__cxx1112basic_stringIcSt11char_traitsIcESaIcEEESt4pairIKS5_N8nlohmann10basic_jsonISt3mapSt6vectorS5_blmdSaNS8_14adl_serializerEEEESt10_Select1stISE_ESt4lessIvESaISE_EE9_M_mbeginEv, .Lfunc_end89-_ZNKSt8_Rb_treeINSt7__cxx1112basic_stringIcSt11char_traitsIcESaIcEEESt4pairIKS5_N8nlohmann10basic_jsonISt3mapSt6vectorS5_blmdSaNS8_14adl_serializerEEEESt10_Select1stISE_ESt4lessIvESaISE_EE9_M_mbeginEv
                                        # -- End function
	.section	.text._ZNSt4lessIvE6_S_cmpIRKNSt7__cxx1112basic_stringIcSt11char_traitsIcESaIcEEES9_EEDcOT_OT0_St17integral_constantIbLb0EE,"axG",@progbits,_ZNSt4lessIvE6_S_cmpIRKNSt7__cxx1112basic_stringIcSt11char_traitsIcESaIcEEES9_EEDcOT_OT0_St17integral_constantIbLb0EE,comdat
	.weak	_ZNSt4lessIvE6_S_cmpIRKNSt7__cxx1112basic_stringIcSt11char_traitsIcESaIcEEES9_EEDcOT_OT0_St17integral_constantIbLb0EE # -- Begin function _ZNSt4lessIvE6_S_cmpIRKNSt7__cxx1112basic_stringIcSt11char_traitsIcESaIcEEES9_EEDcOT_OT0_St17integral_constantIbLb0EE
	.p2align	2
	.type	_ZNSt4lessIvE6_S_cmpIRKNSt7__cxx1112basic_stringIcSt11char_traitsIcESaIcEEES9_EEDcOT_OT0_St17integral_constantIbLb0EE,@function
_ZNSt4lessIvE6_S_cmpIRKNSt7__cxx1112basic_stringIcSt11char_traitsIcESaIcEEES9_EEDcOT_OT0_St17integral_constantIbLb0EE: # @_ZNSt4lessIvE6_S_cmpIRKNSt7__cxx1112basic_stringIcSt11char_traitsIcESaIcEEES9_EEDcOT_OT0_St17integral_constantIbLb0EE
# %bb.0:                                # %entry
	addi	sp, sp, -48
	sd	ra, 40(sp)
	sd	s0, 32(sp)
	sd	s1, 24(sp)
	addi	s0, sp, 48
	sd	a0, -40(s0)
	sd	a1, -48(s0)
	ld	a0, -40(s0)
	call	_ZSt7forwardIRKNSt7__cxx1112basic_stringIcSt11char_traitsIcESaIcEEEEOT_RNSt16remove_referenceIS8_E4typeE
	mv	s1, a0
	ld	a0, -48(s0)
	call	_ZSt7forwardIRKNSt7__cxx1112basic_stringIcSt11char_traitsIcESaIcEEEEOT_RNSt16remove_referenceIS8_E4typeE
	mv	a1, a0
	mv	a0, s1
	call	_ZStltIcSt11char_traitsIcESaIcEEbRKNSt7__cxx1112basic_stringIT_T0_T1_EESA_
	ld	s1, 24(sp)
	ld	s0, 32(sp)
	ld	ra, 40(sp)
	addi	sp, sp, 48
	ret
.Lfunc_end90:
	.size	_ZNSt4lessIvE6_S_cmpIRKNSt7__cxx1112basic_stringIcSt11char_traitsIcESaIcEEES9_EEDcOT_OT0_St17integral_constantIbLb0EE, .Lfunc_end90-_ZNSt4lessIvE6_S_cmpIRKNSt7__cxx1112basic_stringIcSt11char_traitsIcESaIcEEES9_EEDcOT_OT0_St17integral_constantIbLb0EE
                                        # -- End function
	.section	.text._ZStltIcSt11char_traitsIcESaIcEEbRKNSt7__cxx1112basic_stringIT_T0_T1_EESA_,"axG",@progbits,_ZStltIcSt11char_traitsIcESaIcEEbRKNSt7__cxx1112basic_stringIT_T0_T1_EESA_,comdat
	.weak	_ZStltIcSt11char_traitsIcESaIcEEbRKNSt7__cxx1112basic_stringIT_T0_T1_EESA_ # -- Begin function _ZStltIcSt11char_traitsIcESaIcEEbRKNSt7__cxx1112basic_stringIT_T0_T1_EESA_
	.p2align	2
	.type	_ZStltIcSt11char_traitsIcESaIcEEbRKNSt7__cxx1112basic_stringIT_T0_T1_EESA_,@function
_ZStltIcSt11char_traitsIcESaIcEEbRKNSt7__cxx1112basic_stringIT_T0_T1_EESA_: # @_ZStltIcSt11char_traitsIcESaIcEEbRKNSt7__cxx1112basic_stringIT_T0_T1_EESA_
.Lfunc_begin11:
	.cfi_startproc
	.cfi_personality 155, DW.ref.__gxx_personality_v0
	.cfi_lsda 27, .Lexception11
# %bb.0:                                # %entry
	addi	sp, sp, -32
	.cfi_def_cfa_offset 32
	sd	ra, 24(sp)
	sd	s0, 16(sp)
	.cfi_offset ra, -8
	.cfi_offset s0, -16
	addi	s0, sp, 32
	.cfi_def_cfa s0, 0
	sd	a0, -24(s0)
	sd	a1, -32(s0)
	ld	a0, -24(s0)
	ld	a1, -32(s0)
.Ltmp183:
	call	_ZNKSt7__cxx1112basic_stringIcSt11char_traitsIcESaIcEE7compareERKS4_
.Ltmp184:
	j	.LBB91_1
.LBB91_1:                               # %invoke.cont
	sext.w	a0, a0
	slti	a0, a0, 0
	ld	s0, 16(sp)
	.cfi_def_cfa sp, 32
	ld	ra, 24(sp)
	.cfi_restore ra
	.cfi_restore s0
	addi	sp, sp, 32
	.cfi_def_cfa_offset 0
	ret
