	.text
	.file	"main.cpp"
	.globl	main                    # -- Begin function main
	.p2align	2
	.type	main,@function
main:                                   # @main
.Lfunc_begin0:
	.cfi_startproc
	.cfi_personality 155, DW.ref.__gxx_personality_v0
	.cfi_lsda 27, .Lexception0
# %bb.0:                                # %entry
	addi	sp, sp, -752
	.cfi_def_cfa_offset 752
	sd	ra, 744(sp)
	sd	s0, 736(sp)
	sd	s1, 728(sp)
	.cfi_offset ra, -8
	.cfi_offset s0, -16
	.cfi_offset s1, -24
	addi	s0, sp, 752
	.cfi_def_cfa s0, 0
	sw	zero, -28(s0)
	sw	a0, -32(s0)
	sd	a1, -40(s0)
	lui	a0, %hi(_ZN5Scene4pathB5cxx11E)
	addi	s1, a0, %lo(_ZN5Scene4pathB5cxx11E)
	lui	a0, %hi(.L.str)
	addi	a1, a0, %lo(.L.str)
	mv	a0, s1
	call	_ZNSt7__cxx1112basic_stringIcSt11char_traitsIcESaIcEEaSEPKc
	lui	a0, %hi(.L.str.1)
	addi	a0, a0, %lo(.L.str.1)
	call	printf
	mv	a0, s1
	call	_ZNKSt7__cxx1112basic_stringIcSt11char_traitsIcESaIcEE5c_strEv
	mv	a1, a0
	lui	a0, %hi(.L.str.2)
	addi	a0, a0, %lo(.L.str.2)
	call	printf
	addi	a0, s0, -64
	call	_ZNSt6vectorI6OptionSaIS0_EEC2Ev
.Ltmp0:
	addi	a0, s0, -120
	mv	a1, s1
	call	_ZNSt7__cxx1112basic_stringIcSt11char_traitsIcESaIcEEC1ERKS4_
.Ltmp1:
	j	.LBB0_1
.LBB0_1:                                # %invoke.cont
.Ltmp3:
	addi	a0, s0, -88
	addi	a1, s0, -120
	call	_Z9availibleNSt7__cxx1112basic_stringIcSt11char_traitsIcESaIcEEE
.Ltmp4:
	j	.LBB0_2
.LBB0_2:                                # %invoke.cont5
	addi	a0, s0, -64
	addi	s1, s0, -88
	mv	a1, s1
	call	_ZNSt6vectorI6OptionSaIS0_EEaSEOS2_
	mv	a0, s1
	call	_ZNSt6vectorI6OptionSaIS0_EED2Ev
	addi	a0, s0, -120
	call	_ZNSt7__cxx1112basic_stringIcSt11char_traitsIcESaIcEED1Ev
	j	.LBB0_12
.LBB0_3:                                # %lpad
.Ltmp2:
	sd	a0, -128(s0)
	sw	a1, -132(s0)
	j	.LBB0_5
.LBB0_4:                                # %lpad4
.Ltmp5:
	sd	a0, -128(s0)
	sw	a1, -132(s0)
	addi	a0, s0, -120
	call	_ZNSt7__cxx1112basic_stringIcSt11char_traitsIcESaIcEED1Ev
	j	.LBB0_5
.LBB0_5:                                # %catch.dispatch
	lw	a0, -132(s0)
	addi	a1, zero, 1
	bne	a0, a1, .LBB0_38
	j	.LBB0_6
.LBB0_6:                                # %catch
	ld	a0, -128(s0)
	call	__cxa_begin_catch
	sd	a0, -144(s0)
	ld	a0, -144(s0)
	ld	a1, 0(a0)
	ld	a1, 16(a1)
	jalr	a1
	mv	a1, a0
.Ltmp6:
	lui	a0, %hi(.L.str.2)
	addi	a0, a0, %lo(.L.str.2)
	call	printf
.Ltmp7:
	j	.LBB0_7
.LBB0_7:                                # %invoke.cont9
	addi	a0, zero, 1
	slli	a1, a0, 32
	addi	a1, a1, -1
	sw	a1, -28(s0)
	sw	a0, -148(s0)
.Ltmp11:
	call	__cxa_end_catch
.Ltmp12:
	j	.LBB0_9
.LBB0_8:                                # %lpad8
.Ltmp8:
	sd	a0, -128(s0)
	sw	a1, -132(s0)
.Ltmp9:
	call	__cxa_end_catch
.Ltmp10:
	j	.LBB0_11
.LBB0_9:                                # %invoke.cont12
	j	.LBB0_37
.LBB0_10:                               # %lpad11
.Ltmp39:
	sd	a0, -128(s0)
	sw	a1, -132(s0)
	j	.LBB0_38
.LBB0_11:                               # %invoke.cont13
	j	.LBB0_38
.LBB0_12:                               # %try.cont
	addi	a0, s0, -64
	call	_ZNKSt6vectorI6OptionSaIS0_EE5emptyEv
	beqz	a0, .LBB0_15
	j	.LBB0_13
.LBB0_13:                               # %if.then
.Ltmp37:
	lui	a0, %hi(.L.str.3)
	addi	a0, a0, %lo(.L.str.3)
	call	printf
.Ltmp38:
	j	.LBB0_14
.LBB0_14:                               # %invoke.cont15
	addi	a0, zero, 1
	slli	a1, a0, 32
	addi	a1, a1, -1
	sw	a1, -28(s0)
	sw	a0, -148(s0)
	j	.LBB0_37
.LBB0_15:                               # %if.end
.Ltmp13:
	addi	a0, s0, -224
	addi	a1, s0, -64
	call	_Z9getOptionRSt6vectorI6OptionSaIS0_EE
.Ltmp14:
	j	.LBB0_16
.LBB0_16:                               # %invoke.cont17
.Ltmp15:
	addi	a0, s0, -712
	addi	a1, s0, -224
	addi	a2, zero, 8
	call	_ZNSt14basic_ifstreamIcSt11char_traitsIcEEC1ERKNSt7__cxx1112basic_stringIcS1_SaIcEEESt13_Ios_Openmode
.Ltmp16:
	j	.LBB0_17
.LBB0_17:                               # %invoke.cont19
	addi	s1, s0, -728
	mv	a0, s1
	mv	a1, zero
	call	_ZN8nlohmann10basic_jsonISt3mapSt6vectorNSt7__cxx1112basic_stringIcSt11char_traitsIcESaIcEEEblmdSaNS_14adl_serializerEEC2EDn
.Ltmp18:
	addi	a0, s0, -712
	mv	a1, s1
	call	_ZN8nlohmannrsERSiRNS_10basic_jsonISt3mapSt6vectorNSt7__cxx1112basic_stringIcSt11char_traitsIcESaIcEEEblmdSaNS_14adl_serializerEEE
.Ltmp19:
	j	.LBB0_18
.LBB0_18:                               # %invoke.cont21
.Ltmp20:
	addi	a0, s0, -712
	call	_ZNSt14basic_ifstreamIcSt11char_traitsIcEE5closeEv
.Ltmp21:
	j	.LBB0_19
.LBB0_19:                               # %invoke.cont23
	addi	a0, s0, -736
	call	_ZNSt10unique_ptrI6CameraSt14default_deleteIS0_EEC2IS2_vEEv
.Ltmp23:
	addi	a0, s0, -744
	addi	a1, s0, -728
	addi	a2, s0, -224
	call	_ZSt11make_uniqueI6CameraJRN8nlohmann10basic_jsonISt3mapSt6vectorNSt7__cxx1112basic_stringIcSt11char_traitsIcESaIcEEEblmdSaNS1_14adl_serializerEEER6OptionEENSt8__detail9_MakeUniqIT_E15__single_objectEDpOT0_
.Ltmp24:
	j	.LBB0_20
.LBB0_20:                               # %invoke.cont26
	addi	a0, s0, -736
	addi	s1, s0, -744
	mv	a1, s1
	call	_ZNSt10unique_ptrI6CameraSt14default_deleteIS0_EEaSEOS3_
	mv	a0, s1
	call	_ZNSt10unique_ptrI6CameraSt14default_deleteIS0_EED2Ev
	j	.LBB0_31
.LBB0_21:                               # %lpad18
.Ltmp17:
	sd	a0, -128(s0)
	sw	a1, -132(s0)
	j	.LBB0_36
.LBB0_22:                               # %lpad20
.Ltmp22:
	sd	a0, -128(s0)
	sw	a1, -132(s0)
	j	.LBB0_35
.LBB0_23:                               # %lpad25
.Ltmp25:
	sd	a0, -128(s0)
	sw	a1, -132(s0)
	j	.LBB0_24
.LBB0_24:                               # %catch.dispatch28
	lw	a0, -132(s0)
	addi	a1, zero, 1
	bne	a0, a1, .LBB0_34
	j	.LBB0_25
.LBB0_25:                               # %catch31
	ld	a0, -128(s0)
	call	__cxa_begin_catch
	sd	a0, -752(s0)
	ld	a0, -752(s0)
	ld	a1, 0(a0)
	ld	a1, 16(a1)
	jalr	a1
	mv	a1, a0
.Ltmp26:
	lui	a0, %hi(.L.str.2)
	addi	a0, a0, %lo(.L.str.2)
	call	printf
.Ltmp27:
	j	.LBB0_26
.LBB0_26:                               # %invoke.cont39
	addi	a0, zero, 1
	slli	a1, a0, 32
	addi	a1, a1, -1
	sw	a1, -28(s0)
	sw	a0, -148(s0)
.Ltmp32:
	call	__cxa_end_catch
.Ltmp33:
	j	.LBB0_28
.LBB0_27:                               # %lpad38
.Ltmp28:
	sd	a0, -128(s0)
	sw	a1, -132(s0)
.Ltmp29:
	call	__cxa_end_catch
.Ltmp30:
	j	.LBB0_30
.LBB0_28:                               # %invoke.cont42
	j	.LBB0_33
.LBB0_29:                               # %lpad41
.Ltmp36:
	sd	a0, -128(s0)
	sw	a1, -132(s0)
	j	.LBB0_34
.LBB0_30:                               # %invoke.cont43
	j	.LBB0_34
.LBB0_31:                               # %try.cont44
	addi	a0, s0, -736
	call	_ZNKSt10unique_ptrI6CameraSt14default_deleteIS0_EEptEv
.Ltmp34:
	call	_ZN6Camera7captureEv
.Ltmp35:
	j	.LBB0_32
.LBB0_32:                               # %invoke.cont46
	sw	zero, -28(s0)
	addi	a0, zero, 1
	sw	a0, -148(s0)
	j	.LBB0_33
.LBB0_33:                               # %cleanup
	addi	a0, s0, -736
	call	_ZNSt10unique_ptrI6CameraSt14default_deleteIS0_EED2Ev
	addi	a0, s0, -728
	call	_ZN8nlohmann10basic_jsonISt3mapSt6vectorNSt7__cxx1112basic_stringIcSt11char_traitsIcESaIcEEEblmdSaNS_14adl_serializerEED2Ev
	addi	a0, s0, -712
	call	_ZNSt14basic_ifstreamIcSt11char_traitsIcEED1Ev
	addi	a0, s0, -224
	call	_ZN6OptionD2Ev
	j	.LBB0_37
.LBB0_34:                               # %ehcleanup
	addi	a0, s0, -736
	call	_ZNSt10unique_ptrI6CameraSt14default_deleteIS0_EED2Ev
	j	.LBB0_35
.LBB0_35:                               # %ehcleanup48
	addi	a0, s0, -728
	call	_ZN8nlohmann10basic_jsonISt3mapSt6vectorNSt7__cxx1112basic_stringIcSt11char_traitsIcESaIcEEEblmdSaNS_14adl_serializerEED2Ev
	addi	a0, s0, -712
	call	_ZNSt14basic_ifstreamIcSt11char_traitsIcEED1Ev
	j	.LBB0_36
.LBB0_36:                               # %ehcleanup52
	addi	a0, s0, -224
	call	_ZN6OptionD2Ev
	j	.LBB0_38
.LBB0_37:                               # %cleanup53
	addi	a0, s0, -64
	call	_ZNSt6vectorI6OptionSaIS0_EED2Ev
	lw	a0, -28(s0)
	ld	s1, 728(sp)
	ld	s0, 736(sp)
	.cfi_def_cfa sp, 752
	ld	ra, 744(sp)
	.cfi_restore ra
	.cfi_restore s0
	.cfi_restore s1
	addi	sp, sp, 752
	.cfi_def_cfa_offset 0
	ret
.LBB0_38:                               # %ehcleanup54
	addi	a0, s0, -64
	call	_ZNSt6vectorI6OptionSaIS0_EED2Ev
	j	.LBB0_39
.LBB0_39:                               # %eh.resume
	ld	a0, -128(s0)
	call	_Unwind_Resume
.LBB0_40:                               # %terminate.lpad
.Ltmp31:
	call	__clang_call_terminate
.Lfunc_end0:
	.size	main, .Lfunc_end0-main
	.cfi_endproc
	.section	.gcc_except_table,"a",@progbits
	.p2align	2
GCC_except_table0:
.Lexception0:
	.byte	255                     # @LPStart Encoding = omit
	.byte	155                     # @TType Encoding = indirect pcrel sdata4
	.uleb128 .Lttbase0-.Lttbaseref0
.Lttbaseref0:
	.byte	3                       # Call site Encoding = udata4
	.uleb128 .Lcst_end0-.Lcst_begin0
.Lcst_begin0:
	.word	.Lfunc_begin0-.Lfunc_begin0 # >> Call Site 1 <<
	.word	.Ltmp0-.Lfunc_begin0    #   Call between .Lfunc_begin0 and .Ltmp0
	.word	0                       #     has no landing pad
	.byte	0                       #   On action: cleanup
	.word	.Ltmp0-.Lfunc_begin0    # >> Call Site 2 <<
	.word	.Ltmp1-.Ltmp0           #   Call between .Ltmp0 and .Ltmp1
	.word	.Ltmp2-.Lfunc_begin0    #     jumps to .Ltmp2
	.byte	3                       #   On action: 2
	.word	.Ltmp3-.Lfunc_begin0    # >> Call Site 3 <<
	.word	.Ltmp4-.Ltmp3           #   Call between .Ltmp3 and .Ltmp4
	.word	.Ltmp5-.Lfunc_begin0    #     jumps to .Ltmp5
	.byte	3                       #   On action: 2
	.word	.Ltmp4-.Lfunc_begin0    # >> Call Site 4 <<
	.word	.Ltmp6-.Ltmp4           #   Call between .Ltmp4 and .Ltmp6
	.word	0                       #     has no landing pad
	.byte	0                       #   On action: cleanup
	.word	.Ltmp6-.Lfunc_begin0    # >> Call Site 5 <<
	.word	.Ltmp7-.Ltmp6           #   Call between .Ltmp6 and .Ltmp7
	.word	.Ltmp8-.Lfunc_begin0    #     jumps to .Ltmp8
	.byte	0                       #   On action: cleanup
	.word	.Ltmp11-.Lfunc_begin0   # >> Call Site 6 <<
	.word	.Ltmp12-.Ltmp11         #   Call between .Ltmp11 and .Ltmp12
	.word	.Ltmp39-.Lfunc_begin0   #     jumps to .Ltmp39
	.byte	0                       #   On action: cleanup
	.word	.Ltmp9-.Lfunc_begin0    # >> Call Site 7 <<
	.word	.Ltmp10-.Ltmp9          #   Call between .Ltmp9 and .Ltmp10
	.word	.Ltmp31-.Lfunc_begin0   #     jumps to .Ltmp31
	.byte	5                       #   On action: 3
	.word	.Ltmp37-.Lfunc_begin0   # >> Call Site 8 <<
	.word	.Ltmp14-.Ltmp37         #   Call between .Ltmp37 and .Ltmp14
	.word	.Ltmp39-.Lfunc_begin0   #     jumps to .Ltmp39
	.byte	0                       #   On action: cleanup
	.word	.Ltmp15-.Lfunc_begin0   # >> Call Site 9 <<
	.word	.Ltmp16-.Ltmp15         #   Call between .Ltmp15 and .Ltmp16
	.word	.Ltmp17-.Lfunc_begin0   #     jumps to .Ltmp17
	.byte	0                       #   On action: cleanup
	.word	.Ltmp18-.Lfunc_begin0   # >> Call Site 10 <<
	.word	.Ltmp21-.Ltmp18         #   Call between .Ltmp18 and .Ltmp21
	.word	.Ltmp22-.Lfunc_begin0   #     jumps to .Ltmp22
	.byte	0                       #   On action: cleanup
	.word	.Ltmp23-.Lfunc_begin0   # >> Call Site 11 <<
	.word	.Ltmp24-.Ltmp23         #   Call between .Ltmp23 and .Ltmp24
	.word	.Ltmp25-.Lfunc_begin0   #     jumps to .Ltmp25
	.byte	3                       #   On action: 2
	.word	.Ltmp24-.Lfunc_begin0   # >> Call Site 12 <<
	.word	.Ltmp26-.Ltmp24         #   Call between .Ltmp24 and .Ltmp26
	.word	0                       #     has no landing pad
	.byte	0                       #   On action: cleanup
	.word	.Ltmp26-.Lfunc_begin0   # >> Call Site 13 <<
	.word	.Ltmp27-.Ltmp26         #   Call between .Ltmp26 and .Ltmp27
	.word	.Ltmp28-.Lfunc_begin0   #     jumps to .Ltmp28
	.byte	0                       #   On action: cleanup
	.word	.Ltmp32-.Lfunc_begin0   # >> Call Site 14 <<
	.word	.Ltmp33-.Ltmp32         #   Call between .Ltmp32 and .Ltmp33
	.word	.Ltmp36-.Lfunc_begin0   #     jumps to .Ltmp36
	.byte	0                       #   On action: cleanup
	.word	.Ltmp29-.Lfunc_begin0   # >> Call Site 15 <<
	.word	.Ltmp30-.Ltmp29         #   Call between .Ltmp29 and .Ltmp30
	.word	.Ltmp31-.Lfunc_begin0   #     jumps to .Ltmp31
	.byte	5                       #   On action: 3
	.word	.Ltmp34-.Lfunc_begin0   # >> Call Site 16 <<
	.word	.Ltmp35-.Ltmp34         #   Call between .Ltmp34 and .Ltmp35
	.word	.Ltmp36-.Lfunc_begin0   #     jumps to .Ltmp36
	.byte	0                       #   On action: cleanup
	.word	.Ltmp35-.Lfunc_begin0   # >> Call Site 17 <<
	.word	.Lfunc_end0-.Ltmp35     #   Call between .Ltmp35 and .Lfunc_end0
	.word	0                       #     has no landing pad
	.byte	0                       #   On action: cleanup
.Lcst_end0:
	.byte	0                       # >> Action Record 1 <<
                                        #   Cleanup
	.byte	0                       #   No further actions
	.byte	1                       # >> Action Record 2 <<
                                        #   Catch TypeInfo 1
	.byte	125                     #   Continue to action 1
	.byte	2                       # >> Action Record 3 <<
                                        #   Catch TypeInfo 2
	.byte	0                       #   No further actions
	.p2align	2
                                        # >> Catch TypeInfos <<
	.word	0                       # TypeInfo 2
.Ltmp40:                                # TypeInfo 1
	.word	.L_ZTISt9exception.DW.stub-.Ltmp40
.Lttbase0:
	.p2align	2
                                        # -- End function
	.section	.text._ZNSt6vectorI6OptionSaIS0_EEC2Ev,"axG",@progbits,_ZNSt6vectorI6OptionSaIS0_EEC2Ev,comdat
	.weak	_ZNSt6vectorI6OptionSaIS0_EEC2Ev # -- Begin function _ZNSt6vectorI6OptionSaIS0_EEC2Ev
	.p2align	2
	.type	_ZNSt6vectorI6OptionSaIS0_EEC2Ev,@function
_ZNSt6vectorI6OptionSaIS0_EEC2Ev:       # @_ZNSt6vectorI6OptionSaIS0_EEC2Ev
# %bb.0:                                # %entry
	addi	sp, sp, -32
	sd	ra, 24(sp)
	sd	s0, 16(sp)
	addi	s0, sp, 32
	sd	a0, -24(s0)
	ld	a0, -24(s0)
	call	_ZNSt12_Vector_baseI6OptionSaIS0_EEC2Ev
	ld	s0, 16(sp)
	ld	ra, 24(sp)
	addi	sp, sp, 32
	ret
.Lfunc_end1:
	.size	_ZNSt6vectorI6OptionSaIS0_EEC2Ev, .Lfunc_end1-_ZNSt6vectorI6OptionSaIS0_EEC2Ev
                                        # -- End function
	.section	.text._ZNSt6vectorI6OptionSaIS0_EEaSEOS2_,"axG",@progbits,_ZNSt6vectorI6OptionSaIS0_EEaSEOS2_,comdat
	.weak	_ZNSt6vectorI6OptionSaIS0_EEaSEOS2_ # -- Begin function _ZNSt6vectorI6OptionSaIS0_EEaSEOS2_
	.p2align	2
	.type	_ZNSt6vectorI6OptionSaIS0_EEaSEOS2_,@function
_ZNSt6vectorI6OptionSaIS0_EEaSEOS2_:    # @_ZNSt6vectorI6OptionSaIS0_EEaSEOS2_
# %bb.0:                                # %entry
	addi	sp, sp, -48
	sd	ra, 40(sp)
	sd	s0, 32(sp)
	sd	s1, 24(sp)
	addi	s0, sp, 48
	sd	a0, -32(s0)
	sd	a1, -40(s0)
	ld	s1, -32(s0)
	addi	a0, zero, 1
	sb	a0, -41(s0)
	ld	a0, -40(s0)
	call	_ZSt4moveIRSt6vectorI6OptionSaIS1_EEEONSt16remove_referenceIT_E4typeEOS6_
	mv	a1, a0
	mv	a0, s1
	call	_ZNSt6vectorI6OptionSaIS0_EE14_M_move_assignEOS2_St17integral_constantIbLb1EE
	mv	a0, s1
	ld	s1, 24(sp)
	ld	s0, 32(sp)
	ld	ra, 40(sp)
	addi	sp, sp, 48
	ret
.Lfunc_end2:
	.size	_ZNSt6vectorI6OptionSaIS0_EEaSEOS2_, .Lfunc_end2-_ZNSt6vectorI6OptionSaIS0_EEaSEOS2_
                                        # -- End function
	.section	.text._ZNSt6vectorI6OptionSaIS0_EED2Ev,"axG",@progbits,_ZNSt6vectorI6OptionSaIS0_EED2Ev,comdat
	.weak	_ZNSt6vectorI6OptionSaIS0_EED2Ev # -- Begin function _ZNSt6vectorI6OptionSaIS0_EED2Ev
	.p2align	2
	.type	_ZNSt6vectorI6OptionSaIS0_EED2Ev,@function
_ZNSt6vectorI6OptionSaIS0_EED2Ev:       # @_ZNSt6vectorI6OptionSaIS0_EED2Ev
.Lfunc_begin1:
	.cfi_startproc
	.cfi_personality 155, DW.ref.__gxx_personality_v0
	.cfi_lsda 27, .Lexception1
# %bb.0:                                # %entry
	addi	sp, sp, -96
	.cfi_def_cfa_offset 96
	sd	ra, 88(sp)
	sd	s0, 80(sp)
	sd	s1, 72(sp)
	sd	s2, 64(sp)
	sd	s3, 56(sp)
	.cfi_offset ra, -8
	.cfi_offset s0, -16
	.cfi_offset s1, -24
	.cfi_offset s2, -32
	.cfi_offset s3, -40
	addi	s0, sp, 96
	.cfi_def_cfa s0, 0
	sd	a0, -72(s0)
	ld	s1, -72(s0)
	ld	s2, 0(s1)
	ld	s3, 8(s1)
	mv	a0, s1
	call	_ZNSt12_Vector_baseI6OptionSaIS0_EE19_M_get_Tp_allocatorEv
	sd	s2, -48(s0)
	sd	s3, -56(s0)
	sd	a0, -64(s0)
	ld	a0, -48(s0)
	ld	a1, -56(s0)
.Ltmp41:
	call	_ZSt8_DestroyIP6OptionEvT_S2_
.Ltmp42:
	j	.LBB3_1
.LBB3_1:                                # %_ZSt8_DestroyIP6OptionS0_EvT_S2_RSaIT0_E.exit
	j	.LBB3_2
.LBB3_2:                                # %invoke.cont
	mv	a0, s1
	call	_ZNSt12_Vector_baseI6OptionSaIS0_EED2Ev
	ld	s3, 56(sp)
	ld	s2, 64(sp)
	ld	s1, 72(sp)
	ld	s0, 80(sp)
	.cfi_def_cfa sp, 96
	ld	ra, 88(sp)
	.cfi_restore ra
	.cfi_restore s0
	.cfi_restore s1
	.cfi_restore s2
	.cfi_restore s3
	addi	sp, sp, 96
	.cfi_def_cfa_offset 0
	ret
.LBB3_3:                                # %lpad
.Ltmp43:
	sd	a0, -80(s0)
	sw	a1, -84(s0)
	mv	a0, s1
	call	_ZNSt12_Vector_baseI6OptionSaIS0_EED2Ev
	j	.LBB3_4
.LBB3_4:                                # %terminate.handler
	ld	a0, -80(s0)
	call	__clang_call_terminate
.Lfunc_end3:
	.size	_ZNSt6vectorI6OptionSaIS0_EED2Ev, .Lfunc_end3-_ZNSt6vectorI6OptionSaIS0_EED2Ev
	.cfi_endproc
	.section	.gcc_except_table,"a",@progbits
	.p2align	2
GCC_except_table3:
.Lexception1:
	.byte	255                     # @LPStart Encoding = omit
	.byte	155                     # @TType Encoding = indirect pcrel sdata4
	.uleb128 .Lttbase1-.Lttbaseref1
.Lttbaseref1:
	.byte	3                       # Call site Encoding = udata4
	.uleb128 .Lcst_end1-.Lcst_begin1
.Lcst_begin1:
	.word	.Ltmp41-.Lfunc_begin1   # >> Call Site 1 <<
	.word	.Ltmp42-.Ltmp41         #   Call between .Ltmp41 and .Ltmp42
	.word	.Ltmp43-.Lfunc_begin1   #     jumps to .Ltmp43
	.byte	1                       #   On action: 1
.Lcst_end1:
	.byte	1                       # >> Action Record 1 <<
                                        #   Catch TypeInfo 1
	.byte	0                       #   No further actions
	.p2align	2
                                        # >> Catch TypeInfos <<
	.word	0                       # TypeInfo 1
.Lttbase1:
	.p2align	2
                                        # -- End function
	.section	.text.__clang_call_terminate,"axG",@progbits,__clang_call_terminate,comdat
	.hidden	__clang_call_terminate  # -- Begin function __clang_call_terminate
	.weak	__clang_call_terminate
	.p2align	2
	.type	__clang_call_terminate,@function
__clang_call_terminate:                 # @__clang_call_terminate
# %bb.0:
	addi	sp, sp, -16
	sd	ra, 8(sp)
	call	__cxa_begin_catch
	call	_ZSt9terminatev
.Lfunc_end4:
	.size	__clang_call_terminate, .Lfunc_end4-__clang_call_terminate
                                        # -- End function
	.section	.text._ZNKSt6vectorI6OptionSaIS0_EE5emptyEv,"axG",@progbits,_ZNKSt6vectorI6OptionSaIS0_EE5emptyEv,comdat
	.weak	_ZNKSt6vectorI6OptionSaIS0_EE5emptyEv # -- Begin function _ZNKSt6vectorI6OptionSaIS0_EE5emptyEv
	.p2align	2
	.type	_ZNKSt6vectorI6OptionSaIS0_EE5emptyEv,@function
_ZNKSt6vectorI6OptionSaIS0_EE5emptyEv:  # @_ZNKSt6vectorI6OptionSaIS0_EE5emptyEv
# %bb.0:                                # %entry
	addi	sp, sp, -48
	sd	ra, 40(sp)
	sd	s0, 32(sp)
	sd	s1, 24(sp)
	addi	s0, sp, 48
	sd	a0, -32(s0)
	ld	s1, -32(s0)
	mv	a0, s1
	call	_ZNKSt6vectorI6OptionSaIS0_EE5beginEv
	sd	a0, -40(s0)
	mv	a0, s1
	call	_ZNKSt6vectorI6OptionSaIS0_EE3endEv
	sd	a0, -48(s0)
	addi	a0, s0, -40
	addi	a1, s0, -48
	call	_ZN9__gnu_cxxeqIPK6OptionSt6vectorIS1_SaIS1_EEEEbRKNS_17__normal_iteratorIT_T0_EESC_
	ld	s1, 24(sp)
	ld	s0, 32(sp)
	ld	ra, 40(sp)
	addi	sp, sp, 48
	ret
.Lfunc_end5:
	.size	_ZNKSt6vectorI6OptionSaIS0_EE5emptyEv, .Lfunc_end5-_ZNKSt6vectorI6OptionSaIS0_EE5emptyEv
                                        # -- End function
	.section	.text._ZN8nlohmann10basic_jsonISt3mapSt6vectorNSt7__cxx1112basic_stringIcSt11char_traitsIcESaIcEEEblmdSaNS_14adl_serializerEEC2EDn,"axG",@progbits,_ZN8nlohmann10basic_jsonISt3mapSt6vectorNSt7__cxx1112basic_stringIcSt11char_traitsIcESaIcEEEblmdSaNS_14adl_serializerEEC2EDn,comdat
	.weak	_ZN8nlohmann10basic_jsonISt3mapSt6vectorNSt7__cxx1112basic_stringIcSt11char_traitsIcESaIcEEEblmdSaNS_14adl_serializerEEC2EDn # -- Begin function _ZN8nlohmann10basic_jsonISt3mapSt6vectorNSt7__cxx1112basic_stringIcSt11char_traitsIcESaIcEEEblmdSaNS_14adl_serializerEEC2EDn
	.p2align	2
	.type	_ZN8nlohmann10basic_jsonISt3mapSt6vectorNSt7__cxx1112basic_stringIcSt11char_traitsIcESaIcEEEblmdSaNS_14adl_serializerEEC2EDn,@function
_ZN8nlohmann10basic_jsonISt3mapSt6vectorNSt7__cxx1112basic_stringIcSt11char_traitsIcESaIcEEEblmdSaNS_14adl_serializerEEC2EDn: # @_ZN8nlohmann10basic_jsonISt3mapSt6vectorNSt7__cxx1112basic_stringIcSt11char_traitsIcESaIcEEEblmdSaNS_14adl_serializerEEC2EDn
.Lfunc_begin2:
	.cfi_startproc
	.cfi_personality 155, DW.ref.__gxx_personality_v0
	.cfi_lsda 27, .Lexception2
# %bb.0:                                # %entry
	addi	sp, sp, -48
	.cfi_def_cfa_offset 48
	sd	ra, 40(sp)
	sd	s0, 32(sp)
	sd	s1, 24(sp)
	.cfi_offset ra, -8
	.cfi_offset s0, -16
	.cfi_offset s1, -24
	addi	s0, sp, 48
	.cfi_def_cfa s0, 0
	sd	a0, -32(s0)
	sd	a1, -40(s0)
	ld	s1, -32(s0)
.Ltmp44:
	mv	a0, s1
	mv	a1, zero
	call	_ZN8nlohmann10basic_jsonISt3mapSt6vectorNSt7__cxx1112basic_stringIcSt11char_traitsIcESaIcEEEblmdSaNS_14adl_serializerEEC2ENS_6detail7value_tE
.Ltmp45:
	j	.LBB6_1
.LBB6_1:                                # %invoke.cont
	mv	a0, s1
	call	_ZNK8nlohmann10basic_jsonISt3mapSt6vectorNSt7__cxx1112basic_stringIcSt11char_traitsIcESaIcEEEblmdSaNS_14adl_serializerEE16assert_invariantEv
	ld	s1, 24(sp)
	ld	s0, 32(sp)
	.cfi_def_cfa sp, 48
	ld	ra, 40(sp)
	.cfi_restore ra
	.cfi_restore s0
	.cfi_restore s1
	addi	sp, sp, 48
	.cfi_def_cfa_offset 0
	ret
.LBB6_2:                                # %terminate.lpad
.Ltmp46:
	call	__clang_call_terminate
.Lfunc_end6:
	.size	_ZN8nlohmann10basic_jsonISt3mapSt6vectorNSt7__cxx1112basic_stringIcSt11char_traitsIcESaIcEEEblmdSaNS_14adl_serializerEEC2EDn, .Lfunc_end6-_ZN8nlohmann10basic_jsonISt3mapSt6vectorNSt7__cxx1112basic_stringIcSt11char_traitsIcESaIcEEEblmdSaNS_14adl_serializerEEC2EDn
	.cfi_endproc
	.section	.gcc_except_table,"a",@progbits
	.p2align	2
GCC_except_table6:
.Lexception2:
	.byte	255                     # @LPStart Encoding = omit
	.byte	155                     # @TType Encoding = indirect pcrel sdata4
	.uleb128 .Lttbase2-.Lttbaseref2
.Lttbaseref2:
	.byte	3                       # Call site Encoding = udata4
	.uleb128 .Lcst_end2-.Lcst_begin2
.Lcst_begin2:
	.word	.Ltmp44-.Lfunc_begin2   # >> Call Site 1 <<
	.word	.Ltmp45-.Ltmp44         #   Call between .Ltmp44 and .Ltmp45
	.word	.Ltmp46-.Lfunc_begin2   #     jumps to .Ltmp46
	.byte	1                       #   On action: 1
.Lcst_end2:
	.byte	1                       # >> Action Record 1 <<
                                        #   Catch TypeInfo 1
	.byte	0                       #   No further actions
	.p2align	2
                                        # >> Catch TypeInfos <<
	.word	0                       # TypeInfo 1
.Lttbase2:
	.p2align	2
                                        # -- End function
	.section	.text._ZN8nlohmannrsERSiRNS_10basic_jsonISt3mapSt6vectorNSt7__cxx1112basic_stringIcSt11char_traitsIcESaIcEEEblmdSaNS_14adl_serializerEEE,"axG",@progbits,_ZN8nlohmannrsERSiRNS_10basic_jsonISt3mapSt6vectorNSt7__cxx1112basic_stringIcSt11char_traitsIcESaIcEEEblmdSaNS_14adl_serializerEEE,comdat
	.weak	_ZN8nlohmannrsERSiRNS_10basic_jsonISt3mapSt6vectorNSt7__cxx1112basic_stringIcSt11char_traitsIcESaIcEEEblmdSaNS_14adl_serializerEEE # -- Begin function _ZN8nlohmannrsERSiRNS_10basic_jsonISt3mapSt6vectorNSt7__cxx1112basic_stringIcSt11char_traitsIcESaIcEEEblmdSaNS_14adl_serializerEEE
	.p2align	2
	.type	_ZN8nlohmannrsERSiRNS_10basic_jsonISt3mapSt6vectorNSt7__cxx1112basic_stringIcSt11char_traitsIcESaIcEEEblmdSaNS_14adl_serializerEEE,@function
_ZN8nlohmannrsERSiRNS_10basic_jsonISt3mapSt6vectorNSt7__cxx1112basic_stringIcSt11char_traitsIcESaIcEEEblmdSaNS_14adl_serializerEEE: # @_ZN8nlohmannrsERSiRNS_10basic_jsonISt3mapSt6vectorNSt7__cxx1112basic_stringIcSt11char_traitsIcESaIcEEEblmdSaNS_14adl_serializerEEE
.Lfunc_begin3:
	.cfi_startproc
	.cfi_personality 155, DW.ref.__gxx_personality_v0
	.cfi_lsda 27, .Lexception3
# %bb.0:                                # %entry
	addi	sp, sp, -320
	.cfi_def_cfa_offset 320
	sd	ra, 312(sp)
	sd	s0, 304(sp)
	sd	s1, 296(sp)
	.cfi_offset ra, -8
	.cfi_offset s0, -16
	.cfi_offset s1, -24
	addi	s0, sp, 320
	.cfi_def_cfa s0, 0
	sd	a0, -32(s0)
	sd	a1, -40(s0)
	ld	a1, -32(s0)
	addi	s1, s0, -264
	mv	a0, s1
	call	_ZN8nlohmann6detail13input_adapterC2ERSi
.Ltmp47:
	addi	a0, s0, -248
	mv	a1, s1
	call	_ZN8nlohmann6detail13input_adaptercvSt10shared_ptrINS0_22input_adapter_protocolEEEv
.Ltmp48:
	j	.LBB7_1
.LBB7_1:                                # %invoke.cont
	addi	s1, s0, -312
	mv	a0, s1
	mv	a1, zero
	call	_ZNSt8functionIFbiN8nlohmann6detail6parserINS0_10basic_jsonISt3mapSt6vectorNSt7__cxx1112basic_stringIcSt11char_traitsIcESaIcEEEblmdSaNS0_14adl_serializerEEEE13parse_event_tERSD_EEC2EDn
.Ltmp50:
	addi	a0, s0, -232
	addi	a1, s0, -248
	mv	a2, s1
	addi	a3, zero, 1
	call	_ZN8nlohmann6detail6parserINS_10basic_jsonISt3mapSt6vectorNSt7__cxx1112basic_stringIcSt11char_traitsIcESaIcEEEblmdSaNS_14adl_serializerEEEEC2EOSt10shared_ptrINS0_22input_adapter_protocolEESt8functionIFbiNSD_13parse_event_tERSC_EEb
.Ltmp51:
	j	.LBB7_2
.LBB7_2:                                # %invoke.cont4
	ld	a2, -40(s0)
.Ltmp53:
	addi	a0, s0, -232
	mv	a1, zero
	call	_ZN8nlohmann6detail6parserINS_10basic_jsonISt3mapSt6vectorNSt7__cxx1112basic_stringIcSt11char_traitsIcESaIcEEEblmdSaNS_14adl_serializerEEEE5parseEbRSC_
.Ltmp54:
	j	.LBB7_3
.LBB7_3:                                # %invoke.cont6
	addi	a0, s0, -232
	call	_ZN8nlohmann6detail6parserINS_10basic_jsonISt3mapSt6vectorNSt7__cxx1112basic_stringIcSt11char_traitsIcESaIcEEEblmdSaNS_14adl_serializerEEEED2Ev
	addi	a0, s0, -312
	call	_ZNSt8functionIFbiN8nlohmann6detail6parserINS0_10basic_jsonISt3mapSt6vectorNSt7__cxx1112basic_stringIcSt11char_traitsIcESaIcEEEblmdSaNS0_14adl_serializerEEEE13parse_event_tERSD_EED2Ev
	addi	a0, s0, -248
	call	_ZNSt10shared_ptrIN8nlohmann6detail22input_adapter_protocolEED2Ev
	addi	a0, s0, -264
	call	_ZN8nlohmann6detail13input_adapterD2Ev
	ld	a0, -32(s0)
	ld	s1, 296(sp)
	ld	s0, 304(sp)
	.cfi_def_cfa sp, 320
	ld	ra, 312(sp)
	.cfi_restore ra
	.cfi_restore s0
	.cfi_restore s1
	addi	sp, sp, 320
	.cfi_def_cfa_offset 0
	ret
.LBB7_4:                                # %lpad
.Ltmp49:
	sd	a0, -272(s0)
	sw	a1, -276(s0)
	j	.LBB7_8
.LBB7_5:                                # %lpad3
.Ltmp52:
	sd	a0, -272(s0)
	sw	a1, -276(s0)
	j	.LBB7_7
.LBB7_6:                                # %lpad5
.Ltmp55:
	sd	a0, -272(s0)
	sw	a1, -276(s0)
	addi	a0, s0, -232
	call	_ZN8nlohmann6detail6parserINS_10basic_jsonISt3mapSt6vectorNSt7__cxx1112basic_stringIcSt11char_traitsIcESaIcEEEblmdSaNS_14adl_serializerEEEED2Ev
	j	.LBB7_7
.LBB7_7:                                # %ehcleanup
	addi	a0, s0, -312
	call	_ZNSt8functionIFbiN8nlohmann6detail6parserINS0_10basic_jsonISt3mapSt6vectorNSt7__cxx1112basic_stringIcSt11char_traitsIcESaIcEEEblmdSaNS0_14adl_serializerEEEE13parse_event_tERSD_EED2Ev
	addi	a0, s0, -248
	call	_ZNSt10shared_ptrIN8nlohmann6detail22input_adapter_protocolEED2Ev
	j	.LBB7_8
.LBB7_8:                                # %ehcleanup8
	addi	a0, s0, -264
	call	_ZN8nlohmann6detail13input_adapterD2Ev
	j	.LBB7_9
.LBB7_9:                                # %eh.resume
	ld	a0, -272(s0)
	call	_Unwind_Resume
.Lfunc_end7:
	.size	_ZN8nlohmannrsERSiRNS_10basic_jsonISt3mapSt6vectorNSt7__cxx1112basic_stringIcSt11char_traitsIcESaIcEEEblmdSaNS_14adl_serializerEEE, .Lfunc_end7-_ZN8nlohmannrsERSiRNS_10basic_jsonISt3mapSt6vectorNSt7__cxx1112basic_stringIcSt11char_traitsIcESaIcEEEblmdSaNS_14adl_serializerEEE
	.cfi_endproc
	.section	.gcc_except_table,"a",@progbits
	.p2align	2
GCC_except_table7:
.Lexception3:
	.byte	255                     # @LPStart Encoding = omit
	.byte	255                     # @TType Encoding = omit
	.byte	3                       # Call site Encoding = udata4
	.uleb128 .Lcst_end3-.Lcst_begin3
.Lcst_begin3:
	.word	.Lfunc_begin3-.Lfunc_begin3 # >> Call Site 1 <<
	.word	.Ltmp47-.Lfunc_begin3   #   Call between .Lfunc_begin3 and .Ltmp47
	.word	0                       #     has no landing pad
	.byte	0                       #   On action: cleanup
	.word	.Ltmp47-.Lfunc_begin3   # >> Call Site 2 <<
	.word	.Ltmp48-.Ltmp47         #   Call between .Ltmp47 and .Ltmp48
	.word	.Ltmp49-.Lfunc_begin3   #     jumps to .Ltmp49
	.byte	0                       #   On action: cleanup
	.word	.Ltmp50-.Lfunc_begin3   # >> Call Site 3 <<
	.word	.Ltmp51-.Ltmp50         #   Call between .Ltmp50 and .Ltmp51
	.word	.Ltmp52-.Lfunc_begin3   #     jumps to .Ltmp52
	.byte	0                       #   On action: cleanup
	.word	.Ltmp53-.Lfunc_begin3   # >> Call Site 4 <<
	.word	.Ltmp54-.Ltmp53         #   Call between .Ltmp53 and .Ltmp54
	.word	.Ltmp55-.Lfunc_begin3   #     jumps to .Ltmp55
	.byte	0                       #   On action: cleanup
	.word	.Ltmp54-.Lfunc_begin3   # >> Call Site 5 <<
	.word	.Lfunc_end7-.Ltmp54     #   Call between .Ltmp54 and .Lfunc_end7
	.word	0                       #     has no landing pad
	.byte	0                       #   On action: cleanup
.Lcst_end3:
	.p2align	2
                                        # -- End function
	.section	.text._ZNSt10unique_ptrI6CameraSt14default_deleteIS0_EEC2IS2_vEEv,"axG",@progbits,_ZNSt10unique_ptrI6CameraSt14default_deleteIS0_EEC2IS2_vEEv,comdat
	.weak	_ZNSt10unique_ptrI6CameraSt14default_deleteIS0_EEC2IS2_vEEv # -- Begin function _ZNSt10unique_ptrI6CameraSt14default_deleteIS0_EEC2IS2_vEEv
	.p2align	2
	.type	_ZNSt10unique_ptrI6CameraSt14default_deleteIS0_EEC2IS2_vEEv,@function
_ZNSt10unique_ptrI6CameraSt14default_deleteIS0_EEC2IS2_vEEv: # @_ZNSt10unique_ptrI6CameraSt14default_deleteIS0_EEC2IS2_vEEv
# %bb.0:                                # %entry
	addi	sp, sp, -32
	sd	ra, 24(sp)
	sd	s0, 16(sp)
	addi	s0, sp, 32
	sd	a0, -24(s0)
	ld	a0, -24(s0)
	sd	zero, 0(a0)
	call	_ZNSt15__uniq_ptr_dataI6CameraSt14default_deleteIS0_ELb1ELb1EECI2St15__uniq_ptr_implIS0_S2_EEv
	ld	s0, 16(sp)
	ld	ra, 24(sp)
	addi	sp, sp, 32
	ret
.Lfunc_end8:
	.size	_ZNSt10unique_ptrI6CameraSt14default_deleteIS0_EEC2IS2_vEEv, .Lfunc_end8-_ZNSt10unique_ptrI6CameraSt14default_deleteIS0_EEC2IS2_vEEv
                                        # -- End function
	.section	.text._ZSt11make_uniqueI6CameraJRN8nlohmann10basic_jsonISt3mapSt6vectorNSt7__cxx1112basic_stringIcSt11char_traitsIcESaIcEEEblmdSaNS1_14adl_serializerEEER6OptionEENSt8__detail9_MakeUniqIT_E15__single_objectEDpOT0_,"axG",@progbits,_ZSt11make_uniqueI6CameraJRN8nlohmann10basic_jsonISt3mapSt6vectorNSt7__cxx1112basic_stringIcSt11char_traitsIcESaIcEEEblmdSaNS1_14adl_serializerEEER6OptionEENSt8__detail9_MakeUniqIT_E15__single_objectEDpOT0_,comdat
	.weak	_ZSt11make_uniqueI6CameraJRN8nlohmann10basic_jsonISt3mapSt6vectorNSt7__cxx1112basic_stringIcSt11char_traitsIcESaIcEEEblmdSaNS1_14adl_serializerEEER6OptionEENSt8__detail9_MakeUniqIT_E15__single_objectEDpOT0_ # -- Begin function _ZSt11make_uniqueI6CameraJRN8nlohmann10basic_jsonISt3mapSt6vectorNSt7__cxx1112basic_stringIcSt11char_traitsIcESaIcEEEblmdSaNS1_14adl_serializerEEER6OptionEENSt8__detail9_MakeUniqIT_E15__single_objectEDpOT0_
	.p2align	2
	.type	_ZSt11make_uniqueI6CameraJRN8nlohmann10basic_jsonISt3mapSt6vectorNSt7__cxx1112basic_stringIcSt11char_traitsIcESaIcEEEblmdSaNS1_14adl_serializerEEER6OptionEENSt8__detail9_MakeUniqIT_E15__single_objectEDpOT0_,@function
_ZSt11make_uniqueI6CameraJRN8nlohmann10basic_jsonISt3mapSt6vectorNSt7__cxx1112basic_stringIcSt11char_traitsIcESaIcEEEblmdSaNS1_14adl_serializerEEER6OptionEENSt8__detail9_MakeUniqIT_E15__single_objectEDpOT0_: # @_ZSt11make_uniqueI6CameraJRN8nlohmann10basic_jsonISt3mapSt6vectorNSt7__cxx1112basic_stringIcSt11char_traitsIcESaIcEEEblmdSaNS1_14adl_serializerEEER6OptionEENSt8__detail9_MakeUniqIT_E15__single_objectEDpOT0_
.Lfunc_begin4:
	.cfi_startproc
	.cfi_personality 155, DW.ref.__gxx_personality_v0
	.cfi_lsda 27, .Lexception4
# %bb.0:                                # %entry
	addi	sp, sp, -80
	.cfi_def_cfa_offset 80
	sd	ra, 72(sp)
	sd	s0, 64(sp)
	sd	s1, 56(sp)
	sd	s2, 48(sp)
	sd	s3, 40(sp)
	.cfi_offset ra, -8
	.cfi_offset s0, -16
	.cfi_offset s1, -24
	.cfi_offset s2, -32
	.cfi_offset s3, -40
	addi	s0, sp, 80
	.cfi_def_cfa s0, 0
	mv	s2, a0
	sd	s2, -48(s0)
	sd	a1, -56(s0)
	sd	a2, -64(s0)
	addi	a0, zero, 544
	call	_Znwm
	mv	s3, a0
	ld	a0, -56(s0)
	call	_ZSt7forwardIRN8nlohmann10basic_jsonISt3mapSt6vectorNSt7__cxx1112basic_stringIcSt11char_traitsIcESaIcEEEblmdSaNS0_14adl_serializerEEEEOT_RNSt16remove_referenceISD_E4typeE
	mv	s1, a0
	ld	a0, -64(s0)
	call	_ZSt7forwardIR6OptionEOT_RNSt16remove_referenceIS2_E4typeE
	mv	a2, a0
.Ltmp56:
	mv	a0, s3
	mv	a1, s1
	call	_ZN6CameraC1ERKN8nlohmann10basic_jsonISt3mapSt6vectorNSt7__cxx1112basic_stringIcSt11char_traitsIcESaIcEEEblmdSaNS0_14adl_serializerEEERK6Option
.Ltmp57:
	j	.LBB9_1
.LBB9_1:                                # %invoke.cont
	mv	a0, s2
	mv	a1, s3
	call	_ZNSt10unique_ptrI6CameraSt14default_deleteIS0_EEC2IS2_vEEPS0_
	ld	s3, 40(sp)
	ld	s2, 48(sp)
	ld	s1, 56(sp)
	ld	s0, 64(sp)
	.cfi_def_cfa sp, 80
	ld	ra, 72(sp)
	.cfi_restore ra
	.cfi_restore s0
	.cfi_restore s1
	.cfi_restore s2
	.cfi_restore s3
	addi	sp, sp, 80
	.cfi_def_cfa_offset 0
	ret
.LBB9_2:                                # %lpad
.Ltmp58:
	sd	a0, -72(s0)
	sw	a1, -76(s0)
	mv	a0, s3
	call	_ZdlPv
	j	.LBB9_3
.LBB9_3:                                # %eh.resume
	ld	a0, -72(s0)
	call	_Unwind_Resume
.Lfunc_end9:
	.size	_ZSt11make_uniqueI6CameraJRN8nlohmann10basic_jsonISt3mapSt6vectorNSt7__cxx1112basic_stringIcSt11char_traitsIcESaIcEEEblmdSaNS1_14adl_serializerEEER6OptionEENSt8__detail9_MakeUniqIT_E15__single_objectEDpOT0_, .Lfunc_end9-_ZSt11make_uniqueI6CameraJRN8nlohmann10basic_jsonISt3mapSt6vectorNSt7__cxx1112basic_stringIcSt11char_traitsIcESaIcEEEblmdSaNS1_14adl_serializerEEER6OptionEENSt8__detail9_MakeUniqIT_E15__single_objectEDpOT0_
	.cfi_endproc
	.section	.gcc_except_table,"a",@progbits
	.p2align	2
GCC_except_table9:
.Lexception4:
	.byte	255                     # @LPStart Encoding = omit
	.byte	255                     # @TType Encoding = omit
	.byte	3                       # Call site Encoding = udata4
	.uleb128 .Lcst_end4-.Lcst_begin4
.Lcst_begin4:
	.word	.Lfunc_begin4-.Lfunc_begin4 # >> Call Site 1 <<
	.word	.Ltmp56-.Lfunc_begin4   #   Call between .Lfunc_begin4 and .Ltmp56
	.word	0                       #     has no landing pad
	.byte	0                       #   On action: cleanup
	.word	.Ltmp56-.Lfunc_begin4   # >> Call Site 2 <<
	.word	.Ltmp57-.Ltmp56         #   Call between .Ltmp56 and .Ltmp57
	.word	.Ltmp58-.Lfunc_begin4   #     jumps to .Ltmp58
	.byte	0                       #   On action: cleanup
	.word	.Ltmp57-.Lfunc_begin4   # >> Call Site 3 <<
	.word	.Lfunc_end9-.Ltmp57     #   Call between .Ltmp57 and .Lfunc_end9
	.word	0                       #     has no landing pad
	.byte	0                       #   On action: cleanup
.Lcst_end4:
	.p2align	2
                                        # -- End function
	.section	.text._ZNSt10unique_ptrI6CameraSt14default_deleteIS0_EEaSEOS3_,"axG",@progbits,_ZNSt10unique_ptrI6CameraSt14default_deleteIS0_EEaSEOS3_,comdat
	.weak	_ZNSt10unique_ptrI6CameraSt14default_deleteIS0_EEaSEOS3_ # -- Begin function _ZNSt10unique_ptrI6CameraSt14default_deleteIS0_EEaSEOS3_
	.p2align	2
	.type	_ZNSt10unique_ptrI6CameraSt14default_deleteIS0_EEaSEOS3_,@function
_ZNSt10unique_ptrI6CameraSt14default_deleteIS0_EEaSEOS3_: # @_ZNSt10unique_ptrI6CameraSt14default_deleteIS0_EEaSEOS3_
# %bb.0:                                # %entry
	addi	sp, sp, -48
	sd	ra, 40(sp)
	sd	s0, 32(sp)
	sd	s1, 24(sp)
	addi	s0, sp, 48
	sd	a0, -32(s0)
	sd	a1, -40(s0)
	ld	s1, -32(s0)
	ld	a1, -40(s0)
	mv	a0, s1
	call	_ZNSt15__uniq_ptr_dataI6CameraSt14default_deleteIS0_ELb1ELb1EEaSEOS3_
	mv	a0, s1
	ld	s1, 24(sp)
	ld	s0, 32(sp)
	ld	ra, 40(sp)
	addi	sp, sp, 48
	ret
.Lfunc_end10:
	.size	_ZNSt10unique_ptrI6CameraSt14default_deleteIS0_EEaSEOS3_, .Lfunc_end10-_ZNSt10unique_ptrI6CameraSt14default_deleteIS0_EEaSEOS3_
                                        # -- End function
	.section	.text._ZNSt10unique_ptrI6CameraSt14default_deleteIS0_EED2Ev,"axG",@progbits,_ZNSt10unique_ptrI6CameraSt14default_deleteIS0_EED2Ev,comdat
	.weak	_ZNSt10unique_ptrI6CameraSt14default_deleteIS0_EED2Ev # -- Begin function _ZNSt10unique_ptrI6CameraSt14default_deleteIS0_EED2Ev
	.p2align	2
	.type	_ZNSt10unique_ptrI6CameraSt14default_deleteIS0_EED2Ev,@function
_ZNSt10unique_ptrI6CameraSt14default_deleteIS0_EED2Ev: # @_ZNSt10unique_ptrI6CameraSt14default_deleteIS0_EED2Ev
.Lfunc_begin5:
	.cfi_startproc
	.cfi_personality 155, DW.ref.__gxx_personality_v0
	.cfi_lsda 27, .Lexception5
# %bb.0:                                # %entry
	addi	sp, sp, -48
	.cfi_def_cfa_offset 48
	sd	ra, 40(sp)
	sd	s0, 32(sp)
	sd	s1, 24(sp)
	.cfi_offset ra, -8
	.cfi_offset s0, -16
	.cfi_offset s1, -24
	addi	s0, sp, 48
	.cfi_def_cfa s0, 0
	sd	a0, -32(s0)
	ld	s1, -32(s0)
	mv	a0, s1
	call	_ZNSt15__uniq_ptr_implI6CameraSt14default_deleteIS0_EE6_M_ptrEv
	sd	a0, -40(s0)
	ld	a0, -40(s0)
	ld	a0, 0(a0)
	beqz	a0, .LBB11_3
	j	.LBB11_1
.LBB11_1:                               # %if.then
	mv	a0, s1
	call	_ZNSt10unique_ptrI6CameraSt14default_deleteIS0_EE11get_deleterEv
	mv	s1, a0
	ld	a0, -40(s0)
	call	_ZSt4moveIRP6CameraEONSt16remove_referenceIT_E4typeEOS4_
	ld	a1, 0(a0)
.Ltmp59:
	mv	a0, s1
	call	_ZNKSt14default_deleteI6CameraEclEPS0_
.Ltmp60:
	j	.LBB11_2
.LBB11_2:                               # %invoke.cont
	j	.LBB11_3
.LBB11_3:                               # %if.end
	ld	a0, -40(s0)
	sd	zero, 0(a0)
	ld	s1, 24(sp)
	ld	s0, 32(sp)
	.cfi_def_cfa sp, 48
	ld	ra, 40(sp)
	.cfi_restore ra
	.cfi_restore s0
	.cfi_restore s1
	addi	sp, sp, 48
	.cfi_def_cfa_offset 0
	ret
.LBB11_4:                               # %terminate.lpad
.Ltmp61:
	call	__clang_call_terminate
.Lfunc_end11:
	.size	_ZNSt10unique_ptrI6CameraSt14default_deleteIS0_EED2Ev, .Lfunc_end11-_ZNSt10unique_ptrI6CameraSt14default_deleteIS0_EED2Ev
	.cfi_endproc
	.section	.gcc_except_table,"a",@progbits
	.p2align	2
GCC_except_table11:
.Lexception5:
	.byte	255                     # @LPStart Encoding = omit
	.byte	155                     # @TType Encoding = indirect pcrel sdata4
	.uleb128 .Lttbase3-.Lttbaseref3
.Lttbaseref3:
	.byte	3                       # Call site Encoding = udata4
	.uleb128 .Lcst_end5-.Lcst_begin5
.Lcst_begin5:
	.word	.Ltmp59-.Lfunc_begin5   # >> Call Site 1 <<
	.word	.Ltmp60-.Ltmp59         #   Call between .Ltmp59 and .Ltmp60
	.word	.Ltmp61-.Lfunc_begin5   #     jumps to .Ltmp61
	.byte	1                       #   On action: 1
.Lcst_end5:
	.byte	1                       # >> Action Record 1 <<
                                        #   Catch TypeInfo 1
	.byte	0                       #   No further actions
	.p2align	2
                                        # >> Catch TypeInfos <<
	.word	0                       # TypeInfo 1
.Lttbase3:
	.p2align	2
                                        # -- End function
	.section	.text._ZNKSt10unique_ptrI6CameraSt14default_deleteIS0_EEptEv,"axG",@progbits,_ZNKSt10unique_ptrI6CameraSt14default_deleteIS0_EEptEv,comdat
	.weak	_ZNKSt10unique_ptrI6CameraSt14default_deleteIS0_EEptEv # -- Begin function _ZNKSt10unique_ptrI6CameraSt14default_deleteIS0_EEptEv
	.p2align	2
	.type	_ZNKSt10unique_ptrI6CameraSt14default_deleteIS0_EEptEv,@function
_ZNKSt10unique_ptrI6CameraSt14default_deleteIS0_EEptEv: # @_ZNKSt10unique_ptrI6CameraSt14default_deleteIS0_EEptEv
# %bb.0:                                # %entry
	addi	sp, sp, -32
	sd	ra, 24(sp)
	sd	s0, 16(sp)
	addi	s0, sp, 32
	sd	a0, -24(s0)
	ld	a0, -24(s0)
	call	_ZNKSt10unique_ptrI6CameraSt14default_deleteIS0_EE3getEv
	ld	s0, 16(sp)
	ld	ra, 24(sp)
	addi	sp, sp, 32
	ret
.Lfunc_end12:
	.size	_ZNKSt10unique_ptrI6CameraSt14default_deleteIS0_EEptEv, .Lfunc_end12-_ZNKSt10unique_ptrI6CameraSt14default_deleteIS0_EEptEv
                                        # -- End function
	.section	.text._ZN8nlohmann10basic_jsonISt3mapSt6vectorNSt7__cxx1112basic_stringIcSt11char_traitsIcESaIcEEEblmdSaNS_14adl_serializerEED2Ev,"axG",@progbits,_ZN8nlohmann10basic_jsonISt3mapSt6vectorNSt7__cxx1112basic_stringIcSt11char_traitsIcESaIcEEEblmdSaNS_14adl_serializerEED2Ev,comdat
	.weak	_ZN8nlohmann10basic_jsonISt3mapSt6vectorNSt7__cxx1112basic_stringIcSt11char_traitsIcESaIcEEEblmdSaNS_14adl_serializerEED2Ev # -- Begin function _ZN8nlohmann10basic_jsonISt3mapSt6vectorNSt7__cxx1112basic_stringIcSt11char_traitsIcESaIcEEEblmdSaNS_14adl_serializerEED2Ev
	.p2align	2
	.type	_ZN8nlohmann10basic_jsonISt3mapSt6vectorNSt7__cxx1112basic_stringIcSt11char_traitsIcESaIcEEEblmdSaNS_14adl_serializerEED2Ev,@function
_ZN8nlohmann10basic_jsonISt3mapSt6vectorNSt7__cxx1112basic_stringIcSt11char_traitsIcESaIcEEEblmdSaNS_14adl_serializerEED2Ev: # @_ZN8nlohmann10basic_jsonISt3mapSt6vectorNSt7__cxx1112basic_stringIcSt11char_traitsIcESaIcEEEblmdSaNS_14adl_serializerEED2Ev
# %bb.0:                                # %entry
	addi	sp, sp, -32
	sd	ra, 24(sp)
	sd	s0, 16(sp)
	sd	s1, 8(sp)
	addi	s0, sp, 32
	sd	a0, -32(s0)
	ld	s1, -32(s0)
	mv	a0, s1
	call	_ZNK8nlohmann10basic_jsonISt3mapSt6vectorNSt7__cxx1112basic_stringIcSt11char_traitsIcESaIcEEEblmdSaNS_14adl_serializerEE16assert_invariantEv
	addi	a0, s1, 8
	lbu	a1, 0(s1)
	call	_ZN8nlohmann10basic_jsonISt3mapSt6vectorNSt7__cxx1112basic_stringIcSt11char_traitsIcESaIcEEEblmdSaNS_14adl_serializerEE10json_value7destroyENS_6detail7value_tE
	ld	s1, 8(sp)
	ld	s0, 16(sp)
	ld	ra, 24(sp)
	addi	sp, sp, 32
	ret
.Lfunc_end13:
	.size	_ZN8nlohmann10basic_jsonISt3mapSt6vectorNSt7__cxx1112basic_stringIcSt11char_traitsIcESaIcEEEblmdSaNS_14adl_serializerEED2Ev, .Lfunc_end13-_ZN8nlohmann10basic_jsonISt3mapSt6vectorNSt7__cxx1112basic_stringIcSt11char_traitsIcESaIcEEEblmdSaNS_14adl_serializerEED2Ev
                                        # -- End function
	.section	.text._ZN6OptionD2Ev,"axG",@progbits,_ZN6OptionD2Ev,comdat
	.weak	_ZN6OptionD2Ev          # -- Begin function _ZN6OptionD2Ev
	.p2align	2
	.type	_ZN6OptionD2Ev,@function
_ZN6OptionD2Ev:                         # @_ZN6OptionD2Ev
# %bb.0:                                # %entry
	addi	sp, sp, -32
	sd	ra, 24(sp)
	sd	s0, 16(sp)
	sd	s1, 8(sp)
	addi	s0, sp, 32
	sd	a0, -32(s0)
	ld	s1, -32(s0)
	addi	a0, s1, 32
	call	_ZNSt7__cxx1112basic_stringIcSt11char_traitsIcESaIcEED1Ev
	mv	a0, s1
	call	_ZNSt7__cxx1112basic_stringIcSt11char_traitsIcESaIcEED1Ev
	ld	s1, 8(sp)
	ld	s0, 16(sp)
	ld	ra, 24(sp)
	addi	sp, sp, 32
	ret
.Lfunc_end14:
	.size	_ZN6OptionD2Ev, .Lfunc_end14-_ZN6OptionD2Ev
                                        # -- End function
	.section	.text._ZNSt12_Vector_baseI6OptionSaIS0_EEC2Ev,"axG",@progbits,_ZNSt12_Vector_baseI6OptionSaIS0_EEC2Ev,comdat
	.weak	_ZNSt12_Vector_baseI6OptionSaIS0_EEC2Ev # -- Begin function _ZNSt12_Vector_baseI6OptionSaIS0_EEC2Ev
	.p2align	2
	.type	_ZNSt12_Vector_baseI6OptionSaIS0_EEC2Ev,@function
_ZNSt12_Vector_baseI6OptionSaIS0_EEC2Ev: # @_ZNSt12_Vector_baseI6OptionSaIS0_EEC2Ev
# %bb.0:                                # %entry
	addi	sp, sp, -32
	sd	ra, 24(sp)
	sd	s0, 16(sp)
	addi	s0, sp, 32
	sd	a0, -24(s0)
	ld	a0, -24(s0)
	call	_ZNSt12_Vector_baseI6OptionSaIS0_EE12_Vector_implC2Ev
	ld	s0, 16(sp)
	ld	ra, 24(sp)
	addi	sp, sp, 32
	ret
.Lfunc_end15:
	.size	_ZNSt12_Vector_baseI6OptionSaIS0_EEC2Ev, .Lfunc_end15-_ZNSt12_Vector_baseI6OptionSaIS0_EEC2Ev
                                        # -- End function
	.section	.text._ZNSt12_Vector_baseI6OptionSaIS0_EE12_Vector_implC2Ev,"axG",@progbits,_ZNSt12_Vector_baseI6OptionSaIS0_EE12_Vector_implC2Ev,comdat
	.weak	_ZNSt12_Vector_baseI6OptionSaIS0_EE12_Vector_implC2Ev # -- Begin function _ZNSt12_Vector_baseI6OptionSaIS0_EE12_Vector_implC2Ev
	.p2align	2
	.type	_ZNSt12_Vector_baseI6OptionSaIS0_EE12_Vector_implC2Ev,@function
_ZNSt12_Vector_baseI6OptionSaIS0_EE12_Vector_implC2Ev: # @_ZNSt12_Vector_baseI6OptionSaIS0_EE12_Vector_implC2Ev
# %bb.0:                                # %entry
	addi	sp, sp, -48
	sd	ra, 40(sp)
	sd	s0, 32(sp)
	addi	s0, sp, 48
	sd	a0, -40(s0)
	ld	a0, -40(s0)
	sd	a0, -32(s0)
	ld	a1, -32(s0)
	sd	a1, -24(s0)
	call	_ZNSt12_Vector_baseI6OptionSaIS0_EE17_Vector_impl_dataC2Ev
	ld	s0, 32(sp)
	ld	ra, 40(sp)
	addi	sp, sp, 48
	ret
.Lfunc_end16:
	.size	_ZNSt12_Vector_baseI6OptionSaIS0_EE12_Vector_implC2Ev, .Lfunc_end16-_ZNSt12_Vector_baseI6OptionSaIS0_EE12_Vector_implC2Ev
                                        # -- End function
	.section	.text._ZNSt15__uniq_ptr_dataI6CameraSt14default_deleteIS0_ELb1ELb1EECI2St15__uniq_ptr_implIS0_S2_EEv,"axG",@progbits,_ZNSt15__uniq_ptr_dataI6CameraSt14default_deleteIS0_ELb1ELb1EECI2St15__uniq_ptr_implIS0_S2_EEv,comdat
	.weak	_ZNSt15__uniq_ptr_dataI6CameraSt14default_deleteIS0_ELb1ELb1EECI2St15__uniq_ptr_implIS0_S2_EEv # -- Begin function _ZNSt15__uniq_ptr_dataI6CameraSt14default_deleteIS0_ELb1ELb1EECI2St15__uniq_ptr_implIS0_S2_EEv
	.p2align	2
	.type	_ZNSt15__uniq_ptr_dataI6CameraSt14default_deleteIS0_ELb1ELb1EECI2St15__uniq_ptr_implIS0_S2_EEv,@function
_ZNSt15__uniq_ptr_dataI6CameraSt14default_deleteIS0_ELb1ELb1EECI2St15__uniq_ptr_implIS0_S2_EEv: # @_ZNSt15__uniq_ptr_dataI6CameraSt14default_deleteIS0_ELb1ELb1EECI2St15__uniq_ptr_implIS0_S2_EEv
# %bb.0:                                # %entry
	addi	sp, sp, -32
	sd	ra, 24(sp)
	sd	s0, 16(sp)
	addi	s0, sp, 32
	sd	a0, -24(s0)
	ld	a0, -24(s0)
	call	_ZNSt15__uniq_ptr_implI6CameraSt14default_deleteIS0_EEC2Ev
	ld	s0, 16(sp)
	ld	ra, 24(sp)
	addi	sp, sp, 32
	ret
.Lfunc_end17:
	.size	_ZNSt15__uniq_ptr_dataI6CameraSt14default_deleteIS0_ELb1ELb1EECI2St15__uniq_ptr_implIS0_S2_EEv, .Lfunc_end17-_ZNSt15__uniq_ptr_dataI6CameraSt14default_deleteIS0_ELb1ELb1EECI2St15__uniq_ptr_implIS0_S2_EEv
                                        # -- End function
	.section	.text._ZNSt15__uniq_ptr_implI6CameraSt14default_deleteIS0_EEC2Ev,"axG",@progbits,_ZNSt15__uniq_ptr_implI6CameraSt14default_deleteIS0_EEC2Ev,comdat
	.weak	_ZNSt15__uniq_ptr_implI6CameraSt14default_deleteIS0_EEC2Ev # -- Begin function _ZNSt15__uniq_ptr_implI6CameraSt14default_deleteIS0_EEC2Ev
	.p2align	2
	.type	_ZNSt15__uniq_ptr_implI6CameraSt14default_deleteIS0_EEC2Ev,@function
_ZNSt15__uniq_ptr_implI6CameraSt14default_deleteIS0_EEC2Ev: # @_ZNSt15__uniq_ptr_implI6CameraSt14default_deleteIS0_EEC2Ev
# %bb.0:                                # %entry
	addi	sp, sp, -32
	sd	ra, 24(sp)
	sd	s0, 16(sp)
	addi	s0, sp, 32
	sd	a0, -24(s0)
	ld	a0, -24(s0)
	call	_ZNSt5tupleIJP6CameraSt14default_deleteIS0_EEEC2ILb1ELb1EEEv
	ld	s0, 16(sp)
	ld	ra, 24(sp)
	addi	sp, sp, 32
	ret
.Lfunc_end18:
	.size	_ZNSt15__uniq_ptr_implI6CameraSt14default_deleteIS0_EEC2Ev, .Lfunc_end18-_ZNSt15__uniq_ptr_implI6CameraSt14default_deleteIS0_EEC2Ev
                                        # -- End function
	.section	.text._ZNSt5tupleIJP6CameraSt14default_deleteIS0_EEEC2ILb1ELb1EEEv,"axG",@progbits,_ZNSt5tupleIJP6CameraSt14default_deleteIS0_EEEC2ILb1ELb1EEEv,comdat
	.weak	_ZNSt5tupleIJP6CameraSt14default_deleteIS0_EEEC2ILb1ELb1EEEv # -- Begin function _ZNSt5tupleIJP6CameraSt14default_deleteIS0_EEEC2ILb1ELb1EEEv
	.p2align	2
	.type	_ZNSt5tupleIJP6CameraSt14default_deleteIS0_EEEC2ILb1ELb1EEEv,@function
_ZNSt5tupleIJP6CameraSt14default_deleteIS0_EEEC2ILb1ELb1EEEv: # @_ZNSt5tupleIJP6CameraSt14default_deleteIS0_EEEC2ILb1ELb1EEEv
.Lfunc_begin6:
	.cfi_startproc
	.cfi_personality 155, DW.ref.__gxx_personality_v0
	.cfi_lsda 27, .Lexception6
# %bb.0:                                # %entry
	addi	sp, sp, -32
	.cfi_def_cfa_offset 32
	sd	ra, 24(sp)
	sd	s0, 16(sp)
	.cfi_offset ra, -8
	.cfi_offset s0, -16
	addi	s0, sp, 32
	.cfi_def_cfa s0, 0
	sd	a0, -24(s0)
	ld	a0, -24(s0)
.Ltmp62:
	call	_ZNSt11_Tuple_implILm0EJP6CameraSt14default_deleteIS0_EEEC2Ev
.Ltmp63:
	j	.LBB19_1
.LBB19_1:                               # %invoke.cont
	ld	s0, 16(sp)
	.cfi_def_cfa sp, 32
	ld	ra, 24(sp)
	.cfi_restore ra
	.cfi_restore s0
	addi	sp, sp, 32
	.cfi_def_cfa_offset 0
	ret
.LBB19_2:                               # %terminate.lpad
.Ltmp64:
	call	__clang_call_terminate
.Lfunc_end19:
	.size	_ZNSt5tupleIJP6CameraSt14default_deleteIS0_EEEC2ILb1ELb1EEEv, .Lfunc_end19-_ZNSt5tupleIJP6CameraSt14default_deleteIS0_EEEC2ILb1ELb1EEEv
	.cfi_endproc
	.section	.gcc_except_table,"a",@progbits
	.p2align	2
GCC_except_table19:
.Lexception6:
	.byte	255                     # @LPStart Encoding = omit
	.byte	155                     # @TType Encoding = indirect pcrel sdata4
	.uleb128 .Lttbase4-.Lttbaseref4
.Lttbaseref4:
	.byte	3                       # Call site Encoding = udata4
	.uleb128 .Lcst_end6-.Lcst_begin6
.Lcst_begin6:
	.word	.Ltmp62-.Lfunc_begin6   # >> Call Site 1 <<
	.word	.Ltmp63-.Ltmp62         #   Call between .Ltmp62 and .Ltmp63
	.word	.Ltmp64-.Lfunc_begin6   #     jumps to .Ltmp64
	.byte	1                       #   On action: 1
.Lcst_end6:
	.byte	1                       # >> Action Record 1 <<
                                        #   Catch TypeInfo 1
	.byte	0                       #   No further actions
	.p2align	2
                                        # >> Catch TypeInfos <<
	.word	0                       # TypeInfo 1
.Lttbase4:
	.p2align	2
                                        # -- End function
	.section	.text._ZNSt11_Tuple_implILm0EJP6CameraSt14default_deleteIS0_EEEC2Ev,"axG",@progbits,_ZNSt11_Tuple_implILm0EJP6CameraSt14default_deleteIS0_EEEC2Ev,comdat
	.weak	_ZNSt11_Tuple_implILm0EJP6CameraSt14default_deleteIS0_EEEC2Ev # -- Begin function _ZNSt11_Tuple_implILm0EJP6CameraSt14default_deleteIS0_EEEC2Ev
	.p2align	2
	.type	_ZNSt11_Tuple_implILm0EJP6CameraSt14default_deleteIS0_EEEC2Ev,@function
_ZNSt11_Tuple_implILm0EJP6CameraSt14default_deleteIS0_EEEC2Ev: # @_ZNSt11_Tuple_implILm0EJP6CameraSt14default_deleteIS0_EEEC2Ev
	.cfi_startproc
# %bb.0:                                # %entry
	addi	sp, sp, -32
	.cfi_def_cfa_offset 32
	sd	ra, 24(sp)
	sd	s0, 16(sp)
	sd	s1, 8(sp)
	.cfi_offset ra, -8
	.cfi_offset s0, -16
	.cfi_offset s1, -24
	addi	s0, sp, 32
	.cfi_def_cfa s0, 0
	sd	a0, -32(s0)
	ld	s1, -32(s0)
	mv	a0, s1
	call	_ZNSt11_Tuple_implILm1EJSt14default_deleteI6CameraEEEC2Ev
	mv	a0, s1
	call	_ZNSt10_Head_baseILm0EP6CameraLb0EEC2Ev
	ld	s1, 8(sp)
	ld	s0, 16(sp)
	.cfi_def_cfa sp, 32
	ld	ra, 24(sp)
	.cfi_restore ra
	.cfi_restore s0
	.cfi_restore s1
	addi	sp, sp, 32
	.cfi_def_cfa_offset 0
	ret
.Lfunc_end20:
	.size	_ZNSt11_Tuple_implILm0EJP6CameraSt14default_deleteIS0_EEEC2Ev, .Lfunc_end20-_ZNSt11_Tuple_implILm0EJP6CameraSt14default_deleteIS0_EEEC2Ev
	.cfi_endproc
                                        # -- End function
	.section	.text._ZNSt11_Tuple_implILm1EJSt14default_deleteI6CameraEEEC2Ev,"axG",@progbits,_ZNSt11_Tuple_implILm1EJSt14default_deleteI6CameraEEEC2Ev,comdat
	.weak	_ZNSt11_Tuple_implILm1EJSt14default_deleteI6CameraEEEC2Ev # -- Begin function _ZNSt11_Tuple_implILm1EJSt14default_deleteI6CameraEEEC2Ev
	.p2align	2
	.type	_ZNSt11_Tuple_implILm1EJSt14default_deleteI6CameraEEEC2Ev,@function
_ZNSt11_Tuple_implILm1EJSt14default_deleteI6CameraEEEC2Ev: # @_ZNSt11_Tuple_implILm1EJSt14default_deleteI6CameraEEEC2Ev
	.cfi_startproc
# %bb.0:                                # %entry
	addi	sp, sp, -32
	.cfi_def_cfa_offset 32
	sd	ra, 24(sp)
	sd	s0, 16(sp)
	.cfi_offset ra, -8
	.cfi_offset s0, -16
	addi	s0, sp, 32
	.cfi_def_cfa s0, 0
	sd	a0, -24(s0)
	ld	a0, -24(s0)
	call	_ZNSt10_Head_baseILm1ESt14default_deleteI6CameraELb1EEC2Ev
	ld	s0, 16(sp)
	.cfi_def_cfa sp, 32
	ld	ra, 24(sp)
	.cfi_restore ra
	.cfi_restore s0
	addi	sp, sp, 32
	.cfi_def_cfa_offset 0
	ret
.Lfunc_end21:
	.size	_ZNSt11_Tuple_implILm1EJSt14default_deleteI6CameraEEEC2Ev, .Lfunc_end21-_ZNSt11_Tuple_implILm1EJSt14default_deleteI6CameraEEEC2Ev
	.cfi_endproc
                                        # -- End function
	.section	.text._ZNSt10_Head_baseILm0EP6CameraLb0EEC2Ev,"axG",@progbits,_ZNSt10_Head_baseILm0EP6CameraLb0EEC2Ev,comdat
	.weak	_ZNSt10_Head_baseILm0EP6CameraLb0EEC2Ev # -- Begin function _ZNSt10_Head_baseILm0EP6CameraLb0EEC2Ev
	.p2align	2
	.type	_ZNSt10_Head_baseILm0EP6CameraLb0EEC2Ev,@function
_ZNSt10_Head_baseILm0EP6CameraLb0EEC2Ev: # @_ZNSt10_Head_baseILm0EP6CameraLb0EEC2Ev
# %bb.0:                                # %entry
	addi	sp, sp, -32
	sd	ra, 24(sp)
	sd	s0, 16(sp)
	addi	s0, sp, 32
	sd	a0, -24(s0)
	ld	a0, -24(s0)
	sd	zero, 0(a0)
	ld	s0, 16(sp)
	ld	ra, 24(sp)
	addi	sp, sp, 32
	ret
.Lfunc_end22:
	.size	_ZNSt10_Head_baseILm0EP6CameraLb0EEC2Ev, .Lfunc_end22-_ZNSt10_Head_baseILm0EP6CameraLb0EEC2Ev
                                        # -- End function
	.section	.text._ZNSt10_Head_baseILm1ESt14default_deleteI6CameraELb1EEC2Ev,"axG",@progbits,_ZNSt10_Head_baseILm1ESt14default_deleteI6CameraELb1EEC2Ev,comdat
	.weak	_ZNSt10_Head_baseILm1ESt14default_deleteI6CameraELb1EEC2Ev # -- Begin function _ZNSt10_Head_baseILm1ESt14default_deleteI6CameraELb1EEC2Ev
	.p2align	2
	.type	_ZNSt10_Head_baseILm1ESt14default_deleteI6CameraELb1EEC2Ev,@function
_ZNSt10_Head_baseILm1ESt14default_deleteI6CameraELb1EEC2Ev: # @_ZNSt10_Head_baseILm1ESt14default_deleteI6CameraELb1EEC2Ev
# %bb.0:                                # %entry
	addi	sp, sp, -32
	sd	ra, 24(sp)
	sd	s0, 16(sp)
	addi	s0, sp, 32
	sd	a0, -24(s0)
	ld	s0, 16(sp)
	ld	ra, 24(sp)
	addi	sp, sp, 32
	ret
.Lfunc_end23:
	.size	_ZNSt10_Head_baseILm1ESt14default_deleteI6CameraELb1EEC2Ev, .Lfunc_end23-_ZNSt10_Head_baseILm1ESt14default_deleteI6CameraELb1EEC2Ev
                                        # -- End function
	.section	.text._ZNSt15__uniq_ptr_dataI6CameraSt14default_deleteIS0_ELb1ELb1EEaSEOS3_,"axG",@progbits,_ZNSt15__uniq_ptr_dataI6CameraSt14default_deleteIS0_ELb1ELb1EEaSEOS3_,comdat
	.weak	_ZNSt15__uniq_ptr_dataI6CameraSt14default_deleteIS0_ELb1ELb1EEaSEOS3_ # -- Begin function _ZNSt15__uniq_ptr_dataI6CameraSt14default_deleteIS0_ELb1ELb1EEaSEOS3_
	.p2align	2
	.type	_ZNSt15__uniq_ptr_dataI6CameraSt14default_deleteIS0_ELb1ELb1EEaSEOS3_,@function
_ZNSt15__uniq_ptr_dataI6CameraSt14default_deleteIS0_ELb1ELb1EEaSEOS3_: # @_ZNSt15__uniq_ptr_dataI6CameraSt14default_deleteIS0_ELb1ELb1EEaSEOS3_
# %bb.0:                                # %entry
	addi	sp, sp, -48
	sd	ra, 40(sp)
	sd	s0, 32(sp)
	sd	s1, 24(sp)
	addi	s0, sp, 48
	sd	a0, -32(s0)
	sd	a1, -40(s0)
	ld	s1, -32(s0)
	ld	a1, -40(s0)
	mv	a0, s1
	call	_ZNSt15__uniq_ptr_implI6CameraSt14default_deleteIS0_EEaSEOS3_
	mv	a0, s1
	ld	s1, 24(sp)
	ld	s0, 32(sp)
	ld	ra, 40(sp)
	addi	sp, sp, 48
	ret
.Lfunc_end24:
	.size	_ZNSt15__uniq_ptr_dataI6CameraSt14default_deleteIS0_ELb1ELb1EEaSEOS3_, .Lfunc_end24-_ZNSt15__uniq_ptr_dataI6CameraSt14default_deleteIS0_ELb1ELb1EEaSEOS3_
                                        # -- End function
	.section	.text._ZNSt15__uniq_ptr_implI6CameraSt14default_deleteIS0_EEaSEOS3_,"axG",@progbits,_ZNSt15__uniq_ptr_implI6CameraSt14default_deleteIS0_EEaSEOS3_,comdat
	.weak	_ZNSt15__uniq_ptr_implI6CameraSt14default_deleteIS0_EEaSEOS3_ # -- Begin function _ZNSt15__uniq_ptr_implI6CameraSt14default_deleteIS0_EEaSEOS3_
	.p2align	2
	.type	_ZNSt15__uniq_ptr_implI6CameraSt14default_deleteIS0_EEaSEOS3_,@function
_ZNSt15__uniq_ptr_implI6CameraSt14default_deleteIS0_EEaSEOS3_: # @_ZNSt15__uniq_ptr_implI6CameraSt14default_deleteIS0_EEaSEOS3_
# %bb.0:                                # %entry
	addi	sp, sp, -48
	sd	ra, 40(sp)
	sd	s0, 32(sp)
	sd	s1, 24(sp)
	addi	s0, sp, 48
	sd	a0, -32(s0)
	sd	a1, -40(s0)
	ld	s1, -32(s0)
	ld	a0, -40(s0)
	call	_ZNSt15__uniq_ptr_implI6CameraSt14default_deleteIS0_EE7releaseEv
	mv	a1, a0
	mv	a0, s1
	call	_ZNSt15__uniq_ptr_implI6CameraSt14default_deleteIS0_EE5resetEPS0_
	ld	a0, -40(s0)
	call	_ZNSt15__uniq_ptr_implI6CameraSt14default_deleteIS0_EE10_M_deleterEv
	call	_ZSt7forwardISt14default_deleteI6CameraEEOT_RNSt16remove_referenceIS3_E4typeE
	mv	a0, s1
	call	_ZNSt15__uniq_ptr_implI6CameraSt14default_deleteIS0_EE10_M_deleterEv
	mv	a0, s1
	ld	s1, 24(sp)
	ld	s0, 32(sp)
	ld	ra, 40(sp)
	addi	sp, sp, 48
	ret
.Lfunc_end25:
	.size	_ZNSt15__uniq_ptr_implI6CameraSt14default_deleteIS0_EEaSEOS3_, .Lfunc_end25-_ZNSt15__uniq_ptr_implI6CameraSt14default_deleteIS0_EEaSEOS3_
                                        # -- End function
	.section	.text._ZNSt15__uniq_ptr_implI6CameraSt14default_deleteIS0_EE5resetEPS0_,"axG",@progbits,_ZNSt15__uniq_ptr_implI6CameraSt14default_deleteIS0_EE5resetEPS0_,comdat
	.weak	_ZNSt15__uniq_ptr_implI6CameraSt14default_deleteIS0_EE5resetEPS0_ # -- Begin function _ZNSt15__uniq_ptr_implI6CameraSt14default_deleteIS0_EE5resetEPS0_
	.p2align	2
	.type	_ZNSt15__uniq_ptr_implI6CameraSt14default_deleteIS0_EE5resetEPS0_,@function
_ZNSt15__uniq_ptr_implI6CameraSt14default_deleteIS0_EE5resetEPS0_: # @_ZNSt15__uniq_ptr_implI6CameraSt14default_deleteIS0_EE5resetEPS0_
.Lfunc_begin7:
	.cfi_startproc
	.cfi_personality 155, DW.ref.__gxx_personality_v0
	.cfi_lsda 27, .Lexception7
# %bb.0:                                # %entry
	addi	sp, sp, -64
	.cfi_def_cfa_offset 64
	sd	ra, 56(sp)
	sd	s0, 48(sp)
	sd	s1, 40(sp)
	sd	s2, 32(sp)
	.cfi_offset ra, -8
	.cfi_offset s0, -16
	.cfi_offset s1, -24
	.cfi_offset s2, -32
	addi	s0, sp, 64
	.cfi_def_cfa s0, 0
	sd	a0, -40(s0)
	sd	a1, -48(s0)
	ld	s1, -40(s0)
	mv	a0, s1
	call	_ZNSt15__uniq_ptr_implI6CameraSt14default_deleteIS0_EE6_M_ptrEv
	ld	a0, 0(a0)
	sd	a0, -56(s0)
	ld	s2, -48(s0)
	mv	a0, s1
	call	_ZNSt15__uniq_ptr_implI6CameraSt14default_deleteIS0_EE6_M_ptrEv
	sd	s2, 0(a0)
	ld	a0, -56(s0)
	beqz	a0, .LBB26_3
	j	.LBB26_1
.LBB26_1:                               # %if.then
	mv	a0, s1
	call	_ZNSt15__uniq_ptr_implI6CameraSt14default_deleteIS0_EE10_M_deleterEv
	ld	a1, -56(s0)
.Ltmp65:
	call	_ZNKSt14default_deleteI6CameraEclEPS0_
.Ltmp66:
	j	.LBB26_2
.LBB26_2:                               # %invoke.cont
	j	.LBB26_3
.LBB26_3:                               # %if.end
	ld	s2, 32(sp)
	ld	s1, 40(sp)
	ld	s0, 48(sp)
	.cfi_def_cfa sp, 64
	ld	ra, 56(sp)
	.cfi_restore ra
	.cfi_restore s0
	.cfi_restore s1
	.cfi_restore s2
	addi	sp, sp, 64
	.cfi_def_cfa_offset 0
	ret
.LBB26_4:                               # %terminate.lpad
.Ltmp67:
	call	__clang_call_terminate
.Lfunc_end26:
	.size	_ZNSt15__uniq_ptr_implI6CameraSt14default_deleteIS0_EE5resetEPS0_, .Lfunc_end26-_ZNSt15__uniq_ptr_implI6CameraSt14default_deleteIS0_EE5resetEPS0_
	.cfi_endproc
	.section	.gcc_except_table,"a",@progbits
	.p2align	2
GCC_except_table26:
.Lexception7:
	.byte	255                     # @LPStart Encoding = omit
	.byte	155                     # @TType Encoding = indirect pcrel sdata4
	.uleb128 .Lttbase5-.Lttbaseref5
.Lttbaseref5:
	.byte	3                       # Call site Encoding = udata4
	.uleb128 .Lcst_end7-.Lcst_begin7
.Lcst_begin7:
	.word	.Ltmp65-.Lfunc_begin7   # >> Call Site 1 <<
	.word	.Ltmp66-.Ltmp65         #   Call between .Ltmp65 and .Ltmp66
	.word	.Ltmp67-.Lfunc_begin7   #     jumps to .Ltmp67
	.byte	1                       #   On action: 1
.Lcst_end7:
	.byte	1                       # >> Action Record 1 <<
                                        #   Catch TypeInfo 1
	.byte	0                       #   No further actions
	.p2align	2
                                        # >> Catch TypeInfos <<
	.word	0                       # TypeInfo 1
.Lttbase5:
	.p2align	2
                                        # -- End function
	.section	.text._ZNSt15__uniq_ptr_implI6CameraSt14default_deleteIS0_EE7releaseEv,"axG",@progbits,_ZNSt15__uniq_ptr_implI6CameraSt14default_deleteIS0_EE7releaseEv,comdat
	.weak	_ZNSt15__uniq_ptr_implI6CameraSt14default_deleteIS0_EE7releaseEv # -- Begin function _ZNSt15__uniq_ptr_implI6CameraSt14default_deleteIS0_EE7releaseEv
	.p2align	2
	.type	_ZNSt15__uniq_ptr_implI6CameraSt14default_deleteIS0_EE7releaseEv,@function
_ZNSt15__uniq_ptr_implI6CameraSt14default_deleteIS0_EE7releaseEv: # @_ZNSt15__uniq_ptr_implI6CameraSt14default_deleteIS0_EE7releaseEv
# %bb.0:                                # %entry
	addi	sp, sp, -48
	sd	ra, 40(sp)
	sd	s0, 32(sp)
	sd	s1, 24(sp)
	addi	s0, sp, 48
	sd	a0, -32(s0)
	ld	s1, -32(s0)
	mv	a0, s1
	call	_ZNSt15__uniq_ptr_implI6CameraSt14default_deleteIS0_EE6_M_ptrEv
	ld	a0, 0(a0)
	sd	a0, -40(s0)
	mv	a0, s1
	call	_ZNSt15__uniq_ptr_implI6CameraSt14default_deleteIS0_EE6_M_ptrEv
	sd	zero, 0(a0)
	ld	a0, -40(s0)
	ld	s1, 24(sp)
	ld	s0, 32(sp)
	ld	ra, 40(sp)
	addi	sp, sp, 48
	ret
.Lfunc_end27:
	.size	_ZNSt15__uniq_ptr_implI6CameraSt14default_deleteIS0_EE7releaseEv, .Lfunc_end27-_ZNSt15__uniq_ptr_implI6CameraSt14default_deleteIS0_EE7releaseEv
                                        # -- End function
	.section	.text._ZSt7forwardISt14default_deleteI6CameraEEOT_RNSt16remove_referenceIS3_E4typeE,"axG",@progbits,_ZSt7forwardISt14default_deleteI6CameraEEOT_RNSt16remove_referenceIS3_E4typeE,comdat
	.weak	_ZSt7forwardISt14default_deleteI6CameraEEOT_RNSt16remove_referenceIS3_E4typeE # -- Begin function _ZSt7forwardISt14default_deleteI6CameraEEOT_RNSt16remove_referenceIS3_E4typeE
	.p2align	2
	.type	_ZSt7forwardISt14default_deleteI6CameraEEOT_RNSt16remove_referenceIS3_E4typeE,@function
_ZSt7forwardISt14default_deleteI6CameraEEOT_RNSt16remove_referenceIS3_E4typeE: # @_ZSt7forwardISt14default_deleteI6CameraEEOT_RNSt16remove_referenceIS3_E4typeE
# %bb.0:                                # %entry
	addi	sp, sp, -32
	sd	ra, 24(sp)
	sd	s0, 16(sp)
	addi	s0, sp, 32
	sd	a0, -24(s0)
	ld	a0, -24(s0)
	ld	s0, 16(sp)
	ld	ra, 24(sp)
	addi	sp, sp, 32
	ret
.Lfunc_end28:
	.size	_ZSt7forwardISt14default_deleteI6CameraEEOT_RNSt16remove_referenceIS3_E4typeE, .Lfunc_end28-_ZSt7forwardISt14default_deleteI6CameraEEOT_RNSt16remove_referenceIS3_E4typeE
                                        # -- End function
	.section	.text._ZNSt15__uniq_ptr_implI6CameraSt14default_deleteIS0_EE10_M_deleterEv,"axG",@progbits,_ZNSt15__uniq_ptr_implI6CameraSt14default_deleteIS0_EE10_M_deleterEv,comdat
	.weak	_ZNSt15__uniq_ptr_implI6CameraSt14default_deleteIS0_EE10_M_deleterEv # -- Begin function _ZNSt15__uniq_ptr_implI6CameraSt14default_deleteIS0_EE10_M_deleterEv
	.p2align	2
	.type	_ZNSt15__uniq_ptr_implI6CameraSt14default_deleteIS0_EE10_M_deleterEv,@function
_ZNSt15__uniq_ptr_implI6CameraSt14default_deleteIS0_EE10_M_deleterEv: # @_ZNSt15__uniq_ptr_implI6CameraSt14default_deleteIS0_EE10_M_deleterEv
# %bb.0:                                # %entry
	addi	sp, sp, -32
	sd	ra, 24(sp)
	sd	s0, 16(sp)
	addi	s0, sp, 32
	sd	a0, -24(s0)
	ld	a0, -24(s0)
	call	_ZSt3getILm1EJP6CameraSt14default_deleteIS0_EEERNSt13tuple_elementIXT_ESt5tupleIJDpT0_EEE4typeERS8_
	ld	s0, 16(sp)
	ld	ra, 24(sp)
	addi	sp, sp, 32
	ret
.Lfunc_end29:
	.size	_ZNSt15__uniq_ptr_implI6CameraSt14default_deleteIS0_EE10_M_deleterEv, .Lfunc_end29-_ZNSt15__uniq_ptr_implI6CameraSt14default_deleteIS0_EE10_M_deleterEv
                                        # -- End function
	.section	.text._ZNSt15__uniq_ptr_implI6CameraSt14default_deleteIS0_EE6_M_ptrEv,"axG",@progbits,_ZNSt15__uniq_ptr_implI6CameraSt14default_deleteIS0_EE6_M_ptrEv,comdat
	.weak	_ZNSt15__uniq_ptr_implI6CameraSt14default_deleteIS0_EE6_M_ptrEv # -- Begin function _ZNSt15__uniq_ptr_implI6CameraSt14default_deleteIS0_EE6_M_ptrEv
	.p2align	2
	.type	_ZNSt15__uniq_ptr_implI6CameraSt14default_deleteIS0_EE6_M_ptrEv,@function
_ZNSt15__uniq_ptr_implI6CameraSt14default_deleteIS0_EE6_M_ptrEv: # @_ZNSt15__uniq_ptr_implI6CameraSt14default_deleteIS0_EE6_M_ptrEv
# %bb.0:                                # %entry
	addi	sp, sp, -32
	sd	ra, 24(sp)
	sd	s0, 16(sp)
	addi	s0, sp, 32
	sd	a0, -24(s0)
	ld	a0, -24(s0)
	call	_ZSt3getILm0EJP6CameraSt14default_deleteIS0_EEERNSt13tuple_elementIXT_ESt5tupleIJDpT0_EEE4typeERS8_
	ld	s0, 16(sp)
	ld	ra, 24(sp)
	addi	sp, sp, 32
	ret
.Lfunc_end30:
	.size	_ZNSt15__uniq_ptr_implI6CameraSt14default_deleteIS0_EE6_M_ptrEv, .Lfunc_end30-_ZNSt15__uniq_ptr_implI6CameraSt14default_deleteIS0_EE6_M_ptrEv
                                        # -- End function
	.section	.text._ZNKSt14default_deleteI6CameraEclEPS0_,"axG",@progbits,_ZNKSt14default_deleteI6CameraEclEPS0_,comdat
	.weak	_ZNKSt14default_deleteI6CameraEclEPS0_ # -- Begin function _ZNKSt14default_deleteI6CameraEclEPS0_
	.p2align	2
	.type	_ZNKSt14default_deleteI6CameraEclEPS0_,@function
_ZNKSt14default_deleteI6CameraEclEPS0_: # @_ZNKSt14default_deleteI6CameraEclEPS0_
# %bb.0:                                # %entry
	addi	sp, sp, -48
	sd	ra, 40(sp)
	sd	s0, 32(sp)
	sd	s1, 24(sp)
	addi	s0, sp, 48
	sd	a0, -32(s0)
	sd	a1, -40(s0)
	ld	s1, -40(s0)
	beqz	s1, .LBB31_2
	j	.LBB31_1
.LBB31_1:                               # %delete.notnull
	mv	a0, s1
	call	_ZN6CameraD2Ev
	mv	a0, s1
	call	_ZdlPv
	j	.LBB31_2
.LBB31_2:                               # %delete.end
	ld	s1, 24(sp)
	ld	s0, 32(sp)
	ld	ra, 40(sp)
	addi	sp, sp, 48
	ret
.Lfunc_end31:
	.size	_ZNKSt14default_deleteI6CameraEclEPS0_, .Lfunc_end31-_ZNKSt14default_deleteI6CameraEclEPS0_
                                        # -- End function
	.section	.text._ZSt3getILm0EJP6CameraSt14default_deleteIS0_EEERNSt13tuple_elementIXT_ESt5tupleIJDpT0_EEE4typeERS8_,"axG",@progbits,_ZSt3getILm0EJP6CameraSt14default_deleteIS0_EEERNSt13tuple_elementIXT_ESt5tupleIJDpT0_EEE4typeERS8_,comdat
	.weak	_ZSt3getILm0EJP6CameraSt14default_deleteIS0_EEERNSt13tuple_elementIXT_ESt5tupleIJDpT0_EEE4typeERS8_ # -- Begin function _ZSt3getILm0EJP6CameraSt14default_deleteIS0_EEERNSt13tuple_elementIXT_ESt5tupleIJDpT0_EEE4typeERS8_
	.p2align	2
	.type	_ZSt3getILm0EJP6CameraSt14default_deleteIS0_EEERNSt13tuple_elementIXT_ESt5tupleIJDpT0_EEE4typeERS8_,@function
_ZSt3getILm0EJP6CameraSt14default_deleteIS0_EEERNSt13tuple_elementIXT_ESt5tupleIJDpT0_EEE4typeERS8_: # @_ZSt3getILm0EJP6CameraSt14default_deleteIS0_EEERNSt13tuple_elementIXT_ESt5tupleIJDpT0_EEE4typeERS8_
# %bb.0:                                # %entry
	addi	sp, sp, -32
	sd	ra, 24(sp)
	sd	s0, 16(sp)
	addi	s0, sp, 32
	sd	a0, -24(s0)
	ld	a0, -24(s0)
	call	_ZSt12__get_helperILm0EP6CameraJSt14default_deleteIS0_EEERT0_RSt11_Tuple_implIXT_EJS4_DpT1_EE
	ld	s0, 16(sp)
	ld	ra, 24(sp)
	addi	sp, sp, 32
	ret
.Lfunc_end32:
	.size	_ZSt3getILm0EJP6CameraSt14default_deleteIS0_EEERNSt13tuple_elementIXT_ESt5tupleIJDpT0_EEE4typeERS8_, .Lfunc_end32-_ZSt3getILm0EJP6CameraSt14default_deleteIS0_EEERNSt13tuple_elementIXT_ESt5tupleIJDpT0_EEE4typeERS8_
                                        # -- End function
	.section	.text._ZSt12__get_helperILm0EP6CameraJSt14default_deleteIS0_EEERT0_RSt11_Tuple_implIXT_EJS4_DpT1_EE,"axG",@progbits,_ZSt12__get_helperILm0EP6CameraJSt14default_deleteIS0_EEERT0_RSt11_Tuple_implIXT_EJS4_DpT1_EE,comdat
	.weak	_ZSt12__get_helperILm0EP6CameraJSt14default_deleteIS0_EEERT0_RSt11_Tuple_implIXT_EJS4_DpT1_EE # -- Begin function _ZSt12__get_helperILm0EP6CameraJSt14default_deleteIS0_EEERT0_RSt11_Tuple_implIXT_EJS4_DpT1_EE
	.p2align	2
	.type	_ZSt12__get_helperILm0EP6CameraJSt14default_deleteIS0_EEERT0_RSt11_Tuple_implIXT_EJS4_DpT1_EE,@function
_ZSt12__get_helperILm0EP6CameraJSt14default_deleteIS0_EEERT0_RSt11_Tuple_implIXT_EJS4_DpT1_EE: # @_ZSt12__get_helperILm0EP6CameraJSt14default_deleteIS0_EEERT0_RSt11_Tuple_implIXT_EJS4_DpT1_EE
# %bb.0:                                # %entry
	addi	sp, sp, -32
	sd	ra, 24(sp)
	sd	s0, 16(sp)
	addi	s0, sp, 32
	sd	a0, -24(s0)
	ld	a0, -24(s0)
	call	_ZNSt11_Tuple_implILm0EJP6CameraSt14default_deleteIS0_EEE7_M_headERS4_
	ld	s0, 16(sp)
	ld	ra, 24(sp)
	addi	sp, sp, 32
	ret
.Lfunc_end33:
	.size	_ZSt12__get_helperILm0EP6CameraJSt14default_deleteIS0_EEERT0_RSt11_Tuple_implIXT_EJS4_DpT1_EE, .Lfunc_end33-_ZSt12__get_helperILm0EP6CameraJSt14default_deleteIS0_EEERT0_RSt11_Tuple_implIXT_EJS4_DpT1_EE
                                        # -- End function
	.section	.text._ZNSt11_Tuple_implILm0EJP6CameraSt14default_deleteIS0_EEE7_M_headERS4_,"axG",@progbits,_ZNSt11_Tuple_implILm0EJP6CameraSt14default_deleteIS0_EEE7_M_headERS4_,comdat
	.weak	_ZNSt11_Tuple_implILm0EJP6CameraSt14default_deleteIS0_EEE7_M_headERS4_ # -- Begin function _ZNSt11_Tuple_implILm0EJP6CameraSt14default_deleteIS0_EEE7_M_headERS4_
	.p2align	2
	.type	_ZNSt11_Tuple_implILm0EJP6CameraSt14default_deleteIS0_EEE7_M_headERS4_,@function
_ZNSt11_Tuple_implILm0EJP6CameraSt14default_deleteIS0_EEE7_M_headERS4_: # @_ZNSt11_Tuple_implILm0EJP6CameraSt14default_deleteIS0_EEE7_M_headERS4_
# %bb.0:                                # %entry
	addi	sp, sp, -32
	sd	ra, 24(sp)
	sd	s0, 16(sp)
	addi	s0, sp, 32
	sd	a0, -24(s0)
	ld	a0, -24(s0)
	call	_ZNSt10_Head_baseILm0EP6CameraLb0EE7_M_headERS2_
	ld	s0, 16(sp)
	ld	ra, 24(sp)
	addi	sp, sp, 32
	ret
.Lfunc_end34:
	.size	_ZNSt11_Tuple_implILm0EJP6CameraSt14default_deleteIS0_EEE7_M_headERS4_, .Lfunc_end34-_ZNSt11_Tuple_implILm0EJP6CameraSt14default_deleteIS0_EEE7_M_headERS4_
                                        # -- End function
	.section	.text._ZNSt10_Head_baseILm0EP6CameraLb0EE7_M_headERS2_,"axG",@progbits,_ZNSt10_Head_baseILm0EP6CameraLb0EE7_M_headERS2_,comdat
	.weak	_ZNSt10_Head_baseILm0EP6CameraLb0EE7_M_headERS2_ # -- Begin function _ZNSt10_Head_baseILm0EP6CameraLb0EE7_M_headERS2_
	.p2align	2
	.type	_ZNSt10_Head_baseILm0EP6CameraLb0EE7_M_headERS2_,@function
_ZNSt10_Head_baseILm0EP6CameraLb0EE7_M_headERS2_: # @_ZNSt10_Head_baseILm0EP6CameraLb0EE7_M_headERS2_
# %bb.0:                                # %entry
	addi	sp, sp, -32
	sd	ra, 24(sp)
	sd	s0, 16(sp)
	addi	s0, sp, 32
	sd	a0, -24(s0)
	ld	a0, -24(s0)
	ld	s0, 16(sp)
	ld	ra, 24(sp)
	addi	sp, sp, 32
	ret
.Lfunc_end35:
	.size	_ZNSt10_Head_baseILm0EP6CameraLb0EE7_M_headERS2_, .Lfunc_end35-_ZNSt10_Head_baseILm0EP6CameraLb0EE7_M_headERS2_
                                        # -- End function
	.section	.text._ZN6CameraD2Ev,"axG",@progbits,_ZN6CameraD2Ev,comdat
	.weak	_ZN6CameraD2Ev          # -- Begin function _ZN6CameraD2Ev
	.p2align	2
	.type	_ZN6CameraD2Ev,@function
_ZN6CameraD2Ev:                         # @_ZN6CameraD2Ev
# %bb.0:                                # %entry
	addi	sp, sp, -32
	sd	ra, 24(sp)
	sd	s0, 16(sp)
	sd	s1, 8(sp)
	addi	s0, sp, 32
	sd	a0, -32(s0)
	ld	s1, -32(s0)
	addi	a0, s1, 464
	call	_ZNSt5dequeIdSaIdEED2Ev
	addi	a0, s1, 416
	call	_ZNSt10shared_ptrI10IntegratorED2Ev
	addi	a0, s1, 376
	call	_ZNSt7__cxx1112basic_stringIcSt11char_traitsIcESaIcEED1Ev
	addi	a0, s1, 248
	call	_ZN4FilmD2Ev
	addi	a0, s1, 144
	call	_ZN5ImageD2Ev
	ld	s1, 8(sp)
	ld	s0, 16(sp)
	ld	ra, 24(sp)
	addi	sp, sp, 32
	ret
.Lfunc_end36:
	.size	_ZN6CameraD2Ev, .Lfunc_end36-_ZN6CameraD2Ev
                                        # -- End function
	.section	.text._ZNSt5dequeIdSaIdEED2Ev,"axG",@progbits,_ZNSt5dequeIdSaIdEED2Ev,comdat
	.weak	_ZNSt5dequeIdSaIdEED2Ev # -- Begin function _ZNSt5dequeIdSaIdEED2Ev
	.p2align	2
	.type	_ZNSt5dequeIdSaIdEED2Ev,@function
_ZNSt5dequeIdSaIdEED2Ev:                # @_ZNSt5dequeIdSaIdEED2Ev
.Lfunc_begin8:
	.cfi_startproc
	.cfi_personality 155, DW.ref.__gxx_personality_v0
	.cfi_lsda 27, .Lexception8
# %bb.0:                                # %entry
	addi	sp, sp, -128
	.cfi_def_cfa_offset 128
	sd	ra, 120(sp)
	sd	s0, 112(sp)
	sd	s1, 104(sp)
	sd	s2, 96(sp)
	sd	s3, 88(sp)
	.cfi_offset ra, -8
	.cfi_offset s0, -16
	.cfi_offset s1, -24
	.cfi_offset s2, -32
	.cfi_offset s3, -40
	addi	s0, sp, 128
	.cfi_def_cfa s0, 0
	sd	a0, -48(s0)
	ld	s1, -48(s0)
	addi	s2, s0, -80
	mv	a0, s2
	mv	a1, s1
	call	_ZNSt5dequeIdSaIdEE5beginEv
	addi	s3, s0, -112
	mv	a0, s3
	mv	a1, s1
	call	_ZNSt5dequeIdSaIdEE3endEv
	mv	a0, s1
	call	_ZNSt11_Deque_baseIdSaIdEE19_M_get_Tp_allocatorEv
	mv	a3, a0
.Ltmp68:
	mv	a0, s1
	mv	a1, s2
	mv	a2, s3
	call	_ZNSt5dequeIdSaIdEE15_M_destroy_dataESt15_Deque_iteratorIdRdPdES5_RKS0_
.Ltmp69:
	j	.LBB37_1
.LBB37_1:                               # %invoke.cont
	mv	a0, s1
	call	_ZNSt11_Deque_baseIdSaIdEED2Ev
	ld	s3, 88(sp)
	ld	s2, 96(sp)
	ld	s1, 104(sp)
	ld	s0, 112(sp)
	.cfi_def_cfa sp, 128
	ld	ra, 120(sp)
	.cfi_restore ra
	.cfi_restore s0
	.cfi_restore s1
	.cfi_restore s2
	.cfi_restore s3
	addi	sp, sp, 128
	.cfi_def_cfa_offset 0
	ret
.LBB37_2:                               # %lpad
.Ltmp70:
	sd	a0, -120(s0)
	sw	a1, -124(s0)
	mv	a0, s1
	call	_ZNSt11_Deque_baseIdSaIdEED2Ev
	j	.LBB37_3
.LBB37_3:                               # %terminate.handler
	ld	a0, -120(s0)
	call	__clang_call_terminate
.Lfunc_end37:
	.size	_ZNSt5dequeIdSaIdEED2Ev, .Lfunc_end37-_ZNSt5dequeIdSaIdEED2Ev
	.cfi_endproc
	.section	.gcc_except_table,"a",@progbits
	.p2align	2
GCC_except_table37:
.Lexception8:
	.byte	255                     # @LPStart Encoding = omit
	.byte	155                     # @TType Encoding = indirect pcrel sdata4
	.uleb128 .Lttbase6-.Lttbaseref6
.Lttbaseref6:
	.byte	3                       # Call site Encoding = udata4
	.uleb128 .Lcst_end8-.Lcst_begin8
.Lcst_begin8:
	.word	.Ltmp68-.Lfunc_begin8   # >> Call Site 1 <<
	.word	.Ltmp69-.Ltmp68         #   Call between .Ltmp68 and .Ltmp69
	.word	.Ltmp70-.Lfunc_begin8   #     jumps to .Ltmp70
	.byte	1                       #   On action: 1
.Lcst_end8:
	.byte	1                       # >> Action Record 1 <<
                                        #   Catch TypeInfo 1
	.byte	0                       #   No further actions
	.p2align	2
                                        # >> Catch TypeInfos <<
	.word	0                       # TypeInfo 1
.Lttbase6:
	.p2align	2
                                        # -- End function
	.section	.text._ZNSt10shared_ptrI10IntegratorED2Ev,"axG",@progbits,_ZNSt10shared_ptrI10IntegratorED2Ev,comdat
	.weak	_ZNSt10shared_ptrI10IntegratorED2Ev # -- Begin function _ZNSt10shared_ptrI10IntegratorED2Ev
	.p2align	2
	.type	_ZNSt10shared_ptrI10IntegratorED2Ev,@function
_ZNSt10shared_ptrI10IntegratorED2Ev:    # @_ZNSt10shared_ptrI10IntegratorED2Ev
# %bb.0:                                # %entry
	addi	sp, sp, -32
	sd	ra, 24(sp)
	sd	s0, 16(sp)
	addi	s0, sp, 32
	sd	a0, -24(s0)
	ld	a0, -24(s0)
	call	_ZNSt12__shared_ptrI10IntegratorLN9__gnu_cxx12_Lock_policyE0EED2Ev
	ld	s0, 16(sp)
	ld	ra, 24(sp)
	addi	sp, sp, 32
	ret
.Lfunc_end38:
	.size	_ZNSt10shared_ptrI10IntegratorED2Ev, .Lfunc_end38-_ZNSt10shared_ptrI10IntegratorED2Ev
                                        # -- End function
	.section	.text._ZN4FilmD2Ev,"axG",@progbits,_ZN4FilmD2Ev,comdat
	.weak	_ZN4FilmD2Ev            # -- Begin function _ZN4FilmD2Ev
	.p2align	2
	.type	_ZN4FilmD2Ev,@function
_ZN4FilmD2Ev:                           # @_ZN4FilmD2Ev
# %bb.0:                                # %entry
	addi	sp, sp, -32
	sd	ra, 24(sp)
	sd	s0, 16(sp)
	sd	s1, 8(sp)
	addi	s0, sp, 32
	sd	a0, -32(s0)
	ld	s1, -32(s0)
	addi	a0, s1, 88
	call	_ZNSt8functionIFddEED2Ev
	addi	a0, s1, 24
	call	_ZNSt6vectorIdSaIdEED2Ev
	mv	a0, s1
	call	_ZNSt6vectorIN4Film5SplatESaIS1_EED2Ev
	ld	s1, 8(sp)
	ld	s0, 16(sp)
	ld	ra, 24(sp)
	addi	sp, sp, 32
	ret
.Lfunc_end39:
	.size	_ZN4FilmD2Ev, .Lfunc_end39-_ZN4FilmD2Ev
                                        # -- End function
	.section	.text._ZN5ImageD2Ev,"axG",@progbits,_ZN5ImageD2Ev,comdat
	.weak	_ZN5ImageD2Ev           # -- Begin function _ZN5ImageD2Ev
	.p2align	2
	.type	_ZN5ImageD2Ev,@function
_ZN5ImageD2Ev:                          # @_ZN5ImageD2Ev
# %bb.0:                                # %entry
	addi	sp, sp, -32
	sd	ra, 24(sp)
	sd	s0, 16(sp)
	sd	s1, 8(sp)
	addi	s0, sp, 32
	sd	a0, -32(s0)
	ld	s1, -32(s0)
	addi	a0, s1, 64
	call	_ZNSt8functionIFN3glm3vecILi3EdLNS0_9qualifierE0EEERKS3_EED2Ev
	addi	a0, s1, 24
	call	_ZNSt6vectorIN3glm3vecILi3EdLNS0_9qualifierE0EEESaIS3_EED2Ev
	ld	s1, 8(sp)
	ld	s0, 16(sp)
	ld	ra, 24(sp)
	addi	sp, sp, 32
	ret
.Lfunc_end40:
	.size	_ZN5ImageD2Ev, .Lfunc_end40-_ZN5ImageD2Ev
                                        # -- End function
	.section	.text._ZNSt5dequeIdSaIdEE15_M_destroy_dataESt15_Deque_iteratorIdRdPdES5_RKS0_,"axG",@progbits,_ZNSt5dequeIdSaIdEE15_M_destroy_dataESt15_Deque_iteratorIdRdPdES5_RKS0_,comdat
	.weak	_ZNSt5dequeIdSaIdEE15_M_destroy_dataESt15_Deque_iteratorIdRdPdES5_RKS0_ # -- Begin function _ZNSt5dequeIdSaIdEE15_M_destroy_dataESt15_Deque_iteratorIdRdPdES5_RKS0_
	.p2align	2
	.type	_ZNSt5dequeIdSaIdEE15_M_destroy_dataESt15_Deque_iteratorIdRdPdES5_RKS0_,@function
_ZNSt5dequeIdSaIdEE15_M_destroy_dataESt15_Deque_iteratorIdRdPdES5_RKS0_: # @_ZNSt5dequeIdSaIdEE15_M_destroy_dataESt15_Deque_iteratorIdRdPdES5_RKS0_
# %bb.0:                                # %entry
	addi	sp, sp, -32
	sd	ra, 24(sp)
	sd	s0, 16(sp)
	addi	s0, sp, 32
	sd	a0, -24(s0)
	sd	a3, -32(s0)
	ld	s0, 16(sp)
	ld	ra, 24(sp)
	addi	sp, sp, 32
	ret
.Lfunc_end41:
	.size	_ZNSt5dequeIdSaIdEE15_M_destroy_dataESt15_Deque_iteratorIdRdPdES5_RKS0_, .Lfunc_end41-_ZNSt5dequeIdSaIdEE15_M_destroy_dataESt15_Deque_iteratorIdRdPdES5_RKS0_
                                        # -- End function
	.section	.text._ZNSt5dequeIdSaIdEE5beginEv,"axG",@progbits,_ZNSt5dequeIdSaIdEE5beginEv,comdat
	.weak	_ZNSt5dequeIdSaIdEE5beginEv # -- Begin function _ZNSt5dequeIdSaIdEE5beginEv
	.p2align	2
	.type	_ZNSt5dequeIdSaIdEE5beginEv,@function
_ZNSt5dequeIdSaIdEE5beginEv:            # @_ZNSt5dequeIdSaIdEE5beginEv
# %bb.0:                                # %entry
	addi	sp, sp, -32
	sd	ra, 24(sp)
	sd	s0, 16(sp)
	addi	s0, sp, 32
	sd	a0, -24(s0)
	sd	a1, -32(s0)
	ld	a1, -32(s0)
	addi	a1, a1, 16
	call	_ZNSt15_Deque_iteratorIdRdPdEC2ERKS2_
	ld	s0, 16(sp)
	ld	ra, 24(sp)
	addi	sp, sp, 32
	ret
.Lfunc_end42:
	.size	_ZNSt5dequeIdSaIdEE5beginEv, .Lfunc_end42-_ZNSt5dequeIdSaIdEE5beginEv
                                        # -- End function
	.section	.text._ZNSt5dequeIdSaIdEE3endEv,"axG",@progbits,_ZNSt5dequeIdSaIdEE3endEv,comdat
	.weak	_ZNSt5dequeIdSaIdEE3endEv # -- Begin function _ZNSt5dequeIdSaIdEE3endEv
	.p2align	2
	.type	_ZNSt5dequeIdSaIdEE3endEv,@function
_ZNSt5dequeIdSaIdEE3endEv:              # @_ZNSt5dequeIdSaIdEE3endEv
# %bb.0:                                # %entry
	addi	sp, sp, -32
	sd	ra, 24(sp)
	sd	s0, 16(sp)
	addi	s0, sp, 32
	sd	a0, -24(s0)
	sd	a1, -32(s0)
	ld	a1, -32(s0)
	addi	a1, a1, 48
	call	_ZNSt15_Deque_iteratorIdRdPdEC2ERKS2_
	ld	s0, 16(sp)
	ld	ra, 24(sp)
	addi	sp, sp, 32
	ret
.Lfunc_end43:
	.size	_ZNSt5dequeIdSaIdEE3endEv, .Lfunc_end43-_ZNSt5dequeIdSaIdEE3endEv
                                        # -- End function
	.section	.text._ZNSt11_Deque_baseIdSaIdEE19_M_get_Tp_allocatorEv,"axG",@progbits,_ZNSt11_Deque_baseIdSaIdEE19_M_get_Tp_allocatorEv,comdat
	.weak	_ZNSt11_Deque_baseIdSaIdEE19_M_get_Tp_allocatorEv # -- Begin function _ZNSt11_Deque_baseIdSaIdEE19_M_get_Tp_allocatorEv
	.p2align	2
	.type	_ZNSt11_Deque_baseIdSaIdEE19_M_get_Tp_allocatorEv,@function
_ZNSt11_Deque_baseIdSaIdEE19_M_get_Tp_allocatorEv: # @_ZNSt11_Deque_baseIdSaIdEE19_M_get_Tp_allocatorEv
# %bb.0:                                # %entry
	addi	sp, sp, -32
	sd	ra, 24(sp)
	sd	s0, 16(sp)
	addi	s0, sp, 32
	sd	a0, -24(s0)
	ld	a0, -24(s0)
	ld	s0, 16(sp)
	ld	ra, 24(sp)
	addi	sp, sp, 32
	ret
.Lfunc_end44:
	.size	_ZNSt11_Deque_baseIdSaIdEE19_M_get_Tp_allocatorEv, .Lfunc_end44-_ZNSt11_Deque_baseIdSaIdEE19_M_get_Tp_allocatorEv
                                        # -- End function
	.section	.text._ZNSt11_Deque_baseIdSaIdEED2Ev,"axG",@progbits,_ZNSt11_Deque_baseIdSaIdEED2Ev,comdat
	.weak	_ZNSt11_Deque_baseIdSaIdEED2Ev # -- Begin function _ZNSt11_Deque_baseIdSaIdEED2Ev
	.p2align	2
	.type	_ZNSt11_Deque_baseIdSaIdEED2Ev,@function
_ZNSt11_Deque_baseIdSaIdEED2Ev:         # @_ZNSt11_Deque_baseIdSaIdEED2Ev
# %bb.0:                                # %entry
	addi	sp, sp, -32
	sd	ra, 24(sp)
	sd	s0, 16(sp)
	sd	s1, 8(sp)
	addi	s0, sp, 32
	sd	a0, -32(s0)
	ld	s1, -32(s0)
	ld	a0, 0(s1)
	beqz	a0, .LBB45_2
	j	.LBB45_1
.LBB45_1:                               # %if.then
	ld	a1, 40(s1)
	ld	a0, 72(s1)
	addi	a2, a0, 8
	mv	a0, s1
	call	_ZNSt11_Deque_baseIdSaIdEE16_M_destroy_nodesEPPdS3_
	ld	a1, 0(s1)
	ld	a2, 8(s1)
	mv	a0, s1
	call	_ZNSt11_Deque_baseIdSaIdEE17_M_deallocate_mapEPPdm
	j	.LBB45_2
.LBB45_2:                               # %if.end
	mv	a0, s1
	call	_ZNSt11_Deque_baseIdSaIdEE11_Deque_implD2Ev
	ld	s1, 8(sp)
	ld	s0, 16(sp)
	ld	ra, 24(sp)
	addi	sp, sp, 32
	ret
.Lfunc_end45:
	.size	_ZNSt11_Deque_baseIdSaIdEED2Ev, .Lfunc_end45-_ZNSt11_Deque_baseIdSaIdEED2Ev
                                        # -- End function
	.section	.text._ZNSt15_Deque_iteratorIdRdPdEC2ERKS2_,"axG",@progbits,_ZNSt15_Deque_iteratorIdRdPdEC2ERKS2_,comdat
	.weak	_ZNSt15_Deque_iteratorIdRdPdEC2ERKS2_ # -- Begin function _ZNSt15_Deque_iteratorIdRdPdEC2ERKS2_
	.p2align	2
	.type	_ZNSt15_Deque_iteratorIdRdPdEC2ERKS2_,@function
_ZNSt15_Deque_iteratorIdRdPdEC2ERKS2_:  # @_ZNSt15_Deque_iteratorIdRdPdEC2ERKS2_
# %bb.0:                                # %entry
	addi	sp, sp, -32
	sd	ra, 24(sp)
	sd	s0, 16(sp)
	addi	s0, sp, 32
	sd	a0, -24(s0)
	sd	a1, -32(s0)
	ld	a0, -24(s0)
	ld	a1, -32(s0)
	ld	a1, 0(a1)
	sd	a1, 0(a0)
	ld	a1, -32(s0)
	ld	a1, 8(a1)
	sd	a1, 8(a0)
	ld	a1, -32(s0)
	ld	a1, 16(a1)
	sd	a1, 16(a0)
	ld	a1, -32(s0)
	ld	a1, 24(a1)
	sd	a1, 24(a0)
	ld	s0, 16(sp)
	ld	ra, 24(sp)
	addi	sp, sp, 32
	ret
.Lfunc_end46:
	.size	_ZNSt15_Deque_iteratorIdRdPdEC2ERKS2_, .Lfunc_end46-_ZNSt15_Deque_iteratorIdRdPdEC2ERKS2_
                                        # -- End function
	.section	.text._ZNSt11_Deque_baseIdSaIdEE16_M_destroy_nodesEPPdS3_,"axG",@progbits,_ZNSt11_Deque_baseIdSaIdEE16_M_destroy_nodesEPPdS3_,comdat
	.weak	_ZNSt11_Deque_baseIdSaIdEE16_M_destroy_nodesEPPdS3_ # -- Begin function _ZNSt11_Deque_baseIdSaIdEE16_M_destroy_nodesEPPdS3_
	.p2align	2
	.type	_ZNSt11_Deque_baseIdSaIdEE16_M_destroy_nodesEPPdS3_,@function
_ZNSt11_Deque_baseIdSaIdEE16_M_destroy_nodesEPPdS3_: # @_ZNSt11_Deque_baseIdSaIdEE16_M_destroy_nodesEPPdS3_
# %bb.0:                                # %entry
	addi	sp, sp, -64
	sd	ra, 56(sp)
	sd	s0, 48(sp)
	sd	s1, 40(sp)
	addi	s0, sp, 64
	sd	a0, -32(s0)
	sd	a1, -40(s0)
	sd	a2, -48(s0)
	ld	s1, -32(s0)
	ld	a0, -40(s0)
	sd	a0, -56(s0)
	j	.LBB47_1
.LBB47_1:                               # %for.cond
                                        # =>This Inner Loop Header: Depth=1
	ld	a0, -56(s0)
	ld	a1, -48(s0)
	bgeu	a0, a1, .LBB47_4
	j	.LBB47_2
.LBB47_2:                               # %for.body
                                        #   in Loop: Header=BB47_1 Depth=1
	ld	a0, -56(s0)
	ld	a1, 0(a0)
	mv	a0, s1
	call	_ZNSt11_Deque_baseIdSaIdEE18_M_deallocate_nodeEPd
	j	.LBB47_3
.LBB47_3:                               # %for.inc
                                        #   in Loop: Header=BB47_1 Depth=1
	ld	a0, -56(s0)
	addi	a0, a0, 8
	sd	a0, -56(s0)
	j	.LBB47_1
.LBB47_4:                               # %for.end
	ld	s1, 40(sp)
	ld	s0, 48(sp)
	ld	ra, 56(sp)
	addi	sp, sp, 64
	ret
.Lfunc_end47:
	.size	_ZNSt11_Deque_baseIdSaIdEE16_M_destroy_nodesEPPdS3_, .Lfunc_end47-_ZNSt11_Deque_baseIdSaIdEE16_M_destroy_nodesEPPdS3_
                                        # -- End function
	.section	.text._ZNSt11_Deque_baseIdSaIdEE17_M_deallocate_mapEPPdm,"axG",@progbits,_ZNSt11_Deque_baseIdSaIdEE17_M_deallocate_mapEPPdm,comdat
	.weak	_ZNSt11_Deque_baseIdSaIdEE17_M_deallocate_mapEPPdm # -- Begin function _ZNSt11_Deque_baseIdSaIdEE17_M_deallocate_mapEPPdm
	.p2align	2
	.type	_ZNSt11_Deque_baseIdSaIdEE17_M_deallocate_mapEPPdm,@function
_ZNSt11_Deque_baseIdSaIdEE17_M_deallocate_mapEPPdm: # @_ZNSt11_Deque_baseIdSaIdEE17_M_deallocate_mapEPPdm
	.cfi_startproc
# %bb.0:                                # %entry
	addi	sp, sp, -112
	.cfi_def_cfa_offset 112
	sd	ra, 104(sp)
	sd	s0, 96(sp)
	sd	s1, 88(sp)
	.cfi_offset ra, -8
	.cfi_offset s0, -16
	.cfi_offset s1, -24
	addi	s0, sp, 112
	.cfi_def_cfa s0, 0
	sd	a0, -72(s0)
	sd	a1, -80(s0)
	sd	a2, -88(s0)
	ld	a1, -72(s0)
	addi	s1, s0, -96
	mv	a0, s1
	call	_ZNKSt11_Deque_baseIdSaIdEE20_M_get_map_allocatorEv
	ld	a0, -80(s0)
	ld	a1, -88(s0)
	sd	s1, -48(s0)
	sd	a0, -56(s0)
	sd	a1, -64(s0)
	ld	a0, -48(s0)
	ld	a1, -56(s0)
	ld	a2, -64(s0)
	call	_ZNSt15__new_allocatorIPdE10deallocateEPS0_m
	j	.LBB48_1
.LBB48_1:                               # %invoke.cont
	addi	a0, s0, -96
	sd	a0, -40(s0)
	ld	a0, -40(s0)
	call	_ZNSt15__new_allocatorIPdED2Ev
	ld	s1, 88(sp)
	ld	s0, 96(sp)
	.cfi_def_cfa sp, 112
	ld	ra, 104(sp)
	.cfi_restore ra
	.cfi_restore s0
	.cfi_restore s1
	addi	sp, sp, 112
	.cfi_def_cfa_offset 0
	ret
.Lfunc_end48:
	.size	_ZNSt11_Deque_baseIdSaIdEE17_M_deallocate_mapEPPdm, .Lfunc_end48-_ZNSt11_Deque_baseIdSaIdEE17_M_deallocate_mapEPPdm
	.cfi_endproc
                                        # -- End function
	.section	.text._ZNSt11_Deque_baseIdSaIdEE11_Deque_implD2Ev,"axG",@progbits,_ZNSt11_Deque_baseIdSaIdEE11_Deque_implD2Ev,comdat
	.weak	_ZNSt11_Deque_baseIdSaIdEE11_Deque_implD2Ev # -- Begin function _ZNSt11_Deque_baseIdSaIdEE11_Deque_implD2Ev
	.p2align	2
	.type	_ZNSt11_Deque_baseIdSaIdEE11_Deque_implD2Ev,@function
_ZNSt11_Deque_baseIdSaIdEE11_Deque_implD2Ev: # @_ZNSt11_Deque_baseIdSaIdEE11_Deque_implD2Ev
# %bb.0:                                # %entry
	addi	sp, sp, -32
	sd	ra, 24(sp)
	sd	s0, 16(sp)
	addi	s0, sp, 32
	sd	a0, -32(s0)
	ld	a0, -32(s0)
	sd	a0, -24(s0)
	ld	a0, -24(s0)
	call	_ZNSt15__new_allocatorIdED2Ev
	ld	s0, 16(sp)
	ld	ra, 24(sp)
	addi	sp, sp, 32
	ret
.Lfunc_end49:
	.size	_ZNSt11_Deque_baseIdSaIdEE11_Deque_implD2Ev, .Lfunc_end49-_ZNSt11_Deque_baseIdSaIdEE11_Deque_implD2Ev
                                        # -- End function
	.section	.text._ZNSt11_Deque_baseIdSaIdEE18_M_deallocate_nodeEPd,"axG",@progbits,_ZNSt11_Deque_baseIdSaIdEE18_M_deallocate_nodeEPd,comdat
	.weak	_ZNSt11_Deque_baseIdSaIdEE18_M_deallocate_nodeEPd # -- Begin function _ZNSt11_Deque_baseIdSaIdEE18_M_deallocate_nodeEPd
	.p2align	2
	.type	_ZNSt11_Deque_baseIdSaIdEE18_M_deallocate_nodeEPd,@function
_ZNSt11_Deque_baseIdSaIdEE18_M_deallocate_nodeEPd: # @_ZNSt11_Deque_baseIdSaIdEE18_M_deallocate_nodeEPd
.Lfunc_begin9:
	.cfi_startproc
	.cfi_personality 155, DW.ref.__gxx_personality_v0
	.cfi_lsda 27, .Lexception9
# %bb.0:                                # %entry
	addi	sp, sp, -80
	.cfi_def_cfa_offset 80
	sd	ra, 72(sp)
	sd	s0, 64(sp)
	sd	s1, 56(sp)
	sd	s2, 48(sp)
	.cfi_offset ra, -8
	.cfi_offset s0, -16
	.cfi_offset s1, -24
	.cfi_offset s2, -32
	addi	s0, sp, 80
	.cfi_def_cfa s0, 0
	sd	a0, -64(s0)
	sd	a1, -72(s0)
	ld	s1, -64(s0)
	ld	s2, -72(s0)
.Ltmp71:
	addi	a0, zero, 8
	call	_ZSt16__deque_buf_sizem
.Ltmp72:
	j	.LBB50_1
.LBB50_1:                               # %invoke.cont
	sd	s1, -40(s0)
	sd	s2, -48(s0)
	sd	a0, -56(s0)
	ld	a0, -40(s0)
	ld	a1, -48(s0)
	ld	a2, -56(s0)
	call	_ZNSt15__new_allocatorIdE10deallocateEPdm
	j	.LBB50_2
.LBB50_2:                               # %invoke.cont2
	ld	s2, 48(sp)
	ld	s1, 56(sp)
	ld	s0, 64(sp)
	.cfi_def_cfa sp, 80
	ld	ra, 72(sp)
	.cfi_restore ra
	.cfi_restore s0
	.cfi_restore s1
	.cfi_restore s2
	addi	sp, sp, 80
	.cfi_def_cfa_offset 0
	ret
.LBB50_3:                               # %terminate.lpad
.Ltmp73:
	call	__clang_call_terminate
.Lfunc_end50:
	.size	_ZNSt11_Deque_baseIdSaIdEE18_M_deallocate_nodeEPd, .Lfunc_end50-_ZNSt11_Deque_baseIdSaIdEE18_M_deallocate_nodeEPd
	.cfi_endproc
	.section	.gcc_except_table,"a",@progbits
	.p2align	2
GCC_except_table50:
.Lexception9:
	.byte	255                     # @LPStart Encoding = omit
	.byte	155                     # @TType Encoding = indirect pcrel sdata4
	.uleb128 .Lttbase7-.Lttbaseref7
.Lttbaseref7:
	.byte	3                       # Call site Encoding = udata4
	.uleb128 .Lcst_end9-.Lcst_begin9
.Lcst_begin9:
	.word	.Ltmp71-.Lfunc_begin9   # >> Call Site 1 <<
	.word	.Ltmp72-.Ltmp71         #   Call between .Ltmp71 and .Ltmp72
	.word	.Ltmp73-.Lfunc_begin9   #     jumps to .Ltmp73
	.byte	1                       #   On action: 1
.Lcst_end9:
	.byte	1                       # >> Action Record 1 <<
                                        #   Catch TypeInfo 1
	.byte	0                       #   No further actions
	.p2align	2
                                        # >> Catch TypeInfos <<
	.word	0                       # TypeInfo 1
.Lttbase7:
	.p2align	2
                                        # -- End function
	.section	.text._ZSt16__deque_buf_sizem,"axG",@progbits,_ZSt16__deque_buf_sizem,comdat
	.weak	_ZSt16__deque_buf_sizem # -- Begin function _ZSt16__deque_buf_sizem
	.p2align	2
	.type	_ZSt16__deque_buf_sizem,@function
_ZSt16__deque_buf_sizem:                # @_ZSt16__deque_buf_sizem
# %bb.0:                                # %entry
	addi	sp, sp, -32
	sd	ra, 24(sp)
	sd	s0, 16(sp)
	addi	s0, sp, 32
	sd	a0, -24(s0)
	ld	a0, -24(s0)
	addi	a1, zero, 511
	bltu	a1, a0, .LBB51_2
	j	.LBB51_1
.LBB51_1:                               # %cond.true
	ld	a0, -24(s0)
	addi	a1, zero, 512
	divu	a0, a1, a0
	j	.LBB51_3
.LBB51_2:                               # %cond.false
	addi	a0, zero, 1
	j	.LBB51_3
.LBB51_3:                               # %cond.end
	ld	s0, 16(sp)
	ld	ra, 24(sp)
	addi	sp, sp, 32
	ret
.Lfunc_end51:
	.size	_ZSt16__deque_buf_sizem, .Lfunc_end51-_ZSt16__deque_buf_sizem
                                        # -- End function
	.section	.text._ZNSt15__new_allocatorIdE10deallocateEPdm,"axG",@progbits,_ZNSt15__new_allocatorIdE10deallocateEPdm,comdat
	.weak	_ZNSt15__new_allocatorIdE10deallocateEPdm # -- Begin function _ZNSt15__new_allocatorIdE10deallocateEPdm
	.p2align	2
	.type	_ZNSt15__new_allocatorIdE10deallocateEPdm,@function
_ZNSt15__new_allocatorIdE10deallocateEPdm: # @_ZNSt15__new_allocatorIdE10deallocateEPdm
# %bb.0:                                # %entry
	addi	sp, sp, -48
	sd	ra, 40(sp)
	sd	s0, 32(sp)
	addi	s0, sp, 48
	sd	a0, -24(s0)
	sd	a1, -32(s0)
	sd	a2, -40(s0)
	ld	a0, -32(s0)
	call	_ZdlPv
	ld	s0, 32(sp)
	ld	ra, 40(sp)
	addi	sp, sp, 48
	ret
.Lfunc_end52:
	.size	_ZNSt15__new_allocatorIdE10deallocateEPdm, .Lfunc_end52-_ZNSt15__new_allocatorIdE10deallocateEPdm
                                        # -- End function
	.section	.text._ZNKSt11_Deque_baseIdSaIdEE20_M_get_map_allocatorEv,"axG",@progbits,_ZNKSt11_Deque_baseIdSaIdEE20_M_get_map_allocatorEv,comdat
	.weak	_ZNKSt11_Deque_baseIdSaIdEE20_M_get_map_allocatorEv # -- Begin function _ZNKSt11_Deque_baseIdSaIdEE20_M_get_map_allocatorEv
	.p2align	2
	.type	_ZNKSt11_Deque_baseIdSaIdEE20_M_get_map_allocatorEv,@function
_ZNKSt11_Deque_baseIdSaIdEE20_M_get_map_allocatorEv: # @_ZNKSt11_Deque_baseIdSaIdEE20_M_get_map_allocatorEv
# %bb.0:                                # %entry
	addi	sp, sp, -64
	sd	ra, 56(sp)
	sd	s0, 48(sp)
	sd	s1, 40(sp)
	addi	s0, sp, 64
	mv	s1, a0
	sd	s1, -56(s0)
	sd	a1, -64(s0)
	ld	a0, -64(s0)
	call	_ZNKSt11_Deque_baseIdSaIdEE19_M_get_Tp_allocatorEv
	sd	s1, -40(s0)
	sd	a0, -48(s0)
	ld	a0, -40(s0)
	sd	a0, -32(s0)
	ld	s1, 40(sp)
	ld	s0, 48(sp)
	ld	ra, 56(sp)
	addi	sp, sp, 64
	ret
.Lfunc_end53:
	.size	_ZNKSt11_Deque_baseIdSaIdEE20_M_get_map_allocatorEv, .Lfunc_end53-_ZNKSt11_Deque_baseIdSaIdEE20_M_get_map_allocatorEv
                                        # -- End function
	.section	.text._ZNKSt11_Deque_baseIdSaIdEE19_M_get_Tp_allocatorEv,"axG",@progbits,_ZNKSt11_Deque_baseIdSaIdEE19_M_get_Tp_allocatorEv,comdat
	.weak	_ZNKSt11_Deque_baseIdSaIdEE19_M_get_Tp_allocatorEv # -- Begin function _ZNKSt11_Deque_baseIdSaIdEE19_M_get_Tp_allocatorEv
	.p2align	2
	.type	_ZNKSt11_Deque_baseIdSaIdEE19_M_get_Tp_allocatorEv,@function
_ZNKSt11_Deque_baseIdSaIdEE19_M_get_Tp_allocatorEv: # @_ZNKSt11_Deque_baseIdSaIdEE19_M_get_Tp_allocatorEv
# %bb.0:                                # %entry
	addi	sp, sp, -32
	sd	ra, 24(sp)
	sd	s0, 16(sp)
	addi	s0, sp, 32
	sd	a0, -24(s0)
	ld	a0, -24(s0)
	ld	s0, 16(sp)
	ld	ra, 24(sp)
	addi	sp, sp, 32
	ret
.Lfunc_end54:
	.size	_ZNKSt11_Deque_baseIdSaIdEE19_M_get_Tp_allocatorEv, .Lfunc_end54-_ZNKSt11_Deque_baseIdSaIdEE19_M_get_Tp_allocatorEv
                                        # -- End function
	.section	.text._ZNSt15__new_allocatorIPdE10deallocateEPS0_m,"axG",@progbits,_ZNSt15__new_allocatorIPdE10deallocateEPS0_m,comdat
	.weak	_ZNSt15__new_allocatorIPdE10deallocateEPS0_m # -- Begin function _ZNSt15__new_allocatorIPdE10deallocateEPS0_m
	.p2align	2
	.type	_ZNSt15__new_allocatorIPdE10deallocateEPS0_m,@function
_ZNSt15__new_allocatorIPdE10deallocateEPS0_m: # @_ZNSt15__new_allocatorIPdE10deallocateEPS0_m
# %bb.0:                                # %entry
	addi	sp, sp, -48
	sd	ra, 40(sp)
	sd	s0, 32(sp)
	addi	s0, sp, 48
	sd	a0, -24(s0)
	sd	a1, -32(s0)
	sd	a2, -40(s0)
	ld	a0, -32(s0)
	call	_ZdlPv
	ld	s0, 32(sp)
	ld	ra, 40(sp)
	addi	sp, sp, 48
	ret
.Lfunc_end55:
	.size	_ZNSt15__new_allocatorIPdE10deallocateEPS0_m, .Lfunc_end55-_ZNSt15__new_allocatorIPdE10deallocateEPS0_m
                                        # -- End function
	.section	.text._ZNSt15__new_allocatorIPdED2Ev,"axG",@progbits,_ZNSt15__new_allocatorIPdED2Ev,comdat
	.weak	_ZNSt15__new_allocatorIPdED2Ev # -- Begin function _ZNSt15__new_allocatorIPdED2Ev
	.p2align	2
	.type	_ZNSt15__new_allocatorIPdED2Ev,@function
_ZNSt15__new_allocatorIPdED2Ev:         # @_ZNSt15__new_allocatorIPdED2Ev
# %bb.0:                                # %entry
	addi	sp, sp, -32
	sd	ra, 24(sp)
	sd	s0, 16(sp)
	addi	s0, sp, 32
	sd	a0, -24(s0)
	ld	s0, 16(sp)
	ld	ra, 24(sp)
	addi	sp, sp, 32
	ret
.Lfunc_end56:
	.size	_ZNSt15__new_allocatorIPdED2Ev, .Lfunc_end56-_ZNSt15__new_allocatorIPdED2Ev
                                        # -- End function
	.section	.text._ZNSt15__new_allocatorIdED2Ev,"axG",@progbits,_ZNSt15__new_allocatorIdED2Ev,comdat
	.weak	_ZNSt15__new_allocatorIdED2Ev # -- Begin function _ZNSt15__new_allocatorIdED2Ev
	.p2align	2
	.type	_ZNSt15__new_allocatorIdED2Ev,@function
_ZNSt15__new_allocatorIdED2Ev:          # @_ZNSt15__new_allocatorIdED2Ev
# %bb.0:                                # %entry
	addi	sp, sp, -32
	sd	ra, 24(sp)
	sd	s0, 16(sp)
	addi	s0, sp, 32
	sd	a0, -24(s0)
	ld	s0, 16(sp)
	ld	ra, 24(sp)
	addi	sp, sp, 32
	ret
.Lfunc_end57:
	.size	_ZNSt15__new_allocatorIdED2Ev, .Lfunc_end57-_ZNSt15__new_allocatorIdED2Ev
                                        # -- End function
	.section	.text._ZNSt12__shared_ptrI10IntegratorLN9__gnu_cxx12_Lock_policyE0EED2Ev,"axG",@progbits,_ZNSt12__shared_ptrI10IntegratorLN9__gnu_cxx12_Lock_policyE0EED2Ev,comdat
	.weak	_ZNSt12__shared_ptrI10IntegratorLN9__gnu_cxx12_Lock_policyE0EED2Ev # -- Begin function _ZNSt12__shared_ptrI10IntegratorLN9__gnu_cxx12_Lock_policyE0EED2Ev
	.p2align	2
	.type	_ZNSt12__shared_ptrI10IntegratorLN9__gnu_cxx12_Lock_policyE0EED2Ev,@function
_ZNSt12__shared_ptrI10IntegratorLN9__gnu_cxx12_Lock_policyE0EED2Ev: # @_ZNSt12__shared_ptrI10IntegratorLN9__gnu_cxx12_Lock_policyE0EED2Ev
# %bb.0:                                # %entry
	addi	sp, sp, -32
	sd	ra, 24(sp)
	sd	s0, 16(sp)
	addi	s0, sp, 32
	sd	a0, -24(s0)
	ld	a0, -24(s0)
	addi	a0, a0, 8
	call	_ZNSt14__shared_countILN9__gnu_cxx12_Lock_policyE0EED2Ev
	ld	s0, 16(sp)
	ld	ra, 24(sp)
	addi	sp, sp, 32
	ret
.Lfunc_end58:
	.size	_ZNSt12__shared_ptrI10IntegratorLN9__gnu_cxx12_Lock_policyE0EED2Ev, .Lfunc_end58-_ZNSt12__shared_ptrI10IntegratorLN9__gnu_cxx12_Lock_policyE0EED2Ev
                                        # -- End function
	.section	.text._ZNSt14__shared_countILN9__gnu_cxx12_Lock_policyE0EED2Ev,"axG",@progbits,_ZNSt14__shared_countILN9__gnu_cxx12_Lock_policyE0EED2Ev,comdat
	.weak	_ZNSt14__shared_countILN9__gnu_cxx12_Lock_policyE0EED2Ev # -- Begin function _ZNSt14__shared_countILN9__gnu_cxx12_Lock_policyE0EED2Ev
	.p2align	2
	.type	_ZNSt14__shared_countILN9__gnu_cxx12_Lock_policyE0EED2Ev,@function
_ZNSt14__shared_countILN9__gnu_cxx12_Lock_policyE0EED2Ev: # @_ZNSt14__shared_countILN9__gnu_cxx12_Lock_policyE0EED2Ev
# %bb.0:                                # %entry
	addi	sp, sp, -32
	sd	ra, 24(sp)
	sd	s0, 16(sp)
	addi	s0, sp, 32
	sd	a0, -24(s0)
	ld	a0, -24(s0)
	ld	a1, 0(a0)
	beqz	a1, .LBB59_2
	j	.LBB59_1
.LBB59_1:                               # %if.then
	ld	a0, 0(a0)
	call	_ZNSt16_Sp_counted_baseILN9__gnu_cxx12_Lock_policyE0EE10_M_releaseEv
	j	.LBB59_2
.LBB59_2:                               # %if.end
	ld	s0, 16(sp)
	ld	ra, 24(sp)
	addi	sp, sp, 32
	ret
.Lfunc_end59:
	.size	_ZNSt14__shared_countILN9__gnu_cxx12_Lock_policyE0EED2Ev, .Lfunc_end59-_ZNSt14__shared_countILN9__gnu_cxx12_Lock_policyE0EED2Ev
                                        # -- End function
	.section	.text._ZNSt16_Sp_counted_baseILN9__gnu_cxx12_Lock_policyE0EE10_M_releaseEv,"axG",@progbits,_ZNSt16_Sp_counted_baseILN9__gnu_cxx12_Lock_policyE0EE10_M_releaseEv,comdat
	.weak	_ZNSt16_Sp_counted_baseILN9__gnu_cxx12_Lock_policyE0EE10_M_releaseEv # -- Begin function _ZNSt16_Sp_counted_baseILN9__gnu_cxx12_Lock_policyE0EE10_M_releaseEv
	.p2align	2
	.type	_ZNSt16_Sp_counted_baseILN9__gnu_cxx12_Lock_policyE0EE10_M_releaseEv,@function
_ZNSt16_Sp_counted_baseILN9__gnu_cxx12_Lock_policyE0EE10_M_releaseEv: # @_ZNSt16_Sp_counted_baseILN9__gnu_cxx12_Lock_policyE0EE10_M_releaseEv
# %bb.0:                                # %entry
	addi	sp, sp, -32
	sd	ra, 24(sp)
	sd	s0, 16(sp)
	sd	s1, 8(sp)
	addi	s0, sp, 32
	sd	a0, -32(s0)
	ld	s1, -32(s0)
	lw	a0, 8(s1)
	addi	a0, a0, -1
	sw	a0, 8(s1)
	slli	a0, a0, 32
	srli	a0, a0, 32
	bnez	a0, .LBB60_4
	j	.LBB60_1
.LBB60_1:                               # %if.then
	ld	a0, 0(s1)
	ld	a1, 16(a0)
	mv	a0, s1
	jalr	a1
	lw	a0, 12(s1)
	addi	a0, a0, -1
	sw	a0, 12(s1)
	slli	a0, a0, 32
	srli	a0, a0, 32
	bnez	a0, .LBB60_3
	j	.LBB60_2
.LBB60_2:                               # %if.then4
	ld	a0, 0(s1)
	ld	a1, 24(a0)
	mv	a0, s1
	jalr	a1
	j	.LBB60_3
.LBB60_3:                               # %if.end
	j	.LBB60_4
.LBB60_4:                               # %if.end7
	ld	s1, 8(sp)
	ld	s0, 16(sp)
	ld	ra, 24(sp)
	addi	sp, sp, 32
	ret
.Lfunc_end60:
	.size	_ZNSt16_Sp_counted_baseILN9__gnu_cxx12_Lock_policyE0EE10_M_releaseEv, .Lfunc_end60-_ZNSt16_Sp_counted_baseILN9__gnu_cxx12_Lock_policyE0EE10_M_releaseEv
                                        # -- End function
	.section	.text._ZNSt8functionIFddEED2Ev,"axG",@progbits,_ZNSt8functionIFddEED2Ev,comdat
	.weak	_ZNSt8functionIFddEED2Ev # -- Begin function _ZNSt8functionIFddEED2Ev
	.p2align	2
	.type	_ZNSt8functionIFddEED2Ev,@function
_ZNSt8functionIFddEED2Ev:               # @_ZNSt8functionIFddEED2Ev
# %bb.0:                                # %entry
	addi	sp, sp, -32
	sd	ra, 24(sp)
	sd	s0, 16(sp)
	addi	s0, sp, 32
	sd	a0, -24(s0)
	ld	a0, -24(s0)
	call	_ZNSt14_Function_baseD2Ev
	ld	s0, 16(sp)
	ld	ra, 24(sp)
	addi	sp, sp, 32
	ret
.Lfunc_end61:
	.size	_ZNSt8functionIFddEED2Ev, .Lfunc_end61-_ZNSt8functionIFddEED2Ev
                                        # -- End function
	.section	.text._ZNSt6vectorIdSaIdEED2Ev,"axG",@progbits,_ZNSt6vectorIdSaIdEED2Ev,comdat
	.weak	_ZNSt6vectorIdSaIdEED2Ev # -- Begin function _ZNSt6vectorIdSaIdEED2Ev
	.p2align	2
	.type	_ZNSt6vectorIdSaIdEED2Ev,@function
_ZNSt6vectorIdSaIdEED2Ev:               # @_ZNSt6vectorIdSaIdEED2Ev
.Lfunc_begin10:
	.cfi_startproc
	.cfi_personality 155, DW.ref.__gxx_personality_v0
	.cfi_lsda 27, .Lexception10
# %bb.0:                                # %entry
	addi	sp, sp, -96
	.cfi_def_cfa_offset 96
	sd	ra, 88(sp)
	sd	s0, 80(sp)
	sd	s1, 72(sp)
	sd	s2, 64(sp)
	sd	s3, 56(sp)
	.cfi_offset ra, -8
	.cfi_offset s0, -16
	.cfi_offset s1, -24
	.cfi_offset s2, -32
	.cfi_offset s3, -40
	addi	s0, sp, 96
	.cfi_def_cfa s0, 0
	sd	a0, -72(s0)
	ld	s1, -72(s0)
	ld	s2, 0(s1)
	ld	s3, 8(s1)
	mv	a0, s1
	call	_ZNSt12_Vector_baseIdSaIdEE19_M_get_Tp_allocatorEv
	sd	s2, -48(s0)
	sd	s3, -56(s0)
	sd	a0, -64(s0)
	ld	a0, -48(s0)
	ld	a1, -56(s0)
.Ltmp74:
	call	_ZSt8_DestroyIPdEvT_S1_
.Ltmp75:
	j	.LBB62_1
.LBB62_1:                               # %_ZSt8_DestroyIPddEvT_S1_RSaIT0_E.exit
	j	.LBB62_2
.LBB62_2:                               # %invoke.cont
	mv	a0, s1
	call	_ZNSt12_Vector_baseIdSaIdEED2Ev
	ld	s3, 56(sp)
	ld	s2, 64(sp)
	ld	s1, 72(sp)
	ld	s0, 80(sp)
	.cfi_def_cfa sp, 96
	ld	ra, 88(sp)
	.cfi_restore ra
	.cfi_restore s0
	.cfi_restore s1
	.cfi_restore s2
	.cfi_restore s3
	addi	sp, sp, 96
	.cfi_def_cfa_offset 0
	ret
.LBB62_3:                               # %lpad
.Ltmp76:
	sd	a0, -80(s0)
	sw	a1, -84(s0)
	mv	a0, s1
	call	_ZNSt12_Vector_baseIdSaIdEED2Ev
	j	.LBB62_4
.LBB62_4:                               # %terminate.handler
	ld	a0, -80(s0)
	call	__clang_call_terminate
.Lfunc_end62:
	.size	_ZNSt6vectorIdSaIdEED2Ev, .Lfunc_end62-_ZNSt6vectorIdSaIdEED2Ev
	.cfi_endproc
	.section	.gcc_except_table,"a",@progbits
	.p2align	2
GCC_except_table62:
.Lexception10:
	.byte	255                     # @LPStart Encoding = omit
	.byte	155                     # @TType Encoding = indirect pcrel sdata4
	.uleb128 .Lttbase8-.Lttbaseref8
.Lttbaseref8:
	.byte	3                       # Call site Encoding = udata4
	.uleb128 .Lcst_end10-.Lcst_begin10
.Lcst_begin10:
	.word	.Ltmp74-.Lfunc_begin10  # >> Call Site 1 <<
	.word	.Ltmp75-.Ltmp74         #   Call between .Ltmp74 and .Ltmp75
	.word	.Ltmp76-.Lfunc_begin10  #     jumps to .Ltmp76
	.byte	1                       #   On action: 1
.Lcst_end10:
	.byte	1                       # >> Action Record 1 <<
                                        #   Catch TypeInfo 1
	.byte	0                       #   No further actions
	.p2align	2
                                        # >> Catch TypeInfos <<
	.word	0                       # TypeInfo 1
.Lttbase8:
	.p2align	2
                                        # -- End function
	.section	.text._ZNSt6vectorIN4Film5SplatESaIS1_EED2Ev,"axG",@progbits,_ZNSt6vectorIN4Film5SplatESaIS1_EED2Ev,comdat
	.weak	_ZNSt6vectorIN4Film5SplatESaIS1_EED2Ev # -- Begin function _ZNSt6vectorIN4Film5SplatESaIS1_EED2Ev
	.p2align	2
	.type	_ZNSt6vectorIN4Film5SplatESaIS1_EED2Ev,@function
_ZNSt6vectorIN4Film5SplatESaIS1_EED2Ev: # @_ZNSt6vectorIN4Film5SplatESaIS1_EED2Ev
.Lfunc_begin11:
	.cfi_startproc
	.cfi_personality 155, DW.ref.__gxx_personality_v0
	.cfi_lsda 27, .Lexception11
# %bb.0:                                # %entry
	addi	sp, sp, -96
	.cfi_def_cfa_offset 96
	sd	ra, 88(sp)
	sd	s0, 80(sp)
	sd	s1, 72(sp)
	sd	s2, 64(sp)
	sd	s3, 56(sp)
	.cfi_offset ra, -8
	.cfi_offset s0, -16
	.cfi_offset s1, -24
	.cfi_offset s2, -32
	.cfi_offset s3, -40
	addi	s0, sp, 96
	.cfi_def_cfa s0, 0
	sd	a0, -72(s0)
	ld	s1, -72(s0)
	ld	s2, 0(s1)
	ld	s3, 8(s1)
	mv	a0, s1
	call	_ZNSt12_Vector_baseIN4Film5SplatESaIS1_EE19_M_get_Tp_allocatorEv
	sd	s2, -48(s0)
	sd	s3, -56(s0)
	sd	a0, -64(s0)
	ld	a0, -48(s0)
	ld	a1, -56(s0)
.Ltmp77:
	call	_ZSt8_DestroyIPN4Film5SplatEEvT_S3_
.Ltmp78:
	j	.LBB63_1
.LBB63_1:                               # %_ZSt8_DestroyIPN4Film5SplatES1_EvT_S3_RSaIT0_E.exit
	j	.LBB63_2
.LBB63_2:                               # %invoke.cont
	mv	a0, s1
	call	_ZNSt12_Vector_baseIN4Film5SplatESaIS1_EED2Ev
	ld	s3, 56(sp)
	ld	s2, 64(sp)
	ld	s1, 72(sp)
	ld	s0, 80(sp)
	.cfi_def_cfa sp, 96
	ld	ra, 88(sp)
	.cfi_restore ra
	.cfi_restore s0
	.cfi_restore s1
	.cfi_restore s2
	.cfi_restore s3
	addi	sp, sp, 96
	.cfi_def_cfa_offset 0
	ret
.LBB63_3:                               # %lpad
.Ltmp79:
	sd	a0, -80(s0)
	sw	a1, -84(s0)
	mv	a0, s1
	call	_ZNSt12_Vector_baseIN4Film5SplatESaIS1_EED2Ev
	j	.LBB63_4
.LBB63_4:                               # %terminate.handler
	ld	a0, -80(s0)
	call	__clang_call_terminate
.Lfunc_end63:
	.size	_ZNSt6vectorIN4Film5SplatESaIS1_EED2Ev, .Lfunc_end63-_ZNSt6vectorIN4Film5SplatESaIS1_EED2Ev
	.cfi_endproc
	.section	.gcc_except_table,"a",@progbits
	.p2align	2
GCC_except_table63:
.Lexception11:
	.byte	255                     # @LPStart Encoding = omit
	.byte	155                     # @TType Encoding = indirect pcrel sdata4
	.uleb128 .Lttbase9-.Lttbaseref9
.Lttbaseref9:
	.byte	3                       # Call site Encoding = udata4
	.uleb128 .Lcst_end11-.Lcst_begin11
.Lcst_begin11:
	.word	.Ltmp77-.Lfunc_begin11  # >> Call Site 1 <<
	.word	.Ltmp78-.Ltmp77         #   Call between .Ltmp77 and .Ltmp78
	.word	.Ltmp79-.Lfunc_begin11  #     jumps to .Ltmp79
	.byte	1                       #   On action: 1
.Lcst_end11:
	.byte	1                       # >> Action Record 1 <<
                                        #   Catch TypeInfo 1
	.byte	0                       #   No further actions
	.p2align	2
                                        # >> Catch TypeInfos <<
	.word	0                       # TypeInfo 1
.Lttbase9:
	.p2align	2
                                        # -- End function
	.section	.text._ZNSt14_Function_baseD2Ev,"axG",@progbits,_ZNSt14_Function_baseD2Ev,comdat
	.weak	_ZNSt14_Function_baseD2Ev # -- Begin function _ZNSt14_Function_baseD2Ev
	.p2align	2
	.type	_ZNSt14_Function_baseD2Ev,@function
_ZNSt14_Function_baseD2Ev:              # @_ZNSt14_Function_baseD2Ev
.Lfunc_begin12:
	.cfi_startproc
	.cfi_personality 155, DW.ref.__gxx_personality_v0
	.cfi_lsda 27, .Lexception12
# %bb.0:                                # %entry
	addi	sp, sp, -32
	.cfi_def_cfa_offset 32
	sd	ra, 24(sp)
	sd	s0, 16(sp)
	.cfi_offset ra, -8
	.cfi_offset s0, -16
	addi	s0, sp, 32
	.cfi_def_cfa s0, 0
	sd	a0, -24(s0)
	ld	a0, -24(s0)
	ld	a1, 16(a0)
	beqz	a1, .LBB64_3
	j	.LBB64_1
.LBB64_1:                               # %if.then
	ld	a3, 16(a0)
.Ltmp80:
	mv	a1, a0
	addi	a2, zero, 3
	jalr	a3
.Ltmp81:
	j	.LBB64_2
.LBB64_2:                               # %invoke.cont
	j	.LBB64_3
.LBB64_3:                               # %if.end
	ld	s0, 16(sp)
	.cfi_def_cfa sp, 32
	ld	ra, 24(sp)
	.cfi_restore ra
	.cfi_restore s0
	addi	sp, sp, 32
	.cfi_def_cfa_offset 0
	ret
.LBB64_4:                               # %terminate.lpad
.Ltmp82:
	call	__clang_call_terminate
.Lfunc_end64:
	.size	_ZNSt14_Function_baseD2Ev, .Lfunc_end64-_ZNSt14_Function_baseD2Ev
	.cfi_endproc
	.section	.gcc_except_table,"a",@progbits
	.p2align	2
GCC_except_table64:
.Lexception12:
	.byte	255                     # @LPStart Encoding = omit
	.byte	155                     # @TType Encoding = indirect pcrel sdata4
	.uleb128 .Lttbase10-.Lttbaseref10
.Lttbaseref10:
	.byte	3                       # Call site Encoding = udata4
	.uleb128 .Lcst_end12-.Lcst_begin12
.Lcst_begin12:
	.word	.Ltmp80-.Lfunc_begin12  # >> Call Site 1 <<
	.word	.Ltmp81-.Ltmp80         #   Call between .Ltmp80 and .Ltmp81
	.word	.Ltmp82-.Lfunc_begin12  #     jumps to .Ltmp82
	.byte	1                       #   On action: 1
.Lcst_end12:
	.byte	1                       # >> Action Record 1 <<
                                        #   Catch TypeInfo 1
	.byte	0                       #   No further actions
	.p2align	2
                                        # >> Catch TypeInfos <<
	.word	0                       # TypeInfo 1
.Lttbase10:
	.p2align	2
                                        # -- End function
	.section	.text._ZNSt12_Vector_baseIdSaIdEE19_M_get_Tp_allocatorEv,"axG",@progbits,_ZNSt12_Vector_baseIdSaIdEE19_M_get_Tp_allocatorEv,comdat
	.weak	_ZNSt12_Vector_baseIdSaIdEE19_M_get_Tp_allocatorEv # -- Begin function _ZNSt12_Vector_baseIdSaIdEE19_M_get_Tp_allocatorEv
	.p2align	2
	.type	_ZNSt12_Vector_baseIdSaIdEE19_M_get_Tp_allocatorEv,@function
_ZNSt12_Vector_baseIdSaIdEE19_M_get_Tp_allocatorEv: # @_ZNSt12_Vector_baseIdSaIdEE19_M_get_Tp_allocatorEv
# %bb.0:                                # %entry
	addi	sp, sp, -32
	sd	ra, 24(sp)
	sd	s0, 16(sp)
	addi	s0, sp, 32
	sd	a0, -24(s0)
	ld	a0, -24(s0)
	ld	s0, 16(sp)
	ld	ra, 24(sp)
	addi	sp, sp, 32
	ret
.Lfunc_end65:
	.size	_ZNSt12_Vector_baseIdSaIdEE19_M_get_Tp_allocatorEv, .Lfunc_end65-_ZNSt12_Vector_baseIdSaIdEE19_M_get_Tp_allocatorEv
                                        # -- End function
	.section	.text._ZNSt12_Vector_baseIdSaIdEED2Ev,"axG",@progbits,_ZNSt12_Vector_baseIdSaIdEED2Ev,comdat
	.weak	_ZNSt12_Vector_baseIdSaIdEED2Ev # -- Begin function _ZNSt12_Vector_baseIdSaIdEED2Ev
	.p2align	2
	.type	_ZNSt12_Vector_baseIdSaIdEED2Ev,@function
_ZNSt12_Vector_baseIdSaIdEED2Ev:        # @_ZNSt12_Vector_baseIdSaIdEED2Ev
.Lfunc_begin13:
	.cfi_startproc
	.cfi_personality 155, DW.ref.__gxx_personality_v0
	.cfi_lsda 27, .Lexception13
# %bb.0:                                # %entry
	addi	sp, sp, -48
	.cfi_def_cfa_offset 48
	sd	ra, 40(sp)
	sd	s0, 32(sp)
	sd	s1, 24(sp)
	.cfi_offset ra, -8
	.cfi_offset s0, -16
	.cfi_offset s1, -24
	addi	s0, sp, 48
	.cfi_def_cfa s0, 0
	sd	a0, -32(s0)
	ld	s1, -32(s0)
	ld	a1, 0(s1)
	ld	a0, 16(s1)
	sub	a0, a0, a1
	srai	a2, a0, 3
.Ltmp83:
	mv	a0, s1
	call	_ZNSt12_Vector_baseIdSaIdEE13_M_deallocateEPdm
.Ltmp84:
	j	.LBB66_1
.LBB66_1:                               # %invoke.cont
	mv	a0, s1
	call	_ZNSt12_Vector_baseIdSaIdEE12_Vector_implD2Ev
	ld	s1, 24(sp)
	ld	s0, 32(sp)
	.cfi_def_cfa sp, 48
	ld	ra, 40(sp)
	.cfi_restore ra
	.cfi_restore s0
	.cfi_restore s1
	addi	sp, sp, 48
	.cfi_def_cfa_offset 0
	ret
.LBB66_2:                               # %lpad
.Ltmp85:
	sd	a0, -40(s0)
	sw	a1, -44(s0)
	mv	a0, s1
	call	_ZNSt12_Vector_baseIdSaIdEE12_Vector_implD2Ev
	j	.LBB66_3
.LBB66_3:                               # %terminate.handler
	ld	a0, -40(s0)
	call	__clang_call_terminate
.Lfunc_end66:
	.size	_ZNSt12_Vector_baseIdSaIdEED2Ev, .Lfunc_end66-_ZNSt12_Vector_baseIdSaIdEED2Ev
	.cfi_endproc
	.section	.gcc_except_table,"a",@progbits
	.p2align	2
GCC_except_table66:
.Lexception13:
	.byte	255                     # @LPStart Encoding = omit
	.byte	155                     # @TType Encoding = indirect pcrel sdata4
	.uleb128 .Lttbase11-.Lttbaseref11
.Lttbaseref11:
	.byte	3                       # Call site Encoding = udata4
	.uleb128 .Lcst_end13-.Lcst_begin13
.Lcst_begin13:
	.word	.Ltmp83-.Lfunc_begin13  # >> Call Site 1 <<
	.word	.Ltmp84-.Ltmp83         #   Call between .Ltmp83 and .Ltmp84
	.word	.Ltmp85-.Lfunc_begin13  #     jumps to .Ltmp85
	.byte	1                       #   On action: 1
.Lcst_end13:
	.byte	1                       # >> Action Record 1 <<
                                        #   Catch TypeInfo 1
	.byte	0                       #   No further actions
	.p2align	2
                                        # >> Catch TypeInfos <<
	.word	0                       # TypeInfo 1
.Lttbase11:
	.p2align	2
                                        # -- End function
	.section	.text._ZSt8_DestroyIPdEvT_S1_,"axG",@progbits,_ZSt8_DestroyIPdEvT_S1_,comdat
	.weak	_ZSt8_DestroyIPdEvT_S1_ # -- Begin function _ZSt8_DestroyIPdEvT_S1_
	.p2align	2
	.type	_ZSt8_DestroyIPdEvT_S1_,@function
_ZSt8_DestroyIPdEvT_S1_:                # @_ZSt8_DestroyIPdEvT_S1_
	.cfi_startproc
# %bb.0:                                # %entry
	addi	sp, sp, -32
	.cfi_def_cfa_offset 32
	sd	ra, 24(sp)
	sd	s0, 16(sp)
	.cfi_offset ra, -8
	.cfi_offset s0, -16
	addi	s0, sp, 32
	.cfi_def_cfa s0, 0
	sd	a0, -24(s0)
	sd	a1, -32(s0)
	ld	a0, -24(s0)
	ld	a1, -32(s0)
	call	_ZNSt12_Destroy_auxILb1EE9__destroyIPdEEvT_S3_
	ld	s0, 16(sp)
	.cfi_def_cfa sp, 32
	ld	ra, 24(sp)
	.cfi_restore ra
	.cfi_restore s0
	addi	sp, sp, 32
	.cfi_def_cfa_offset 0
	ret
.Lfunc_end67:
	.size	_ZSt8_DestroyIPdEvT_S1_, .Lfunc_end67-_ZSt8_DestroyIPdEvT_S1_
	.cfi_endproc
                                        # -- End function
	.section	.text._ZNSt12_Destroy_auxILb1EE9__destroyIPdEEvT_S3_,"axG",@progbits,_ZNSt12_Destroy_auxILb1EE9__destroyIPdEEvT_S3_,comdat
	.weak	_ZNSt12_Destroy_auxILb1EE9__destroyIPdEEvT_S3_ # -- Begin function _ZNSt12_Destroy_auxILb1EE9__destroyIPdEEvT_S3_
	.p2align	2
	.type	_ZNSt12_Destroy_auxILb1EE9__destroyIPdEEvT_S3_,@function
_ZNSt12_Destroy_auxILb1EE9__destroyIPdEEvT_S3_: # @_ZNSt12_Destroy_auxILb1EE9__destroyIPdEEvT_S3_
# %bb.0:                                # %entry
	addi	sp, sp, -32
	sd	ra, 24(sp)
	sd	s0, 16(sp)
	addi	s0, sp, 32
	sd	a0, -24(s0)
	sd	a1, -32(s0)
	ld	s0, 16(sp)
	ld	ra, 24(sp)
	addi	sp, sp, 32
	ret
.Lfunc_end68:
	.size	_ZNSt12_Destroy_auxILb1EE9__destroyIPdEEvT_S3_, .Lfunc_end68-_ZNSt12_Destroy_auxILb1EE9__destroyIPdEEvT_S3_
                                        # -- End function
	.section	.text._ZNSt12_Vector_baseIdSaIdEE13_M_deallocateEPdm,"axG",@progbits,_ZNSt12_Vector_baseIdSaIdEE13_M_deallocateEPdm,comdat
	.weak	_ZNSt12_Vector_baseIdSaIdEE13_M_deallocateEPdm # -- Begin function _ZNSt12_Vector_baseIdSaIdEE13_M_deallocateEPdm
	.p2align	2
	.type	_ZNSt12_Vector_baseIdSaIdEE13_M_deallocateEPdm,@function
_ZNSt12_Vector_baseIdSaIdEE13_M_deallocateEPdm: # @_ZNSt12_Vector_baseIdSaIdEE13_M_deallocateEPdm
	.cfi_startproc
# %bb.0:                                # %entry
	addi	sp, sp, -64
	.cfi_def_cfa_offset 64
	sd	ra, 56(sp)
	sd	s0, 48(sp)
	.cfi_offset ra, -8
	.cfi_offset s0, -16
	addi	s0, sp, 64
	.cfi_def_cfa s0, 0
	sd	a0, -48(s0)
	sd	a1, -56(s0)
	sd	a2, -64(s0)
	ld	a0, -48(s0)
	ld	a1, -56(s0)
	beqz	a1, .LBB69_2
	j	.LBB69_1
.LBB69_1:                               # %if.then
	ld	a1, -56(s0)
	ld	a2, -64(s0)
	sd	a0, -24(s0)
	sd	a1, -32(s0)
	sd	a2, -40(s0)
	ld	a0, -24(s0)
	ld	a1, -32(s0)
	ld	a2, -40(s0)
	call	_ZNSt15__new_allocatorIdE10deallocateEPdm
	j	.LBB69_2
.LBB69_2:                               # %if.end
	ld	s0, 48(sp)
	.cfi_def_cfa sp, 64
	ld	ra, 56(sp)
	.cfi_restore ra
	.cfi_restore s0
	addi	sp, sp, 64
	.cfi_def_cfa_offset 0
	ret
.Lfunc_end69:
	.size	_ZNSt12_Vector_baseIdSaIdEE13_M_deallocateEPdm, .Lfunc_end69-_ZNSt12_Vector_baseIdSaIdEE13_M_deallocateEPdm
	.cfi_endproc
                                        # -- End function
	.section	.text._ZNSt12_Vector_baseIdSaIdEE12_Vector_implD2Ev,"axG",@progbits,_ZNSt12_Vector_baseIdSaIdEE12_Vector_implD2Ev,comdat
	.weak	_ZNSt12_Vector_baseIdSaIdEE12_Vector_implD2Ev # -- Begin function _ZNSt12_Vector_baseIdSaIdEE12_Vector_implD2Ev
	.p2align	2
	.type	_ZNSt12_Vector_baseIdSaIdEE12_Vector_implD2Ev,@function
_ZNSt12_Vector_baseIdSaIdEE12_Vector_implD2Ev: # @_ZNSt12_Vector_baseIdSaIdEE12_Vector_implD2Ev
# %bb.0:                                # %entry
	addi	sp, sp, -32
	sd	ra, 24(sp)
	sd	s0, 16(sp)
	addi	s0, sp, 32
	sd	a0, -32(s0)
	ld	a0, -32(s0)
	sd	a0, -24(s0)
	ld	a0, -24(s0)
	call	_ZNSt15__new_allocatorIdED2Ev
	ld	s0, 16(sp)
	ld	ra, 24(sp)
	addi	sp, sp, 32
	ret
.Lfunc_end70:
	.size	_ZNSt12_Vector_baseIdSaIdEE12_Vector_implD2Ev, .Lfunc_end70-_ZNSt12_Vector_baseIdSaIdEE12_Vector_implD2Ev
                                        # -- End function
	.section	.text._ZNSt12_Vector_baseIN4Film5SplatESaIS1_EE19_M_get_Tp_allocatorEv,"axG",@progbits,_ZNSt12_Vector_baseIN4Film5SplatESaIS1_EE19_M_get_Tp_allocatorEv,comdat
	.weak	_ZNSt12_Vector_baseIN4Film5SplatESaIS1_EE19_M_get_Tp_allocatorEv # -- Begin function _ZNSt12_Vector_baseIN4Film5SplatESaIS1_EE19_M_get_Tp_allocatorEv
	.p2align	2
	.type	_ZNSt12_Vector_baseIN4Film5SplatESaIS1_EE19_M_get_Tp_allocatorEv,@function
_ZNSt12_Vector_baseIN4Film5SplatESaIS1_EE19_M_get_Tp_allocatorEv: # @_ZNSt12_Vector_baseIN4Film5SplatESaIS1_EE19_M_get_Tp_allocatorEv
# %bb.0:                                # %entry
	addi	sp, sp, -32
	sd	ra, 24(sp)
	sd	s0, 16(sp)
	addi	s0, sp, 32
	sd	a0, -24(s0)
	ld	a0, -24(s0)
	ld	s0, 16(sp)
	ld	ra, 24(sp)
	addi	sp, sp, 32
	ret
.Lfunc_end71:
	.size	_ZNSt12_Vector_baseIN4Film5SplatESaIS1_EE19_M_get_Tp_allocatorEv, .Lfunc_end71-_ZNSt12_Vector_baseIN4Film5SplatESaIS1_EE19_M_get_Tp_allocatorEv
                                        # -- End function
	.section	.text._ZNSt12_Vector_baseIN4Film5SplatESaIS1_EED2Ev,"axG",@progbits,_ZNSt12_Vector_baseIN4Film5SplatESaIS1_EED2Ev,comdat
	.weak	_ZNSt12_Vector_baseIN4Film5SplatESaIS1_EED2Ev # -- Begin function _ZNSt12_Vector_baseIN4Film5SplatESaIS1_EED2Ev
	.p2align	2
	.type	_ZNSt12_Vector_baseIN4Film5SplatESaIS1_EED2Ev,@function
_ZNSt12_Vector_baseIN4Film5SplatESaIS1_EED2Ev: # @_ZNSt12_Vector_baseIN4Film5SplatESaIS1_EED2Ev
.Lfunc_begin14:
	.cfi_startproc
	.cfi_personality 155, DW.ref.__gxx_personality_v0
	.cfi_lsda 27, .Lexception14
# %bb.0:                                # %entry
	addi	sp, sp, -48
	.cfi_def_cfa_offset 48
	sd	ra, 40(sp)
	sd	s0, 32(sp)
	sd	s1, 24(sp)
	.cfi_offset ra, -8
	.cfi_offset s0, -16
	.cfi_offset s1, -24
	addi	s0, sp, 48
	.cfi_def_cfa s0, 0
	sd	a0, -32(s0)
	ld	s1, -32(s0)
	ld	a1, 0(s1)
	ld	a0, 16(s1)
	sub	a0, a0, a1
	srai	a2, a0, 5
.Ltmp86:
	mv	a0, s1
	call	_ZNSt12_Vector_baseIN4Film5SplatESaIS1_EE13_M_deallocateEPS1_m
.Ltmp87:
	j	.LBB72_1
.LBB72_1:                               # %invoke.cont
	mv	a0, s1
	call	_ZNSt12_Vector_baseIN4Film5SplatESaIS1_EE12_Vector_implD2Ev
	ld	s1, 24(sp)
	ld	s0, 32(sp)
	.cfi_def_cfa sp, 48
	ld	ra, 40(sp)
	.cfi_restore ra
	.cfi_restore s0
	.cfi_restore s1
	addi	sp, sp, 48
	.cfi_def_cfa_offset 0
	ret
.LBB72_2:                               # %lpad
.Ltmp88:
	sd	a0, -40(s0)
	sw	a1, -44(s0)
	mv	a0, s1
	call	_ZNSt12_Vector_baseIN4Film5SplatESaIS1_EE12_Vector_implD2Ev
	j	.LBB72_3
.LBB72_3:                               # %terminate.handler
	ld	a0, -40(s0)
	call	__clang_call_terminate
.Lfunc_end72:
	.size	_ZNSt12_Vector_baseIN4Film5SplatESaIS1_EED2Ev, .Lfunc_end72-_ZNSt12_Vector_baseIN4Film5SplatESaIS1_EED2Ev
	.cfi_endproc
	.section	.gcc_except_table,"a",@progbits
	.p2align	2
GCC_except_table72:
.Lexception14:
	.byte	255                     # @LPStart Encoding = omit
	.byte	155                     # @TType Encoding = indirect pcrel sdata4
	.uleb128 .Lttbase12-.Lttbaseref12
.Lttbaseref12:
	.byte	3                       # Call site Encoding = udata4
	.uleb128 .Lcst_end14-.Lcst_begin14
.Lcst_begin14:
	.word	.Ltmp86-.Lfunc_begin14  # >> Call Site 1 <<
	.word	.Ltmp87-.Ltmp86         #   Call between .Ltmp86 and .Ltmp87
	.word	.Ltmp88-.Lfunc_begin14  #     jumps to .Ltmp88
	.byte	1                       #   On action: 1
.Lcst_end14:
	.byte	1                       # >> Action Record 1 <<
                                        #   Catch TypeInfo 1
	.byte	0                       #   No further actions
	.p2align	2
                                        # >> Catch TypeInfos <<
	.word	0                       # TypeInfo 1
.Lttbase12:
	.p2align	2
                                        # -- End function
	.section	.text._ZSt8_DestroyIPN4Film5SplatEEvT_S3_,"axG",@progbits,_ZSt8_DestroyIPN4Film5SplatEEvT_S3_,comdat
	.weak	_ZSt8_DestroyIPN4Film5SplatEEvT_S3_ # -- Begin function _ZSt8_DestroyIPN4Film5SplatEEvT_S3_
	.p2align	2
	.type	_ZSt8_DestroyIPN4Film5SplatEEvT_S3_,@function
_ZSt8_DestroyIPN4Film5SplatEEvT_S3_:    # @_ZSt8_DestroyIPN4Film5SplatEEvT_S3_
	.cfi_startproc
# %bb.0:                                # %entry
	addi	sp, sp, -32
	.cfi_def_cfa_offset 32
	sd	ra, 24(sp)
	sd	s0, 16(sp)
	.cfi_offset ra, -8
	.cfi_offset s0, -16
	addi	s0, sp, 32
	.cfi_def_cfa s0, 0
	sd	a0, -24(s0)
	sd	a1, -32(s0)
	ld	a0, -24(s0)
	ld	a1, -32(s0)
	call	_ZNSt12_Destroy_auxILb1EE9__destroyIPN4Film5SplatEEEvT_S5_
	ld	s0, 16(sp)
	.cfi_def_cfa sp, 32
	ld	ra, 24(sp)
	.cfi_restore ra
	.cfi_restore s0
	addi	sp, sp, 32
	.cfi_def_cfa_offset 0
	ret
.Lfunc_end73:
	.size	_ZSt8_DestroyIPN4Film5SplatEEvT_S3_, .Lfunc_end73-_ZSt8_DestroyIPN4Film5SplatEEvT_S3_
	.cfi_endproc
                                        # -- End function
	.section	.text._ZNSt12_Destroy_auxILb1EE9__destroyIPN4Film5SplatEEEvT_S5_,"axG",@progbits,_ZNSt12_Destroy_auxILb1EE9__destroyIPN4Film5SplatEEEvT_S5_,comdat
	.weak	_ZNSt12_Destroy_auxILb1EE9__destroyIPN4Film5SplatEEEvT_S5_ # -- Begin function _ZNSt12_Destroy_auxILb1EE9__destroyIPN4Film5SplatEEEvT_S5_
	.p2align	2
	.type	_ZNSt12_Destroy_auxILb1EE9__destroyIPN4Film5SplatEEEvT_S5_,@function
_ZNSt12_Destroy_auxILb1EE9__destroyIPN4Film5SplatEEEvT_S5_: # @_ZNSt12_Destroy_auxILb1EE9__destroyIPN4Film5SplatEEEvT_S5_
# %bb.0:                                # %entry
	addi	sp, sp, -32
	sd	ra, 24(sp)
	sd	s0, 16(sp)
	addi	s0, sp, 32
	sd	a0, -24(s0)
	sd	a1, -32(s0)
	ld	s0, 16(sp)
	ld	ra, 24(sp)
	addi	sp, sp, 32
	ret
.Lfunc_end74:
	.size	_ZNSt12_Destroy_auxILb1EE9__destroyIPN4Film5SplatEEEvT_S5_, .Lfunc_end74-_ZNSt12_Destroy_auxILb1EE9__destroyIPN4Film5SplatEEEvT_S5_
                                        # -- End function
	.section	.text._ZNSt12_Vector_baseIN4Film5SplatESaIS1_EE13_M_deallocateEPS1_m,"axG",@progbits,_ZNSt12_Vector_baseIN4Film5SplatESaIS1_EE13_M_deallocateEPS1_m,comdat
	.weak	_ZNSt12_Vector_baseIN4Film5SplatESaIS1_EE13_M_deallocateEPS1_m # -- Begin function _ZNSt12_Vector_baseIN4Film5SplatESaIS1_EE13_M_deallocateEPS1_m
	.p2align	2
	.type	_ZNSt12_Vector_baseIN4Film5SplatESaIS1_EE13_M_deallocateEPS1_m,@function
_ZNSt12_Vector_baseIN4Film5SplatESaIS1_EE13_M_deallocateEPS1_m: # @_ZNSt12_Vector_baseIN4Film5SplatESaIS1_EE13_M_deallocateEPS1_m
	.cfi_startproc
# %bb.0:                                # %entry
	addi	sp, sp, -64
	.cfi_def_cfa_offset 64
	sd	ra, 56(sp)
	sd	s0, 48(sp)
	.cfi_offset ra, -8
	.cfi_offset s0, -16
	addi	s0, sp, 64
	.cfi_def_cfa s0, 0
	sd	a0, -48(s0)
	sd	a1, -56(s0)
	sd	a2, -64(s0)
	ld	a0, -48(s0)
	ld	a1, -56(s0)
	beqz	a1, .LBB75_2
	j	.LBB75_1
.LBB75_1:                               # %if.then
	ld	a1, -56(s0)
	ld	a2, -64(s0)
	sd	a0, -24(s0)
	sd	a1, -32(s0)
	sd	a2, -40(s0)
	ld	a0, -24(s0)
	ld	a1, -32(s0)
	ld	a2, -40(s0)
	call	_ZNSt15__new_allocatorIN4Film5SplatEE10deallocateEPS1_m
	j	.LBB75_2
.LBB75_2:                               # %if.end
	ld	s0, 48(sp)
	.cfi_def_cfa sp, 64
	ld	ra, 56(sp)
	.cfi_restore ra
	.cfi_restore s0
	addi	sp, sp, 64
	.cfi_def_cfa_offset 0
	ret
.Lfunc_end75:
	.size	_ZNSt12_Vector_baseIN4Film5SplatESaIS1_EE13_M_deallocateEPS1_m, .Lfunc_end75-_ZNSt12_Vector_baseIN4Film5SplatESaIS1_EE13_M_deallocateEPS1_m
	.cfi_endproc
                                        # -- End function
	.section	.text._ZNSt12_Vector_baseIN4Film5SplatESaIS1_EE12_Vector_implD2Ev,"axG",@progbits,_ZNSt12_Vector_baseIN4Film5SplatESaIS1_EE12_Vector_implD2Ev,comdat
	.weak	_ZNSt12_Vector_baseIN4Film5SplatESaIS1_EE12_Vector_implD2Ev # -- Begin function _ZNSt12_Vector_baseIN4Film5SplatESaIS1_EE12_Vector_implD2Ev
	.p2align	2
	.type	_ZNSt12_Vector_baseIN4Film5SplatESaIS1_EE12_Vector_implD2Ev,@function
_ZNSt12_Vector_baseIN4Film5SplatESaIS1_EE12_Vector_implD2Ev: # @_ZNSt12_Vector_baseIN4Film5SplatESaIS1_EE12_Vector_implD2Ev
# %bb.0:                                # %entry
	addi	sp, sp, -32
	sd	ra, 24(sp)
	sd	s0, 16(sp)
	addi	s0, sp, 32
	sd	a0, -32(s0)
	ld	a0, -32(s0)
	sd	a0, -24(s0)
	ld	a0, -24(s0)
	call	_ZNSt15__new_allocatorIN4Film5SplatEED2Ev
	ld	s0, 16(sp)
	ld	ra, 24(sp)
	addi	sp, sp, 32
	ret
.Lfunc_end76:
	.size	_ZNSt12_Vector_baseIN4Film5SplatESaIS1_EE12_Vector_implD2Ev, .Lfunc_end76-_ZNSt12_Vector_baseIN4Film5SplatESaIS1_EE12_Vector_implD2Ev
                                        # -- End function
	.section	.text._ZNSt15__new_allocatorIN4Film5SplatEE10deallocateEPS1_m,"axG",@progbits,_ZNSt15__new_allocatorIN4Film5SplatEE10deallocateEPS1_m,comdat
	.weak	_ZNSt15__new_allocatorIN4Film5SplatEE10deallocateEPS1_m # -- Begin function _ZNSt15__new_allocatorIN4Film5SplatEE10deallocateEPS1_m
	.p2align	2
	.type	_ZNSt15__new_allocatorIN4Film5SplatEE10deallocateEPS1_m,@function
_ZNSt15__new_allocatorIN4Film5SplatEE10deallocateEPS1_m: # @_ZNSt15__new_allocatorIN4Film5SplatEE10deallocateEPS1_m
# %bb.0:                                # %entry
	addi	sp, sp, -48
	sd	ra, 40(sp)
	sd	s0, 32(sp)
	addi	s0, sp, 48
	sd	a0, -24(s0)
	sd	a1, -32(s0)
	sd	a2, -40(s0)
	ld	a0, -32(s0)
	call	_ZdlPv
	ld	s0, 32(sp)
	ld	ra, 40(sp)
	addi	sp, sp, 48
	ret
.Lfunc_end77:
	.size	_ZNSt15__new_allocatorIN4Film5SplatEE10deallocateEPS1_m, .Lfunc_end77-_ZNSt15__new_allocatorIN4Film5SplatEE10deallocateEPS1_m
                                        # -- End function
	.section	.text._ZNSt15__new_allocatorIN4Film5SplatEED2Ev,"axG",@progbits,_ZNSt15__new_allocatorIN4Film5SplatEED2Ev,comdat
	.weak	_ZNSt15__new_allocatorIN4Film5SplatEED2Ev # -- Begin function _ZNSt15__new_allocatorIN4Film5SplatEED2Ev
	.p2align	2
	.type	_ZNSt15__new_allocatorIN4Film5SplatEED2Ev,@function
_ZNSt15__new_allocatorIN4Film5SplatEED2Ev: # @_ZNSt15__new_allocatorIN4Film5SplatEED2Ev
# %bb.0:                                # %entry
	addi	sp, sp, -32
	sd	ra, 24(sp)
	sd	s0, 16(sp)
	addi	s0, sp, 32
	sd	a0, -24(s0)
	ld	s0, 16(sp)
	ld	ra, 24(sp)
	addi	sp, sp, 32
	ret
.Lfunc_end78:
	.size	_ZNSt15__new_allocatorIN4Film5SplatEED2Ev, .Lfunc_end78-_ZNSt15__new_allocatorIN4Film5SplatEED2Ev
                                        # -- End function
	.section	.text._ZNSt8functionIFN3glm3vecILi3EdLNS0_9qualifierE0EEERKS3_EED2Ev,"axG",@progbits,_ZNSt8functionIFN3glm3vecILi3EdLNS0_9qualifierE0EEERKS3_EED2Ev,comdat
	.weak	_ZNSt8functionIFN3glm3vecILi3EdLNS0_9qualifierE0EEERKS3_EED2Ev # -- Begin function _ZNSt8functionIFN3glm3vecILi3EdLNS0_9qualifierE0EEERKS3_EED2Ev
	.p2align	2
	.type	_ZNSt8functionIFN3glm3vecILi3EdLNS0_9qualifierE0EEERKS3_EED2Ev,@function
_ZNSt8functionIFN3glm3vecILi3EdLNS0_9qualifierE0EEERKS3_EED2Ev: # @_ZNSt8functionIFN3glm3vecILi3EdLNS0_9qualifierE0EEERKS3_EED2Ev
# %bb.0:                                # %entry
	addi	sp, sp, -32
	sd	ra, 24(sp)
	sd	s0, 16(sp)
	addi	s0, sp, 32
	sd	a0, -24(s0)
	ld	a0, -24(s0)
	call	_ZNSt14_Function_baseD2Ev
	ld	s0, 16(sp)
	ld	ra, 24(sp)
	addi	sp, sp, 32
	ret
.Lfunc_end79:
	.size	_ZNSt8functionIFN3glm3vecILi3EdLNS0_9qualifierE0EEERKS3_EED2Ev, .Lfunc_end79-_ZNSt8functionIFN3glm3vecILi3EdLNS0_9qualifierE0EEERKS3_EED2Ev
                                        # -- End function
	.section	.text._ZNSt6vectorIN3glm3vecILi3EdLNS0_9qualifierE0EEESaIS3_EED2Ev,"axG",@progbits,_ZNSt6vectorIN3glm3vecILi3EdLNS0_9qualifierE0EEESaIS3_EED2Ev,comdat
	.weak	_ZNSt6vectorIN3glm3vecILi3EdLNS0_9qualifierE0EEESaIS3_EED2Ev # -- Begin function _ZNSt6vectorIN3glm3vecILi3EdLNS0_9qualifierE0EEESaIS3_EED2Ev
	.p2align	2
	.type	_ZNSt6vectorIN3glm3vecILi3EdLNS0_9qualifierE0EEESaIS3_EED2Ev,@function
_ZNSt6vectorIN3glm3vecILi3EdLNS0_9qualifierE0EEESaIS3_EED2Ev: # @_ZNSt6vectorIN3glm3vecILi3EdLNS0_9qualifierE0EEESaIS3_EED2Ev
.Lfunc_begin15:
	.cfi_startproc
	.cfi_personality 155, DW.ref.__gxx_personality_v0
	.cfi_lsda 27, .Lexception15
# %bb.0:                                # %entry
	addi	sp, sp, -96
	.cfi_def_cfa_offset 96
	sd	ra, 88(sp)
	sd	s0, 80(sp)
	sd	s1, 72(sp)
	sd	s2, 64(sp)
	sd	s3, 56(sp)
	.cfi_offset ra, -8
	.cfi_offset s0, -16
	.cfi_offset s1, -24
	.cfi_offset s2, -32
	.cfi_offset s3, -40
	addi	s0, sp, 96
	.cfi_def_cfa s0, 0
	sd	a0, -72(s0)
	ld	s1, -72(s0)
	ld	s2, 0(s1)
	ld	s3, 8(s1)
	mv	a0, s1
	call	_ZNSt12_Vector_baseIN3glm3vecILi3EdLNS0_9qualifierE0EEESaIS3_EE19_M_get_Tp_allocatorEv
	sd	s2, -48(s0)
	sd	s3, -56(s0)
	sd	a0, -64(s0)
	ld	a0, -48(s0)
	ld	a1, -56(s0)
.Ltmp89:
	call	_ZSt8_DestroyIPN3glm3vecILi3EdLNS0_9qualifierE0EEEEvT_S5_
.Ltmp90:
	j	.LBB80_1
.LBB80_1:                               # %_ZSt8_DestroyIPN3glm3vecILi3EdLNS0_9qualifierE0EEES3_EvT_S5_RSaIT0_E.exit
	j	.LBB80_2
.LBB80_2:                               # %invoke.cont
	mv	a0, s1
	call	_ZNSt12_Vector_baseIN3glm3vecILi3EdLNS0_9qualifierE0EEESaIS3_EED2Ev
	ld	s3, 56(sp)
	ld	s2, 64(sp)
	ld	s1, 72(sp)
	ld	s0, 80(sp)
	.cfi_def_cfa sp, 96
	ld	ra, 88(sp)
	.cfi_restore ra
	.cfi_restore s0
	.cfi_restore s1
	.cfi_restore s2
	.cfi_restore s3
	addi	sp, sp, 96
	.cfi_def_cfa_offset 0
	ret
.LBB80_3:                               # %lpad
.Ltmp91:
	sd	a0, -80(s0)
	sw	a1, -84(s0)
	mv	a0, s1
	call	_ZNSt12_Vector_baseIN3glm3vecILi3EdLNS0_9qualifierE0EEESaIS3_EED2Ev
	j	.LBB80_4
.LBB80_4:                               # %terminate.handler
	ld	a0, -80(s0)
	call	__clang_call_terminate
.Lfunc_end80:
	.size	_ZNSt6vectorIN3glm3vecILi3EdLNS0_9qualifierE0EEESaIS3_EED2Ev, .Lfunc_end80-_ZNSt6vectorIN3glm3vecILi3EdLNS0_9qualifierE0EEESaIS3_EED2Ev
	.cfi_endproc
	.section	.gcc_except_table,"a",@progbits
	.p2align	2
GCC_except_table80:
.Lexception15:
	.byte	255                     # @LPStart Encoding = omit
	.byte	155                     # @TType Encoding = indirect pcrel sdata4
	.uleb128 .Lttbase13-.Lttbaseref13
.Lttbaseref13:
	.byte	3                       # Call site Encoding = udata4
	.uleb128 .Lcst_end15-.Lcst_begin15
.Lcst_begin15:
	.word	.Ltmp89-.Lfunc_begin15  # >> Call Site 1 <<
	.word	.Ltmp90-.Ltmp89         #   Call between .Ltmp89 and .Ltmp90
	.word	.Ltmp91-.Lfunc_begin15  #     jumps to .Ltmp91
	.byte	1                       #   On action: 1
.Lcst_end15:
	.byte	1                       # >> Action Record 1 <<
                                        #   Catch TypeInfo 1
	.byte	0                       #   No further actions
	.p2align	2
                                        # >> Catch TypeInfos <<
	.word	0                       # TypeInfo 1
.Lttbase13:
	.p2align	2
                                        # -- End function
	.section	.text._ZNSt12_Vector_baseIN3glm3vecILi3EdLNS0_9qualifierE0EEESaIS3_EE19_M_get_Tp_allocatorEv,"axG",@progbits,_ZNSt12_Vector_baseIN3glm3vecILi3EdLNS0_9qualifierE0EEESaIS3_EE19_M_get_Tp_allocatorEv,comdat
	.weak	_ZNSt12_Vector_baseIN3glm3vecILi3EdLNS0_9qualifierE0EEESaIS3_EE19_M_get_Tp_allocatorEv # -- Begin function _ZNSt12_Vector_baseIN3glm3vecILi3EdLNS0_9qualifierE0EEESaIS3_EE19_M_get_Tp_allocatorEv
	.p2align	2
	.type	_ZNSt12_Vector_baseIN3glm3vecILi3EdLNS0_9qualifierE0EEESaIS3_EE19_M_get_Tp_allocatorEv,@function
_ZNSt12_Vector_baseIN3glm3vecILi3EdLNS0_9qualifierE0EEESaIS3_EE19_M_get_Tp_allocatorEv: # @_ZNSt12_Vector_baseIN3glm3vecILi3EdLNS0_9qualifierE0EEESaIS3_EE19_M_get_Tp_allocatorEv
# %bb.0:                                # %entry
	addi	sp, sp, -32
	sd	ra, 24(sp)
	sd	s0, 16(sp)
	addi	s0, sp, 32
	sd	a0, -24(s0)
	ld	a0, -24(s0)
	ld	s0, 16(sp)
	ld	ra, 24(sp)
	addi	sp, sp, 32
	ret
.Lfunc_end81:
	.size	_ZNSt12_Vector_baseIN3glm3vecILi3EdLNS0_9qualifierE0EEESaIS3_EE19_M_get_Tp_allocatorEv, .Lfunc_end81-_ZNSt12_Vector_baseIN3glm3vecILi3EdLNS0_9qualifierE0EEESaIS3_EE19_M_get_Tp_allocatorEv
                                        # -- End function
	.section	.text._ZNSt12_Vector_baseIN3glm3vecILi3EdLNS0_9qualifierE0EEESaIS3_EED2Ev,"axG",@progbits,_ZNSt12_Vector_baseIN3glm3vecILi3EdLNS0_9qualifierE0EEESaIS3_EED2Ev,comdat
	.weak	_ZNSt12_Vector_baseIN3glm3vecILi3EdLNS0_9qualifierE0EEESaIS3_EED2Ev # -- Begin function _ZNSt12_Vector_baseIN3glm3vecILi3EdLNS0_9qualifierE0EEESaIS3_EED2Ev
	.p2align	2
	.type	_ZNSt12_Vector_baseIN3glm3vecILi3EdLNS0_9qualifierE0EEESaIS3_EED2Ev,@function
_ZNSt12_Vector_baseIN3glm3vecILi3EdLNS0_9qualifierE0EEESaIS3_EED2Ev: # @_ZNSt12_Vector_baseIN3glm3vecILi3EdLNS0_9qualifierE0EEESaIS3_EED2Ev
.Lfunc_begin16:
	.cfi_startproc
	.cfi_personality 155, DW.ref.__gxx_personality_v0
	.cfi_lsda 27, .Lexception16
# %bb.0:                                # %entry
	addi	sp, sp, -48
	.cfi_def_cfa_offset 48
	sd	ra, 40(sp)
	sd	s0, 32(sp)
	sd	s1, 24(sp)
	.cfi_offset ra, -8
	.cfi_offset s0, -16
	.cfi_offset s1, -24
	addi	s0, sp, 48
	.cfi_def_cfa s0, 0
	sd	a0, -32(s0)
	ld	s1, -32(s0)
	ld	a1, 0(s1)
	ld	a0, 16(s1)
	sub	a0, a0, a1
	srai	a0, a0, 3
	lui	a2, 1026731
	addiw	a2, a2, -1365
	slli	a2, a2, 12
	addi	a2, a2, -1365
	slli	a2, a2, 12
	addi	a2, a2, -1365
	slli	a2, a2, 12
	addi	a2, a2, -1365
	mul	a2, a0, a2
.Ltmp92:
	mv	a0, s1
	call	_ZNSt12_Vector_baseIN3glm3vecILi3EdLNS0_9qualifierE0EEESaIS3_EE13_M_deallocateEPS3_m
.Ltmp93:
	j	.LBB82_1
.LBB82_1:                               # %invoke.cont
	mv	a0, s1
	call	_ZNSt12_Vector_baseIN3glm3vecILi3EdLNS0_9qualifierE0EEESaIS3_EE12_Vector_implD2Ev
	ld	s1, 24(sp)
	ld	s0, 32(sp)
	.cfi_def_cfa sp, 48
	ld	ra, 40(sp)
	.cfi_restore ra
	.cfi_restore s0
	.cfi_restore s1
	addi	sp, sp, 48
	.cfi_def_cfa_offset 0
	ret
.LBB82_2:                               # %lpad
.Ltmp94:
	sd	a0, -40(s0)
	sw	a1, -44(s0)
	mv	a0, s1
	call	_ZNSt12_Vector_baseIN3glm3vecILi3EdLNS0_9qualifierE0EEESaIS3_EE12_Vector_implD2Ev
	j	.LBB82_3
.LBB82_3:                               # %terminate.handler
	ld	a0, -40(s0)
	call	__clang_call_terminate
.Lfunc_end82:
	.size	_ZNSt12_Vector_baseIN3glm3vecILi3EdLNS0_9qualifierE0EEESaIS3_EED2Ev, .Lfunc_end82-_ZNSt12_Vector_baseIN3glm3vecILi3EdLNS0_9qualifierE0EEESaIS3_EED2Ev
	.cfi_endproc
	.section	.gcc_except_table,"a",@progbits
	.p2align	2
GCC_except_table82:
.Lexception16:
	.byte	255                     # @LPStart Encoding = omit
	.byte	155                     # @TType Encoding = indirect pcrel sdata4
	.uleb128 .Lttbase14-.Lttbaseref14
.Lttbaseref14:
	.byte	3                       # Call site Encoding = udata4
	.uleb128 .Lcst_end16-.Lcst_begin16
.Lcst_begin16:
	.word	.Ltmp92-.Lfunc_begin16  # >> Call Site 1 <<
	.word	.Ltmp93-.Ltmp92         #   Call between .Ltmp92 and .Ltmp93
	.word	.Ltmp94-.Lfunc_begin16  #     jumps to .Ltmp94
	.byte	1                       #   On action: 1
.Lcst_end16:
	.byte	1                       # >> Action Record 1 <<
                                        #   Catch TypeInfo 1
	.byte	0                       #   No further actions
	.p2align	2
                                        # >> Catch TypeInfos <<
	.word	0                       # TypeInfo 1
.Lttbase14:
	.p2align	2
                                        # -- End function
	.section	.text._ZSt8_DestroyIPN3glm3vecILi3EdLNS0_9qualifierE0EEEEvT_S5_,"axG",@progbits,_ZSt8_DestroyIPN3glm3vecILi3EdLNS0_9qualifierE0EEEEvT_S5_,comdat
	.weak	_ZSt8_DestroyIPN3glm3vecILi3EdLNS0_9qualifierE0EEEEvT_S5_ # -- Begin function _ZSt8_DestroyIPN3glm3vecILi3EdLNS0_9qualifierE0EEEEvT_S5_
	.p2align	2
	.type	_ZSt8_DestroyIPN3glm3vecILi3EdLNS0_9qualifierE0EEEEvT_S5_,@function
_ZSt8_DestroyIPN3glm3vecILi3EdLNS0_9qualifierE0EEEEvT_S5_: # @_ZSt8_DestroyIPN3glm3vecILi3EdLNS0_9qualifierE0EEEEvT_S5_
	.cfi_startproc
# %bb.0:                                # %entry
	addi	sp, sp, -32
	.cfi_def_cfa_offset 32
	sd	ra, 24(sp)
	sd	s0, 16(sp)
	.cfi_offset ra, -8
	.cfi_offset s0, -16
	addi	s0, sp, 32
	.cfi_def_cfa s0, 0
	sd	a0, -24(s0)
	sd	a1, -32(s0)
	ld	a0, -24(s0)
	ld	a1, -32(s0)
	call	_ZNSt12_Destroy_auxILb1EE9__destroyIPN3glm3vecILi3EdLNS2_9qualifierE0EEEEEvT_S7_
	ld	s0, 16(sp)
	.cfi_def_cfa sp, 32
	ld	ra, 24(sp)
	.cfi_restore ra
	.cfi_restore s0
	addi	sp, sp, 32
	.cfi_def_cfa_offset 0
	ret
.Lfunc_end83:
	.size	_ZSt8_DestroyIPN3glm3vecILi3EdLNS0_9qualifierE0EEEEvT_S5_, .Lfunc_end83-_ZSt8_DestroyIPN3glm3vecILi3EdLNS0_9qualifierE0EEEEvT_S5_
	.cfi_endproc
                                        # -- End function
	.section	.text._ZNSt12_Destroy_auxILb1EE9__destroyIPN3glm3vecILi3EdLNS2_9qualifierE0EEEEEvT_S7_,"axG",@progbits,_ZNSt12_Destroy_auxILb1EE9__destroyIPN3glm3vecILi3EdLNS2_9qualifierE0EEEEEvT_S7_,comdat
	.weak	_ZNSt12_Destroy_auxILb1EE9__destroyIPN3glm3vecILi3EdLNS2_9qualifierE0EEEEEvT_S7_ # -- Begin function _ZNSt12_Destroy_auxILb1EE9__destroyIPN3glm3vecILi3EdLNS2_9qualifierE0EEEEEvT_S7_
	.p2align	2
	.type	_ZNSt12_Destroy_auxILb1EE9__destroyIPN3glm3vecILi3EdLNS2_9qualifierE0EEEEEvT_S7_,@function
_ZNSt12_Destroy_auxILb1EE9__destroyIPN3glm3vecILi3EdLNS2_9qualifierE0EEEEEvT_S7_: # @_ZNSt12_Destroy_auxILb1EE9__destroyIPN3glm3vecILi3EdLNS2_9qualifierE0EEEEEvT_S7_
# %bb.0:                                # %entry
	addi	sp, sp, -32
	sd	ra, 24(sp)
	sd	s0, 16(sp)
	addi	s0, sp, 32
	sd	a0, -24(s0)
	sd	a1, -32(s0)
	ld	s0, 16(sp)
	ld	ra, 24(sp)
	addi	sp, sp, 32
	ret
.Lfunc_end84:
	.size	_ZNSt12_Destroy_auxILb1EE9__destroyIPN3glm3vecILi3EdLNS2_9qualifierE0EEEEEvT_S7_, .Lfunc_end84-_ZNSt12_Destroy_auxILb1EE9__destroyIPN3glm3vecILi3EdLNS2_9qualifierE0EEEEEvT_S7_
                                        # -- End function
	.section	.text._ZNSt12_Vector_baseIN3glm3vecILi3EdLNS0_9qualifierE0EEESaIS3_EE13_M_deallocateEPS3_m,"axG",@progbits,_ZNSt12_Vector_baseIN3glm3vecILi3EdLNS0_9qualifierE0EEESaIS3_EE13_M_deallocateEPS3_m,comdat
	.weak	_ZNSt12_Vector_baseIN3glm3vecILi3EdLNS0_9qualifierE0EEESaIS3_EE13_M_deallocateEPS3_m # -- Begin function _ZNSt12_Vector_baseIN3glm3vecILi3EdLNS0_9qualifierE0EEESaIS3_EE13_M_deallocateEPS3_m
	.p2align	2
	.type	_ZNSt12_Vector_baseIN3glm3vecILi3EdLNS0_9qualifierE0EEESaIS3_EE13_M_deallocateEPS3_m,@function
_ZNSt12_Vector_baseIN3glm3vecILi3EdLNS0_9qualifierE0EEESaIS3_EE13_M_deallocateEPS3_m: # @_ZNSt12_Vector_baseIN3glm3vecILi3EdLNS0_9qualifierE0EEESaIS3_EE13_M_deallocateEPS3_m
	.cfi_startproc
# %bb.0:                                # %entry
	addi	sp, sp, -64
	.cfi_def_cfa_offset 64
	sd	ra, 56(sp)
	sd	s0, 48(sp)
	.cfi_offset ra, -8
	.cfi_offset s0, -16
	addi	s0, sp, 64
	.cfi_def_cfa s0, 0
	sd	a0, -48(s0)
	sd	a1, -56(s0)
	sd	a2, -64(s0)
	ld	a0, -48(s0)
	ld	a1, -56(s0)
	beqz	a1, .LBB85_2
	j	.LBB85_1
.LBB85_1:                               # %if.then
	ld	a1, -56(s0)
	ld	a2, -64(s0)
	sd	a0, -24(s0)
	sd	a1, -32(s0)
	sd	a2, -40(s0)
	ld	a0, -24(s0)
	ld	a1, -32(s0)
	ld	a2, -40(s0)
	call	_ZNSt15__new_allocatorIN3glm3vecILi3EdLNS0_9qualifierE0EEEE10deallocateEPS3_m
	j	.LBB85_2
.LBB85_2:                               # %if.end
	ld	s0, 48(sp)
	.cfi_def_cfa sp, 64
	ld	ra, 56(sp)
	.cfi_restore ra
	.cfi_restore s0
	addi	sp, sp, 64
	.cfi_def_cfa_offset 0
	ret
.Lfunc_end85:
	.size	_ZNSt12_Vector_baseIN3glm3vecILi3EdLNS0_9qualifierE0EEESaIS3_EE13_M_deallocateEPS3_m, .Lfunc_end85-_ZNSt12_Vector_baseIN3glm3vecILi3EdLNS0_9qualifierE0EEESaIS3_EE13_M_deallocateEPS3_m
	.cfi_endproc
                                        # -- End function
	.section	.text._ZNSt12_Vector_baseIN3glm3vecILi3EdLNS0_9qualifierE0EEESaIS3_EE12_Vector_implD2Ev,"axG",@progbits,_ZNSt12_Vector_baseIN3glm3vecILi3EdLNS0_9qualifierE0EEESaIS3_EE12_Vector_implD2Ev,comdat
	.weak	_ZNSt12_Vector_baseIN3glm3vecILi3EdLNS0_9qualifierE0EEESaIS3_EE12_Vector_implD2Ev # -- Begin function _ZNSt12_Vector_baseIN3glm3vecILi3EdLNS0_9qualifierE0EEESaIS3_EE12_Vector_implD2Ev
	.p2align	2
	.type	_ZNSt12_Vector_baseIN3glm3vecILi3EdLNS0_9qualifierE0EEESaIS3_EE12_Vector_implD2Ev,@function
_ZNSt12_Vector_baseIN3glm3vecILi3EdLNS0_9qualifierE0EEESaIS3_EE12_Vector_implD2Ev: # @_ZNSt12_Vector_baseIN3glm3vecILi3EdLNS0_9qualifierE0EEESaIS3_EE12_Vector_implD2Ev
# %bb.0:                                # %entry
	addi	sp, sp, -32
	sd	ra, 24(sp)
	sd	s0, 16(sp)
	addi	s0, sp, 32
	sd	a0, -32(s0)
	ld	a0, -32(s0)
	sd	a0, -24(s0)
	ld	a0, -24(s0)
	call	_ZNSt15__new_allocatorIN3glm3vecILi3EdLNS0_9qualifierE0EEEED2Ev
	ld	s0, 16(sp)
	ld	ra, 24(sp)
	addi	sp, sp, 32
	ret
.Lfunc_end86:
	.size	_ZNSt12_Vector_baseIN3glm3vecILi3EdLNS0_9qualifierE0EEESaIS3_EE12_Vector_implD2Ev, .Lfunc_end86-_ZNSt12_Vector_baseIN3glm3vecILi3EdLNS0_9qualifierE0EEESaIS3_EE12_Vector_implD2Ev
                                        # -- End function
	.section	.text._ZNSt15__new_allocatorIN3glm3vecILi3EdLNS0_9qualifierE0EEEE10deallocateEPS3_m,"axG",@progbits,_ZNSt15__new_allocatorIN3glm3vecILi3EdLNS0_9qualifierE0EEEE10deallocateEPS3_m,comdat
	.weak	_ZNSt15__new_allocatorIN3glm3vecILi3EdLNS0_9qualifierE0EEEE10deallocateEPS3_m # -- Begin function _ZNSt15__new_allocatorIN3glm3vecILi3EdLNS0_9qualifierE0EEEE10deallocateEPS3_m
	.p2align	2
	.type	_ZNSt15__new_allocatorIN3glm3vecILi3EdLNS0_9qualifierE0EEEE10deallocateEPS3_m,@function
_ZNSt15__new_allocatorIN3glm3vecILi3EdLNS0_9qualifierE0EEEE10deallocateEPS3_m: # @_ZNSt15__new_allocatorIN3glm3vecILi3EdLNS0_9qualifierE0EEEE10deallocateEPS3_m
# %bb.0:                                # %entry
	addi	sp, sp, -48
	sd	ra, 40(sp)
	sd	s0, 32(sp)
	addi	s0, sp, 48
	sd	a0, -24(s0)
	sd	a1, -32(s0)
	sd	a2, -40(s0)
	ld	a0, -32(s0)
	call	_ZdlPv
	ld	s0, 32(sp)
	ld	ra, 40(sp)
	addi	sp, sp, 48
	ret
.Lfunc_end87:
	.size	_ZNSt15__new_allocatorIN3glm3vecILi3EdLNS0_9qualifierE0EEEE10deallocateEPS3_m, .Lfunc_end87-_ZNSt15__new_allocatorIN3glm3vecILi3EdLNS0_9qualifierE0EEEE10deallocateEPS3_m
                                        # -- End function
	.section	.text._ZNSt15__new_allocatorIN3glm3vecILi3EdLNS0_9qualifierE0EEEED2Ev,"axG",@progbits,_ZNSt15__new_allocatorIN3glm3vecILi3EdLNS0_9qualifierE0EEEED2Ev,comdat
	.weak	_ZNSt15__new_allocatorIN3glm3vecILi3EdLNS0_9qualifierE0EEEED2Ev # -- Begin function _ZNSt15__new_allocatorIN3glm3vecILi3EdLNS0_9qualifierE0EEEED2Ev
	.p2align	2
	.type	_ZNSt15__new_allocatorIN3glm3vecILi3EdLNS0_9qualifierE0EEEED2Ev,@function
_ZNSt15__new_allocatorIN3glm3vecILi3EdLNS0_9qualifierE0EEEED2Ev: # @_ZNSt15__new_allocatorIN3glm3vecILi3EdLNS0_9qualifierE0EEEED2Ev
# %bb.0:                                # %entry
	addi	sp, sp, -32
	sd	ra, 24(sp)
	sd	s0, 16(sp)
	addi	s0, sp, 32
	sd	a0, -24(s0)
	ld	s0, 16(sp)
	ld	ra, 24(sp)
	addi	sp, sp, 32
	ret
.Lfunc_end88:
	.size	_ZNSt15__new_allocatorIN3glm3vecILi3EdLNS0_9qualifierE0EEEED2Ev, .Lfunc_end88-_ZNSt15__new_allocatorIN3glm3vecILi3EdLNS0_9qualifierE0EEEED2Ev
                                        # -- End function
	.section	.text._ZSt3getILm1EJP6CameraSt14default_deleteIS0_EEERNSt13tuple_elementIXT_ESt5tupleIJDpT0_EEE4typeERS8_,"axG",@progbits,_ZSt3getILm1EJP6CameraSt14default_deleteIS0_EEERNSt13tuple_elementIXT_ESt5tupleIJDpT0_EEE4typeERS8_,comdat
	.weak	_ZSt3getILm1EJP6CameraSt14default_deleteIS0_EEERNSt13tuple_elementIXT_ESt5tupleIJDpT0_EEE4typeERS8_ # -- Begin function _ZSt3getILm1EJP6CameraSt14default_deleteIS0_EEERNSt13tuple_elementIXT_ESt5tupleIJDpT0_EEE4typeERS8_
	.p2align	2
	.type	_ZSt3getILm1EJP6CameraSt14default_deleteIS0_EEERNSt13tuple_elementIXT_ESt5tupleIJDpT0_EEE4typeERS8_,@function
_ZSt3getILm1EJP6CameraSt14default_deleteIS0_EEERNSt13tuple_elementIXT_ESt5tupleIJDpT0_EEE4typeERS8_: # @_ZSt3getILm1EJP6CameraSt14default_deleteIS0_EEERNSt13tuple_elementIXT_ESt5tupleIJDpT0_EEE4typeERS8_
# %bb.0:                                # %entry
	addi	sp, sp, -32
	sd	ra, 24(sp)
	sd	s0, 16(sp)
	addi	s0, sp, 32
	sd	a0, -24(s0)
	ld	a0, -24(s0)
	call	_ZSt12__get_helperILm1ESt14default_deleteI6CameraEJEERT0_RSt11_Tuple_implIXT_EJS3_DpT1_EE
	ld	s0, 16(sp)
	ld	ra, 24(sp)
	addi	sp, sp, 32
	ret
.Lfunc_end89:
	.size	_ZSt3getILm1EJP6CameraSt14default_deleteIS0_EEERNSt13tuple_elementIXT_ESt5tupleIJDpT0_EEE4typeERS8_, .Lfunc_end89-_ZSt3getILm1EJP6CameraSt14default_deleteIS0_EEERNSt13tuple_elementIXT_ESt5tupleIJDpT0_EEE4typeERS8_
                                        # -- End function
	.section	.text._ZSt12__get_helperILm1ESt14default_deleteI6CameraEJEERT0_RSt11_Tuple_implIXT_EJS3_DpT1_EE,"axG",@progbits,_ZSt12__get_helperILm1ESt14default_deleteI6CameraEJEERT0_RSt11_Tuple_implIXT_EJS3_DpT1_EE,comdat
	.weak	_ZSt12__get_helperILm1ESt14default_deleteI6CameraEJEERT0_RSt11_Tuple_implIXT_EJS3_DpT1_EE # -- Begin function _ZSt12__get_helperILm1ESt14default_deleteI6CameraEJEERT0_RSt11_Tuple_implIXT_EJS3_DpT1_EE
	.p2align	2
	.type	_ZSt12__get_helperILm1ESt14default_deleteI6CameraEJEERT0_RSt11_Tuple_implIXT_EJS3_DpT1_EE,@function
_ZSt12__get_helperILm1ESt14default_deleteI6CameraEJEERT0_RSt11_Tuple_implIXT_EJS3_DpT1_EE: # @_ZSt12__get_helperILm1ESt14default_deleteI6CameraEJEERT0_RSt11_Tuple_implIXT_EJS3_DpT1_EE
# %bb.0:                                # %entry
	addi	sp, sp, -32
	sd	ra, 24(sp)
	sd	s0, 16(sp)
	addi	s0, sp, 32
	sd	a0, -24(s0)
	ld	a0, -24(s0)
	call	_ZNSt11_Tuple_implILm1EJSt14default_deleteI6CameraEEE7_M_headERS3_
	ld	s0, 16(sp)
	ld	ra, 24(sp)
	addi	sp, sp, 32
	ret
.Lfunc_end90:
	.size	_ZSt12__get_helperILm1ESt14default_deleteI6CameraEJEERT0_RSt11_Tuple_implIXT_EJS3_DpT1_EE, .Lfunc_end90-_ZSt12__get_helperILm1ESt14default_deleteI6CameraEJEERT0_RSt11_Tuple_implIXT_EJS3_DpT1_EE
                                        # -- End function
	.section	.text._ZNSt11_Tuple_implILm1EJSt14default_deleteI6CameraEEE7_M_headERS3_,"axG",@progbits,_ZNSt11_Tuple_implILm1EJSt14default_deleteI6CameraEEE7_M_headERS3_,comdat
	.weak	_ZNSt11_Tuple_implILm1EJSt14default_deleteI6CameraEEE7_M_headERS3_ # -- Begin function _ZNSt11_Tuple_implILm1EJSt14default_deleteI6CameraEEE7_M_headERS3_
	.p2align	2
	.type	_ZNSt11_Tuple_implILm1EJSt14default_deleteI6CameraEEE7_M_headERS3_,@function
_ZNSt11_Tuple_implILm1EJSt14default_deleteI6CameraEEE7_M_headERS3_: # @_ZNSt11_Tuple_implILm1EJSt14default_deleteI6CameraEEE7_M_headERS3_
# %bb.0:                                # %entry
	addi	sp, sp, -32
	sd	ra, 24(sp)
	sd	s0, 16(sp)
	addi	s0, sp, 32
	sd	a0, -24(s0)
	ld	a0, -24(s0)
	call	_ZNSt10_Head_baseILm1ESt14default_deleteI6CameraELb1EE7_M_headERS3_
	ld	s0, 16(sp)
	ld	ra, 24(sp)
	addi	sp, sp, 32
	ret
.Lfunc_end91:
	.size	_ZNSt11_Tuple_implILm1EJSt14default_deleteI6CameraEEE7_M_headERS3_, .Lfunc_end91-_ZNSt11_Tuple_implILm1EJSt14default_deleteI6CameraEEE7_M_headERS3_
                                        # -- End function
	.section	.text._ZNSt10_Head_baseILm1ESt14default_deleteI6CameraELb1EE7_M_headERS3_,"axG",@progbits,_ZNSt10_Head_baseILm1ESt14default_deleteI6CameraELb1EE7_M_headERS3_,comdat
	.weak	_ZNSt10_Head_baseILm1ESt14default_deleteI6CameraELb1EE7_M_headERS3_ # -- Begin function _ZNSt10_Head_baseILm1ESt14default_deleteI6CameraELb1EE7_M_headERS3_
	.p2align	2
	.type	_ZNSt10_Head_baseILm1ESt14default_deleteI6CameraELb1EE7_M_headERS3_,@function
_ZNSt10_Head_baseILm1ESt14default_deleteI6CameraELb1EE7_M_headERS3_: # @_ZNSt10_Head_baseILm1ESt14default_deleteI6CameraELb1EE7_M_headERS3_
# %bb.0:                                # %entry
	addi	sp, sp, -32
	sd	ra, 24(sp)
	sd	s0, 16(sp)
	addi	s0, sp, 32
	sd	a0, -24(s0)
	ld	a0, -24(s0)
	ld	s0, 16(sp)
	ld	ra, 24(sp)
	addi	sp, sp, 32
	ret
.Lfunc_end92:
	.size	_ZNSt10_Head_baseILm1ESt14default_deleteI6CameraELb1EE7_M_headERS3_, .Lfunc_end92-_ZNSt10_Head_baseILm1ESt14default_deleteI6CameraELb1EE7_M_headERS3_
                                        # -- End function
	.section	.text._ZNK8nlohmann10basic_jsonISt3mapSt6vectorNSt7__cxx1112basic_stringIcSt11char_traitsIcESaIcEEEblmdSaNS_14adl_serializerEE16assert_invariantEv,"axG",@progbits,_ZNK8nlohmann10basic_jsonISt3mapSt6vectorNSt7__cxx1112basic_stringIcSt11char_traitsIcESaIcEEEblmdSaNS_14adl_serializerEE16assert_invariantEv,comdat
	.weak	_ZNK8nlohmann10basic_jsonISt3mapSt6vectorNSt7__cxx1112basic_stringIcSt11char_traitsIcESaIcEEEblmdSaNS_14adl_serializerEE16assert_invariantEv # -- Begin function _ZNK8nlohmann10basic_jsonISt3mapSt6vectorNSt7__cxx1112basic_stringIcSt11char_traitsIcESaIcEEEblmdSaNS_14adl_serializerEE16assert_invariantEv
	.p2align	2
	.type	_ZNK8nlohmann10basic_jsonISt3mapSt6vectorNSt7__cxx1112basic_stringIcSt11char_traitsIcESaIcEEEblmdSaNS_14adl_serializerEE16assert_invariantEv,@function
_ZNK8nlohmann10basic_jsonISt3mapSt6vectorNSt7__cxx1112basic_stringIcSt11char_traitsIcESaIcEEEblmdSaNS_14adl_serializerEE16assert_invariantEv: # @_ZNK8nlohmann10basic_jsonISt3mapSt6vectorNSt7__cxx1112basic_stringIcSt11char_traitsIcESaIcEEEblmdSaNS_14adl_serializerEE16assert_invariantEv
.Lfunc_begin17:
	.cfi_startproc
	.cfi_personality 155, DW.ref.__gxx_personality_v0
	.cfi_lsda 27, .Lexception17
# %bb.0:                                # %entry
	addi	sp, sp, -32
	.cfi_def_cfa_offset 32
	sd	ra, 24(sp)
	sd	s0, 16(sp)
	.cfi_offset ra, -8
	.cfi_offset s0, -16
	addi	s0, sp, 32
	.cfi_def_cfa s0, 0
	sd	a0, -24(s0)
	ld	a0, -24(s0)
	lbu	a1, 0(a0)
	addi	a2, zero, 1
	bne	a1, a2, .LBB93_2
	j	.LBB93_1
.LBB93_1:                               # %lor.lhs.false
	ld	a1, 8(a0)
	beqz	a1, .LBB93_3
	j	.LBB93_2
.LBB93_2:                               # %cond.true
	j	.LBB93_5
.LBB93_3:                               # %cond.false
.Ltmp95:
	lui	a0, %hi(.L.str.4)
	addi	a0, a0, %lo(.L.str.4)
	lui	a1, %hi(.L__PRETTY_FUNCTION__._ZNK8nlohmann10basic_jsonISt3mapSt6vectorNSt7__cxx1112basic_stringIcSt11char_traitsIcESaIcEEEblmdSaNS_14adl_serializerEE16assert_invariantEv)
	addi	a2, a1, %lo(.L__PRETTY_FUNCTION__._ZNK8nlohmann10basic_jsonISt3mapSt6vectorNSt7__cxx1112basic_stringIcSt11char_traitsIcESaIcEEEblmdSaNS_14adl_serializerEE16assert_invariantEv)
	lui	a1, %hi(.L.str.5)
	addi	a3, a1, %lo(.L.str.5)
	lui	a1, 4
	addiw	a1, a1, -932
	call	__assert_func
.Ltmp96:
	j	.LBB93_4
.LBB93_4:                               # %invoke.cont
.LBB93_5:                               # %cond.end
	lbu	a1, 0(a0)
	addi	a2, zero, 2
	bne	a1, a2, .LBB93_7
	j	.LBB93_6
.LBB93_6:                               # %lor.lhs.false5
	ld	a1, 8(a0)
	beqz	a1, .LBB93_8
	j	.LBB93_7
.LBB93_7:                               # %cond.true8
	j	.LBB93_10
.LBB93_8:                               # %cond.false9
.Ltmp97:
	lui	a0, %hi(.L.str.4)
	addi	a0, a0, %lo(.L.str.4)
	lui	a1, %hi(.L__PRETTY_FUNCTION__._ZNK8nlohmann10basic_jsonISt3mapSt6vectorNSt7__cxx1112basic_stringIcSt11char_traitsIcESaIcEEEblmdSaNS_14adl_serializerEE16assert_invariantEv)
	addi	a2, a1, %lo(.L__PRETTY_FUNCTION__._ZNK8nlohmann10basic_jsonISt3mapSt6vectorNSt7__cxx1112basic_stringIcSt11char_traitsIcESaIcEEEblmdSaNS_14adl_serializerEE16assert_invariantEv)
	lui	a1, %hi(.L.str.6)
	addi	a3, a1, %lo(.L.str.6)
	lui	a1, 4
	addiw	a1, a1, -931
	call	__assert_func
.Ltmp98:
	j	.LBB93_9
.LBB93_9:                               # %invoke.cont10
.LBB93_10:                              # %cond.end11
	lbu	a1, 0(a0)
	addi	a2, zero, 3
	bne	a1, a2, .LBB93_12
	j	.LBB93_11
.LBB93_11:                              # %lor.lhs.false14
	ld	a0, 8(a0)
	beqz	a0, .LBB93_13
	j	.LBB93_12
.LBB93_12:                              # %cond.true17
	j	.LBB93_15
.LBB93_13:                              # %cond.false18
.Ltmp99:
	lui	a0, %hi(.L.str.4)
	addi	a0, a0, %lo(.L.str.4)
	lui	a1, %hi(.L__PRETTY_FUNCTION__._ZNK8nlohmann10basic_jsonISt3mapSt6vectorNSt7__cxx1112basic_stringIcSt11char_traitsIcESaIcEEEblmdSaNS_14adl_serializerEE16assert_invariantEv)
	addi	a2, a1, %lo(.L__PRETTY_FUNCTION__._ZNK8nlohmann10basic_jsonISt3mapSt6vectorNSt7__cxx1112basic_stringIcSt11char_traitsIcESaIcEEEblmdSaNS_14adl_serializerEE16assert_invariantEv)
	lui	a1, %hi(.L.str.7)
	addi	a3, a1, %lo(.L.str.7)
	lui	a1, 4
	addiw	a1, a1, -930
	call	__assert_func
.Ltmp100:
	j	.LBB93_14
.LBB93_14:                              # %invoke.cont19
.LBB93_15:                              # %cond.end20
	ld	s0, 16(sp)
	.cfi_def_cfa sp, 32
	ld	ra, 24(sp)
	.cfi_restore ra
	.cfi_restore s0
	addi	sp, sp, 32
	.cfi_def_cfa_offset 0
	ret
.LBB93_16:                              # %terminate.lpad
.Ltmp101:
	call	__clang_call_terminate
.Lfunc_end93:
	.size	_ZNK8nlohmann10basic_jsonISt3mapSt6vectorNSt7__cxx1112basic_stringIcSt11char_traitsIcESaIcEEEblmdSaNS_14adl_serializerEE16assert_invariantEv, .Lfunc_end93-_ZNK8nlohmann10basic_jsonISt3mapSt6vectorNSt7__cxx1112basic_stringIcSt11char_traitsIcESaIcEEEblmdSaNS_14adl_serializerEE16assert_invariantEv
	.cfi_endproc
	.section	.gcc_except_table,"a",@progbits
	.p2align	2
GCC_except_table93:
.Lexception17:
	.byte	255                     # @LPStart Encoding = omit
	.byte	155                     # @TType Encoding = indirect pcrel sdata4
	.uleb128 .Lttbase15-.Lttbaseref15
.Lttbaseref15:
	.byte	3                       # Call site Encoding = udata4
	.uleb128 .Lcst_end17-.Lcst_begin17
.Lcst_begin17:
	.word	.Ltmp95-.Lfunc_begin17  # >> Call Site 1 <<
	.word	.Ltmp100-.Ltmp95        #   Call between .Ltmp95 and .Ltmp100
	.word	.Ltmp101-.Lfunc_begin17 #     jumps to .Ltmp101
	.byte	1                       #   On action: 1
.Lcst_end17:
	.byte	1                       # >> Action Record 1 <<
                                        #   Catch TypeInfo 1
	.byte	0                       #   No further actions
	.p2align	2
                                        # >> Catch TypeInfos <<
	.word	0                       # TypeInfo 1
.Lttbase15:
	.p2align	2
                                        # -- End function
	.section	.text._ZN8nlohmann10basic_jsonISt3mapSt6vectorNSt7__cxx1112basic_stringIcSt11char_traitsIcESaIcEEEblmdSaNS_14adl_serializerEE10json_value7destroyENS_6detail7value_tE,"axG",@progbits,_ZN8nlohmann10basic_jsonISt3mapSt6vectorNSt7__cxx1112basic_stringIcSt11char_traitsIcESaIcEEEblmdSaNS_14adl_serializerEE10json_value7destroyENS_6detail7value_tE,comdat
	.weak	_ZN8nlohmann10basic_jsonISt3mapSt6vectorNSt7__cxx1112basic_stringIcSt11char_traitsIcESaIcEEEblmdSaNS_14adl_serializerEE10json_value7destroyENS_6detail7value_tE # -- Begin function _ZN8nlohmann10basic_jsonISt3mapSt6vectorNSt7__cxx1112basic_stringIcSt11char_traitsIcESaIcEEEblmdSaNS_14adl_serializerEE10json_value7destroyENS_6detail7value_tE
	.p2align	2
	.type	_ZN8nlohmann10basic_jsonISt3mapSt6vectorNSt7__cxx1112basic_stringIcSt11char_traitsIcESaIcEEEblmdSaNS_14adl_serializerEE10json_value7destroyENS_6detail7value_tE,@function
_ZN8nlohmann10basic_jsonISt3mapSt6vectorNSt7__cxx1112basic_stringIcSt11char_traitsIcESaIcEEEblmdSaNS_14adl_serializerEE10json_value7destroyENS_6detail7value_tE: # @_ZN8nlohmann10basic_jsonISt3mapSt6vectorNSt7__cxx1112basic_stringIcSt11char_traitsIcESaIcEEEblmdSaNS_14adl_serializerEE10json_value7destroyENS_6detail7value_tE
	.cfi_startproc
# %bb.0:                                # %entry
	addi	sp, sp, -336
	.cfi_def_cfa_offset 336
	sd	ra, 328(sp)
	sd	s0, 320(sp)
	sd	s1, 312(sp)
	sd	s2, 304(sp)
	.cfi_offset ra, -8
	.cfi_offset s0, -16
	.cfi_offset s1, -24
	.cfi_offset s2, -32
	addi	s0, sp, 336
	.cfi_def_cfa s0, 0
	sd	a0, -304(s0)
	sb	a1, -305(s0)
	ld	s1, -304(s0)
	lbu	a0, -305(s0)
	addi	a1, zero, 1
	beq	a0, a1, .LBB94_3
	j	.LBB94_1
.LBB94_1:                               # %entry
	andi	a1, a0, 255
	addi	a2, zero, 2
	beq	a1, a2, .LBB94_5
	j	.LBB94_2
.LBB94_2:                               # %entry
	andi	a0, a0, 255
	addi	a1, zero, 3
	beq	a0, a1, .LBB94_7
	j	.LBB94_9
.LBB94_3:                               # %sw.bb
	addi	s2, s0, -312
	sd	s2, -112(s0)
	ld	a0, -112(s0)
	sd	a0, -104(s0)
	ld	a0, 0(s1)
	sd	s2, -88(s0)
	sd	a0, -96(s0)
	ld	a0, -88(s0)
	ld	a1, -96(s0)
	sd	a0, -72(s0)
	sd	a1, -80(s0)
	ld	a0, -80(s0)
	call	_ZNSt3mapINSt7__cxx1112basic_stringIcSt11char_traitsIcESaIcEEEN8nlohmann10basic_jsonIS_St6vectorS5_blmdSaNS6_14adl_serializerEEESt4lessIvESaISt4pairIKS5_SA_EEED2Ev
	ld	a0, 0(s1)
	sd	s2, -120(s0)
	sd	a0, -128(s0)
	addi	a0, zero, 1
	sd	a0, -136(s0)
	ld	a0, -120(s0)
	ld	a1, -128(s0)
	ld	a2, -136(s0)
	call	_ZNSt15__new_allocatorISt3mapINSt7__cxx1112basic_stringIcSt11char_traitsIcESaIcEEEN8nlohmann10basic_jsonIS0_St6vectorS6_blmdSaNS7_14adl_serializerEEESt4lessIvESaISt4pairIKS6_SB_EEEE10deallocateEPSI_m
	j	.LBB94_4
.LBB94_4:                               # %invoke.cont
	addi	a0, s0, -312
	sd	a0, -144(s0)
	ld	a0, -144(s0)
	call	_ZNSt15__new_allocatorISt3mapINSt7__cxx1112basic_stringIcSt11char_traitsIcESaIcEEEN8nlohmann10basic_jsonIS0_St6vectorS6_blmdSaNS7_14adl_serializerEEESt4lessIvESaISt4pairIKS6_SB_EEEED2Ev
	j	.LBB94_10
.LBB94_5:                               # %sw.bb3
	addi	s2, s0, -328
	sd	s2, -168(s0)
	ld	a0, -168(s0)
	sd	a0, -160(s0)
	ld	a0, 0(s1)
	sd	s2, -56(s0)
	sd	a0, -64(s0)
	ld	a0, -56(s0)
	ld	a1, -64(s0)
	sd	a0, -40(s0)
	sd	a1, -48(s0)
	ld	a0, -48(s0)
	call	_ZNSt6vectorIN8nlohmann10basic_jsonISt3mapS_NSt7__cxx1112basic_stringIcSt11char_traitsIcESaIcEEEblmdSaNS0_14adl_serializerEEESaISA_EED2Ev
	ld	a0, 0(s1)
	sd	s2, -176(s0)
	sd	a0, -184(s0)
	addi	a0, zero, 1
	sd	a0, -192(s0)
	ld	a0, -176(s0)
	ld	a1, -184(s0)
	ld	a2, -192(s0)
	call	_ZNSt15__new_allocatorISt6vectorIN8nlohmann10basic_jsonISt3mapS0_NSt7__cxx1112basic_stringIcSt11char_traitsIcESaIcEEEblmdSaNS1_14adl_serializerEEESaISB_EEE10deallocateEPSD_m
	j	.LBB94_6
.LBB94_6:                               # %invoke.cont7
	addi	a0, s0, -328
	sd	a0, -200(s0)
	ld	a0, -200(s0)
	call	_ZNSt15__new_allocatorISt6vectorIN8nlohmann10basic_jsonISt3mapS0_NSt7__cxx1112basic_stringIcSt11char_traitsIcESaIcEEEblmdSaNS1_14adl_serializerEEESaISB_EEED2Ev
	j	.LBB94_10
.LBB94_7:                               # %sw.bb8
	addi	s2, s0, -336
	sd	s2, -224(s0)
	ld	a0, -224(s0)
	sd	a0, -216(s0)
	ld	a0, 0(s1)
	sd	s2, -248(s0)
	sd	a0, -256(s0)
	ld	a0, -248(s0)
	ld	a1, -256(s0)
	sd	a0, -232(s0)
	sd	a1, -240(s0)
	ld	a0, -240(s0)
	call	_ZNSt7__cxx1112basic_stringIcSt11char_traitsIcESaIcEED1Ev
	ld	a0, 0(s1)
	sd	s2, -264(s0)
	sd	a0, -272(s0)
	addi	a0, zero, 1
	sd	a0, -280(s0)
	ld	a0, -264(s0)
	ld	a1, -272(s0)
	ld	a2, -280(s0)
	call	_ZNSt15__new_allocatorINSt7__cxx1112basic_stringIcSt11char_traitsIcESaIcEEEE10deallocateEPS5_m
	j	.LBB94_8
.LBB94_8:                               # %invoke.cont12
	addi	a0, s0, -336
	sd	a0, -288(s0)
	ld	a0, -288(s0)
	call	_ZNSt15__new_allocatorINSt7__cxx1112basic_stringIcSt11char_traitsIcESaIcEEEED2Ev
	j	.LBB94_10
.LBB94_9:                               # %sw.default
	j	.LBB94_10
.LBB94_10:                              # %sw.epilog
	ld	s2, 304(sp)
	ld	s1, 312(sp)
	ld	s0, 320(sp)
	.cfi_def_cfa sp, 336
	ld	ra, 328(sp)
	.cfi_restore ra
	.cfi_restore s0
	.cfi_restore s1
	.cfi_restore s2
	addi	sp, sp, 336
	.cfi_def_cfa_offset 0
	ret
.Lfunc_end94:
	.size	_ZN8nlohmann10basic_jsonISt3mapSt6vectorNSt7__cxx1112basic_stringIcSt11char_traitsIcESaIcEEEblmdSaNS_14adl_serializerEE10json_value7destroyENS_6detail7value_tE, .Lfunc_end94-_ZN8nlohmann10basic_jsonISt3mapSt6vectorNSt7__cxx1112basic_stringIcSt11char_traitsIcESaIcEEEblmdSaNS_14adl_serializerEE10json_value7destroyENS_6detail7value_tE
	.cfi_endproc
                                        # -- End function
	.section	.text._ZNSt3mapINSt7__cxx1112basic_stringIcSt11char_traitsIcESaIcEEEN8nlohmann10basic_jsonIS_St6vectorS5_blmdSaNS6_14adl_serializerEEESt4lessIvESaISt4pairIKS5_SA_EEED2Ev,"axG",@progbits,_ZNSt3mapINSt7__cxx1112basic_stringIcSt11char_traitsIcESaIcEEEN8nlohmann10basic_jsonIS_St6vectorS5_blmdSaNS6_14adl_serializerEEESt4lessIvESaISt4pairIKS5_SA_EEED2Ev,comdat
	.weak	_ZNSt3mapINSt7__cxx1112basic_stringIcSt11char_traitsIcESaIcEEEN8nlohmann10basic_jsonIS_St6vectorS5_blmdSaNS6_14adl_serializerEEESt4lessIvESaISt4pairIKS5_SA_EEED2Ev # -- Begin function _ZNSt3mapINSt7__cxx1112basic_stringIcSt11char_traitsIcESaIcEEEN8nlohmann10basic_jsonIS_St6vectorS5_blmdSaNS6_14adl_serializerEEESt4lessIvESaISt4pairIKS5_SA_EEED2Ev
	.p2align	2
	.type	_ZNSt3mapINSt7__cxx1112basic_stringIcSt11char_traitsIcESaIcEEEN8nlohmann10basic_jsonIS_St6vectorS5_blmdSaNS6_14adl_serializerEEESt4lessIvESaISt4pairIKS5_SA_EEED2Ev,@function
_ZNSt3mapINSt7__cxx1112basic_stringIcSt11char_traitsIcESaIcEEEN8nlohmann10basic_jsonIS_St6vectorS5_blmdSaNS6_14adl_serializerEEESt4lessIvESaISt4pairIKS5_SA_EEED2Ev: # @_ZNSt3mapINSt7__cxx1112basic_stringIcSt11char_traitsIcESaIcEEEN8nlohmann10basic_jsonIS_St6vectorS5_blmdSaNS6_14adl_serializerEEESt4lessIvESaISt4pairIKS5_SA_EEED2Ev
# %bb.0:                                # %entry
	addi	sp, sp, -32
	sd	ra, 24(sp)
	sd	s0, 16(sp)
	addi	s0, sp, 32
	sd	a0, -24(s0)
	ld	a0, -24(s0)
	call	_ZNSt8_Rb_treeINSt7__cxx1112basic_stringIcSt11char_traitsIcESaIcEEESt4pairIKS5_N8nlohmann10basic_jsonISt3mapSt6vectorS5_blmdSaNS8_14adl_serializerEEEESt10_Select1stISE_ESt4lessIvESaISE_EED2Ev
	ld	s0, 16(sp)
	ld	ra, 24(sp)
	addi	sp, sp, 32
	ret
.Lfunc_end95:
	.size	_ZNSt3mapINSt7__cxx1112basic_stringIcSt11char_traitsIcESaIcEEEN8nlohmann10basic_jsonIS_St6vectorS5_blmdSaNS6_14adl_serializerEEESt4lessIvESaISt4pairIKS5_SA_EEED2Ev, .Lfunc_end95-_ZNSt3mapINSt7__cxx1112basic_stringIcSt11char_traitsIcESaIcEEEN8nlohmann10basic_jsonIS_St6vectorS5_blmdSaNS6_14adl_serializerEEESt4lessIvESaISt4pairIKS5_SA_EEED2Ev
                                        # -- End function
	.section	.text._ZNSt8_Rb_treeINSt7__cxx1112basic_stringIcSt11char_traitsIcESaIcEEESt4pairIKS5_N8nlohmann10basic_jsonISt3mapSt6vectorS5_blmdSaNS8_14adl_serializerEEEESt10_Select1stISE_ESt4lessIvESaISE_EED2Ev,"axG",@progbits,_ZNSt8_Rb_treeINSt7__cxx1112basic_stringIcSt11char_traitsIcESaIcEEESt4pairIKS5_N8nlohmann10basic_jsonISt3mapSt6vectorS5_blmdSaNS8_14adl_serializerEEEESt10_Select1stISE_ESt4lessIvESaISE_EED2Ev,comdat
	.weak	_ZNSt8_Rb_treeINSt7__cxx1112basic_stringIcSt11char_traitsIcESaIcEEESt4pairIKS5_N8nlohmann10basic_jsonISt3mapSt6vectorS5_blmdSaNS8_14adl_serializerEEEESt10_Select1stISE_ESt4lessIvESaISE_EED2Ev # -- Begin function _ZNSt8_Rb_treeINSt7__cxx1112basic_stringIcSt11char_traitsIcESaIcEEESt4pairIKS5_N8nlohmann10basic_jsonISt3mapSt6vectorS5_blmdSaNS8_14adl_serializerEEEESt10_Select1stISE_ESt4lessIvESaISE_EED2Ev
	.p2align	2
	.type	_ZNSt8_Rb_treeINSt7__cxx1112basic_stringIcSt11char_traitsIcESaIcEEESt4pairIKS5_N8nlohmann10basic_jsonISt3mapSt6vectorS5_blmdSaNS8_14adl_serializerEEEESt10_Select1stISE_ESt4lessIvESaISE_EED2Ev,@function
_ZNSt8_Rb_treeINSt7__cxx1112basic_stringIcSt11char_traitsIcESaIcEEESt4pairIKS5_N8nlohmann10basic_jsonISt3mapSt6vectorS5_blmdSaNS8_14adl_serializerEEEESt10_Select1stISE_ESt4lessIvESaISE_EED2Ev: # @_ZNSt8_Rb_treeINSt7__cxx1112basic_stringIcSt11char_traitsIcESaIcEEESt4pairIKS5_N8nlohmann10basic_jsonISt3mapSt6vectorS5_blmdSaNS8_14adl_serializerEEEESt10_Select1stISE_ESt4lessIvESaISE_EED2Ev
.Lfunc_begin18:
	.cfi_startproc
	.cfi_personality 155, DW.ref.__gxx_personality_v0
	.cfi_lsda 27, .Lexception18
# %bb.0:                                # %entry
	addi	sp, sp, -48
	.cfi_def_cfa_offset 48
	sd	ra, 40(sp)
	sd	s0, 32(sp)
	sd	s1, 24(sp)
	.cfi_offset ra, -8
	.cfi_offset s0, -16
	.cfi_offset s1, -24
	addi	s0, sp, 48
	.cfi_def_cfa s0, 0
	sd	a0, -32(s0)
	ld	s1, -32(s0)
	mv	a0, s1
	call	_ZNSt8_Rb_treeINSt7__cxx1112basic_stringIcSt11char_traitsIcESaIcEEESt4pairIKS5_N8nlohmann10basic_jsonISt3mapSt6vectorS5_blmdSaNS8_14adl_serializerEEEESt10_Select1stISE_ESt4lessIvESaISE_EE8_M_beginEv
	mv	a1, a0
.Ltmp102:
	mv	a0, s1
	call	_ZNSt8_Rb_treeINSt7__cxx1112basic_stringIcSt11char_traitsIcESaIcEEESt4pairIKS5_N8nlohmann10basic_jsonISt3mapSt6vectorS5_blmdSaNS8_14adl_serializerEEEESt10_Select1stISE_ESt4lessIvESaISE_EE8_M_eraseEPSt13_Rb_tree_nodeISE_E
.Ltmp103:
	j	.LBB96_1
.LBB96_1:                               # %invoke.cont
	mv	a0, s1
	call	_ZNSt8_Rb_treeINSt7__cxx1112basic_stringIcSt11char_traitsIcESaIcEEESt4pairIKS5_N8nlohmann10basic_jsonISt3mapSt6vectorS5_blmdSaNS8_14adl_serializerEEEESt10_Select1stISE_ESt4lessIvESaISE_EE13_Rb_tree_implISI_Lb1EED2Ev
	ld	s1, 24(sp)
	ld	s0, 32(sp)
	.cfi_def_cfa sp, 48
	ld	ra, 40(sp)
	.cfi_restore ra
	.cfi_restore s0
	.cfi_restore s1
	addi	sp, sp, 48
	.cfi_def_cfa_offset 0
	ret
.LBB96_2:                               # %lpad
.Ltmp104:
	sd	a0, -40(s0)
	sw	a1, -44(s0)
	mv	a0, s1
	call	_ZNSt8_Rb_treeINSt7__cxx1112basic_stringIcSt11char_traitsIcESaIcEEESt4pairIKS5_N8nlohmann10basic_jsonISt3mapSt6vectorS5_blmdSaNS8_14adl_serializerEEEESt10_Select1stISE_ESt4lessIvESaISE_EE13_Rb_tree_implISI_Lb1EED2Ev
	j	.LBB96_3
.LBB96_3:                               # %terminate.handler
	ld	a0, -40(s0)
	call	__clang_call_terminate
.Lfunc_end96:
	.size	_ZNSt8_Rb_treeINSt7__cxx1112basic_stringIcSt11char_traitsIcESaIcEEESt4pairIKS5_N8nlohmann10basic_jsonISt3mapSt6vectorS5_blmdSaNS8_14adl_serializerEEEESt10_Select1stISE_ESt4lessIvESaISE_EED2Ev, .Lfunc_end96-_ZNSt8_Rb_treeINSt7__cxx1112basic_stringIcSt11char_traitsIcESaIcEEESt4pairIKS5_N8nlohmann10basic_jsonISt3mapSt6vectorS5_blmdSaNS8_14adl_serializerEEEESt10_Select1stISE_ESt4lessIvESaISE_EED2Ev
	.cfi_endproc
	.section	.gcc_except_table,"a",@progbits
	.p2align	2
GCC_except_table96:
.Lexception18:
	.byte	255                     # @LPStart Encoding = omit
	.byte	155                     # @TType Encoding = indirect pcrel sdata4
	.uleb128 .Lttbase16-.Lttbaseref16
.Lttbaseref16:
	.byte	3                       # Call site Encoding = udata4
	.uleb128 .Lcst_end18-.Lcst_begin18
.Lcst_begin18:
	.word	.Ltmp102-.Lfunc_begin18 # >> Call Site 1 <<
	.word	.Ltmp103-.Ltmp102       #   Call between .Ltmp102 and .Ltmp103
	.word	.Ltmp104-.Lfunc_begin18 #     jumps to .Ltmp104
	.byte	1                       #   On action: 1
.Lcst_end18:
	.byte	1                       # >> Action Record 1 <<
                                        #   Catch TypeInfo 1
	.byte	0                       #   No further actions
	.p2align	2
                                        # >> Catch TypeInfos <<
	.word	0                       # TypeInfo 1
.Lttbase16:
	.p2align	2
                                        # -- End function
	.section	.text._ZNSt8_Rb_treeINSt7__cxx1112basic_stringIcSt11char_traitsIcESaIcEEESt4pairIKS5_N8nlohmann10basic_jsonISt3mapSt6vectorS5_blmdSaNS8_14adl_serializerEEEESt10_Select1stISE_ESt4lessIvESaISE_EE8_M_eraseEPSt13_Rb_tree_nodeISE_E,"axG",@progbits,_ZNSt8_Rb_treeINSt7__cxx1112basic_stringIcSt11char_traitsIcESaIcEEESt4pairIKS5_N8nlohmann10basic_jsonISt3mapSt6vectorS5_blmdSaNS8_14adl_serializerEEEESt10_Select1stISE_ESt4lessIvESaISE_EE8_M_eraseEPSt13_Rb_tree_nodeISE_E,comdat
	.weak	_ZNSt8_Rb_treeINSt7__cxx1112basic_stringIcSt11char_traitsIcESaIcEEESt4pairIKS5_N8nlohmann10basic_jsonISt3mapSt6vectorS5_blmdSaNS8_14adl_serializerEEEESt10_Select1stISE_ESt4lessIvESaISE_EE8_M_eraseEPSt13_Rb_tree_nodeISE_E # -- Begin function _ZNSt8_Rb_treeINSt7__cxx1112basic_stringIcSt11char_traitsIcESaIcEEESt4pairIKS5_N8nlohmann10basic_jsonISt3mapSt6vectorS5_blmdSaNS8_14adl_serializerEEEESt10_Select1stISE_ESt4lessIvESaISE_EE8_M_eraseEPSt13_Rb_tree_nodeISE_E
	.p2align	2
	.type	_ZNSt8_Rb_treeINSt7__cxx1112basic_stringIcSt11char_traitsIcESaIcEEESt4pairIKS5_N8nlohmann10basic_jsonISt3mapSt6vectorS5_blmdSaNS8_14adl_serializerEEEESt10_Select1stISE_ESt4lessIvESaISE_EE8_M_eraseEPSt13_Rb_tree_nodeISE_E,@function
_ZNSt8_Rb_treeINSt7__cxx1112basic_stringIcSt11char_traitsIcESaIcEEESt4pairIKS5_N8nlohmann10basic_jsonISt3mapSt6vectorS5_blmdSaNS8_14adl_serializerEEEESt10_Select1stISE_ESt4lessIvESaISE_EE8_M_eraseEPSt13_Rb_tree_nodeISE_E: # @_ZNSt8_Rb_treeINSt7__cxx1112basic_stringIcSt11char_traitsIcESaIcEEESt4pairIKS5_N8nlohmann10basic_jsonISt3mapSt6vectorS5_blmdSaNS8_14adl_serializerEEEESt10_Select1stISE_ESt4lessIvESaISE_EE8_M_eraseEPSt13_Rb_tree_nodeISE_E
	.cfi_startproc
# %bb.0:                                # %entry
	addi	sp, sp, -48
	.cfi_def_cfa_offset 48
	sd	ra, 40(sp)
	sd	s0, 32(sp)
	sd	s1, 24(sp)
	.cfi_offset ra, -8
	.cfi_offset s0, -16
	.cfi_offset s1, -24
	addi	s0, sp, 48
	.cfi_def_cfa s0, 0
	sd	a0, -32(s0)
	sd	a1, -40(s0)
	ld	s1, -32(s0)
	j	.LBB97_1
.LBB97_1:                               # %while.cond
                                        # =>This Inner Loop Header: Depth=1
	ld	a0, -40(s0)
	beqz	a0, .LBB97_3
	j	.LBB97_2
.LBB97_2:                               # %while.body
                                        #   in Loop: Header=BB97_1 Depth=1
	ld	a0, -40(s0)
	call	_ZNSt8_Rb_treeINSt7__cxx1112basic_stringIcSt11char_traitsIcESaIcEEESt4pairIKS5_N8nlohmann10basic_jsonISt3mapSt6vectorS5_blmdSaNS8_14adl_serializerEEEESt10_Select1stISE_ESt4lessIvESaISE_EE8_S_rightEPSt18_Rb_tree_node_base
	mv	a1, a0
	mv	a0, s1
	call	_ZNSt8_Rb_treeINSt7__cxx1112basic_stringIcSt11char_traitsIcESaIcEEESt4pairIKS5_N8nlohmann10basic_jsonISt3mapSt6vectorS5_blmdSaNS8_14adl_serializerEEEESt10_Select1stISE_ESt4lessIvESaISE_EE8_M_eraseEPSt13_Rb_tree_nodeISE_E
	ld	a0, -40(s0)
	call	_ZNSt8_Rb_treeINSt7__cxx1112basic_stringIcSt11char_traitsIcESaIcEEESt4pairIKS5_N8nlohmann10basic_jsonISt3mapSt6vectorS5_blmdSaNS8_14adl_serializerEEEESt10_Select1stISE_ESt4lessIvESaISE_EE7_S_leftEPSt18_Rb_tree_node_base
	sd	a0, -48(s0)
	ld	a1, -40(s0)
	mv	a0, s1
	call	_ZNSt8_Rb_treeINSt7__cxx1112basic_stringIcSt11char_traitsIcESaIcEEESt4pairIKS5_N8nlohmann10basic_jsonISt3mapSt6vectorS5_blmdSaNS8_14adl_serializerEEEESt10_Select1stISE_ESt4lessIvESaISE_EE12_M_drop_nodeEPSt13_Rb_tree_nodeISE_E
	ld	a0, -48(s0)
	sd	a0, -40(s0)
	j	.LBB97_1
.LBB97_3:                               # %while.end
	ld	s1, 24(sp)
	ld	s0, 32(sp)
	.cfi_def_cfa sp, 48
	ld	ra, 40(sp)
	.cfi_restore ra
	.cfi_restore s0
	.cfi_restore s1
	addi	sp, sp, 48
	.cfi_def_cfa_offset 0
	ret
.Lfunc_end97:
	.size	_ZNSt8_Rb_treeINSt7__cxx1112basic_stringIcSt11char_traitsIcESaIcEEESt4pairIKS5_N8nlohmann10basic_jsonISt3mapSt6vectorS5_blmdSaNS8_14adl_serializerEEEESt10_Select1stISE_ESt4lessIvESaISE_EE8_M_eraseEPSt13_Rb_tree_nodeISE_E, .Lfunc_end97-_ZNSt8_Rb_treeINSt7__cxx1112basic_stringIcSt11char_traitsIcESaIcEEESt4pairIKS5_N8nlohmann10basic_jsonISt3mapSt6vectorS5_blmdSaNS8_14adl_serializerEEEESt10_Select1stISE_ESt4lessIvESaISE_EE8_M_eraseEPSt13_Rb_tree_nodeISE_E
	.cfi_endproc
                                        # -- End function
	.section	.text._ZNSt8_Rb_treeINSt7__cxx1112basic_stringIcSt11char_traitsIcESaIcEEESt4pairIKS5_N8nlohmann10basic_jsonISt3mapSt6vectorS5_blmdSaNS8_14adl_serializerEEEESt10_Select1stISE_ESt4lessIvESaISE_EE8_M_beginEv,"axG",@progbits,_ZNSt8_Rb_treeINSt7__cxx1112basic_stringIcSt11char_traitsIcESaIcEEESt4pairIKS5_N8nlohmann10basic_jsonISt3mapSt6vectorS5_blmdSaNS8_14adl_serializerEEEESt10_Select1stISE_ESt4lessIvESaISE_EE8_M_beginEv,comdat
	.weak	_ZNSt8_Rb_treeINSt7__cxx1112basic_stringIcSt11char_traitsIcESaIcEEESt4pairIKS5_N8nlohmann10basic_jsonISt3mapSt6vectorS5_blmdSaNS8_14adl_serializerEEEESt10_Select1stISE_ESt4lessIvESaISE_EE8_M_beginEv # -- Begin function _ZNSt8_Rb_treeINSt7__cxx1112basic_stringIcSt11char_traitsIcESaIcEEESt4pairIKS5_N8nlohmann10basic_jsonISt3mapSt6vectorS5_blmdSaNS8_14adl_serializerEEEESt10_Select1stISE_ESt4lessIvESaISE_EE8_M_beginEv
	.p2align	2
	.type	_ZNSt8_Rb_treeINSt7__cxx1112basic_stringIcSt11char_traitsIcESaIcEEESt4pairIKS5_N8nlohmann10basic_jsonISt3mapSt6vectorS5_blmdSaNS8_14adl_serializerEEEESt10_Select1stISE_ESt4lessIvESaISE_EE8_M_beginEv,@function
_ZNSt8_Rb_treeINSt7__cxx1112basic_stringIcSt11char_traitsIcESaIcEEESt4pairIKS5_N8nlohmann10basic_jsonISt3mapSt6vectorS5_blmdSaNS8_14adl_serializerEEEESt10_Select1stISE_ESt4lessIvESaISE_EE8_M_beginEv: # @_ZNSt8_Rb_treeINSt7__cxx1112basic_stringIcSt11char_traitsIcESaIcEEESt4pairIKS5_N8nlohmann10basic_jsonISt3mapSt6vectorS5_blmdSaNS8_14adl_serializerEEEESt10_Select1stISE_ESt4lessIvESaISE_EE8_M_beginEv
# %bb.0:                                # %entry
	addi	sp, sp, -32
	sd	ra, 24(sp)
	sd	s0, 16(sp)
	addi	s0, sp, 32
	sd	a0, -24(s0)
	ld	a0, -24(s0)
	call	_ZNKSt8_Rb_treeINSt7__cxx1112basic_stringIcSt11char_traitsIcESaIcEEESt4pairIKS5_N8nlohmann10basic_jsonISt3mapSt6vectorS5_blmdSaNS8_14adl_serializerEEEESt10_Select1stISE_ESt4lessIvESaISE_EE9_M_mbeginEv
	ld	s0, 16(sp)
	ld	ra, 24(sp)
	addi	sp, sp, 32
	ret
.Lfunc_end98:
	.size	_ZNSt8_Rb_treeINSt7__cxx1112basic_stringIcSt11char_traitsIcESaIcEEESt4pairIKS5_N8nlohmann10basic_jsonISt3mapSt6vectorS5_blmdSaNS8_14adl_serializerEEEESt10_Select1stISE_ESt4lessIvESaISE_EE8_M_beginEv, .Lfunc_end98-_ZNSt8_Rb_treeINSt7__cxx1112basic_stringIcSt11char_traitsIcESaIcEEESt4pairIKS5_N8nlohmann10basic_jsonISt3mapSt6vectorS5_blmdSaNS8_14adl_serializerEEEESt10_Select1stISE_ESt4lessIvESaISE_EE8_M_beginEv
                                        # -- End function
	.section	.text._ZNSt8_Rb_treeINSt7__cxx1112basic_stringIcSt11char_traitsIcESaIcEEESt4pairIKS5_N8nlohmann10basic_jsonISt3mapSt6vectorS5_blmdSaNS8_14adl_serializerEEEESt10_Select1stISE_ESt4lessIvESaISE_EE13_Rb_tree_implISI_Lb1EED2Ev,"axG",@progbits,_ZNSt8_Rb_treeINSt7__cxx1112basic_stringIcSt11char_traitsIcESaIcEEESt4pairIKS5_N8nlohmann10basic_jsonISt3mapSt6vectorS5_blmdSaNS8_14adl_serializerEEEESt10_Select1stISE_ESt4lessIvESaISE_EE13_Rb_tree_implISI_Lb1EED2Ev,comdat
	.weak	_ZNSt8_Rb_treeINSt7__cxx1112basic_stringIcSt11char_traitsIcESaIcEEESt4pairIKS5_N8nlohmann10basic_jsonISt3mapSt6vectorS5_blmdSaNS8_14adl_serializerEEEESt10_Select1stISE_ESt4lessIvESaISE_EE13_Rb_tree_implISI_Lb1EED2Ev # -- Begin function _ZNSt8_Rb_treeINSt7__cxx1112basic_stringIcSt11char_traitsIcESaIcEEESt4pairIKS5_N8nlohmann10basic_jsonISt3mapSt6vectorS5_blmdSaNS8_14adl_serializerEEEESt10_Select1stISE_ESt4lessIvESaISE_EE13_Rb_tree_implISI_Lb1EED2Ev
	.p2align	2
	.type	_ZNSt8_Rb_treeINSt7__cxx1112basic_stringIcSt11char_traitsIcESaIcEEESt4pairIKS5_N8nlohmann10basic_jsonISt3mapSt6vectorS5_blmdSaNS8_14adl_serializerEEEESt10_Select1stISE_ESt4lessIvESaISE_EE13_Rb_tree_implISI_Lb1EED2Ev,@function
_ZNSt8_Rb_treeINSt7__cxx1112basic_stringIcSt11char_traitsIcESaIcEEESt4pairIKS5_N8nlohmann10basic_jsonISt3mapSt6vectorS5_blmdSaNS8_14adl_serializerEEEESt10_Select1stISE_ESt4lessIvESaISE_EE13_Rb_tree_implISI_Lb1EED2Ev: # @_ZNSt8_Rb_treeINSt7__cxx1112basic_stringIcSt11char_traitsIcESaIcEEESt4pairIKS5_N8nlohmann10basic_jsonISt3mapSt6vectorS5_blmdSaNS8_14adl_serializerEEEESt10_Select1stISE_ESt4lessIvESaISE_EE13_Rb_tree_implISI_Lb1EED2Ev
# %bb.0:                                # %entry
	addi	sp, sp, -32
	sd	ra, 24(sp)
	sd	s0, 16(sp)
	addi	s0, sp, 32
	sd	a0, -32(s0)
	ld	a0, -32(s0)
	sd	a0, -24(s0)
	ld	a0, -24(s0)
	call	_ZNSt15__new_allocatorISt13_Rb_tree_nodeISt4pairIKNSt7__cxx1112basic_stringIcSt11char_traitsIcESaIcEEEN8nlohmann10basic_jsonISt3mapSt6vectorS7_blmdSaNS9_14adl_serializerEEEEEED2Ev
	ld	s0, 16(sp)
	ld	ra, 24(sp)
	addi	sp, sp, 32
	ret
.Lfunc_end99:
	.size	_ZNSt8_Rb_treeINSt7__cxx1112basic_stringIcSt11char_traitsIcESaIcEEESt4pairIKS5_N8nlohmann10basic_jsonISt3mapSt6vectorS5_blmdSaNS8_14adl_serializerEEEESt10_Select1stISE_ESt4lessIvESaISE_EE13_Rb_tree_implISI_Lb1EED2Ev, .Lfunc_end99-_ZNSt8_Rb_treeINSt7__cxx1112basic_stringIcSt11char_traitsIcESaIcEEESt4pairIKS5_N8nlohmann10basic_jsonISt3mapSt6vectorS5_blmdSaNS8_14adl_serializerEEEESt10_Select1stISE_ESt4lessIvESaISE_EE13_Rb_tree_implISI_Lb1EED2Ev
                                        # -- End function
	.section	.text._ZNSt8_Rb_treeINSt7__cxx1112basic_stringIcSt11char_traitsIcESaIcEEESt4pairIKS5_N8nlohmann10basic_jsonISt3mapSt6vectorS5_blmdSaNS8_14adl_serializerEEEESt10_Select1stISE_ESt4lessIvESaISE_EE8_S_rightEPSt18_Rb_tree_node_base,"axG",@progbits,_ZNSt8_Rb_treeINSt7__cxx1112basic_stringIcSt11char_traitsIcESaIcEEESt4pairIKS5_N8nlohmann10basic_jsonISt3mapSt6vectorS5_blmdSaNS8_14adl_serializerEEEESt10_Select1stISE_ESt4lessIvESaISE_EE8_S_rightEPSt18_Rb_tree_node_base,comdat
	.weak	_ZNSt8_Rb_treeINSt7__cxx1112basic_stringIcSt11char_traitsIcESaIcEEESt4pairIKS5_N8nlohmann10basic_jsonISt3mapSt6vectorS5_blmdSaNS8_14adl_serializerEEEESt10_Select1stISE_ESt4lessIvESaISE_EE8_S_rightEPSt18_Rb_tree_node_base # -- Begin function _ZNSt8_Rb_treeINSt7__cxx1112basic_stringIcSt11char_traitsIcESaIcEEESt4pairIKS5_N8nlohmann10basic_jsonISt3mapSt6vectorS5_blmdSaNS8_14adl_serializerEEEESt10_Select1stISE_ESt4lessIvESaISE_EE8_S_rightEPSt18_Rb_tree_node_base
	.p2align	2
	.type	_ZNSt8_Rb_treeINSt7__cxx1112basic_stringIcSt11char_traitsIcESaIcEEESt4pairIKS5_N8nlohmann10basic_jsonISt3mapSt6vectorS5_blmdSaNS8_14adl_serializerEEEESt10_Select1stISE_ESt4lessIvESaISE_EE8_S_rightEPSt18_Rb_tree_node_base,@function
_ZNSt8_Rb_treeINSt7__cxx1112basic_stringIcSt11char_traitsIcESaIcEEESt4pairIKS5_N8nlohmann10basic_jsonISt3mapSt6vectorS5_blmdSaNS8_14adl_serializerEEEESt10_Select1stISE_ESt4lessIvESaISE_EE8_S_rightEPSt18_Rb_tree_node_base: # @_ZNSt8_Rb_treeINSt7__cxx1112basic_stringIcSt11char_traitsIcESaIcEEESt4pairIKS5_N8nlohmann10basic_jsonISt3mapSt6vectorS5_blmdSaNS8_14adl_serializerEEEESt10_Select1stISE_ESt4lessIvESaISE_EE8_S_rightEPSt18_Rb_tree_node_base
# %bb.0:                                # %entry
	addi	sp, sp, -32
	sd	ra, 24(sp)
	sd	s0, 16(sp)
	addi	s0, sp, 32
	sd	a0, -24(s0)
	ld	a0, -24(s0)
	ld	a0, 24(a0)
	ld	s0, 16(sp)
	ld	ra, 24(sp)
	addi	sp, sp, 32
	ret
.Lfunc_end100:
	.size	_ZNSt8_Rb_treeINSt7__cxx1112basic_stringIcSt11char_traitsIcESaIcEEESt4pairIKS5_N8nlohmann10basic_jsonISt3mapSt6vectorS5_blmdSaNS8_14adl_serializerEEEESt10_Select1stISE_ESt4lessIvESaISE_EE8_S_rightEPSt18_Rb_tree_node_base, .Lfunc_end100-_ZNSt8_Rb_treeINSt7__cxx1112basic_stringIcSt11char_traitsIcESaIcEEESt4pairIKS5_N8nlohmann10basic_jsonISt3mapSt6vectorS5_blmdSaNS8_14adl_serializerEEEESt10_Select1stISE_ESt4lessIvESaISE_EE8_S_rightEPSt18_Rb_tree_node_base
                                        # -- End function
	.section	.text._ZNSt8_Rb_treeINSt7__cxx1112basic_stringIcSt11char_traitsIcESaIcEEESt4pairIKS5_N8nlohmann10basic_jsonISt3mapSt6vectorS5_blmdSaNS8_14adl_serializerEEEESt10_Select1stISE_ESt4lessIvESaISE_EE7_S_leftEPSt18_Rb_tree_node_base,"axG",@progbits,_ZNSt8_Rb_treeINSt7__cxx1112basic_stringIcSt11char_traitsIcESaIcEEESt4pairIKS5_N8nlohmann10basic_jsonISt3mapSt6vectorS5_blmdSaNS8_14adl_serializerEEEESt10_Select1stISE_ESt4lessIvESaISE_EE7_S_leftEPSt18_Rb_tree_node_base,comdat
	.weak	_ZNSt8_Rb_treeINSt7__cxx1112basic_stringIcSt11char_traitsIcESaIcEEESt4pairIKS5_N8nlohmann10basic_jsonISt3mapSt6vectorS5_blmdSaNS8_14adl_serializerEEEESt10_Select1stISE_ESt4lessIvESaISE_EE7_S_leftEPSt18_Rb_tree_node_base # -- Begin function _ZNSt8_Rb_treeINSt7__cxx1112basic_stringIcSt11char_traitsIcESaIcEEESt4pairIKS5_N8nlohmann10basic_jsonISt3mapSt6vectorS5_blmdSaNS8_14adl_serializerEEEESt10_Select1stISE_ESt4lessIvESaISE_EE7_S_leftEPSt18_Rb_tree_node_base
	.p2align	2
	.type	_ZNSt8_Rb_treeINSt7__cxx1112basic_stringIcSt11char_traitsIcESaIcEEESt4pairIKS5_N8nlohmann10basic_jsonISt3mapSt6vectorS5_blmdSaNS8_14adl_serializerEEEESt10_Select1stISE_ESt4lessIvESaISE_EE7_S_leftEPSt18_Rb_tree_node_base,@function
_ZNSt8_Rb_treeINSt7__cxx1112basic_stringIcSt11char_traitsIcESaIcEEESt4pairIKS5_N8nlohmann10basic_jsonISt3mapSt6vectorS5_blmdSaNS8_14adl_serializerEEEESt10_Select1stISE_ESt4lessIvESaISE_EE7_S_leftEPSt18_Rb_tree_node_base: # @_ZNSt8_Rb_treeINSt7__cxx1112basic_stringIcSt11char_traitsIcESaIcEEESt4pairIKS5_N8nlohmann10basic_jsonISt3mapSt6vectorS5_blmdSaNS8_14adl_serializerEEEESt10_Select1stISE_ESt4lessIvESaISE_EE7_S_leftEPSt18_Rb_tree_node_base
# %bb.0:                                # %entry
	addi	sp, sp, -32
	sd	ra, 24(sp)
	sd	s0, 16(sp)
	addi	s0, sp, 32
	sd	a0, -24(s0)
	ld	a0, -24(s0)
	ld	a0, 16(a0)
	ld	s0, 16(sp)
	ld	ra, 24(sp)
	addi	sp, sp, 32
	ret
.Lfunc_end101:
	.size	_ZNSt8_Rb_treeINSt7__cxx1112basic_stringIcSt11char_traitsIcESaIcEEESt4pairIKS5_N8nlohmann10basic_jsonISt3mapSt6vectorS5_blmdSaNS8_14adl_serializerEEEESt10_Select1stISE_ESt4lessIvESaISE_EE7_S_leftEPSt18_Rb_tree_node_base, .Lfunc_end101-_ZNSt8_Rb_treeINSt7__cxx1112basic_stringIcSt11char_traitsIcESaIcEEESt4pairIKS5_N8nlohmann10basic_jsonISt3mapSt6vectorS5_blmdSaNS8_14adl_serializerEEEESt10_Select1stISE_ESt4lessIvESaISE_EE7_S_leftEPSt18_Rb_tree_node_base
                                        # -- End function
	.section	.text._ZNSt8_Rb_treeINSt7__cxx1112basic_stringIcSt11char_traitsIcESaIcEEESt4pairIKS5_N8nlohmann10basic_jsonISt3mapSt6vectorS5_blmdSaNS8_14adl_serializerEEEESt10_Select1stISE_ESt4lessIvESaISE_EE12_M_drop_nodeEPSt13_Rb_tree_nodeISE_E,"axG",@progbits,_ZNSt8_Rb_treeINSt7__cxx1112basic_stringIcSt11char_traitsIcESaIcEEESt4pairIKS5_N8nlohmann10basic_jsonISt3mapSt6vectorS5_blmdSaNS8_14adl_serializerEEEESt10_Select1stISE_ESt4lessIvESaISE_EE12_M_drop_nodeEPSt13_Rb_tree_nodeISE_E,comdat
	.weak	_ZNSt8_Rb_treeINSt7__cxx1112basic_stringIcSt11char_traitsIcESaIcEEESt4pairIKS5_N8nlohmann10basic_jsonISt3mapSt6vectorS5_blmdSaNS8_14adl_serializerEEEESt10_Select1stISE_ESt4lessIvESaISE_EE12_M_drop_nodeEPSt13_Rb_tree_nodeISE_E # -- Begin function _ZNSt8_Rb_treeINSt7__cxx1112basic_stringIcSt11char_traitsIcESaIcEEESt4pairIKS5_N8nlohmann10basic_jsonISt3mapSt6vectorS5_blmdSaNS8_14adl_serializerEEEESt10_Select1stISE_ESt4lessIvESaISE_EE12_M_drop_nodeEPSt13_Rb_tree_nodeISE_E
	.p2align	2
	.type	_ZNSt8_Rb_treeINSt7__cxx1112basic_stringIcSt11char_traitsIcESaIcEEESt4pairIKS5_N8nlohmann10basic_jsonISt3mapSt6vectorS5_blmdSaNS8_14adl_serializerEEEESt10_Select1stISE_ESt4lessIvESaISE_EE12_M_drop_nodeEPSt13_Rb_tree_nodeISE_E,@function
_ZNSt8_Rb_treeINSt7__cxx1112basic_stringIcSt11char_traitsIcESaIcEEESt4pairIKS5_N8nlohmann10basic_jsonISt3mapSt6vectorS5_blmdSaNS8_14adl_serializerEEEESt10_Select1stISE_ESt4lessIvESaISE_EE12_M_drop_nodeEPSt13_Rb_tree_nodeISE_E: # @_ZNSt8_Rb_treeINSt7__cxx1112basic_stringIcSt11char_traitsIcESaIcEEESt4pairIKS5_N8nlohmann10basic_jsonISt3mapSt6vectorS5_blmdSaNS8_14adl_serializerEEEESt10_Select1stISE_ESt4lessIvESaISE_EE12_M_drop_nodeEPSt13_Rb_tree_nodeISE_E
# %bb.0:                                # %entry
	addi	sp, sp, -48
	sd	ra, 40(sp)
	sd	s0, 32(sp)
	sd	s1, 24(sp)
	addi	s0, sp, 48
	sd	a0, -32(s0)
	sd	a1, -40(s0)
	ld	s1, -32(s0)
	ld	a1, -40(s0)
	mv	a0, s1
	call	_ZNSt8_Rb_treeINSt7__cxx1112basic_stringIcSt11char_traitsIcESaIcEEESt4pairIKS5_N8nlohmann10basic_jsonISt3mapSt6vectorS5_blmdSaNS8_14adl_serializerEEEESt10_Select1stISE_ESt4lessIvESaISE_EE15_M_destroy_nodeEPSt13_Rb_tree_nodeISE_E
	ld	a1, -40(s0)
	mv	a0, s1
	call	_ZNSt8_Rb_treeINSt7__cxx1112basic_stringIcSt11char_traitsIcESaIcEEESt4pairIKS5_N8nlohmann10basic_jsonISt3mapSt6vectorS5_blmdSaNS8_14adl_serializerEEEESt10_Select1stISE_ESt4lessIvESaISE_EE11_M_put_nodeEPSt13_Rb_tree_nodeISE_E
	ld	s1, 24(sp)
	ld	s0, 32(sp)
	ld	ra, 40(sp)
	addi	sp, sp, 48
	ret
.Lfunc_end102:
	.size	_ZNSt8_Rb_treeINSt7__cxx1112basic_stringIcSt11char_traitsIcESaIcEEESt4pairIKS5_N8nlohmann10basic_jsonISt3mapSt6vectorS5_blmdSaNS8_14adl_serializerEEEESt10_Select1stISE_ESt4lessIvESaISE_EE12_M_drop_nodeEPSt13_Rb_tree_nodeISE_E, .Lfunc_end102-_ZNSt8_Rb_treeINSt7__cxx1112basic_stringIcSt11char_traitsIcESaIcEEESt4pairIKS5_N8nlohmann10basic_jsonISt3mapSt6vectorS5_blmdSaNS8_14adl_serializerEEEESt10_Select1stISE_ESt4lessIvESaISE_EE12_M_drop_nodeEPSt13_Rb_tree_nodeISE_E
                                        # -- End function
	.section	.text._ZNSt8_Rb_treeINSt7__cxx1112basic_stringIcSt11char_traitsIcESaIcEEESt4pairIKS5_N8nlohmann10basic_jsonISt3mapSt6vectorS5_blmdSaNS8_14adl_serializerEEEESt10_Select1stISE_ESt4lessIvESaISE_EE15_M_destroy_nodeEPSt13_Rb_tree_nodeISE_E,"axG",@progbits,_ZNSt8_Rb_treeINSt7__cxx1112basic_stringIcSt11char_traitsIcESaIcEEESt4pairIKS5_N8nlohmann10basic_jsonISt3mapSt6vectorS5_blmdSaNS8_14adl_serializerEEEESt10_Select1stISE_ESt4lessIvESaISE_EE15_M_destroy_nodeEPSt13_Rb_tree_nodeISE_E,comdat
	.weak	_ZNSt8_Rb_treeINSt7__cxx1112basic_stringIcSt11char_traitsIcESaIcEEESt4pairIKS5_N8nlohmann10basic_jsonISt3mapSt6vectorS5_blmdSaNS8_14adl_serializerEEEESt10_Select1stISE_ESt4lessIvESaISE_EE15_M_destroy_nodeEPSt13_Rb_tree_nodeISE_E # -- Begin function _ZNSt8_Rb_treeINSt7__cxx1112basic_stringIcSt11char_traitsIcESaIcEEESt4pairIKS5_N8nlohmann10basic_jsonISt3mapSt6vectorS5_blmdSaNS8_14adl_serializerEEEESt10_Select1stISE_ESt4lessIvESaISE_EE15_M_destroy_nodeEPSt13_Rb_tree_nodeISE_E
	.p2align	2
	.type	_ZNSt8_Rb_treeINSt7__cxx1112basic_stringIcSt11char_traitsIcESaIcEEESt4pairIKS5_N8nlohmann10basic_jsonISt3mapSt6vectorS5_blmdSaNS8_14adl_serializerEEEESt10_Select1stISE_ESt4lessIvESaISE_EE15_M_destroy_nodeEPSt13_Rb_tree_nodeISE_E,@function
_ZNSt8_Rb_treeINSt7__cxx1112basic_stringIcSt11char_traitsIcESaIcEEESt4pairIKS5_N8nlohmann10basic_jsonISt3mapSt6vectorS5_blmdSaNS8_14adl_serializerEEEESt10_Select1stISE_ESt4lessIvESaISE_EE15_M_destroy_nodeEPSt13_Rb_tree_nodeISE_E: # @_ZNSt8_Rb_treeINSt7__cxx1112basic_stringIcSt11char_traitsIcESaIcEEESt4pairIKS5_N8nlohmann10basic_jsonISt3mapSt6vectorS5_blmdSaNS8_14adl_serializerEEEESt10_Select1stISE_ESt4lessIvESaISE_EE15_M_destroy_nodeEPSt13_Rb_tree_nodeISE_E
.Lfunc_begin19:
	.cfi_startproc
	.cfi_personality 155, DW.ref.__gxx_personality_v0
	.cfi_lsda 27, .Lexception19
# %bb.0:                                # %entry
	addi	sp, sp, -80
	.cfi_def_cfa_offset 80
	sd	ra, 72(sp)
	sd	s0, 64(sp)
	sd	s1, 56(sp)
	.cfi_offset ra, -8
	.cfi_offset s0, -16
	.cfi_offset s1, -24
	addi	s0, sp, 80
	.cfi_def_cfa s0, 0
	sd	a0, -64(s0)
	sd	a1, -72(s0)
	ld	a0, -64(s0)
	call	_ZNSt8_Rb_treeINSt7__cxx1112basic_stringIcSt11char_traitsIcESaIcEEESt4pairIKS5_N8nlohmann10basic_jsonISt3mapSt6vectorS5_blmdSaNS8_14adl_serializerEEEESt10_Select1stISE_ESt4lessIvESaISE_EE21_M_get_Node_allocatorEv
	mv	s1, a0
	ld	a0, -72(s0)
.Ltmp105:
	call	_ZNSt13_Rb_tree_nodeISt4pairIKNSt7__cxx1112basic_stringIcSt11char_traitsIcESaIcEEEN8nlohmann10basic_jsonISt3mapSt6vectorS6_blmdSaNS8_14adl_serializerEEEEE9_M_valptrEv
.Ltmp106:
	j	.LBB103_1
.LBB103_1:                              # %invoke.cont
	sd	s1, -48(s0)
	sd	a0, -56(s0)
	ld	a0, -48(s0)
	ld	a1, -56(s0)
	sd	a0, -32(s0)
	sd	a1, -40(s0)
	ld	a0, -40(s0)
	call	_ZNSt4pairIKNSt7__cxx1112basic_stringIcSt11char_traitsIcESaIcEEEN8nlohmann10basic_jsonISt3mapSt6vectorS5_blmdSaNS7_14adl_serializerEEEED2Ev
	ld	s1, 56(sp)
	ld	s0, 64(sp)
	.cfi_def_cfa sp, 80
	ld	ra, 72(sp)
	.cfi_restore ra
	.cfi_restore s0
	.cfi_restore s1
	addi	sp, sp, 80
	.cfi_def_cfa_offset 0
	ret
.LBB103_2:                              # %terminate.lpad
.Ltmp107:
	call	__clang_call_terminate
.Lfunc_end103:
	.size	_ZNSt8_Rb_treeINSt7__cxx1112basic_stringIcSt11char_traitsIcESaIcEEESt4pairIKS5_N8nlohmann10basic_jsonISt3mapSt6vectorS5_blmdSaNS8_14adl_serializerEEEESt10_Select1stISE_ESt4lessIvESaISE_EE15_M_destroy_nodeEPSt13_Rb_tree_nodeISE_E, .Lfunc_end103-_ZNSt8_Rb_treeINSt7__cxx1112basic_stringIcSt11char_traitsIcESaIcEEESt4pairIKS5_N8nlohmann10basic_jsonISt3mapSt6vectorS5_blmdSaNS8_14adl_serializerEEEESt10_Select1stISE_ESt4lessIvESaISE_EE15_M_destroy_nodeEPSt13_Rb_tree_nodeISE_E
	.cfi_endproc
	.section	.gcc_except_table,"a",@progbits
	.p2align	2
GCC_except_table103:
.Lexception19:
	.byte	255                     # @LPStart Encoding = omit
	.byte	155                     # @TType Encoding = indirect pcrel sdata4
	.uleb128 .Lttbase17-.Lttbaseref17
.Lttbaseref17:
	.byte	3                       # Call site Encoding = udata4
	.uleb128 .Lcst_end19-.Lcst_begin19
.Lcst_begin19:
	.word	.Ltmp105-.Lfunc_begin19 # >> Call Site 1 <<
	.word	.Ltmp106-.Ltmp105       #   Call between .Ltmp105 and .Ltmp106
	.word	.Ltmp107-.Lfunc_begin19 #     jumps to .Ltmp107
	.byte	1                       #   On action: 1
.Lcst_end19:
	.byte	1                       # >> Action Record 1 <<
                                        #   Catch TypeInfo 1
	.byte	0                       #   No further actions
	.p2align	2
                                        # >> Catch TypeInfos <<
	.word	0                       # TypeInfo 1
.Lttbase17:
	.p2align	2
                                        # -- End function
	.section	.text._ZNSt8_Rb_treeINSt7__cxx1112basic_stringIcSt11char_traitsIcESaIcEEESt4pairIKS5_N8nlohmann10basic_jsonISt3mapSt6vectorS5_blmdSaNS8_14adl_serializerEEEESt10_Select1stISE_ESt4lessIvESaISE_EE11_M_put_nodeEPSt13_Rb_tree_nodeISE_E,"axG",@progbits,_ZNSt8_Rb_treeINSt7__cxx1112basic_stringIcSt11char_traitsIcESaIcEEESt4pairIKS5_N8nlohmann10basic_jsonISt3mapSt6vectorS5_blmdSaNS8_14adl_serializerEEEESt10_Select1stISE_ESt4lessIvESaISE_EE11_M_put_nodeEPSt13_Rb_tree_nodeISE_E,comdat
	.weak	_ZNSt8_Rb_treeINSt7__cxx1112basic_stringIcSt11char_traitsIcESaIcEEESt4pairIKS5_N8nlohmann10basic_jsonISt3mapSt6vectorS5_blmdSaNS8_14adl_serializerEEEESt10_Select1stISE_ESt4lessIvESaISE_EE11_M_put_nodeEPSt13_Rb_tree_nodeISE_E # -- Begin function _ZNSt8_Rb_treeINSt7__cxx1112basic_stringIcSt11char_traitsIcESaIcEEESt4pairIKS5_N8nlohmann10basic_jsonISt3mapSt6vectorS5_blmdSaNS8_14adl_serializerEEEESt10_Select1stISE_ESt4lessIvESaISE_EE11_M_put_nodeEPSt13_Rb_tree_nodeISE_E
	.p2align	2
	.type	_ZNSt8_Rb_treeINSt7__cxx1112basic_stringIcSt11char_traitsIcESaIcEEESt4pairIKS5_N8nlohmann10basic_jsonISt3mapSt6vectorS5_blmdSaNS8_14adl_serializerEEEESt10_Select1stISE_ESt4lessIvESaISE_EE11_M_put_nodeEPSt13_Rb_tree_nodeISE_E,@function
_ZNSt8_Rb_treeINSt7__cxx1112basic_stringIcSt11char_traitsIcESaIcEEESt4pairIKS5_N8nlohmann10basic_jsonISt3mapSt6vectorS5_blmdSaNS8_14adl_serializerEEEESt10_Select1stISE_ESt4lessIvESaISE_EE11_M_put_nodeEPSt13_Rb_tree_nodeISE_E: # @_ZNSt8_Rb_treeINSt7__cxx1112basic_stringIcSt11char_traitsIcESaIcEEESt4pairIKS5_N8nlohmann10basic_jsonISt3mapSt6vectorS5_blmdSaNS8_14adl_serializerEEEESt10_Select1stISE_ESt4lessIvESaISE_EE11_M_put_nodeEPSt13_Rb_tree_nodeISE_E
	.cfi_startproc
# %bb.0:                                # %entry
	addi	sp, sp, -64
	.cfi_def_cfa_offset 64
	sd	ra, 56(sp)
	sd	s0, 48(sp)
	.cfi_offset ra, -8
	.cfi_offset s0, -16
	addi	s0, sp, 64
	.cfi_def_cfa s0, 0
	sd	a0, -48(s0)
	sd	a1, -56(s0)
	ld	a0, -48(s0)
	call	_ZNSt8_Rb_treeINSt7__cxx1112basic_stringIcSt11char_traitsIcESaIcEEESt4pairIKS5_N8nlohmann10basic_jsonISt3mapSt6vectorS5_blmdSaNS8_14adl_serializerEEEESt10_Select1stISE_ESt4lessIvESaISE_EE21_M_get_Node_allocatorEv
	ld	a1, -56(s0)
	sd	a0, -24(s0)
	sd	a1, -32(s0)
	addi	a0, zero, 1
	sd	a0, -40(s0)
	ld	a0, -24(s0)
	ld	a1, -32(s0)
	ld	a2, -40(s0)
	call	_ZNSt15__new_allocatorISt13_Rb_tree_nodeISt4pairIKNSt7__cxx1112basic_stringIcSt11char_traitsIcESaIcEEEN8nlohmann10basic_jsonISt3mapSt6vectorS7_blmdSaNS9_14adl_serializerEEEEEE10deallocateEPSG_m
	j	.LBB104_1
.LBB104_1:                              # %invoke.cont
	ld	s0, 48(sp)
	.cfi_def_cfa sp, 64
	ld	ra, 56(sp)
	.cfi_restore ra
	.cfi_restore s0
	addi	sp, sp, 64
	.cfi_def_cfa_offset 0
	ret
.Lfunc_end104:
	.size	_ZNSt8_Rb_treeINSt7__cxx1112basic_stringIcSt11char_traitsIcESaIcEEESt4pairIKS5_N8nlohmann10basic_jsonISt3mapSt6vectorS5_blmdSaNS8_14adl_serializerEEEESt10_Select1stISE_ESt4lessIvESaISE_EE11_M_put_nodeEPSt13_Rb_tree_nodeISE_E, .Lfunc_end104-_ZNSt8_Rb_treeINSt7__cxx1112basic_stringIcSt11char_traitsIcESaIcEEESt4pairIKS5_N8nlohmann10basic_jsonISt3mapSt6vectorS5_blmdSaNS8_14adl_serializerEEEESt10_Select1stISE_ESt4lessIvESaISE_EE11_M_put_nodeEPSt13_Rb_tree_nodeISE_E
	.cfi_endproc
                                        # -- End function
	.section	.text._ZNSt8_Rb_treeINSt7__cxx1112basic_stringIcSt11char_traitsIcESaIcEEESt4pairIKS5_N8nlohmann10basic_jsonISt3mapSt6vectorS5_blmdSaNS8_14adl_serializerEEEESt10_Select1stISE_ESt4lessIvESaISE_EE21_M_get_Node_allocatorEv,"axG",@progbits,_ZNSt8_Rb_treeINSt7__cxx1112basic_stringIcSt11char_traitsIcESaIcEEESt4pairIKS5_N8nlohmann10basic_jsonISt3mapSt6vectorS5_blmdSaNS8_14adl_serializerEEEESt10_Select1stISE_ESt4lessIvESaISE_EE21_M_get_Node_allocatorEv,comdat
	.weak	_ZNSt8_Rb_treeINSt7__cxx1112basic_stringIcSt11char_traitsIcESaIcEEESt4pairIKS5_N8nlohmann10basic_jsonISt3mapSt6vectorS5_blmdSaNS8_14adl_serializerEEEESt10_Select1stISE_ESt4lessIvESaISE_EE21_M_get_Node_allocatorEv # -- Begin function _ZNSt8_Rb_treeINSt7__cxx1112basic_stringIcSt11char_traitsIcESaIcEEESt4pairIKS5_N8nlohmann10basic_jsonISt3mapSt6vectorS5_blmdSaNS8_14adl_serializerEEEESt10_Select1stISE_ESt4lessIvESaISE_EE21_M_get_Node_allocatorEv
	.p2align	2
	.type	_ZNSt8_Rb_treeINSt7__cxx1112basic_stringIcSt11char_traitsIcESaIcEEESt4pairIKS5_N8nlohmann10basic_jsonISt3mapSt6vectorS5_blmdSaNS8_14adl_serializerEEEESt10_Select1stISE_ESt4lessIvESaISE_EE21_M_get_Node_allocatorEv,@function
_ZNSt8_Rb_treeINSt7__cxx1112basic_stringIcSt11char_traitsIcESaIcEEESt4pairIKS5_N8nlohmann10basic_jsonISt3mapSt6vectorS5_blmdSaNS8_14adl_serializerEEEESt10_Select1stISE_ESt4lessIvESaISE_EE21_M_get_Node_allocatorEv: # @_ZNSt8_Rb_treeINSt7__cxx1112basic_stringIcSt11char_traitsIcESaIcEEESt4pairIKS5_N8nlohmann10basic_jsonISt3mapSt6vectorS5_blmdSaNS8_14adl_serializerEEEESt10_Select1stISE_ESt4lessIvESaISE_EE21_M_get_Node_allocatorEv
# %bb.0:                                # %entry
	addi	sp, sp, -32
	sd	ra, 24(sp)
	sd	s0, 16(sp)
	addi	s0, sp, 32
	sd	a0, -24(s0)
	ld	a0, -24(s0)
	ld	s0, 16(sp)
	ld	ra, 24(sp)
	addi	sp, sp, 32
	ret
.Lfunc_end105:
	.size	_ZNSt8_Rb_treeINSt7__cxx1112basic_stringIcSt11char_traitsIcESaIcEEESt4pairIKS5_N8nlohmann10basic_jsonISt3mapSt6vectorS5_blmdSaNS8_14adl_serializerEEEESt10_Select1stISE_ESt4lessIvESaISE_EE21_M_get_Node_allocatorEv, .Lfunc_end105-_ZNSt8_Rb_treeINSt7__cxx1112basic_stringIcSt11char_traitsIcESaIcEEESt4pairIKS5_N8nlohmann10basic_jsonISt3mapSt6vectorS5_blmdSaNS8_14adl_serializerEEEESt10_Select1stISE_ESt4lessIvESaISE_EE21_M_get_Node_allocatorEv
                                        # -- End function
	.section	.text._ZNSt13_Rb_tree_nodeISt4pairIKNSt7__cxx1112basic_stringIcSt11char_traitsIcESaIcEEEN8nlohmann10basic_jsonISt3mapSt6vectorS6_blmdSaNS8_14adl_serializerEEEEE9_M_valptrEv,"axG",@progbits,_ZNSt13_Rb_tree_nodeISt4pairIKNSt7__cxx1112basic_stringIcSt11char_traitsIcESaIcEEEN8nlohmann10basic_jsonISt3mapSt6vectorS6_blmdSaNS8_14adl_serializerEEEEE9_M_valptrEv,comdat
	.weak	_ZNSt13_Rb_tree_nodeISt4pairIKNSt7__cxx1112basic_stringIcSt11char_traitsIcESaIcEEEN8nlohmann10basic_jsonISt3mapSt6vectorS6_blmdSaNS8_14adl_serializerEEEEE9_M_valptrEv # -- Begin function _ZNSt13_Rb_tree_nodeISt4pairIKNSt7__cxx1112basic_stringIcSt11char_traitsIcESaIcEEEN8nlohmann10basic_jsonISt3mapSt6vectorS6_blmdSaNS8_14adl_serializerEEEEE9_M_valptrEv
	.p2align	2
	.type	_ZNSt13_Rb_tree_nodeISt4pairIKNSt7__cxx1112basic_stringIcSt11char_traitsIcESaIcEEEN8nlohmann10basic_jsonISt3mapSt6vectorS6_blmdSaNS8_14adl_serializerEEEEE9_M_valptrEv,@function
_ZNSt13_Rb_tree_nodeISt4pairIKNSt7__cxx1112basic_stringIcSt11char_traitsIcESaIcEEEN8nlohmann10basic_jsonISt3mapSt6vectorS6_blmdSaNS8_14adl_serializerEEEEE9_M_valptrEv: # @_ZNSt13_Rb_tree_nodeISt4pairIKNSt7__cxx1112basic_stringIcSt11char_traitsIcESaIcEEEN8nlohmann10basic_jsonISt3mapSt6vectorS6_blmdSaNS8_14adl_serializerEEEEE9_M_valptrEv
# %bb.0:                                # %entry
	addi	sp, sp, -32
	sd	ra, 24(sp)
	sd	s0, 16(sp)
	addi	s0, sp, 32
	sd	a0, -24(s0)
	ld	a0, -24(s0)
	addi	a0, a0, 32
	call	_ZN9__gnu_cxx16__aligned_membufISt4pairIKNSt7__cxx1112basic_stringIcSt11char_traitsIcESaIcEEEN8nlohmann10basic_jsonISt3mapSt6vectorS7_blmdSaNS9_14adl_serializerEEEEE6_M_ptrEv
	ld	s0, 16(sp)
	ld	ra, 24(sp)
	addi	sp, sp, 32
	ret
.Lfunc_end106:
	.size	_ZNSt13_Rb_tree_nodeISt4pairIKNSt7__cxx1112basic_stringIcSt11char_traitsIcESaIcEEEN8nlohmann10basic_jsonISt3mapSt6vectorS6_blmdSaNS8_14adl_serializerEEEEE9_M_valptrEv, .Lfunc_end106-_ZNSt13_Rb_tree_nodeISt4pairIKNSt7__cxx1112basic_stringIcSt11char_traitsIcESaIcEEEN8nlohmann10basic_jsonISt3mapSt6vectorS6_blmdSaNS8_14adl_serializerEEEEE9_M_valptrEv
                                        # -- End function
	.section	.text._ZNSt4pairIKNSt7__cxx1112basic_stringIcSt11char_traitsIcESaIcEEEN8nlohmann10basic_jsonISt3mapSt6vectorS5_blmdSaNS7_14adl_serializerEEEED2Ev,"axG",@progbits,_ZNSt4pairIKNSt7__cxx1112basic_stringIcSt11char_traitsIcESaIcEEEN8nlohmann10basic_jsonISt3mapSt6vectorS5_blmdSaNS7_14adl_serializerEEEED2Ev,comdat
	.weak	_ZNSt4pairIKNSt7__cxx1112basic_stringIcSt11char_traitsIcESaIcEEEN8nlohmann10basic_jsonISt3mapSt6vectorS5_blmdSaNS7_14adl_serializerEEEED2Ev # -- Begin function _ZNSt4pairIKNSt7__cxx1112basic_stringIcSt11char_traitsIcESaIcEEEN8nlohmann10basic_jsonISt3mapSt6vectorS5_blmdSaNS7_14adl_serializerEEEED2Ev
	.p2align	2
	.type	_ZNSt4pairIKNSt7__cxx1112basic_stringIcSt11char_traitsIcESaIcEEEN8nlohmann10basic_jsonISt3mapSt6vectorS5_blmdSaNS7_14adl_serializerEEEED2Ev,@function
_ZNSt4pairIKNSt7__cxx1112basic_stringIcSt11char_traitsIcESaIcEEEN8nlohmann10basic_jsonISt3mapSt6vectorS5_blmdSaNS7_14adl_serializerEEEED2Ev: # @_ZNSt4pairIKNSt7__cxx1112basic_stringIcSt11char_traitsIcESaIcEEEN8nlohmann10basic_jsonISt3mapSt6vectorS5_blmdSaNS7_14adl_serializerEEEED2Ev
# %bb.0:                                # %entry
	addi	sp, sp, -32
	sd	ra, 24(sp)
	sd	s0, 16(sp)
	sd	s1, 8(sp)
	addi	s0, sp, 32
	sd	a0, -32(s0)
	ld	s1, -32(s0)
	addi	a0, s1, 32
	call	_ZN8nlohmann10basic_jsonISt3mapSt6vectorNSt7__cxx1112basic_stringIcSt11char_traitsIcESaIcEEEblmdSaNS_14adl_serializerEED2Ev
	mv	a0, s1
	call	_ZNSt7__cxx1112basic_stringIcSt11char_traitsIcESaIcEED1Ev
	ld	s1, 8(sp)
	ld	s0, 16(sp)
	ld	ra, 24(sp)
	addi	sp, sp, 32
	ret
.Lfunc_end107:
	.size	_ZNSt4pairIKNSt7__cxx1112basic_stringIcSt11char_traitsIcESaIcEEEN8nlohmann10basic_jsonISt3mapSt6vectorS5_blmdSaNS7_14adl_serializerEEEED2Ev, .Lfunc_end107-_ZNSt4pairIKNSt7__cxx1112basic_stringIcSt11char_traitsIcESaIcEEEN8nlohmann10basic_jsonISt3mapSt6vectorS5_blmdSaNS7_14adl_serializerEEEED2Ev
                                        # -- End function
	.section	.text._ZN9__gnu_cxx16__aligned_membufISt4pairIKNSt7__cxx1112basic_stringIcSt11char_traitsIcESaIcEEEN8nlohmann10basic_jsonISt3mapSt6vectorS7_blmdSaNS9_14adl_serializerEEEEE6_M_ptrEv,"axG",@progbits,_ZN9__gnu_cxx16__aligned_membufISt4pairIKNSt7__cxx1112basic_stringIcSt11char_traitsIcESaIcEEEN8nlohmann10basic_jsonISt3mapSt6vectorS7_blmdSaNS9_14adl_serializerEEEEE6_M_ptrEv,comdat
	.weak	_ZN9__gnu_cxx16__aligned_membufISt4pairIKNSt7__cxx1112basic_stringIcSt11char_traitsIcESaIcEEEN8nlohmann10basic_jsonISt3mapSt6vectorS7_blmdSaNS9_14adl_serializerEEEEE6_M_ptrEv # -- Begin function _ZN9__gnu_cxx16__aligned_membufISt4pairIKNSt7__cxx1112basic_stringIcSt11char_traitsIcESaIcEEEN8nlohmann10basic_jsonISt3mapSt6vectorS7_blmdSaNS9_14adl_serializerEEEEE6_M_ptrEv
	.p2align	2
	.type	_ZN9__gnu_cxx16__aligned_membufISt4pairIKNSt7__cxx1112basic_stringIcSt11char_traitsIcESaIcEEEN8nlohmann10basic_jsonISt3mapSt6vectorS7_blmdSaNS9_14adl_serializerEEEEE6_M_ptrEv,@function
_ZN9__gnu_cxx16__aligned_membufISt4pairIKNSt7__cxx1112basic_stringIcSt11char_traitsIcESaIcEEEN8nlohmann10basic_jsonISt3mapSt6vectorS7_blmdSaNS9_14adl_serializerEEEEE6_M_ptrEv: # @_ZN9__gnu_cxx16__aligned_membufISt4pairIKNSt7__cxx1112basic_stringIcSt11char_traitsIcESaIcEEEN8nlohmann10basic_jsonISt3mapSt6vectorS7_blmdSaNS9_14adl_serializerEEEEE6_M_ptrEv
# %bb.0:                                # %entry
	addi	sp, sp, -32
	sd	ra, 24(sp)
	sd	s0, 16(sp)
	addi	s0, sp, 32
	sd	a0, -24(s0)
	ld	a0, -24(s0)
	call	_ZN9__gnu_cxx16__aligned_membufISt4pairIKNSt7__cxx1112basic_stringIcSt11char_traitsIcESaIcEEEN8nlohmann10basic_jsonISt3mapSt6vectorS7_blmdSaNS9_14adl_serializerEEEEE7_M_addrEv
	ld	s0, 16(sp)
	ld	ra, 24(sp)
	addi	sp, sp, 32
	ret
.Lfunc_end108:
	.size	_ZN9__gnu_cxx16__aligned_membufISt4pairIKNSt7__cxx1112basic_stringIcSt11char_traitsIcESaIcEEEN8nlohmann10basic_jsonISt3mapSt6vectorS7_blmdSaNS9_14adl_serializerEEEEE6_M_ptrEv, .Lfunc_end108-_ZN9__gnu_cxx16__aligned_membufISt4pairIKNSt7__cxx1112basic_stringIcSt11char_traitsIcESaIcEEEN8nlohmann10basic_jsonISt3mapSt6vectorS7_blmdSaNS9_14adl_serializerEEEEE6_M_ptrEv
                                        # -- End function
	.section	.text._ZN9__gnu_cxx16__aligned_membufISt4pairIKNSt7__cxx1112basic_stringIcSt11char_traitsIcESaIcEEEN8nlohmann10basic_jsonISt3mapSt6vectorS7_blmdSaNS9_14adl_serializerEEEEE7_M_addrEv,"axG",@progbits,_ZN9__gnu_cxx16__aligned_membufISt4pairIKNSt7__cxx1112basic_stringIcSt11char_traitsIcESaIcEEEN8nlohmann10basic_jsonISt3mapSt6vectorS7_blmdSaNS9_14adl_serializerEEEEE7_M_addrEv,comdat
	.weak	_ZN9__gnu_cxx16__aligned_membufISt4pairIKNSt7__cxx1112basic_stringIcSt11char_traitsIcESaIcEEEN8nlohmann10basic_jsonISt3mapSt6vectorS7_blmdSaNS9_14adl_serializerEEEEE7_M_addrEv # -- Begin function _ZN9__gnu_cxx16__aligned_membufISt4pairIKNSt7__cxx1112basic_stringIcSt11char_traitsIcESaIcEEEN8nlohmann10basic_jsonISt3mapSt6vectorS7_blmdSaNS9_14adl_serializerEEEEE7_M_addrEv
	.p2align	2
	.type	_ZN9__gnu_cxx16__aligned_membufISt4pairIKNSt7__cxx1112basic_stringIcSt11char_traitsIcESaIcEEEN8nlohmann10basic_jsonISt3mapSt6vectorS7_blmdSaNS9_14adl_serializerEEEEE7_M_addrEv,@function
_ZN9__gnu_cxx16__aligned_membufISt4pairIKNSt7__cxx1112basic_stringIcSt11char_traitsIcESaIcEEEN8nlohmann10basic_jsonISt3mapSt6vectorS7_blmdSaNS9_14adl_serializerEEEEE7_M_addrEv: # @_ZN9__gnu_cxx16__aligned_membufISt4pairIKNSt7__cxx1112basic_stringIcSt11char_traitsIcESaIcEEEN8nlohmann10basic_jsonISt3mapSt6vectorS7_blmdSaNS9_14adl_serializerEEEEE7_M_addrEv
# %bb.0:                                # %entry
	addi	sp, sp, -32
	sd	ra, 24(sp)
	sd	s0, 16(sp)
	addi	s0, sp, 32
	sd	a0, -24(s0)
	ld	a0, -24(s0)
	ld	s0, 16(sp)
	ld	ra, 24(sp)
	addi	sp, sp, 32
	ret
.Lfunc_end109:
	.size	_ZN9__gnu_cxx16__aligned_membufISt4pairIKNSt7__cxx1112basic_stringIcSt11char_traitsIcESaIcEEEN8nlohmann10basic_jsonISt3mapSt6vectorS7_blmdSaNS9_14adl_serializerEEEEE7_M_addrEv, .Lfunc_end109-_ZN9__gnu_cxx16__aligned_membufISt4pairIKNSt7__cxx1112basic_stringIcSt11char_traitsIcESaIcEEEN8nlohmann10basic_jsonISt3mapSt6vectorS7_blmdSaNS9_14adl_serializerEEEEE7_M_addrEv
                                        # -- End function
	.section	.text._ZNSt15__new_allocatorISt13_Rb_tree_nodeISt4pairIKNSt7__cxx1112basic_stringIcSt11char_traitsIcESaIcEEEN8nlohmann10basic_jsonISt3mapSt6vectorS7_blmdSaNS9_14adl_serializerEEEEEE10deallocateEPSG_m,"axG",@progbits,_ZNSt15__new_allocatorISt13_Rb_tree_nodeISt4pairIKNSt7__cxx1112basic_stringIcSt11char_traitsIcESaIcEEEN8nlohmann10basic_jsonISt3mapSt6vectorS7_blmdSaNS9_14adl_serializerEEEEEE10deallocateEPSG_m,comdat
	.weak	_ZNSt15__new_allocatorISt13_Rb_tree_nodeISt4pairIKNSt7__cxx1112basic_stringIcSt11char_traitsIcESaIcEEEN8nlohmann10basic_jsonISt3mapSt6vectorS7_blmdSaNS9_14adl_serializerEEEEEE10deallocateEPSG_m # -- Begin function _ZNSt15__new_allocatorISt13_Rb_tree_nodeISt4pairIKNSt7__cxx1112basic_stringIcSt11char_traitsIcESaIcEEEN8nlohmann10basic_jsonISt3mapSt6vectorS7_blmdSaNS9_14adl_serializerEEEEEE10deallocateEPSG_m
	.p2align	2
	.type	_ZNSt15__new_allocatorISt13_Rb_tree_nodeISt4pairIKNSt7__cxx1112basic_stringIcSt11char_traitsIcESaIcEEEN8nlohmann10basic_jsonISt3mapSt6vectorS7_blmdSaNS9_14adl_serializerEEEEEE10deallocateEPSG_m,@function
_ZNSt15__new_allocatorISt13_Rb_tree_nodeISt4pairIKNSt7__cxx1112basic_stringIcSt11char_traitsIcESaIcEEEN8nlohmann10basic_jsonISt3mapSt6vectorS7_blmdSaNS9_14adl_serializerEEEEEE10deallocateEPSG_m: # @_ZNSt15__new_allocatorISt13_Rb_tree_nodeISt4pairIKNSt7__cxx1112basic_stringIcSt11char_traitsIcESaIcEEEN8nlohmann10basic_jsonISt3mapSt6vectorS7_blmdSaNS9_14adl_serializerEEEEEE10deallocateEPSG_m
# %bb.0:                                # %entry
	addi	sp, sp, -48
	sd	ra, 40(sp)
	sd	s0, 32(sp)
	addi	s0, sp, 48
	sd	a0, -24(s0)
	sd	a1, -32(s0)
	sd	a2, -40(s0)
	ld	a0, -32(s0)
	call	_ZdlPv
	ld	s0, 32(sp)
	ld	ra, 40(sp)
	addi	sp, sp, 48
	ret
.Lfunc_end110:
	.size	_ZNSt15__new_allocatorISt13_Rb_tree_nodeISt4pairIKNSt7__cxx1112basic_stringIcSt11char_traitsIcESaIcEEEN8nlohmann10basic_jsonISt3mapSt6vectorS7_blmdSaNS9_14adl_serializerEEEEEE10deallocateEPSG_m, .Lfunc_end110-_ZNSt15__new_allocatorISt13_Rb_tree_nodeISt4pairIKNSt7__cxx1112basic_stringIcSt11char_traitsIcESaIcEEEN8nlohmann10basic_jsonISt3mapSt6vectorS7_blmdSaNS9_14adl_serializerEEEEEE10deallocateEPSG_m
                                        # -- End function
	.section	.text._ZNKSt8_Rb_treeINSt7__cxx1112basic_stringIcSt11char_traitsIcESaIcEEESt4pairIKS5_N8nlohmann10basic_jsonISt3mapSt6vectorS5_blmdSaNS8_14adl_serializerEEEESt10_Select1stISE_ESt4lessIvESaISE_EE9_M_mbeginEv,"axG",@progbits,_ZNKSt8_Rb_treeINSt7__cxx1112basic_stringIcSt11char_traitsIcESaIcEEESt4pairIKS5_N8nlohmann10basic_jsonISt3mapSt6vectorS5_blmdSaNS8_14adl_serializerEEEESt10_Select1stISE_ESt4lessIvESaISE_EE9_M_mbeginEv,comdat
	.weak	_ZNKSt8_Rb_treeINSt7__cxx1112basic_stringIcSt11char_traitsIcESaIcEEESt4pairIKS5_N8nlohmann10basic_jsonISt3mapSt6vectorS5_blmdSaNS8_14adl_serializerEEEESt10_Select1stISE_ESt4lessIvESaISE_EE9_M_mbeginEv # -- Begin function _ZNKSt8_Rb_treeINSt7__cxx1112basic_stringIcSt11char_traitsIcESaIcEEESt4pairIKS5_N8nlohmann10basic_jsonISt3mapSt6vectorS5_blmdSaNS8_14adl_serializerEEEESt10_Select1stISE_ESt4lessIvESaISE_EE9_M_mbeginEv
	.p2align	2
	.type	_ZNKSt8_Rb_treeINSt7__cxx1112basic_stringIcSt11char_traitsIcESaIcEEESt4pairIKS5_N8nlohmann10basic_jsonISt3mapSt6vectorS5_blmdSaNS8_14adl_serializerEEEESt10_Select1stISE_ESt4lessIvESaISE_EE9_M_mbeginEv,@function
_ZNKSt8_Rb_treeINSt7__cxx1112basic_stringIcSt11char_traitsIcESaIcEEESt4pairIKS5_N8nlohmann10basic_jsonISt3mapSt6vectorS5_blmdSaNS8_14adl_serializerEEEESt10_Select1stISE_ESt4lessIvESaISE_EE9_M_mbeginEv: # @_ZNKSt8_Rb_treeINSt7__cxx1112basic_stringIcSt11char_traitsIcESaIcEEESt4pairIKS5_N8nlohmann10basic_jsonISt3mapSt6vectorS5_blmdSaNS8_14adl_serializerEEEESt10_Select1stISE_ESt4lessIvESaISE_EE9_M_mbeginEv
# %bb.0:                                # %entry
	addi	sp, sp, -32
	sd	ra, 24(sp)
	sd	s0, 16(sp)
	addi	s0, sp, 32
	sd	a0, -24(s0)
	ld	a0, -24(s0)
	ld	a0, 16(a0)
	ld	s0, 16(sp)
	ld	ra, 24(sp)
	addi	sp, sp, 32
	ret
.Lfunc_end111:
	.size	_ZNKSt8_Rb_treeINSt7__cxx1112basic_stringIcSt11char_traitsIcESaIcEEESt4pairIKS5_N8nlohmann10basic_jsonISt3mapSt6vectorS5_blmdSaNS8_14adl_serializerEEEESt10_Select1stISE_ESt4lessIvESaISE_EE9_M_mbeginEv, .Lfunc_end111-_ZNKSt8_Rb_treeINSt7__cxx1112basic_stringIcSt11char_traitsIcESaIcEEESt4pairIKS5_N8nlohmann10basic_jsonISt3mapSt6vectorS5_blmdSaNS8_14adl_serializerEEEESt10_Select1stISE_ESt4lessIvESaISE_EE9_M_mbeginEv
                                        # -- End function
	.section	.text._ZNSt15__new_allocatorISt13_Rb_tree_nodeISt4pairIKNSt7__cxx1112basic_stringIcSt11char_traitsIcESaIcEEEN8nlohmann10basic_jsonISt3mapSt6vectorS7_blmdSaNS9_14adl_serializerEEEEEED2Ev,"axG",@progbits,_ZNSt15__new_allocatorISt13_Rb_tree_nodeISt4pairIKNSt7__cxx1112basic_stringIcSt11char_traitsIcESaIcEEEN8nlohmann10basic_jsonISt3mapSt6vectorS7_blmdSaNS9_14adl_serializerEEEEEED2Ev,comdat
	.weak	_ZNSt15__new_allocatorISt13_Rb_tree_nodeISt4pairIKNSt7__cxx1112basic_stringIcSt11char_traitsIcESaIcEEEN8nlohmann10basic_jsonISt3mapSt6vectorS7_blmdSaNS9_14adl_serializerEEEEEED2Ev # -- Begin function _ZNSt15__new_allocatorISt13_Rb_tree_nodeISt4pairIKNSt7__cxx1112basic_stringIcSt11char_traitsIcESaIcEEEN8nlohmann10basic_jsonISt3mapSt6vectorS7_blmdSaNS9_14adl_serializerEEEEEED2Ev
	.p2align	2
	.type	_ZNSt15__new_allocatorISt13_Rb_tree_nodeISt4pairIKNSt7__cxx1112basic_stringIcSt11char_traitsIcESaIcEEEN8nlohmann10basic_jsonISt3mapSt6vectorS7_blmdSaNS9_14adl_serializerEEEEEED2Ev,@function
_ZNSt15__new_allocatorISt13_Rb_tree_nodeISt4pairIKNSt7__cxx1112basic_stringIcSt11char_traitsIcESaIcEEEN8nlohmann10basic_jsonISt3mapSt6vectorS7_blmdSaNS9_14adl_serializerEEEEEED2Ev: # @_ZNSt15__new_allocatorISt13_Rb_tree_nodeISt4pairIKNSt7__cxx1112basic_stringIcSt11char_traitsIcESaIcEEEN8nlohmann10basic_jsonISt3mapSt6vectorS7_blmdSaNS9_14adl_serializerEEEEEED2Ev
# %bb.0:                                # %entry
	addi	sp, sp, -32
	sd	ra, 24(sp)
	sd	s0, 16(sp)
	addi	s0, sp, 32
	sd	a0, -24(s0)
	ld	s0, 16(sp)
	ld	ra, 24(sp)
	addi	sp, sp, 32
	ret
.Lfunc_end112:
	.size	_ZNSt15__new_allocatorISt13_Rb_tree_nodeISt4pairIKNSt7__cxx1112basic_stringIcSt11char_traitsIcESaIcEEEN8nlohmann10basic_jsonISt3mapSt6vectorS7_blmdSaNS9_14adl_serializerEEEEEED2Ev, .Lfunc_end112-_ZNSt15__new_allocatorISt13_Rb_tree_nodeISt4pairIKNSt7__cxx1112basic_stringIcSt11char_traitsIcESaIcEEEN8nlohmann10basic_jsonISt3mapSt6vectorS7_blmdSaNS9_14adl_serializerEEEEEED2Ev
                                        # -- End function
	.section	.text._ZNSt15__new_allocatorISt3mapINSt7__cxx1112basic_stringIcSt11char_traitsIcESaIcEEEN8nlohmann10basic_jsonIS0_St6vectorS6_blmdSaNS7_14adl_serializerEEESt4lessIvESaISt4pairIKS6_SB_EEEE10deallocateEPSI_m,"axG",@progbits,_ZNSt15__new_allocatorISt3mapINSt7__cxx1112basic_stringIcSt11char_traitsIcESaIcEEEN8nlohmann10basic_jsonIS0_St6vectorS6_blmdSaNS7_14adl_serializerEEESt4lessIvESaISt4pairIKS6_SB_EEEE10deallocateEPSI_m,comdat
	.weak	_ZNSt15__new_allocatorISt3mapINSt7__cxx1112basic_stringIcSt11char_traitsIcESaIcEEEN8nlohmann10basic_jsonIS0_St6vectorS6_blmdSaNS7_14adl_serializerEEESt4lessIvESaISt4pairIKS6_SB_EEEE10deallocateEPSI_m # -- Begin function _ZNSt15__new_allocatorISt3mapINSt7__cxx1112basic_stringIcSt11char_traitsIcESaIcEEEN8nlohmann10basic_jsonIS0_St6vectorS6_blmdSaNS7_14adl_serializerEEESt4lessIvESaISt4pairIKS6_SB_EEEE10deallocateEPSI_m
	.p2align	2
	.type	_ZNSt15__new_allocatorISt3mapINSt7__cxx1112basic_stringIcSt11char_traitsIcESaIcEEEN8nlohmann10basic_jsonIS0_St6vectorS6_blmdSaNS7_14adl_serializerEEESt4lessIvESaISt4pairIKS6_SB_EEEE10deallocateEPSI_m,@function
_ZNSt15__new_allocatorISt3mapINSt7__cxx1112basic_stringIcSt11char_traitsIcESaIcEEEN8nlohmann10basic_jsonIS0_St6vectorS6_blmdSaNS7_14adl_serializerEEESt4lessIvESaISt4pairIKS6_SB_EEEE10deallocateEPSI_m: # @_ZNSt15__new_allocatorISt3mapINSt7__cxx1112basic_stringIcSt11char_traitsIcESaIcEEEN8nlohmann10basic_jsonIS0_St6vectorS6_blmdSaNS7_14adl_serializerEEESt4lessIvESaISt4pairIKS6_SB_EEEE10deallocateEPSI_m
# %bb.0:                                # %entry
	addi	sp, sp, -48
	sd	ra, 40(sp)
	sd	s0, 32(sp)
	addi	s0, sp, 48
	sd	a0, -24(s0)
	sd	a1, -32(s0)
	sd	a2, -40(s0)
	ld	a0, -32(s0)
	call	_ZdlPv
	ld	s0, 32(sp)
	ld	ra, 40(sp)
	addi	sp, sp, 48
	ret
.Lfunc_end113:
	.size	_ZNSt15__new_allocatorISt3mapINSt7__cxx1112basic_stringIcSt11char_traitsIcESaIcEEEN8nlohmann10basic_jsonIS0_St6vectorS6_blmdSaNS7_14adl_serializerEEESt4lessIvESaISt4pairIKS6_SB_EEEE10deallocateEPSI_m, .Lfunc_end113-_ZNSt15__new_allocatorISt3mapINSt7__cxx1112basic_stringIcSt11char_traitsIcESaIcEEEN8nlohmann10basic_jsonIS0_St6vectorS6_blmdSaNS7_14adl_serializerEEESt4lessIvESaISt4pairIKS6_SB_EEEE10deallocateEPSI_m
                                        # -- End function
	.section	.text._ZNSt15__new_allocatorISt3mapINSt7__cxx1112basic_stringIcSt11char_traitsIcESaIcEEEN8nlohmann10basic_jsonIS0_St6vectorS6_blmdSaNS7_14adl_serializerEEESt4lessIvESaISt4pairIKS6_SB_EEEED2Ev,"axG",@progbits,_ZNSt15__new_allocatorISt3mapINSt7__cxx1112basic_stringIcSt11char_traitsIcESaIcEEEN8nlohmann10basic_jsonIS0_St6vectorS6_blmdSaNS7_14adl_serializerEEESt4lessIvESaISt4pairIKS6_SB_EEEED2Ev,comdat
	.weak	_ZNSt15__new_allocatorISt3mapINSt7__cxx1112basic_stringIcSt11char_traitsIcESaIcEEEN8nlohmann10basic_jsonIS0_St6vectorS6_blmdSaNS7_14adl_serializerEEESt4lessIvESaISt4pairIKS6_SB_EEEED2Ev # -- Begin function _ZNSt15__new_allocatorISt3mapINSt7__cxx1112basic_stringIcSt11char_traitsIcESaIcEEEN8nlohmann10basic_jsonIS0_St6vectorS6_blmdSaNS7_14adl_serializerEEESt4lessIvESaISt4pairIKS6_SB_EEEED2Ev
	.p2align	2
	.type	_ZNSt15__new_allocatorISt3mapINSt7__cxx1112basic_stringIcSt11char_traitsIcESaIcEEEN8nlohmann10basic_jsonIS0_St6vectorS6_blmdSaNS7_14adl_serializerEEESt4lessIvESaISt4pairIKS6_SB_EEEED2Ev,@function
_ZNSt15__new_allocatorISt3mapINSt7__cxx1112basic_stringIcSt11char_traitsIcESaIcEEEN8nlohmann10basic_jsonIS0_St6vectorS6_blmdSaNS7_14adl_serializerEEESt4lessIvESaISt4pairIKS6_SB_EEEED2Ev: # @_ZNSt15__new_allocatorISt3mapINSt7__cxx1112basic_stringIcSt11char_traitsIcESaIcEEEN8nlohmann10basic_jsonIS0_St6vectorS6_blmdSaNS7_14adl_serializerEEESt4lessIvESaISt4pairIKS6_SB_EEEED2Ev
# %bb.0:                                # %entry
	addi	sp, sp, -32
	sd	ra, 24(sp)
	sd	s0, 16(sp)
	addi	s0, sp, 32
	sd	a0, -24(s0)
	ld	s0, 16(sp)
	ld	ra, 24(sp)
	addi	sp, sp, 32
	ret
.Lfunc_end114:
	.size	_ZNSt15__new_allocatorISt3mapINSt7__cxx1112basic_stringIcSt11char_traitsIcESaIcEEEN8nlohmann10basic_jsonIS0_St6vectorS6_blmdSaNS7_14adl_serializerEEESt4lessIvESaISt4pairIKS6_SB_EEEED2Ev, .Lfunc_end114-_ZNSt15__new_allocatorISt3mapINSt7__cxx1112basic_stringIcSt11char_traitsIcESaIcEEEN8nlohmann10basic_jsonIS0_St6vectorS6_blmdSaNS7_14adl_serializerEEESt4lessIvESaISt4pairIKS6_SB_EEEED2Ev
                                        # -- End function
	.section	.text._ZNSt6vectorIN8nlohmann10basic_jsonISt3mapS_NSt7__cxx1112basic_stringIcSt11char_traitsIcESaIcEEEblmdSaNS0_14adl_serializerEEESaISA_EED2Ev,"axG",@progbits,_ZNSt6vectorIN8nlohmann10basic_jsonISt3mapS_NSt7__cxx1112basic_stringIcSt11char_traitsIcESaIcEEEblmdSaNS0_14adl_serializerEEESaISA_EED2Ev,comdat
	.weak	_ZNSt6vectorIN8nlohmann10basic_jsonISt3mapS_NSt7__cxx1112basic_stringIcSt11char_traitsIcESaIcEEEblmdSaNS0_14adl_serializerEEESaISA_EED2Ev # -- Begin function _ZNSt6vectorIN8nlohmann10basic_jsonISt3mapS_NSt7__cxx1112basic_stringIcSt11char_traitsIcESaIcEEEblmdSaNS0_14adl_serializerEEESaISA_EED2Ev
	.p2align	2
	.type	_ZNSt6vectorIN8nlohmann10basic_jsonISt3mapS_NSt7__cxx1112basic_stringIcSt11char_traitsIcESaIcEEEblmdSaNS0_14adl_serializerEEESaISA_EED2Ev,@function
_ZNSt6vectorIN8nlohmann10basic_jsonISt3mapS_NSt7__cxx1112basic_stringIcSt11char_traitsIcESaIcEEEblmdSaNS0_14adl_serializerEEESaISA_EED2Ev: # @_ZNSt6vectorIN8nlohmann10basic_jsonISt3mapS_NSt7__cxx1112basic_stringIcSt11char_traitsIcESaIcEEEblmdSaNS0_14adl_serializerEEESaISA_EED2Ev
.Lfunc_begin20:
	.cfi_startproc
	.cfi_personality 155, DW.ref.__gxx_personality_v0
	.cfi_lsda 27, .Lexception20
# %bb.0:                                # %entry
	addi	sp, sp, -96
	.cfi_def_cfa_offset 96
	sd	ra, 88(sp)
	sd	s0, 80(sp)
	sd	s1, 72(sp)
	sd	s2, 64(sp)
	sd	s3, 56(sp)
	.cfi_offset ra, -8
	.cfi_offset s0, -16
	.cfi_offset s1, -24
	.cfi_offset s2, -32
	.cfi_offset s3, -40
	addi	s0, sp, 96
	.cfi_def_cfa s0, 0
	sd	a0, -72(s0)
	ld	s1, -72(s0)
	ld	s2, 0(s1)
	ld	s3, 8(s1)
	mv	a0, s1
	call	_ZNSt12_Vector_baseIN8nlohmann10basic_jsonISt3mapSt6vectorNSt7__cxx1112basic_stringIcSt11char_traitsIcESaIcEEEblmdSaNS0_14adl_serializerEEESaISB_EE19_M_get_Tp_allocatorEv
	sd	s2, -48(s0)
	sd	s3, -56(s0)
	sd	a0, -64(s0)
	ld	a0, -48(s0)
	ld	a1, -56(s0)
.Ltmp108:
	call	_ZSt8_DestroyIPN8nlohmann10basic_jsonISt3mapSt6vectorNSt7__cxx1112basic_stringIcSt11char_traitsIcESaIcEEEblmdSaNS0_14adl_serializerEEEEvT_SD_
.Ltmp109:
	j	.LBB115_1
.LBB115_1:                              # %_ZSt8_DestroyIPN8nlohmann10basic_jsonISt3mapSt6vectorNSt7__cxx1112basic_stringIcSt11char_traitsIcESaIcEEEblmdSaNS0_14adl_serializerEEESB_EvT_SD_RSaIT0_E.exit
	j	.LBB115_2
.LBB115_2:                              # %invoke.cont
	mv	a0, s1
	call	_ZNSt12_Vector_baseIN8nlohmann10basic_jsonISt3mapSt6vectorNSt7__cxx1112basic_stringIcSt11char_traitsIcESaIcEEEblmdSaNS0_14adl_serializerEEESaISB_EED2Ev
	ld	s3, 56(sp)
	ld	s2, 64(sp)
	ld	s1, 72(sp)
	ld	s0, 80(sp)
	.cfi_def_cfa sp, 96
	ld	ra, 88(sp)
	.cfi_restore ra
	.cfi_restore s0
	.cfi_restore s1
	.cfi_restore s2
	.cfi_restore s3
	addi	sp, sp, 96
	.cfi_def_cfa_offset 0
	ret
.LBB115_3:                              # %lpad
.Ltmp110:
	sd	a0, -80(s0)
	sw	a1, -84(s0)
	mv	a0, s1
	call	_ZNSt12_Vector_baseIN8nlohmann10basic_jsonISt3mapSt6vectorNSt7__cxx1112basic_stringIcSt11char_traitsIcESaIcEEEblmdSaNS0_14adl_serializerEEESaISB_EED2Ev
	j	.LBB115_4
.LBB115_4:                              # %terminate.handler
	ld	a0, -80(s0)
	call	__clang_call_terminate
.Lfunc_end115:
	.size	_ZNSt6vectorIN8nlohmann10basic_jsonISt3mapS_NSt7__cxx1112basic_stringIcSt11char_traitsIcESaIcEEEblmdSaNS0_14adl_serializerEEESaISA_EED2Ev, .Lfunc_end115-_ZNSt6vectorIN8nlohmann10basic_jsonISt3mapS_NSt7__cxx1112basic_stringIcSt11char_traitsIcESaIcEEEblmdSaNS0_14adl_serializerEEESaISA_EED2Ev
	.cfi_endproc
	.section	.gcc_except_table,"a",@progbits
	.p2align	2
GCC_except_table115:
.Lexception20:
	.byte	255                     # @LPStart Encoding = omit
	.byte	155                     # @TType Encoding = indirect pcrel sdata4
	.uleb128 .Lttbase18-.Lttbaseref18
.Lttbaseref18:
	.byte	3                       # Call site Encoding = udata4
	.uleb128 .Lcst_end20-.Lcst_begin20
.Lcst_begin20:
	.word	.Ltmp108-.Lfunc_begin20 # >> Call Site 1 <<
	.word	.Ltmp109-.Ltmp108       #   Call between .Ltmp108 and .Ltmp109
	.word	.Ltmp110-.Lfunc_begin20 #     jumps to .Ltmp110
	.byte	1                       #   On action: 1
.Lcst_end20:
	.byte	1                       # >> Action Record 1 <<
                                        #   Catch TypeInfo 1
	.byte	0                       #   No further actions
	.p2align	2
                                        # >> Catch TypeInfos <<
	.word	0                       # TypeInfo 1
.Lttbase18:
	.p2align	2
                                        # -- End function
	.section	.text._ZNSt12_Vector_baseIN8nlohmann10basic_jsonISt3mapSt6vectorNSt7__cxx1112basic_stringIcSt11char_traitsIcESaIcEEEblmdSaNS0_14adl_serializerEEESaISB_EE19_M_get_Tp_allocatorEv,"axG",@progbits,_ZNSt12_Vector_baseIN8nlohmann10basic_jsonISt3mapSt6vectorNSt7__cxx1112basic_stringIcSt11char_traitsIcESaIcEEEblmdSaNS0_14adl_serializerEEESaISB_EE19_M_get_Tp_allocatorEv,comdat
	.weak	_ZNSt12_Vector_baseIN8nlohmann10basic_jsonISt3mapSt6vectorNSt7__cxx1112basic_stringIcSt11char_traitsIcESaIcEEEblmdSaNS0_14adl_serializerEEESaISB_EE19_M_get_Tp_allocatorEv # -- Begin function _ZNSt12_Vector_baseIN8nlohmann10basic_jsonISt3mapSt6vectorNSt7__cxx1112basic_stringIcSt11char_traitsIcESaIcEEEblmdSaNS0_14adl_serializerEEESaISB_EE19_M_get_Tp_allocatorEv
	.p2align	2
	.type	_ZNSt12_Vector_baseIN8nlohmann10basic_jsonISt3mapSt6vectorNSt7__cxx1112basic_stringIcSt11char_traitsIcESaIcEEEblmdSaNS0_14adl_serializerEEESaISB_EE19_M_get_Tp_allocatorEv,@function
_ZNSt12_Vector_baseIN8nlohmann10basic_jsonISt3mapSt6vectorNSt7__cxx1112basic_stringIcSt11char_traitsIcESaIcEEEblmdSaNS0_14adl_serializerEEESaISB_EE19_M_get_Tp_allocatorEv: # @_ZNSt12_Vector_baseIN8nlohmann10basic_jsonISt3mapSt6vectorNSt7__cxx1112basic_stringIcSt11char_traitsIcESaIcEEEblmdSaNS0_14adl_serializerEEESaISB_EE19_M_get_Tp_allocatorEv
# %bb.0:                                # %entry
	addi	sp, sp, -32
	sd	ra, 24(sp)
	sd	s0, 16(sp)
	addi	s0, sp, 32
	sd	a0, -24(s0)
	ld	a0, -24(s0)
	ld	s0, 16(sp)
	ld	ra, 24(sp)
	addi	sp, sp, 32
	ret
.Lfunc_end116:
	.size	_ZNSt12_Vector_baseIN8nlohmann10basic_jsonISt3mapSt6vectorNSt7__cxx1112basic_stringIcSt11char_traitsIcESaIcEEEblmdSaNS0_14adl_serializerEEESaISB_EE19_M_get_Tp_allocatorEv, .Lfunc_end116-_ZNSt12_Vector_baseIN8nlohmann10basic_jsonISt3mapSt6vectorNSt7__cxx1112basic_stringIcSt11char_traitsIcESaIcEEEblmdSaNS0_14adl_serializerEEESaISB_EE19_M_get_Tp_allocatorEv
                                        # -- End function
	.section	.text._ZNSt12_Vector_baseIN8nlohmann10basic_jsonISt3mapSt6vectorNSt7__cxx1112basic_stringIcSt11char_traitsIcESaIcEEEblmdSaNS0_14adl_serializerEEESaISB_EED2Ev,"axG",@progbits,_ZNSt12_Vector_baseIN8nlohmann10basic_jsonISt3mapSt6vectorNSt7__cxx1112basic_stringIcSt11char_traitsIcESaIcEEEblmdSaNS0_14adl_serializerEEESaISB_EED2Ev,comdat
	.weak	_ZNSt12_Vector_baseIN8nlohmann10basic_jsonISt3mapSt6vectorNSt7__cxx1112basic_stringIcSt11char_traitsIcESaIcEEEblmdSaNS0_14adl_serializerEEESaISB_EED2Ev # -- Begin function _ZNSt12_Vector_baseIN8nlohmann10basic_jsonISt3mapSt6vectorNSt7__cxx1112basic_stringIcSt11char_traitsIcESaIcEEEblmdSaNS0_14adl_serializerEEESaISB_EED2Ev
	.p2align	2
	.type	_ZNSt12_Vector_baseIN8nlohmann10basic_jsonISt3mapSt6vectorNSt7__cxx1112basic_stringIcSt11char_traitsIcESaIcEEEblmdSaNS0_14adl_serializerEEESaISB_EED2Ev,@function
_ZNSt12_Vector_baseIN8nlohmann10basic_jsonISt3mapSt6vectorNSt7__cxx1112basic_stringIcSt11char_traitsIcESaIcEEEblmdSaNS0_14adl_serializerEEESaISB_EED2Ev: # @_ZNSt12_Vector_baseIN8nlohmann10basic_jsonISt3mapSt6vectorNSt7__cxx1112basic_stringIcSt11char_traitsIcESaIcEEEblmdSaNS0_14adl_serializerEEESaISB_EED2Ev
.Lfunc_begin21:
	.cfi_startproc
	.cfi_personality 155, DW.ref.__gxx_personality_v0
	.cfi_lsda 27, .Lexception21
# %bb.0:                                # %entry
	addi	sp, sp, -48
	.cfi_def_cfa_offset 48
	sd	ra, 40(sp)
	sd	s0, 32(sp)
	sd	s1, 24(sp)
	.cfi_offset ra, -8
	.cfi_offset s0, -16
	.cfi_offset s1, -24
	addi	s0, sp, 48
	.cfi_def_cfa s0, 0
	sd	a0, -32(s0)
	ld	s1, -32(s0)
	ld	a1, 0(s1)
	ld	a0, 16(s1)
	sub	a0, a0, a1
	srai	a2, a0, 4
.Ltmp111:
	mv	a0, s1
	call	_ZNSt12_Vector_baseIN8nlohmann10basic_jsonISt3mapSt6vectorNSt7__cxx1112basic_stringIcSt11char_traitsIcESaIcEEEblmdSaNS0_14adl_serializerEEESaISB_EE13_M_deallocateEPSB_m
.Ltmp112:
	j	.LBB117_1
.LBB117_1:                              # %invoke.cont
	mv	a0, s1
	call	_ZNSt12_Vector_baseIN8nlohmann10basic_jsonISt3mapSt6vectorNSt7__cxx1112basic_stringIcSt11char_traitsIcESaIcEEEblmdSaNS0_14adl_serializerEEESaISB_EE12_Vector_implD2Ev
	ld	s1, 24(sp)
	ld	s0, 32(sp)
	.cfi_def_cfa sp, 48
	ld	ra, 40(sp)
	.cfi_restore ra
	.cfi_restore s0
	.cfi_restore s1
	addi	sp, sp, 48
	.cfi_def_cfa_offset 0
	ret
.LBB117_2:                              # %lpad
.Ltmp113:
	sd	a0, -40(s0)
	sw	a1, -44(s0)
	mv	a0, s1
	call	_ZNSt12_Vector_baseIN8nlohmann10basic_jsonISt3mapSt6vectorNSt7__cxx1112basic_stringIcSt11char_traitsIcESaIcEEEblmdSaNS0_14adl_serializerEEESaISB_EE12_Vector_implD2Ev
	j	.LBB117_3
.LBB117_3:                              # %terminate.handler
	ld	a0, -40(s0)
	call	__clang_call_terminate
.Lfunc_end117:
	.size	_ZNSt12_Vector_baseIN8nlohmann10basic_jsonISt3mapSt6vectorNSt7__cxx1112basic_stringIcSt11char_traitsIcESaIcEEEblmdSaNS0_14adl_serializerEEESaISB_EED2Ev, .Lfunc_end117-_ZNSt12_Vector_baseIN8nlohmann10basic_jsonISt3mapSt6vectorNSt7__cxx1112basic_stringIcSt11char_traitsIcESaIcEEEblmdSaNS0_14adl_serializerEEESaISB_EED2Ev
	.cfi_endproc
	.section	.gcc_except_table,"a",@progbits
	.p2align	2
GCC_except_table117:
.Lexception21:
	.byte	255                     # @LPStart Encoding = omit
	.byte	155                     # @TType Encoding = indirect pcrel sdata4
	.uleb128 .Lttbase19-.Lttbaseref19
.Lttbaseref19:
	.byte	3                       # Call site Encoding = udata4
	.uleb128 .Lcst_end21-.Lcst_begin21
.Lcst_begin21:
	.word	.Ltmp111-.Lfunc_begin21 # >> Call Site 1 <<
	.word	.Ltmp112-.Ltmp111       #   Call between .Ltmp111 and .Ltmp112
	.word	.Ltmp113-.Lfunc_begin21 #     jumps to .Ltmp113
	.byte	1                       #   On action: 1
.Lcst_end21:
	.byte	1                       # >> Action Record 1 <<
                                        #   Catch TypeInfo 1
	.byte	0                       #   No further actions
	.p2align	2
                                        # >> Catch TypeInfos <<
	.word	0                       # TypeInfo 1
.Lttbase19:
	.p2align	2
                                        # -- End function
	.section	.text._ZSt8_DestroyIPN8nlohmann10basic_jsonISt3mapSt6vectorNSt7__cxx1112basic_stringIcSt11char_traitsIcESaIcEEEblmdSaNS0_14adl_serializerEEEEvT_SD_,"axG",@progbits,_ZSt8_DestroyIPN8nlohmann10basic_jsonISt3mapSt6vectorNSt7__cxx1112basic_stringIcSt11char_traitsIcESaIcEEEblmdSaNS0_14adl_serializerEEEEvT_SD_,comdat
	.weak	_ZSt8_DestroyIPN8nlohmann10basic_jsonISt3mapSt6vectorNSt7__cxx1112basic_stringIcSt11char_traitsIcESaIcEEEblmdSaNS0_14adl_serializerEEEEvT_SD_ # -- Begin function _ZSt8_DestroyIPN8nlohmann10basic_jsonISt3mapSt6vectorNSt7__cxx1112basic_stringIcSt11char_traitsIcESaIcEEEblmdSaNS0_14adl_serializerEEEEvT_SD_
	.p2align	2
	.type	_ZSt8_DestroyIPN8nlohmann10basic_jsonISt3mapSt6vectorNSt7__cxx1112basic_stringIcSt11char_traitsIcESaIcEEEblmdSaNS0_14adl_serializerEEEEvT_SD_,@function
_ZSt8_DestroyIPN8nlohmann10basic_jsonISt3mapSt6vectorNSt7__cxx1112basic_stringIcSt11char_traitsIcESaIcEEEblmdSaNS0_14adl_serializerEEEEvT_SD_: # @_ZSt8_DestroyIPN8nlohmann10basic_jsonISt3mapSt6vectorNSt7__cxx1112basic_stringIcSt11char_traitsIcESaIcEEEblmdSaNS0_14adl_serializerEEEEvT_SD_
	.cfi_startproc
# %bb.0:                                # %entry
	addi	sp, sp, -32
	.cfi_def_cfa_offset 32
	sd	ra, 24(sp)
	sd	s0, 16(sp)
	.cfi_offset ra, -8
	.cfi_offset s0, -16
	addi	s0, sp, 32
	.cfi_def_cfa s0, 0
	sd	a0, -24(s0)
	sd	a1, -32(s0)
	ld	a0, -24(s0)
	ld	a1, -32(s0)
	call	_ZNSt12_Destroy_auxILb0EE9__destroyIPN8nlohmann10basic_jsonISt3mapSt6vectorNSt7__cxx1112basic_stringIcSt11char_traitsIcESaIcEEEblmdSaNS2_14adl_serializerEEEEEvT_SF_
	ld	s0, 16(sp)
	.cfi_def_cfa sp, 32
	ld	ra, 24(sp)
	.cfi_restore ra
	.cfi_restore s0
	addi	sp, sp, 32
	.cfi_def_cfa_offset 0
	ret
.Lfunc_end118:
	.size	_ZSt8_DestroyIPN8nlohmann10basic_jsonISt3mapSt6vectorNSt7__cxx1112basic_stringIcSt11char_traitsIcESaIcEEEblmdSaNS0_14adl_serializerEEEEvT_SD_, .Lfunc_end118-_ZSt8_DestroyIPN8nlohmann10basic_jsonISt3mapSt6vectorNSt7__cxx1112basic_stringIcSt11char_traitsIcESaIcEEEblmdSaNS0_14adl_serializerEEEEvT_SD_
	.cfi_endproc
                                        # -- End function
	.section	.text._ZNSt12_Destroy_auxILb0EE9__destroyIPN8nlohmann10basic_jsonISt3mapSt6vectorNSt7__cxx1112basic_stringIcSt11char_traitsIcESaIcEEEblmdSaNS2_14adl_serializerEEEEEvT_SF_,"axG",@progbits,_ZNSt12_Destroy_auxILb0EE9__destroyIPN8nlohmann10basic_jsonISt3mapSt6vectorNSt7__cxx1112basic_stringIcSt11char_traitsIcESaIcEEEblmdSaNS2_14adl_serializerEEEEEvT_SF_,comdat
	.weak	_ZNSt12_Destroy_auxILb0EE9__destroyIPN8nlohmann10basic_jsonISt3mapSt6vectorNSt7__cxx1112basic_stringIcSt11char_traitsIcESaIcEEEblmdSaNS2_14adl_serializerEEEEEvT_SF_ # -- Begin function _ZNSt12_Destroy_auxILb0EE9__destroyIPN8nlohmann10basic_jsonISt3mapSt6vectorNSt7__cxx1112basic_stringIcSt11char_traitsIcESaIcEEEblmdSaNS2_14adl_serializerEEEEEvT_SF_
	.p2align	2
	.type	_ZNSt12_Destroy_auxILb0EE9__destroyIPN8nlohmann10basic_jsonISt3mapSt6vectorNSt7__cxx1112basic_stringIcSt11char_traitsIcESaIcEEEblmdSaNS2_14adl_serializerEEEEEvT_SF_,@function
_ZNSt12_Destroy_auxILb0EE9__destroyIPN8nlohmann10basic_jsonISt3mapSt6vectorNSt7__cxx1112basic_stringIcSt11char_traitsIcESaIcEEEblmdSaNS2_14adl_serializerEEEEEvT_SF_: # @_ZNSt12_Destroy_auxILb0EE9__destroyIPN8nlohmann10basic_jsonISt3mapSt6vectorNSt7__cxx1112basic_stringIcSt11char_traitsIcESaIcEEEblmdSaNS2_14adl_serializerEEEEEvT_SF_
	.cfi_startproc
# %bb.0:                                # %entry
	addi	sp, sp, -32
	.cfi_def_cfa_offset 32
	sd	ra, 24(sp)
	sd	s0, 16(sp)
	.cfi_offset ra, -8
	.cfi_offset s0, -16
	addi	s0, sp, 32
	.cfi_def_cfa s0, 0
	sd	a0, -24(s0)
	sd	a1, -32(s0)
	j	.LBB119_1
.LBB119_1:                              # %for.cond
                                        # =>This Inner Loop Header: Depth=1
	ld	a0, -24(s0)
	ld	a1, -32(s0)
	beq	a0, a1, .LBB119_4
	j	.LBB119_2
.LBB119_2:                              # %for.body
                                        #   in Loop: Header=BB119_1 Depth=1
	ld	a0, -24(s0)
	call	_ZSt11__addressofIN8nlohmann10basic_jsonISt3mapSt6vectorNSt7__cxx1112basic_stringIcSt11char_traitsIcESaIcEEEblmdSaNS0_14adl_serializerEEEEPT_RSC_
	call	_ZSt8_DestroyIN8nlohmann10basic_jsonISt3mapSt6vectorNSt7__cxx1112basic_stringIcSt11char_traitsIcESaIcEEEblmdSaNS0_14adl_serializerEEEEvPT_
	j	.LBB119_3
.LBB119_3:                              # %for.inc
                                        #   in Loop: Header=BB119_1 Depth=1
	ld	a0, -24(s0)
	addi	a0, a0, 16
	sd	a0, -24(s0)
	j	.LBB119_1
.LBB119_4:                              # %for.end
	ld	s0, 16(sp)
	.cfi_def_cfa sp, 32
	ld	ra, 24(sp)
	.cfi_restore ra
	.cfi_restore s0
	addi	sp, sp, 32
	.cfi_def_cfa_offset 0
	ret
.Lfunc_end119:
	.size	_ZNSt12_Destroy_auxILb0EE9__destroyIPN8nlohmann10basic_jsonISt3mapSt6vectorNSt7__cxx1112basic_stringIcSt11char_traitsIcESaIcEEEblmdSaNS2_14adl_serializerEEEEEvT_SF_, .Lfunc_end119-_ZNSt12_Destroy_auxILb0EE9__destroyIPN8nlohmann10basic_jsonISt3mapSt6vectorNSt7__cxx1112basic_stringIcSt11char_traitsIcESaIcEEEblmdSaNS2_14adl_serializerEEEEEvT_SF_
	.cfi_endproc
                                        # -- End function
	.section	.text._ZSt8_DestroyIN8nlohmann10basic_jsonISt3mapSt6vectorNSt7__cxx1112basic_stringIcSt11char_traitsIcESaIcEEEblmdSaNS0_14adl_serializerEEEEvPT_,"axG",@progbits,_ZSt8_DestroyIN8nlohmann10basic_jsonISt3mapSt6vectorNSt7__cxx1112basic_stringIcSt11char_traitsIcESaIcEEEblmdSaNS0_14adl_serializerEEEEvPT_,comdat
	.weak	_ZSt8_DestroyIN8nlohmann10basic_jsonISt3mapSt6vectorNSt7__cxx1112basic_stringIcSt11char_traitsIcESaIcEEEblmdSaNS0_14adl_serializerEEEEvPT_ # -- Begin function _ZSt8_DestroyIN8nlohmann10basic_jsonISt3mapSt6vectorNSt7__cxx1112basic_stringIcSt11char_traitsIcESaIcEEEblmdSaNS0_14adl_serializerEEEEvPT_
	.p2align	2
	.type	_ZSt8_DestroyIN8nlohmann10basic_jsonISt3mapSt6vectorNSt7__cxx1112basic_stringIcSt11char_traitsIcESaIcEEEblmdSaNS0_14adl_serializerEEEEvPT_,@function
_ZSt8_DestroyIN8nlohmann10basic_jsonISt3mapSt6vectorNSt7__cxx1112basic_stringIcSt11char_traitsIcESaIcEEEblmdSaNS0_14adl_serializerEEEEvPT_: # @_ZSt8_DestroyIN8nlohmann10basic_jsonISt3mapSt6vectorNSt7__cxx1112basic_stringIcSt11char_traitsIcESaIcEEEblmdSaNS0_14adl_serializerEEEEvPT_
# %bb.0:                                # %entry
	addi	sp, sp, -32
	sd	ra, 24(sp)
	sd	s0, 16(sp)
	addi	s0, sp, 32
	sd	a0, -24(s0)
	ld	a0, -24(s0)
	call	_ZN8nlohmann10basic_jsonISt3mapSt6vectorNSt7__cxx1112basic_stringIcSt11char_traitsIcESaIcEEEblmdSaNS_14adl_serializerEED2Ev
	ld	s0, 16(sp)
	ld	ra, 24(sp)
	addi	sp, sp, 32
	ret
.Lfunc_end120:
	.size	_ZSt8_DestroyIN8nlohmann10basic_jsonISt3mapSt6vectorNSt7__cxx1112basic_stringIcSt11char_traitsIcESaIcEEEblmdSaNS0_14adl_serializerEEEEvPT_, .Lfunc_end120-_ZSt8_DestroyIN8nlohmann10basic_jsonISt3mapSt6vectorNSt7__cxx1112basic_stringIcSt11char_traitsIcESaIcEEEblmdSaNS0_14adl_serializerEEEEvPT_
                                        # -- End function
	.section	.text._ZSt11__addressofIN8nlohmann10basic_jsonISt3mapSt6vectorNSt7__cxx1112basic_stringIcSt11char_traitsIcESaIcEEEblmdSaNS0_14adl_serializerEEEEPT_RSC_,"axG",@progbits,_ZSt11__addressofIN8nlohmann10basic_jsonISt3mapSt6vectorNSt7__cxx1112basic_stringIcSt11char_traitsIcESaIcEEEblmdSaNS0_14adl_serializerEEEEPT_RSC_,comdat
	.weak	_ZSt11__addressofIN8nlohmann10basic_jsonISt3mapSt6vectorNSt7__cxx1112basic_stringIcSt11char_traitsIcESaIcEEEblmdSaNS0_14adl_serializerEEEEPT_RSC_ # -- Begin function _ZSt11__addressofIN8nlohmann10basic_jsonISt3mapSt6vectorNSt7__cxx1112basic_stringIcSt11char_traitsIcESaIcEEEblmdSaNS0_14adl_serializerEEEEPT_RSC_
	.p2align	2
	.type	_ZSt11__addressofIN8nlohmann10basic_jsonISt3mapSt6vectorNSt7__cxx1112basic_stringIcSt11char_traitsIcESaIcEEEblmdSaNS0_14adl_serializerEEEEPT_RSC_,@function
_ZSt11__addressofIN8nlohmann10basic_jsonISt3mapSt6vectorNSt7__cxx1112basic_stringIcSt11char_traitsIcESaIcEEEblmdSaNS0_14adl_serializerEEEEPT_RSC_: # @_ZSt11__addressofIN8nlohmann10basic_jsonISt3mapSt6vectorNSt7__cxx1112basic_stringIcSt11char_traitsIcESaIcEEEblmdSaNS0_14adl_serializerEEEEPT_RSC_
# %bb.0:                                # %entry
	addi	sp, sp, -32
	sd	ra, 24(sp)
	sd	s0, 16(sp)
	addi	s0, sp, 32
	sd	a0, -24(s0)
	ld	a0, -24(s0)
	ld	s0, 16(sp)
	ld	ra, 24(sp)
	addi	sp, sp, 32
	ret
.Lfunc_end121:
	.size	_ZSt11__addressofIN8nlohmann10basic_jsonISt3mapSt6vectorNSt7__cxx1112basic_stringIcSt11char_traitsIcESaIcEEEblmdSaNS0_14adl_serializerEEEEPT_RSC_, .Lfunc_end121-_ZSt11__addressofIN8nlohmann10basic_jsonISt3mapSt6vectorNSt7__cxx1112basic_stringIcSt11char_traitsIcESaIcEEEblmdSaNS0_14adl_serializerEEEEPT_RSC_
                                        # -- End function
	.section	.text._ZNSt12_Vector_baseIN8nlohmann10basic_jsonISt3mapSt6vectorNSt7__cxx1112basic_stringIcSt11char_traitsIcESaIcEEEblmdSaNS0_14adl_serializerEEESaISB_EE13_M_deallocateEPSB_m,"axG",@progbits,_ZNSt12_Vector_baseIN8nlohmann10basic_jsonISt3mapSt6vectorNSt7__cxx1112basic_stringIcSt11char_traitsIcESaIcEEEblmdSaNS0_14adl_serializerEEESaISB_EE13_M_deallocateEPSB_m,comdat
	.weak	_ZNSt12_Vector_baseIN8nlohmann10basic_jsonISt3mapSt6vectorNSt7__cxx1112basic_stringIcSt11char_traitsIcESaIcEEEblmdSaNS0_14adl_serializerEEESaISB_EE13_M_deallocateEPSB_m # -- Begin function _ZNSt12_Vector_baseIN8nlohmann10basic_jsonISt3mapSt6vectorNSt7__cxx1112basic_stringIcSt11char_traitsIcESaIcEEEblmdSaNS0_14adl_serializerEEESaISB_EE13_M_deallocateEPSB_m
	.p2align	2
	.type	_ZNSt12_Vector_baseIN8nlohmann10basic_jsonISt3mapSt6vectorNSt7__cxx1112basic_stringIcSt11char_traitsIcESaIcEEEblmdSaNS0_14adl_serializerEEESaISB_EE13_M_deallocateEPSB_m,@function
_ZNSt12_Vector_baseIN8nlohmann10basic_jsonISt3mapSt6vectorNSt7__cxx1112basic_stringIcSt11char_traitsIcESaIcEEEblmdSaNS0_14adl_serializerEEESaISB_EE13_M_deallocateEPSB_m: # @_ZNSt12_Vector_baseIN8nlohmann10basic_jsonISt3mapSt6vectorNSt7__cxx1112basic_stringIcSt11char_traitsIcESaIcEEEblmdSaNS0_14adl_serializerEEESaISB_EE13_M_deallocateEPSB_m
	.cfi_startproc
# %bb.0:                                # %entry
	addi	sp, sp, -64
	.cfi_def_cfa_offset 64
	sd	ra, 56(sp)
	sd	s0, 48(sp)
	.cfi_offset ra, -8
	.cfi_offset s0, -16
	addi	s0, sp, 64
	.cfi_def_cfa s0, 0
	sd	a0, -48(s0)
	sd	a1, -56(s0)
	sd	a2, -64(s0)
	ld	a0, -48(s0)
	ld	a1, -56(s0)
	beqz	a1, .LBB122_2
	j	.LBB122_1
.LBB122_1:                              # %if.then
	ld	a1, -56(s0)
	ld	a2, -64(s0)
	sd	a0, -24(s0)
	sd	a1, -32(s0)
	sd	a2, -40(s0)
	ld	a0, -24(s0)
	ld	a1, -32(s0)
	ld	a2, -40(s0)
	call	_ZNSt15__new_allocatorIN8nlohmann10basic_jsonISt3mapSt6vectorNSt7__cxx1112basic_stringIcSt11char_traitsIcESaIcEEEblmdSaNS0_14adl_serializerEEEE10deallocateEPSB_m
	j	.LBB122_2
.LBB122_2:                              # %if.end
	ld	s0, 48(sp)
	.cfi_def_cfa sp, 64
	ld	ra, 56(sp)
	.cfi_restore ra
	.cfi_restore s0
	addi	sp, sp, 64
	.cfi_def_cfa_offset 0
	ret
.Lfunc_end122:
	.size	_ZNSt12_Vector_baseIN8nlohmann10basic_jsonISt3mapSt6vectorNSt7__cxx1112basic_stringIcSt11char_traitsIcESaIcEEEblmdSaNS0_14adl_serializerEEESaISB_EE13_M_deallocateEPSB_m, .Lfunc_end122-_ZNSt12_Vector_baseIN8nlohmann10basic_jsonISt3mapSt6vectorNSt7__cxx1112basic_stringIcSt11char_traitsIcESaIcEEEblmdSaNS0_14adl_serializerEEESaISB_EE13_M_deallocateEPSB_m
	.cfi_endproc
                                        # -- End function
	.section	.text._ZNSt12_Vector_baseIN8nlohmann10basic_jsonISt3mapSt6vectorNSt7__cxx1112basic_stringIcSt11char_traitsIcESaIcEEEblmdSaNS0_14adl_serializerEEESaISB_EE12_Vector_implD2Ev,"axG",@progbits,_ZNSt12_Vector_baseIN8nlohmann10basic_jsonISt3mapSt6vectorNSt7__cxx1112basic_stringIcSt11char_traitsIcESaIcEEEblmdSaNS0_14adl_serializerEEESaISB_EE12_Vector_implD2Ev,comdat
	.weak	_ZNSt12_Vector_baseIN8nlohmann10basic_jsonISt3mapSt6vectorNSt7__cxx1112basic_stringIcSt11char_traitsIcESaIcEEEblmdSaNS0_14adl_serializerEEESaISB_EE12_Vector_implD2Ev # -- Begin function _ZNSt12_Vector_baseIN8nlohmann10basic_jsonISt3mapSt6vectorNSt7__cxx1112basic_stringIcSt11char_traitsIcESaIcEEEblmdSaNS0_14adl_serializerEEESaISB_EE12_Vector_implD2Ev
	.p2align	2
	.type	_ZNSt12_Vector_baseIN8nlohmann10basic_jsonISt3mapSt6vectorNSt7__cxx1112basic_stringIcSt11char_traitsIcESaIcEEEblmdSaNS0_14adl_serializerEEESaISB_EE12_Vector_implD2Ev,@function
_ZNSt12_Vector_baseIN8nlohmann10basic_jsonISt3mapSt6vectorNSt7__cxx1112basic_stringIcSt11char_traitsIcESaIcEEEblmdSaNS0_14adl_serializerEEESaISB_EE12_Vector_implD2Ev: # @_ZNSt12_Vector_baseIN8nlohmann10basic_jsonISt3mapSt6vectorNSt7__cxx1112basic_stringIcSt11char_traitsIcESaIcEEEblmdSaNS0_14adl_serializerEEESaISB_EE12_Vector_implD2Ev
# %bb.0:                                # %entry
	addi	sp, sp, -32
	sd	ra, 24(sp)
	sd	s0, 16(sp)
	addi	s0, sp, 32
	sd	a0, -32(s0)
	ld	a0, -32(s0)
	sd	a0, -24(s0)
	ld	a0, -24(s0)
	call	_ZNSt15__new_allocatorIN8nlohmann10basic_jsonISt3mapSt6vectorNSt7__cxx1112basic_stringIcSt11char_traitsIcESaIcEEEblmdSaNS0_14adl_serializerEEEED2Ev
	ld	s0, 16(sp)
	ld	ra, 24(sp)
	addi	sp, sp, 32
	ret
.Lfunc_end123:
	.size	_ZNSt12_Vector_baseIN8nlohmann10basic_jsonISt3mapSt6vectorNSt7__cxx1112basic_stringIcSt11char_traitsIcESaIcEEEblmdSaNS0_14adl_serializerEEESaISB_EE12_Vector_implD2Ev, .Lfunc_end123-_ZNSt12_Vector_baseIN8nlohmann10basic_jsonISt3mapSt6vectorNSt7__cxx1112basic_stringIcSt11char_traitsIcESaIcEEEblmdSaNS0_14adl_serializerEEESaISB_EE12_Vector_implD2Ev
                                        # -- End function
	.section	.text._ZNSt15__new_allocatorIN8nlohmann10basic_jsonISt3mapSt6vectorNSt7__cxx1112basic_stringIcSt11char_traitsIcESaIcEEEblmdSaNS0_14adl_serializerEEEE10deallocateEPSB_m,"axG",@progbits,_ZNSt15__new_allocatorIN8nlohmann10basic_jsonISt3mapSt6vectorNSt7__cxx1112basic_stringIcSt11char_traitsIcESaIcEEEblmdSaNS0_14adl_serializerEEEE10deallocateEPSB_m,comdat
	.weak	_ZNSt15__new_allocatorIN8nlohmann10basic_jsonISt3mapSt6vectorNSt7__cxx1112basic_stringIcSt11char_traitsIcESaIcEEEblmdSaNS0_14adl_serializerEEEE10deallocateEPSB_m # -- Begin function _ZNSt15__new_allocatorIN8nlohmann10basic_jsonISt3mapSt6vectorNSt7__cxx1112basic_stringIcSt11char_traitsIcESaIcEEEblmdSaNS0_14adl_serializerEEEE10deallocateEPSB_m
	.p2align	2
	.type	_ZNSt15__new_allocatorIN8nlohmann10basic_jsonISt3mapSt6vectorNSt7__cxx1112basic_stringIcSt11char_traitsIcESaIcEEEblmdSaNS0_14adl_serializerEEEE10deallocateEPSB_m,@function
_ZNSt15__new_allocatorIN8nlohmann10basic_jsonISt3mapSt6vectorNSt7__cxx1112basic_stringIcSt11char_traitsIcESaIcEEEblmdSaNS0_14adl_serializerEEEE10deallocateEPSB_m: # @_ZNSt15__new_allocatorIN8nlohmann10basic_jsonISt3mapSt6vectorNSt7__cxx1112basic_stringIcSt11char_traitsIcESaIcEEEblmdSaNS0_14adl_serializerEEEE10deallocateEPSB_m
# %bb.0:                                # %entry
	addi	sp, sp, -48
	sd	ra, 40(sp)
	sd	s0, 32(sp)
	addi	s0, sp, 48
	sd	a0, -24(s0)
	sd	a1, -32(s0)
	sd	a2, -40(s0)
	ld	a0, -32(s0)
	call	_ZdlPv
	ld	s0, 32(sp)
	ld	ra, 40(sp)
	addi	sp, sp, 48
	ret
.Lfunc_end124:
	.size	_ZNSt15__new_allocatorIN8nlohmann10basic_jsonISt3mapSt6vectorNSt7__cxx1112basic_stringIcSt11char_traitsIcESaIcEEEblmdSaNS0_14adl_serializerEEEE10deallocateEPSB_m, .Lfunc_end124-_ZNSt15__new_allocatorIN8nlohmann10basic_jsonISt3mapSt6vectorNSt7__cxx1112basic_stringIcSt11char_traitsIcESaIcEEEblmdSaNS0_14adl_serializerEEEE10deallocateEPSB_m
                                        # -- End function
	.section	.text._ZNSt15__new_allocatorIN8nlohmann10basic_jsonISt3mapSt6vectorNSt7__cxx1112basic_stringIcSt11char_traitsIcESaIcEEEblmdSaNS0_14adl_serializerEEEED2Ev,"axG",@progbits,_ZNSt15__new_allocatorIN8nlohmann10basic_jsonISt3mapSt6vectorNSt7__cxx1112basic_stringIcSt11char_traitsIcESaIcEEEblmdSaNS0_14adl_serializerEEEED2Ev,comdat
	.weak	_ZNSt15__new_allocatorIN8nlohmann10basic_jsonISt3mapSt6vectorNSt7__cxx1112basic_stringIcSt11char_traitsIcESaIcEEEblmdSaNS0_14adl_serializerEEEED2Ev # -- Begin function _ZNSt15__new_allocatorIN8nlohmann10basic_jsonISt3mapSt6vectorNSt7__cxx1112basic_stringIcSt11char_traitsIcESaIcEEEblmdSaNS0_14adl_serializerEEEED2Ev
	.p2align	2
	.type	_ZNSt15__new_allocatorIN8nlohmann10basic_jsonISt3mapSt6vectorNSt7__cxx1112basic_stringIcSt11char_traitsIcESaIcEEEblmdSaNS0_14adl_serializerEEEED2Ev,@function
_ZNSt15__new_allocatorIN8nlohmann10basic_jsonISt3mapSt6vectorNSt7__cxx1112basic_stringIcSt11char_traitsIcESaIcEEEblmdSaNS0_14adl_serializerEEEED2Ev: # @_ZNSt15__new_allocatorIN8nlohmann10basic_jsonISt3mapSt6vectorNSt7__cxx1112basic_stringIcSt11char_traitsIcESaIcEEEblmdSaNS0_14adl_serializerEEEED2Ev
# %bb.0:                                # %entry
	addi	sp, sp, -32
	sd	ra, 24(sp)
	sd	s0, 16(sp)
	addi	s0, sp, 32
	sd	a0, -24(s0)
	ld	s0, 16(sp)
	ld	ra, 24(sp)
	addi	sp, sp, 32
	ret
.Lfunc_end125:
	.size	_ZNSt15__new_allocatorIN8nlohmann10basic_jsonISt3mapSt6vectorNSt7__cxx1112basic_stringIcSt11char_traitsIcESaIcEEEblmdSaNS0_14adl_serializerEEEED2Ev, .Lfunc_end125-_ZNSt15__new_allocatorIN8nlohmann10basic_jsonISt3mapSt6vectorNSt7__cxx1112basic_stringIcSt11char_traitsIcESaIcEEEblmdSaNS0_14adl_serializerEEEED2Ev
                                        # -- End function
	.section	.text._ZNSt15__new_allocatorISt6vectorIN8nlohmann10basic_jsonISt3mapS0_NSt7__cxx1112basic_stringIcSt11char_traitsIcESaIcEEEblmdSaNS1_14adl_serializerEEESaISB_EEE10deallocateEPSD_m,"axG",@progbits,_ZNSt15__new_allocatorISt6vectorIN8nlohmann10basic_jsonISt3mapS0_NSt7__cxx1112basic_stringIcSt11char_traitsIcESaIcEEEblmdSaNS1_14adl_serializerEEESaISB_EEE10deallocateEPSD_m,comdat
	.weak	_ZNSt15__new_allocatorISt6vectorIN8nlohmann10basic_jsonISt3mapS0_NSt7__cxx1112basic_stringIcSt11char_traitsIcESaIcEEEblmdSaNS1_14adl_serializerEEESaISB_EEE10deallocateEPSD_m # -- Begin function _ZNSt15__new_allocatorISt6vectorIN8nlohmann10basic_jsonISt3mapS0_NSt7__cxx1112basic_stringIcSt11char_traitsIcESaIcEEEblmdSaNS1_14adl_serializerEEESaISB_EEE10deallocateEPSD_m
	.p2align	2
	.type	_ZNSt15__new_allocatorISt6vectorIN8nlohmann10basic_jsonISt3mapS0_NSt7__cxx1112basic_stringIcSt11char_traitsIcESaIcEEEblmdSaNS1_14adl_serializerEEESaISB_EEE10deallocateEPSD_m,@function
_ZNSt15__new_allocatorISt6vectorIN8nlohmann10basic_jsonISt3mapS0_NSt7__cxx1112basic_stringIcSt11char_traitsIcESaIcEEEblmdSaNS1_14adl_serializerEEESaISB_EEE10deallocateEPSD_m: # @_ZNSt15__new_allocatorISt6vectorIN8nlohmann10basic_jsonISt3mapS0_NSt7__cxx1112basic_stringIcSt11char_traitsIcESaIcEEEblmdSaNS1_14adl_serializerEEESaISB_EEE10deallocateEPSD_m
# %bb.0:                                # %entry
	addi	sp, sp, -48
	sd	ra, 40(sp)
	sd	s0, 32(sp)
	addi	s0, sp, 48
	sd	a0, -24(s0)
	sd	a1, -32(s0)
	sd	a2, -40(s0)
	ld	a0, -32(s0)
	call	_ZdlPv
	ld	s0, 32(sp)
	ld	ra, 40(sp)
	addi	sp, sp, 48
	ret
.Lfunc_end126:
	.size	_ZNSt15__new_allocatorISt6vectorIN8nlohmann10basic_jsonISt3mapS0_NSt7__cxx1112basic_stringIcSt11char_traitsIcESaIcEEEblmdSaNS1_14adl_serializerEEESaISB_EEE10deallocateEPSD_m, .Lfunc_end126-_ZNSt15__new_allocatorISt6vectorIN8nlohmann10basic_jsonISt3mapS0_NSt7__cxx1112basic_stringIcSt11char_traitsIcESaIcEEEblmdSaNS1_14adl_serializerEEESaISB_EEE10deallocateEPSD_m
                                        # -- End function
	.section	.text._ZNSt15__new_allocatorISt6vectorIN8nlohmann10basic_jsonISt3mapS0_NSt7__cxx1112basic_stringIcSt11char_traitsIcESaIcEEEblmdSaNS1_14adl_serializerEEESaISB_EEED2Ev,"axG",@progbits,_ZNSt15__new_allocatorISt6vectorIN8nlohmann10basic_jsonISt3mapS0_NSt7__cxx1112basic_stringIcSt11char_traitsIcESaIcEEEblmdSaNS1_14adl_serializerEEESaISB_EEED2Ev,comdat
	.weak	_ZNSt15__new_allocatorISt6vectorIN8nlohmann10basic_jsonISt3mapS0_NSt7__cxx1112basic_stringIcSt11char_traitsIcESaIcEEEblmdSaNS1_14adl_serializerEEESaISB_EEED2Ev # -- Begin function _ZNSt15__new_allocatorISt6vectorIN8nlohmann10basic_jsonISt3mapS0_NSt7__cxx1112basic_stringIcSt11char_traitsIcESaIcEEEblmdSaNS1_14adl_serializerEEESaISB_EEED2Ev
	.p2align	2
	.type	_ZNSt15__new_allocatorISt6vectorIN8nlohmann10basic_jsonISt3mapS0_NSt7__cxx1112basic_stringIcSt11char_traitsIcESaIcEEEblmdSaNS1_14adl_serializerEEESaISB_EEED2Ev,@function
_ZNSt15__new_allocatorISt6vectorIN8nlohmann10basic_jsonISt3mapS0_NSt7__cxx1112basic_stringIcSt11char_traitsIcESaIcEEEblmdSaNS1_14adl_serializerEEESaISB_EEED2Ev: # @_ZNSt15__new_allocatorISt6vectorIN8nlohmann10basic_jsonISt3mapS0_NSt7__cxx1112basic_stringIcSt11char_traitsIcESaIcEEEblmdSaNS1_14adl_serializerEEESaISB_EEED2Ev
# %bb.0:                                # %entry
	addi	sp, sp, -32
	sd	ra, 24(sp)
	sd	s0, 16(sp)
	addi	s0, sp, 32
	sd	a0, -24(s0)
	ld	s0, 16(sp)
	ld	ra, 24(sp)
	addi	sp, sp, 32
	ret
.Lfunc_end127:
	.size	_ZNSt15__new_allocatorISt6vectorIN8nlohmann10basic_jsonISt3mapS0_NSt7__cxx1112basic_stringIcSt11char_traitsIcESaIcEEEblmdSaNS1_14adl_serializerEEESaISB_EEED2Ev, .Lfunc_end127-_ZNSt15__new_allocatorISt6vectorIN8nlohmann10basic_jsonISt3mapS0_NSt7__cxx1112basic_stringIcSt11char_traitsIcESaIcEEEblmdSaNS1_14adl_serializerEEESaISB_EEED2Ev
                                        # -- End function
	.section	.text._ZNSt15__new_allocatorINSt7__cxx1112basic_stringIcSt11char_traitsIcESaIcEEEE10deallocateEPS5_m,"axG",@progbits,_ZNSt15__new_allocatorINSt7__cxx1112basic_stringIcSt11char_traitsIcESaIcEEEE10deallocateEPS5_m,comdat
	.weak	_ZNSt15__new_allocatorINSt7__cxx1112basic_stringIcSt11char_traitsIcESaIcEEEE10deallocateEPS5_m # -- Begin function _ZNSt15__new_allocatorINSt7__cxx1112basic_stringIcSt11char_traitsIcESaIcEEEE10deallocateEPS5_m
	.p2align	2
	.type	_ZNSt15__new_allocatorINSt7__cxx1112basic_stringIcSt11char_traitsIcESaIcEEEE10deallocateEPS5_m,@function
_ZNSt15__new_allocatorINSt7__cxx1112basic_stringIcSt11char_traitsIcESaIcEEEE10deallocateEPS5_m: # @_ZNSt15__new_allocatorINSt7__cxx1112basic_stringIcSt11char_traitsIcESaIcEEEE10deallocateEPS5_m
# %bb.0:                                # %entry
	addi	sp, sp, -48
	sd	ra, 40(sp)
	sd	s0, 32(sp)
	addi	s0, sp, 48
	sd	a0, -24(s0)
	sd	a1, -32(s0)
	sd	a2, -40(s0)
	ld	a0, -32(s0)
	call	_ZdlPv
	ld	s0, 32(sp)
	ld	ra, 40(sp)
	addi	sp, sp, 48
	ret
.Lfunc_end128:
	.size	_ZNSt15__new_allocatorINSt7__cxx1112basic_stringIcSt11char_traitsIcESaIcEEEE10deallocateEPS5_m, .Lfunc_end128-_ZNSt15__new_allocatorINSt7__cxx1112basic_stringIcSt11char_traitsIcESaIcEEEE10deallocateEPS5_m
                                        # -- End function
	.section	.text._ZNSt15__new_allocatorINSt7__cxx1112basic_stringIcSt11char_traitsIcESaIcEEEED2Ev,"axG",@progbits,_ZNSt15__new_allocatorINSt7__cxx1112basic_stringIcSt11char_traitsIcESaIcEEEED2Ev,comdat
	.weak	_ZNSt15__new_allocatorINSt7__cxx1112basic_stringIcSt11char_traitsIcESaIcEEEED2Ev # -- Begin function _ZNSt15__new_allocatorINSt7__cxx1112basic_stringIcSt11char_traitsIcESaIcEEEED2Ev
	.p2align	2
	.type	_ZNSt15__new_allocatorINSt7__cxx1112basic_stringIcSt11char_traitsIcESaIcEEEED2Ev,@function
_ZNSt15__new_allocatorINSt7__cxx1112basic_stringIcSt11char_traitsIcESaIcEEEED2Ev: # @_ZNSt15__new_allocatorINSt7__cxx1112basic_stringIcSt11char_traitsIcESaIcEEEED2Ev
# %bb.0:                                # %entry
	addi	sp, sp, -32
	sd	ra, 24(sp)
	sd	s0, 16(sp)
	addi	s0, sp, 32
	sd	a0, -24(s0)
	ld	s0, 16(sp)
	ld	ra, 24(sp)
	addi	sp, sp, 32
	ret
.Lfunc_end129:
	.size	_ZNSt15__new_allocatorINSt7__cxx1112basic_stringIcSt11char_traitsIcESaIcEEEED2Ev, .Lfunc_end129-_ZNSt15__new_allocatorINSt7__cxx1112basic_stringIcSt11char_traitsIcESaIcEEEED2Ev
                                        # -- End function
	.section	.text._ZNSt12_Vector_baseI6OptionSaIS0_EE19_M_get_Tp_allocatorEv,"axG",@progbits,_ZNSt12_Vector_baseI6OptionSaIS0_EE19_M_get_Tp_allocatorEv,comdat
	.weak	_ZNSt12_Vector_baseI6OptionSaIS0_EE19_M_get_Tp_allocatorEv # -- Begin function _ZNSt12_Vector_baseI6OptionSaIS0_EE19_M_get_Tp_allocatorEv
	.p2align	2
	.type	_ZNSt12_Vector_baseI6OptionSaIS0_EE19_M_get_Tp_allocatorEv,@function
_ZNSt12_Vector_baseI6OptionSaIS0_EE19_M_get_Tp_allocatorEv: # @_ZNSt12_Vector_baseI6OptionSaIS0_EE19_M_get_Tp_allocatorEv
# %bb.0:                                # %entry
	addi	sp, sp, -32
	sd	ra, 24(sp)
	sd	s0, 16(sp)
	addi	s0, sp, 32
	sd	a0, -24(s0)
	ld	a0, -24(s0)
	ld	s0, 16(sp)
	ld	ra, 24(sp)
	addi	sp, sp, 32
	ret
.Lfunc_end130:
	.size	_ZNSt12_Vector_baseI6OptionSaIS0_EE19_M_get_Tp_allocatorEv, .Lfunc_end130-_ZNSt12_Vector_baseI6OptionSaIS0_EE19_M_get_Tp_allocatorEv
                                        # -- End function
	.section	.text._ZNSt12_Vector_baseI6OptionSaIS0_EED2Ev,"axG",@progbits,_ZNSt12_Vector_baseI6OptionSaIS0_EED2Ev,comdat
	.weak	_ZNSt12_Vector_baseI6OptionSaIS0_EED2Ev # -- Begin function _ZNSt12_Vector_baseI6OptionSaIS0_EED2Ev
	.p2align	2
	.type	_ZNSt12_Vector_baseI6OptionSaIS0_EED2Ev,@function
_ZNSt12_Vector_baseI6OptionSaIS0_EED2Ev: # @_ZNSt12_Vector_baseI6OptionSaIS0_EED2Ev
.Lfunc_begin22:
	.cfi_startproc
	.cfi_personality 155, DW.ref.__gxx_personality_v0
	.cfi_lsda 27, .Lexception22
# %bb.0:                                # %entry
	addi	sp, sp, -48
	.cfi_def_cfa_offset 48
	sd	ra, 40(sp)
	sd	s0, 32(sp)
	sd	s1, 24(sp)
	.cfi_offset ra, -8
	.cfi_offset s0, -16
	.cfi_offset s1, -24
	addi	s0, sp, 48
	.cfi_def_cfa s0, 0
	sd	a0, -32(s0)
	ld	s1, -32(s0)
	ld	a1, 0(s1)
	ld	a0, 16(s1)
	sub	a0, a0, a1
	srai	a0, a0, 3
	lui	a2, 1019449
	addiw	a2, a2, -455
	slli	a2, a2, 12
	addi	a2, a2, -455
	slli	a2, a2, 12
	addi	a2, a2, -455
	slli	a2, a2, 12
	addi	a2, a2, -455
	mul	a2, a0, a2
.Ltmp114:
	mv	a0, s1
	call	_ZNSt12_Vector_baseI6OptionSaIS0_EE13_M_deallocateEPS0_m
.Ltmp115:
	j	.LBB131_1
.LBB131_1:                              # %invoke.cont
	mv	a0, s1
	call	_ZNSt12_Vector_baseI6OptionSaIS0_EE12_Vector_implD2Ev
	ld	s1, 24(sp)
	ld	s0, 32(sp)
	.cfi_def_cfa sp, 48
	ld	ra, 40(sp)
	.cfi_restore ra
	.cfi_restore s0
	.cfi_restore s1
	addi	sp, sp, 48
	.cfi_def_cfa_offset 0
	ret
.LBB131_2:                              # %lpad
.Ltmp116:
	sd	a0, -40(s0)
	sw	a1, -44(s0)
	mv	a0, s1
	call	_ZNSt12_Vector_baseI6OptionSaIS0_EE12_Vector_implD2Ev
	j	.LBB131_3
.LBB131_3:                              # %terminate.handler
	ld	a0, -40(s0)
	call	__clang_call_terminate
.Lfunc_end131:
	.size	_ZNSt12_Vector_baseI6OptionSaIS0_EED2Ev, .Lfunc_end131-_ZNSt12_Vector_baseI6OptionSaIS0_EED2Ev
	.cfi_endproc
	.section	.gcc_except_table,"a",@progbits
	.p2align	2
GCC_except_table131:
.Lexception22:
	.byte	255                     # @LPStart Encoding = omit
	.byte	155                     # @TType Encoding = indirect pcrel sdata4
	.uleb128 .Lttbase20-.Lttbaseref20
.Lttbaseref20:
	.byte	3                       # Call site Encoding = udata4
	.uleb128 .Lcst_end22-.Lcst_begin22
.Lcst_begin22:
	.word	.Ltmp114-.Lfunc_begin22 # >> Call Site 1 <<
	.word	.Ltmp115-.Ltmp114       #   Call between .Ltmp114 and .Ltmp115
	.word	.Ltmp116-.Lfunc_begin22 #     jumps to .Ltmp116
	.byte	1                       #   On action: 1
.Lcst_end22:
	.byte	1                       # >> Action Record 1 <<
                                        #   Catch TypeInfo 1
	.byte	0                       #   No further actions
	.p2align	2
                                        # >> Catch TypeInfos <<
	.word	0                       # TypeInfo 1
.Lttbase20:
	.p2align	2
                                        # -- End function
	.section	.text._ZSt8_DestroyIP6OptionEvT_S2_,"axG",@progbits,_ZSt8_DestroyIP6OptionEvT_S2_,comdat
	.weak	_ZSt8_DestroyIP6OptionEvT_S2_ # -- Begin function _ZSt8_DestroyIP6OptionEvT_S2_
	.p2align	2
	.type	_ZSt8_DestroyIP6OptionEvT_S2_,@function
_ZSt8_DestroyIP6OptionEvT_S2_:          # @_ZSt8_DestroyIP6OptionEvT_S2_
	.cfi_startproc
# %bb.0:                                # %entry
	addi	sp, sp, -32
	.cfi_def_cfa_offset 32
	sd	ra, 24(sp)
	sd	s0, 16(sp)
	.cfi_offset ra, -8
	.cfi_offset s0, -16
	addi	s0, sp, 32
	.cfi_def_cfa s0, 0
	sd	a0, -24(s0)
	sd	a1, -32(s0)
	ld	a0, -24(s0)
	ld	a1, -32(s0)
	call	_ZNSt12_Destroy_auxILb0EE9__destroyIP6OptionEEvT_S4_
	ld	s0, 16(sp)
	.cfi_def_cfa sp, 32
	ld	ra, 24(sp)
	.cfi_restore ra
	.cfi_restore s0
	addi	sp, sp, 32
	.cfi_def_cfa_offset 0
	ret
.Lfunc_end132:
	.size	_ZSt8_DestroyIP6OptionEvT_S2_, .Lfunc_end132-_ZSt8_DestroyIP6OptionEvT_S2_
	.cfi_endproc
                                        # -- End function
	.section	.text._ZNSt12_Destroy_auxILb0EE9__destroyIP6OptionEEvT_S4_,"axG",@progbits,_ZNSt12_Destroy_auxILb0EE9__destroyIP6OptionEEvT_S4_,comdat
	.weak	_ZNSt12_Destroy_auxILb0EE9__destroyIP6OptionEEvT_S4_ # -- Begin function _ZNSt12_Destroy_auxILb0EE9__destroyIP6OptionEEvT_S4_
	.p2align	2
	.type	_ZNSt12_Destroy_auxILb0EE9__destroyIP6OptionEEvT_S4_,@function
_ZNSt12_Destroy_auxILb0EE9__destroyIP6OptionEEvT_S4_: # @_ZNSt12_Destroy_auxILb0EE9__destroyIP6OptionEEvT_S4_
	.cfi_startproc
# %bb.0:                                # %entry
	addi	sp, sp, -32
	.cfi_def_cfa_offset 32
	sd	ra, 24(sp)
	sd	s0, 16(sp)
	.cfi_offset ra, -8
	.cfi_offset s0, -16
	addi	s0, sp, 32
	.cfi_def_cfa s0, 0
	sd	a0, -24(s0)
	sd	a1, -32(s0)
	j	.LBB133_1
.LBB133_1:                              # %for.cond
                                        # =>This Inner Loop Header: Depth=1
	ld	a0, -24(s0)
	ld	a1, -32(s0)
	beq	a0, a1, .LBB133_4
	j	.LBB133_2
.LBB133_2:                              # %for.body
                                        #   in Loop: Header=BB133_1 Depth=1
	ld	a0, -24(s0)
	call	_ZSt11__addressofI6OptionEPT_RS1_
	call	_ZSt8_DestroyI6OptionEvPT_
	j	.LBB133_3
.LBB133_3:                              # %for.inc
                                        #   in Loop: Header=BB133_1 Depth=1
	ld	a0, -24(s0)
	addi	a0, a0, 72
	sd	a0, -24(s0)
	j	.LBB133_1
.LBB133_4:                              # %for.end
	ld	s0, 16(sp)
	.cfi_def_cfa sp, 32
	ld	ra, 24(sp)
	.cfi_restore ra
	.cfi_restore s0
	addi	sp, sp, 32
	.cfi_def_cfa_offset 0
	ret
.Lfunc_end133:
	.size	_ZNSt12_Destroy_auxILb0EE9__destroyIP6OptionEEvT_S4_, .Lfunc_end133-_ZNSt12_Destroy_auxILb0EE9__destroyIP6OptionEEvT_S4_
	.cfi_endproc
                                        # -- End function
	.section	.text._ZSt8_DestroyI6OptionEvPT_,"axG",@progbits,_ZSt8_DestroyI6OptionEvPT_,comdat
	.weak	_ZSt8_DestroyI6OptionEvPT_ # -- Begin function _ZSt8_DestroyI6OptionEvPT_
	.p2align	2
	.type	_ZSt8_DestroyI6OptionEvPT_,@function
_ZSt8_DestroyI6OptionEvPT_:             # @_ZSt8_DestroyI6OptionEvPT_
# %bb.0:                                # %entry
	addi	sp, sp, -32
	sd	ra, 24(sp)
	sd	s0, 16(sp)
	addi	s0, sp, 32
	sd	a0, -24(s0)
	ld	a0, -24(s0)
	call	_ZN6OptionD2Ev
	ld	s0, 16(sp)
	ld	ra, 24(sp)
	addi	sp, sp, 32
	ret
.Lfunc_end134:
	.size	_ZSt8_DestroyI6OptionEvPT_, .Lfunc_end134-_ZSt8_DestroyI6OptionEvPT_
                                        # -- End function
	.section	.text._ZSt11__addressofI6OptionEPT_RS1_,"axG",@progbits,_ZSt11__addressofI6OptionEPT_RS1_,comdat
	.weak	_ZSt11__addressofI6OptionEPT_RS1_ # -- Begin function _ZSt11__addressofI6OptionEPT_RS1_
	.p2align	2
	.type	_ZSt11__addressofI6OptionEPT_RS1_,@function
_ZSt11__addressofI6OptionEPT_RS1_:      # @_ZSt11__addressofI6OptionEPT_RS1_
# %bb.0:                                # %entry
	addi	sp, sp, -32
	sd	ra, 24(sp)
	sd	s0, 16(sp)
	addi	s0, sp, 32
	sd	a0, -24(s0)
	ld	a0, -24(s0)
	ld	s0, 16(sp)
	ld	ra, 24(sp)
	addi	sp, sp, 32
	ret
.Lfunc_end135:
	.size	_ZSt11__addressofI6OptionEPT_RS1_, .Lfunc_end135-_ZSt11__addressofI6OptionEPT_RS1_
                                        # -- End function
	.section	.text._ZNSt12_Vector_baseI6OptionSaIS0_EE13_M_deallocateEPS0_m,"axG",@progbits,_ZNSt12_Vector_baseI6OptionSaIS0_EE13_M_deallocateEPS0_m,comdat
	.weak	_ZNSt12_Vector_baseI6OptionSaIS0_EE13_M_deallocateEPS0_m # -- Begin function _ZNSt12_Vector_baseI6OptionSaIS0_EE13_M_deallocateEPS0_m
	.p2align	2
	.type	_ZNSt12_Vector_baseI6OptionSaIS0_EE13_M_deallocateEPS0_m,@function
_ZNSt12_Vector_baseI6OptionSaIS0_EE13_M_deallocateEPS0_m: # @_ZNSt12_Vector_baseI6OptionSaIS0_EE13_M_deallocateEPS0_m
	.cfi_startproc
# %bb.0:                                # %entry
	addi	sp, sp, -64
	.cfi_def_cfa_offset 64
	sd	ra, 56(sp)
	sd	s0, 48(sp)
	.cfi_offset ra, -8
	.cfi_offset s0, -16
	addi	s0, sp, 64
	.cfi_def_cfa s0, 0
	sd	a0, -48(s0)
	sd	a1, -56(s0)
	sd	a2, -64(s0)
	ld	a0, -48(s0)
	ld	a1, -56(s0)
	beqz	a1, .LBB136_2
	j	.LBB136_1
.LBB136_1:                              # %if.then
	ld	a1, -56(s0)
	ld	a2, -64(s0)
	sd	a0, -24(s0)
	sd	a1, -32(s0)
	sd	a2, -40(s0)
	ld	a0, -24(s0)
	ld	a1, -32(s0)
	ld	a2, -40(s0)
	call	_ZNSt15__new_allocatorI6OptionE10deallocateEPS0_m
	j	.LBB136_2
.LBB136_2:                              # %if.end
	ld	s0, 48(sp)
	.cfi_def_cfa sp, 64
	ld	ra, 56(sp)
	.cfi_restore ra
	.cfi_restore s0
	addi	sp, sp, 64
	.cfi_def_cfa_offset 0
	ret
.Lfunc_end136:
	.size	_ZNSt12_Vector_baseI6OptionSaIS0_EE13_M_deallocateEPS0_m, .Lfunc_end136-_ZNSt12_Vector_baseI6OptionSaIS0_EE13_M_deallocateEPS0_m
	.cfi_endproc
                                        # -- End function
	.section	.text._ZNSt12_Vector_baseI6OptionSaIS0_EE12_Vector_implD2Ev,"axG",@progbits,_ZNSt12_Vector_baseI6OptionSaIS0_EE12_Vector_implD2Ev,comdat
	.weak	_ZNSt12_Vector_baseI6OptionSaIS0_EE12_Vector_implD2Ev # -- Begin function _ZNSt12_Vector_baseI6OptionSaIS0_EE12_Vector_implD2Ev
	.p2align	2
	.type	_ZNSt12_Vector_baseI6OptionSaIS0_EE12_Vector_implD2Ev,@function
_ZNSt12_Vector_baseI6OptionSaIS0_EE12_Vector_implD2Ev: # @_ZNSt12_Vector_baseI6OptionSaIS0_EE12_Vector_implD2Ev
# %bb.0:                                # %entry
	addi	sp, sp, -32
	sd	ra, 24(sp)
	sd	s0, 16(sp)
	addi	s0, sp, 32
	sd	a0, -32(s0)
	ld	a0, -32(s0)
	sd	a0, -24(s0)
	ld	a0, -24(s0)
	call	_ZNSt15__new_allocatorI6OptionED2Ev
	ld	s0, 16(sp)
	ld	ra, 24(sp)
	addi	sp, sp, 32
	ret
.Lfunc_end137:
	.size	_ZNSt12_Vector_baseI6OptionSaIS0_EE12_Vector_implD2Ev, .Lfunc_end137-_ZNSt12_Vector_baseI6OptionSaIS0_EE12_Vector_implD2Ev
                                        # -- End function
	.section	.text._ZNSt15__new_allocatorI6OptionE10deallocateEPS0_m,"axG",@progbits,_ZNSt15__new_allocatorI6OptionE10deallocateEPS0_m,comdat
