	.text
	.file	"bvh.cpp"
	.section	.sdata,"aw",@progbits
	.p2align	3               # -- Begin function _ZN3BVHC2ERK11BoundingBoxRKSt6vectorISt10shared_ptrIN7Surface4BaseEESaIS7_EERKN8nlohmann10basic_jsonISt3mapS3_NSt7__cxx1112basic_stringIcSt11char_traitsIcESaIcEEEblmdSaNSC_14adl_serializerEEE
.LCPI0_0:
	.quad	4611686018427387904     # double 2
	.text
	.globl	_ZN3BVHC2ERK11BoundingBoxRKSt6vectorISt10shared_ptrIN7Surface4BaseEESaIS7_EERKN8nlohmann10basic_jsonISt3mapS3_NSt7__cxx1112basic_stringIcSt11char_traitsIcESaIcEEEblmdSaNSC_14adl_serializerEEE
	.p2align	2
	.type	_ZN3BVHC2ERK11BoundingBoxRKSt6vectorISt10shared_ptrIN7Surface4BaseEESaIS7_EERKN8nlohmann10basic_jsonISt3mapS3_NSt7__cxx1112basic_stringIcSt11char_traitsIcESaIcEEEblmdSaNSC_14adl_serializerEEE,@function
_ZN3BVHC2ERK11BoundingBoxRKSt6vectorISt10shared_ptrIN7Surface4BaseEESaIS7_EERKN8nlohmann10basic_jsonISt3mapS3_NSt7__cxx1112basic_stringIcSt11char_traitsIcESaIcEEEblmdSaNSC_14adl_serializerEEE: # @_ZN3BVHC2ERK11BoundingBoxRKSt6vectorISt10shared_ptrIN7Surface4BaseEESaIS7_EERKN8nlohmann10basic_jsonISt3mapS3_NSt7__cxx1112basic_stringIcSt11char_traitsIcESaIcEEEblmdSaNSC_14adl_serializerEEE
.Lfunc_begin0:
	.cfi_startproc
	.cfi_personality 155, DW.ref.__gxx_personality_v0
	.cfi_lsda 27, .Lexception0
# %bb.0:                                # %entry
	addi	sp, sp, -1088
	.cfi_def_cfa_offset 1088
	sd	ra, 1080(sp)
	sd	s0, 1072(sp)
	sd	s1, 1064(sp)
	sd	s2, 1056(sp)
	sd	s3, 1048(sp)
	sd	s4, 1040(sp)
	sd	s5, 1032(sp)
	sd	s6, 1024(sp)
	.cfi_offset ra, -8
	.cfi_offset s0, -16
	.cfi_offset s1, -24
	.cfi_offset s2, -32
	.cfi_offset s3, -40
	.cfi_offset s4, -48
	.cfi_offset s5, -56
	.cfi_offset s6, -64
	addi	s0, sp, 1088
	.cfi_def_cfa s0, 0
	andi	sp, sp, -64
	sd	a0, 1016(sp)
	sd	a1, 1008(sp)
	sd	a2, 1000(sp)
	sd	a3, 992(sp)
	ld	s4, 1016(sp)
	mv	a0, s4
	call	_ZNSt3mapImmSt4lessImESaISt4pairIKmmEEEC2Ev
	addi	a0, zero, 16
	sw	a0, 48(s4)
	addi	s2, s4, 56
	mv	a0, s2
	call	_ZNSt6vectorIN3BVH10LinearNodeESaIS1_EEC2Ev
	addi	s3, s4, 80
	mv	a0, s3
	call	_ZNSt6vectorISt10shared_ptrIN7Surface4BaseEESaIS3_EEC2Ev
	sw	zero, 104(s4)
.Ltmp0:
	addi	a0, sp, 976
	call	_ZSt11make_sharedIN3BVH9BuildNodeEJEESt10shared_ptrIT_EDpOT0_
.Ltmp1:
	j	.LBB0_1
.LBB0_1:                                # %invoke.cont
	ld	s1, 1008(sp)
	addi	a0, sp, 976
	call	_ZNKSt19__shared_ptr_accessIN3BVH9BuildNodeELN9__gnu_cxx12_Lock_policyE0ELb0ELb0EEptEv
	ld	a1, 40(s1)
	sd	a1, 40(a0)
	ld	a1, 32(s1)
	sd	a1, 32(a0)
	ld	a1, 24(s1)
	sd	a1, 24(a0)
	ld	a1, 16(s1)
	sd	a1, 16(a0)
	ld	a1, 8(s1)
	sd	a1, 8(a0)
	ld	a1, 0(s1)
	sd	a1, 0(a0)
	ld	s5, 992(sp)
	addi	s1, sp, 888
	mv	a0, s1
	call	_ZNSaIcEC1Ev
.Ltmp3:
	lui	a0, %hi(.L.str)
	addi	a1, a0, %lo(.L.str)
	addi	a0, sp, 896
	mv	a2, s1
	call	_ZNSt7__cxx1112basic_stringIcSt11char_traitsIcESaIcEEC2IS3_EEPKcRKS3_
.Ltmp4:
	j	.LBB0_2
.LBB0_2:                                # %invoke.cont4
	addi	s1, sp, 848
	mv	a0, s1
	call	_ZNSaIcEC1Ev
.Ltmp6:
	lui	a0, %hi(.L.str.1)
	addi	a1, a0, %lo(.L.str.1)
	addi	a0, sp, 856
	mv	a2, s1
	call	_ZNSt7__cxx1112basic_stringIcSt11char_traitsIcESaIcEEC2IS3_EEPKcRKS3_
.Ltmp7:
	j	.LBB0_3
.LBB0_3:                                # %invoke.cont8
.Ltmp9:
	addi	a0, sp, 928
	addi	a2, sp, 896
	addi	a3, sp, 856
	mv	a1, s5
	call	_Z11getOptionalINSt7__cxx1112basic_stringIcSt11char_traitsIcESaIcEEEET_RKN8nlohmann10basic_jsonISt3mapSt6vectorS5_blmdSaNS7_14adl_serializerEEES5_S6_
.Ltmp10:
	j	.LBB0_4
.LBB0_4:                                # %invoke.cont10
	addi	a0, sp, 856
	call	_ZNSt7__cxx1112basic_stringIcSt11char_traitsIcESaIcEED1Ev
	addi	a0, sp, 848
	call	_ZNSaIcED1Ev
	addi	a0, sp, 896
	call	_ZNSt7__cxx1112basic_stringIcSt11char_traitsIcESaIcEED1Ev
	addi	a0, sp, 888
	call	_ZNSaIcED1Ev
	addi	s1, sp, 928
	mv	a0, s1
	call	_ZNSt7__cxx1112basic_stringIcSt11char_traitsIcESaIcEE5beginEv
	sd	a0, 840(sp)
	mv	a0, s1
	call	_ZNSt7__cxx1112basic_stringIcSt11char_traitsIcESaIcEE3endEv
	sd	a0, 832(sp)
	mv	a0, s1
	call	_ZNSt7__cxx1112basic_stringIcSt11char_traitsIcESaIcEE5beginEv
	sd	a0, 824(sp)
	ld	a0, 840(sp)
	ld	a1, 832(sp)
	ld	a2, 824(sp)
.Ltmp12:
	lui	a3, %hi(toupper)
	addi	a3, a3, %lo(toupper)
	call	_ZSt9transformIN9__gnu_cxx17__normal_iteratorIPcNSt7__cxx1112basic_stringIcSt11char_traitsIcESaIcEEEEES9_PFiiEET0_T_SD_SC_T1_
.Ltmp13:
	j	.LBB0_5
.LBB0_5:                                # %invoke.cont29
	sd	a0, 816(sp)
.Ltmp14:
	lui	a0, %hi(.L.str.2)
	addi	a1, a0, %lo(.L.str.2)
	addi	a0, sp, 928
	call	_ZSteqIcSt11char_traitsIcESaIcEEbRKNSt7__cxx1112basic_stringIT_T0_T1_EEPKS5_
.Ltmp15:
	j	.LBB0_6
.LBB0_6:                                # %invoke.cont33
	andi	a0, a0, 1
	beqz	a0, .LBB0_24
	j	.LBB0_7
.LBB0_7:                                # %if.then
	ld	s5, 992(sp)
	addi	s1, sp, 776
	mv	a0, s1
	call	_ZNSaIcEC1Ev
.Ltmp58:
	lui	a0, %hi(.L.str.3)
	addi	a1, a0, %lo(.L.str.3)
	addi	a0, sp, 784
	mv	a2, s1
	call	_ZNSt7__cxx1112basic_stringIcSt11char_traitsIcESaIcEEC2IS3_EEPKcRKS3_
.Ltmp59:
	j	.LBB0_8
.LBB0_8:                                # %invoke.cont38
.Ltmp61:
	addi	a1, sp, 784
	mv	a0, s5
	addi	a2, zero, 8
	call	_Z11getOptionalIiET_RKN8nlohmann10basic_jsonISt3mapSt6vectorNSt7__cxx1112basic_stringIcSt11char_traitsIcESaIcEEEblmdSaNS1_14adl_serializerEEESA_S0_
.Ltmp62:
	j	.LBB0_9
.LBB0_9:                                # %invoke.cont40
	sw	a0, 48(s4)
	addi	a0, sp, 784
	call	_ZNSt7__cxx1112basic_stringIcSt11char_traitsIcESaIcEED1Ev
	addi	a0, sp, 776
	call	_ZNSaIcED1Ev
.Ltmp64:
	lui	a0, %hi(.L.str.4)
	addi	a0, a0, %lo(.L.str.4)
	call	printf
.Ltmp65:
	j	.LBB0_10
.LBB0_10:                               # %invoke.cont45
	ld	s1, 1000(sp)
	addi	a0, sp, 976
	call	_ZNKSt19__shared_ptr_accessIN3BVH9BuildNodeELN9__gnu_cxx12_Lock_policyE0ELb0ELb0EEptEv
	addi	a0, a0, 72
.Ltmp66:
	mv	a1, s1
	call	_ZNSt6vectorISt10shared_ptrIN7Surface4BaseEESaIS3_EEaSERKS5_
.Ltmp67:
	j	.LBB0_11
.LBB0_11:                               # %invoke.cont49
	addi	s1, sp, 760
	addi	a1, sp, 976
	mv	a0, s1
	call	_ZNSt10shared_ptrIN3BVH9BuildNodeEEC2ERKS2_
.Ltmp68:
	mv	a0, s4
	mv	a1, s1
	call	_ZN3BVH27recursiveBuildQuaternarySAHESt10shared_ptrINS_9BuildNodeEE
.Ltmp69:
	j	.LBB0_12
.LBB0_12:                               # %invoke.cont53
	addi	a0, sp, 760
	call	_ZNSt10shared_ptrIN3BVH9BuildNodeEED2Ev
	j	.LBB0_59
.LBB0_13:                               # %lpad
.Ltmp2:
	sd	a0, 968(sp)
	sw	a1, 964(sp)
	j	.LBB0_74
.LBB0_14:                               # %lpad3
.Ltmp5:
	sd	a0, 968(sp)
	sw	a1, 964(sp)
	j	.LBB0_18
.LBB0_15:                               # %lpad7
.Ltmp8:
	sd	a0, 968(sp)
	sw	a1, 964(sp)
	j	.LBB0_17
.LBB0_16:                               # %lpad9
.Ltmp11:
	sd	a0, 968(sp)
	sw	a1, 964(sp)
	addi	a0, sp, 856
	call	_ZNSt7__cxx1112basic_stringIcSt11char_traitsIcESaIcEED1Ev
	j	.LBB0_17
.LBB0_17:                               # %ehcleanup
	addi	a0, sp, 848
	call	_ZNSaIcED1Ev
	addi	a0, sp, 896
	call	_ZNSt7__cxx1112basic_stringIcSt11char_traitsIcESaIcEED1Ev
	j	.LBB0_18
.LBB0_18:                               # %ehcleanup12
	addi	a0, sp, 888
	call	_ZNSaIcED1Ev
	j	.LBB0_73
.LBB0_19:                               # %lpad28
.Ltmp84:
	sd	a0, 968(sp)
	sw	a1, 964(sp)
	j	.LBB0_72
.LBB0_20:                               # %lpad37
.Ltmp60:
	sd	a0, 968(sp)
	sw	a1, 964(sp)
	j	.LBB0_22
.LBB0_21:                               # %lpad39
.Ltmp63:
	sd	a0, 968(sp)
	sw	a1, 964(sp)
	addi	a0, sp, 784
	call	_ZNSt7__cxx1112basic_stringIcSt11char_traitsIcESaIcEED1Ev
	j	.LBB0_22
.LBB0_22:                               # %ehcleanup44
	addi	a0, sp, 776
	call	_ZNSaIcED1Ev
	j	.LBB0_72
.LBB0_23:                               # %lpad52
.Ltmp70:
	sd	a0, 968(sp)
	sw	a1, 964(sp)
	addi	a0, sp, 760
	call	_ZNSt10shared_ptrIN3BVH9BuildNodeEED2Ev
	j	.LBB0_72
.LBB0_24:                               # %if.else
.Ltmp16:
	lui	a0, %hi(.L.str.5)
	addi	a1, a0, %lo(.L.str.5)
	addi	a0, sp, 928
	call	_ZSteqIcSt11char_traitsIcESaIcEEbRKNSt7__cxx1112basic_stringIT_T0_T1_EEPKS5_
.Ltmp17:
	j	.LBB0_25
.LBB0_25:                               # %invoke.cont55
	andi	a0, a0, 1
	beqz	a0, .LBB0_36
	j	.LBB0_26
.LBB0_26:                               # %if.then57
	ld	s5, 992(sp)
	addi	s1, sp, 720
	mv	a0, s1
	call	_ZNSaIcEC1Ev
.Ltmp45:
	lui	a0, %hi(.L.str.3)
	addi	a1, a0, %lo(.L.str.3)
	addi	a0, sp, 728
	mv	a2, s1
	call	_ZNSt7__cxx1112basic_stringIcSt11char_traitsIcESaIcEEC2IS3_EEPKcRKS3_
.Ltmp46:
	j	.LBB0_27
.LBB0_27:                               # %invoke.cont61
.Ltmp48:
	addi	a1, sp, 728
	mv	a0, s5
	addi	a2, zero, 16
	call	_Z11getOptionalIiET_RKN8nlohmann10basic_jsonISt3mapSt6vectorNSt7__cxx1112basic_stringIcSt11char_traitsIcESaIcEEEblmdSaNS1_14adl_serializerEEESA_S0_
.Ltmp49:
	j	.LBB0_28
.LBB0_28:                               # %invoke.cont63
	sw	a0, 48(s4)
	addi	a0, sp, 728
	call	_ZNSt7__cxx1112basic_stringIcSt11char_traitsIcESaIcEED1Ev
	addi	a0, sp, 720
	call	_ZNSaIcED1Ev
.Ltmp51:
	lui	a0, %hi(.L.str.6)
	addi	a0, a0, %lo(.L.str.6)
	call	printf
.Ltmp52:
	j	.LBB0_29
.LBB0_29:                               # %invoke.cont68
	ld	s1, 1000(sp)
	addi	a0, sp, 976
	call	_ZNKSt19__shared_ptr_accessIN3BVH9BuildNodeELN9__gnu_cxx12_Lock_policyE0ELb0ELb0EEptEv
	addi	a0, a0, 72
.Ltmp53:
	mv	a1, s1
	call	_ZNSt6vectorISt10shared_ptrIN7Surface4BaseEESaIS3_EEaSERKS5_
.Ltmp54:
	j	.LBB0_30
.LBB0_30:                               # %invoke.cont72
	addi	s1, sp, 704
	addi	a1, sp, 976
	mv	a0, s1
	call	_ZNSt10shared_ptrIN3BVH9BuildNodeEEC2ERKS2_
.Ltmp55:
	mv	a0, s4
	mv	a1, s1
	call	_ZN3BVH23recursiveBuildBinarySAHESt10shared_ptrINS_9BuildNodeEE
.Ltmp56:
	j	.LBB0_31
.LBB0_31:                               # %invoke.cont76
	addi	a0, sp, 704
	call	_ZNSt10shared_ptrIN3BVH9BuildNodeEED2Ev
	j	.LBB0_58
.LBB0_32:                               # %lpad60
.Ltmp47:
	sd	a0, 968(sp)
	sw	a1, 964(sp)
	j	.LBB0_34
.LBB0_33:                               # %lpad62
.Ltmp50:
	sd	a0, 968(sp)
	sw	a1, 964(sp)
	addi	a0, sp, 728
	call	_ZNSt7__cxx1112basic_stringIcSt11char_traitsIcESaIcEED1Ev
	j	.LBB0_34
.LBB0_34:                               # %ehcleanup67
	addi	a0, sp, 720
	call	_ZNSaIcED1Ev
	j	.LBB0_72
.LBB0_35:                               # %lpad75
.Ltmp57:
	sd	a0, 968(sp)
	sw	a1, 964(sp)
	addi	a0, sp, 704
	call	_ZNSt10shared_ptrIN3BVH9BuildNodeEED2Ev
	j	.LBB0_72
.LBB0_36:                               # %if.else78
.Ltmp18:
	lui	a0, %hi(.L.str.7)
	addi	a0, a0, %lo(.L.str.7)
	call	printf
.Ltmp19:
	j	.LBB0_37
.LBB0_37:                               # %invoke.cont79
	addi	a0, sp, 976
	call	_ZNKSt19__shared_ptr_accessIN3BVH9BuildNodeELN9__gnu_cxx12_Lock_policyE0ELb0ELb0EEptEv
	mv	a1, a0
.Ltmp20:
	addi	a0, sp, 672
	call	_ZNK11BoundingBox10dimensionsEv
.Ltmp21:
	j	.LBB0_38
.LBB0_38:                               # %invoke.cont84
.Ltmp22:
	addi	a0, sp, 672
	call	_ZN3glm7compMaxILi3EdLNS_9qualifierE0EEET0_RKNS_3vecIXT_ES2_XT1_EEE
.Ltmp23:
	fmv.d.x	ft0, a0
	j	.LBB0_39
.LBB0_39:                               # %invoke.cont85
	lui	a0, %hi(.LCPI0_0)
	addi	a0, a0, %lo(.LCPI0_0)
	fld	ft1, 0(a0)
	fdiv.d	ft0, ft0, ft1
	fsd	ft0, 696(sp)
	addi	a0, sp, 976
	call	_ZNKSt19__shared_ptr_accessIN3BVH9BuildNodeELN9__gnu_cxx12_Lock_policyE0ELb0ELb0EEptEv
	mv	a1, a0
.Ltmp24:
	addi	a0, sp, 576
	call	_ZNK11BoundingBox8centroidEv
.Ltmp25:
	j	.LBB0_40
.LBB0_40:                               # %invoke.cont91
	ld	a2, 696(sp)
.Ltmp26:
	addi	a0, sp, 600
	addi	a1, sp, 576
	call	_ZN3glmmiIdLNS_9qualifierE0EEENS_3vecILi3ET_XT0_EEERKS4_S3_
.Ltmp27:
	j	.LBB0_41
.LBB0_41:                               # %invoke.cont92
	addi	a0, sp, 976
	call	_ZNKSt19__shared_ptr_accessIN3BVH9BuildNodeELN9__gnu_cxx12_Lock_policyE0ELb0ELb0EEptEv
	mv	a1, a0
.Ltmp28:
	addi	a0, sp, 528
	call	_ZNK11BoundingBox8centroidEv
.Ltmp29:
	j	.LBB0_42
.LBB0_42:                               # %invoke.cont97
	ld	a2, 696(sp)
.Ltmp30:
	addi	a0, sp, 552
	addi	a1, sp, 528
	call	_ZN3glmplIdLNS_9qualifierE0EEENS_3vecILi3ET_XT0_EEERKS4_S3_
.Ltmp31:
	j	.LBB0_43
.LBB0_43:                               # %invoke.cont98
.Ltmp32:
	addi	a0, sp, 624
	addi	a1, sp, 600
	addi	a2, sp, 552
	call	_ZN11BoundingBoxC2EN3glm3vecILi3EdLNS0_9qualifierE0EEES3_
.Ltmp33:
	j	.LBB0_44
.LBB0_44:                               # %invoke.cont99
.Ltmp34:
	addi	a0, sp, 424
	addi	a1, sp, 624
	addi	a2, zero, 8
	call	_ZN6OctreeIN3BVH15SurfaceCentroidEEC2ERK11BoundingBoxm
.Ltmp35:
	j	.LBB0_45
.LBB0_45:                               # %invoke.cont100
	ld	a0, 1000(sp)
	sd	a0, 416(sp)
	ld	a0, 416(sp)
	call	_ZNKSt6vectorISt10shared_ptrIN7Surface4BaseEESaIS3_EE5beginEv
	sd	a0, 408(sp)
	ld	a0, 416(sp)
	call	_ZNKSt6vectorISt10shared_ptrIN7Surface4BaseEESaIS3_EE3endEv
	sd	a0, 400(sp)
	j	.LBB0_46
.LBB0_46:                               # %for.cond
                                        # =>This Inner Loop Header: Depth=1
	addi	a0, sp, 408
	addi	a1, sp, 400
	call	_ZN9__gnu_cxxneIPKSt10shared_ptrIN7Surface4BaseEESt6vectorIS4_SaIS4_EEEEbRKNS_17__normal_iteratorIT_T0_EESF_
	beqz	a0, .LBB0_54
	j	.LBB0_47
.LBB0_47:                               # %for.body
                                        #   in Loop: Header=BB0_46 Depth=1
	addi	a0, sp, 408
	call	_ZNK9__gnu_cxx17__normal_iteratorIPKSt10shared_ptrIN7Surface4BaseEESt6vectorIS4_SaIS4_EEEdeEv
	sd	a0, 392(sp)
	ld	a1, 392(sp)
	addi	s1, sp, 336
	mv	a0, s1
	call	_ZNSt10shared_ptrIN7Surface4BaseEEC2ERKS2_
.Ltmp39:
	addi	a0, sp, 352
	mv	a1, s1
	call	_ZN3BVH15SurfaceCentroidC1ESt10shared_ptrIN7Surface4BaseEE
.Ltmp40:
	j	.LBB0_48
.LBB0_48:                               # %invoke.cont112
                                        #   in Loop: Header=BB0_46 Depth=1
.Ltmp42:
	addi	a0, sp, 424
	addi	a1, sp, 352
	call	_ZN6OctreeIN3BVH15SurfaceCentroidEE6insertERKS1_
.Ltmp43:
	j	.LBB0_49
.LBB0_49:                               # %invoke.cont114
                                        #   in Loop: Header=BB0_46 Depth=1
	addi	a0, sp, 352
	call	_ZN3BVH15SurfaceCentroidD2Ev
	addi	a0, sp, 336
	call	_ZNSt10shared_ptrIN7Surface4BaseEED2Ev
	j	.LBB0_50
.LBB0_50:                               # %for.inc
                                        #   in Loop: Header=BB0_46 Depth=1
	addi	a0, sp, 408
	call	_ZN9__gnu_cxx17__normal_iteratorIPKSt10shared_ptrIN7Surface4BaseEESt6vectorIS4_SaIS4_EEEppEv
	j	.LBB0_46
.LBB0_51:                               # %lpad111
.Ltmp41:
	sd	a0, 968(sp)
	sw	a1, 964(sp)
	j	.LBB0_53
.LBB0_52:                               # %lpad113
.Ltmp44:
	sd	a0, 968(sp)
	sw	a1, 964(sp)
	addi	a0, sp, 352
	call	_ZN3BVH15SurfaceCentroidD2Ev
	j	.LBB0_53
.LBB0_53:                               # %ehcleanup116
	addi	a0, sp, 336
	call	_ZNSt10shared_ptrIN7Surface4BaseEED2Ev
	j	.LBB0_57
.LBB0_54:                               # %for.end
	addi	s1, sp, 320
	addi	a1, sp, 976
	mv	a0, s1
	call	_ZNSt10shared_ptrIN3BVH9BuildNodeEEC2ERKS2_
.Ltmp36:
	addi	a1, sp, 424
	mv	a0, s4
	mv	a2, s1
	call	_ZN3BVH24recursiveBuildFromOctreeERK6OctreeINS_15SurfaceCentroidEESt10shared_ptrINS_9BuildNodeEE
.Ltmp37:
	j	.LBB0_55
.LBB0_55:                               # %invoke.cont120
	addi	a0, sp, 320
	call	_ZNSt10shared_ptrIN3BVH9BuildNodeEED2Ev
	addi	a0, sp, 424
	call	_ZN6OctreeIN3BVH15SurfaceCentroidEED2Ev
	j	.LBB0_58
.LBB0_56:                               # %lpad119
.Ltmp38:
	sd	a0, 968(sp)
	sw	a1, 964(sp)
	addi	a0, sp, 320
	call	_ZNSt10shared_ptrIN3BVH9BuildNodeEED2Ev
	j	.LBB0_57
.LBB0_57:                               # %ehcleanup122
	addi	a0, sp, 424
	call	_ZN6OctreeIN3BVH15SurfaceCentroidEED2Ev
	j	.LBB0_72
.LBB0_58:                               # %if.end
	j	.LBB0_59
.LBB0_59:                               # %if.end123
	addi	a0, zero, 1
	sd	a0, 312(sp)
	sd	zero, 304(sp)
	sd	s4, 296(sp)
	ld	a0, 296(sp)
	call	_ZNSt3mapImmSt4lessImESaISt4pairIKmmEEE5beginEv
	sd	a0, 288(sp)
	ld	a0, 296(sp)
	call	_ZNSt3mapImmSt4lessImESaISt4pairIKmmEEE3endEv
	sd	a0, 280(sp)
	j	.LBB0_60
.LBB0_60:                               # %for.cond131
                                        # =>This Inner Loop Header: Depth=1
	addi	a0, sp, 288
	addi	a1, sp, 280
	call	_ZStneRKSt17_Rb_tree_iteratorISt4pairIKmmEES5_
	beqz	a0, .LBB0_63
	j	.LBB0_61
.LBB0_61:                               # %for.body133
                                        #   in Loop: Header=BB0_60 Depth=1
	addi	a0, sp, 288
	call	_ZNKSt17_Rb_tree_iteratorISt4pairIKmmEEdeEv
	sd	a0, 272(sp)
	ld	a0, 272(sp)
	ld	a0, 8(a0)
	fcvt.d.lu	ft0, a0
	fld	ft1, 304(sp)
	fadd.d	ft0, ft1, ft0
	fsd	ft0, 304(sp)
	ld	a0, 272(sp)
	ld	a1, 0(a0)
	ld	a0, 8(a0)
	mul	a0, a1, a0
	ld	a1, 312(sp)
	add	a0, a1, a0
	sd	a0, 312(sp)
	j	.LBB0_62
.LBB0_62:                               # %for.inc137
                                        #   in Loop: Header=BB0_60 Depth=1
	addi	a0, sp, 288
	call	_ZNSt17_Rb_tree_iteratorISt4pairIKmmEEppEv
	j	.LBB0_60
.LBB0_63:                               # %for.end139
	ld	a0, 1000(sp)
	call	_ZNKSt6vectorISt10shared_ptrIN7Surface4BaseEESaIS3_EE4sizeEv
	mv	s1, a0
	addi	s5, sp, 232
	mv	a0, s5
	mv	a1, zero
	call	_ZNSt10shared_ptrIN7Surface4BaseEEC2EDn
	addi	s6, sp, 224
	mv	a0, s6
	call	_ZNSaISt10shared_ptrIN7Surface4BaseEEEC2Ev
.Ltmp71:
	addi	a0, sp, 248
	mv	a1, s1
	mv	a2, s5
	mv	a3, s6
	call	_ZNSt6vectorISt10shared_ptrIN7Surface4BaseEESaIS3_EEC2EmRKS3_RKS4_
.Ltmp72:
	j	.LBB0_64
.LBB0_64:                               # %invoke.cont145
	addi	a0, s4, 80
	addi	s1, sp, 248
	mv	a1, s1
	call	_ZNSt6vectorISt10shared_ptrIN7Surface4BaseEESaIS3_EEaSEOS5_
	mv	a0, s1
	call	_ZNSt6vectorISt10shared_ptrIN7Surface4BaseEESaIS3_EED2Ev
	addi	a0, sp, 224
	call	_ZNSaISt10shared_ptrIN7Surface4BaseEEED2Ev
	addi	a0, sp, 232
	call	_ZNSt10shared_ptrIN7Surface4BaseEED2Ev
	ld	s1, 312(sp)
	sd	zero, 184(sp)
	sd	zero, 176(sp)
	sd	zero, 168(sp)
	sd	zero, 160(sp)
	sd	zero, 152(sp)
	sd	zero, 144(sp)
	sd	zero, 136(sp)
	sd	zero, 128(sp)
.Ltmp74:
	addi	a0, sp, 128
	call	_ZN3BVH10LinearNodeC2Ev
.Ltmp75:
	j	.LBB0_65
.LBB0_65:                               # %invoke.cont152
	addi	s5, sp, 120
	mv	a0, s5
	call	_ZNSaIN3BVH10LinearNodeEEC2Ev
.Ltmp76:
	addi	a0, sp, 200
	addi	a2, sp, 128
	mv	a1, s1
	mv	a3, s5
	call	_ZNSt6vectorIN3BVH10LinearNodeESaIS1_EEC2EmRKS1_RKS2_
.Ltmp77:
	j	.LBB0_66
.LBB0_66:                               # %invoke.cont155
	addi	a0, s4, 56
	addi	s1, sp, 200
	mv	a1, s1
	call	_ZNSt6vectorIN3BVH10LinearNodeESaIS1_EEaSEOS3_
	mv	a0, s1
	call	_ZNSt6vectorIN3BVH10LinearNodeESaIS1_EED2Ev
	addi	a0, sp, 120
	call	_ZNSaIN3BVH10LinearNodeEED2Ev
	sw	zero, 116(sp)
	addi	s1, sp, 96
	addi	a1, sp, 976
	mv	a0, s1
	call	_ZNSt10shared_ptrIN3BVH9BuildNodeEEC2ERKS2_
.Ltmp79:
	addi	a3, sp, 116
	mv	a0, s4
	mv	a1, s1
	mv	a2, zero
	call	_ZN3BVH7compactESt10shared_ptrINS_9BuildNodeEEjRj
.Ltmp80:
	j	.LBB0_67
.LBB0_67:                               # %invoke.cont161
	addi	a0, sp, 96
	call	_ZNSt10shared_ptrIN3BVH9BuildNodeEED2Ev
	ld	a0, 312(sp)
	addi	a0, a0, -1
	fcvt.d.lu	ft0, a0
	fld	ft1, 304(sp)
	fdiv.d	ft0, ft0, ft1
	fmv.x.d	a1, ft0
.Ltmp82:
	lui	a0, %hi(.L.str.8)
	addi	a0, a0, %lo(.L.str.8)
	call	printf
.Ltmp83:
	j	.LBB0_68
.LBB0_68:                               # %invoke.cont165
	addi	a0, sp, 928
	call	_ZNSt7__cxx1112basic_stringIcSt11char_traitsIcESaIcEED1Ev
	addi	a0, sp, 976
	call	_ZNSt10shared_ptrIN3BVH9BuildNodeEED2Ev
	addi	sp, s0, -1088
	ld	s6, 1024(sp)
	ld	s5, 1032(sp)
	ld	s4, 1040(sp)
	ld	s3, 1048(sp)
	ld	s2, 1056(sp)
	ld	s1, 1064(sp)
	ld	s0, 1072(sp)
	.cfi_def_cfa sp, 1088
	ld	ra, 1080(sp)
	.cfi_restore ra
	.cfi_restore s0
	.cfi_restore s1
	.cfi_restore s2
	.cfi_restore s3
	.cfi_restore s4
	.cfi_restore s5
	.cfi_restore s6
	addi	sp, sp, 1088
	.cfi_def_cfa_offset 0
	ret
.LBB0_69:                               # %lpad144
.Ltmp73:
	sd	a0, 968(sp)
	sw	a1, 964(sp)
	addi	a0, sp, 224
	call	_ZNSaISt10shared_ptrIN7Surface4BaseEEED2Ev
	addi	a0, sp, 232
	call	_ZNSt10shared_ptrIN7Surface4BaseEED2Ev
	j	.LBB0_72
.LBB0_70:                               # %lpad154
.Ltmp78:
	sd	a0, 968(sp)
	sw	a1, 964(sp)
	addi	a0, sp, 120
	call	_ZNSaIN3BVH10LinearNodeEED2Ev
	j	.LBB0_72
.LBB0_71:                               # %lpad160
.Ltmp81:
	sd	a0, 968(sp)
	sw	a1, 964(sp)
	addi	a0, sp, 96
	call	_ZNSt10shared_ptrIN3BVH9BuildNodeEED2Ev
	j	.LBB0_72
.LBB0_72:                               # %ehcleanup167
	addi	a0, sp, 928
	call	_ZNSt7__cxx1112basic_stringIcSt11char_traitsIcESaIcEED1Ev
	j	.LBB0_73
.LBB0_73:                               # %ehcleanup168
	addi	a0, sp, 976
	call	_ZNSt10shared_ptrIN3BVH9BuildNodeEED2Ev
	j	.LBB0_74
.LBB0_74:                               # %ehcleanup169
	mv	a0, s3
	call	_ZNSt6vectorISt10shared_ptrIN7Surface4BaseEESaIS3_EED2Ev
	mv	a0, s2
	call	_ZNSt6vectorIN3BVH10LinearNodeESaIS1_EED2Ev
	mv	a0, s4
	call	_ZNSt3mapImmSt4lessImESaISt4pairIKmmEEED2Ev
	j	.LBB0_75
.LBB0_75:                               # %eh.resume
	ld	a0, 968(sp)
	call	_Unwind_Resume
.Lfunc_end0:
	.size	_ZN3BVHC2ERK11BoundingBoxRKSt6vectorISt10shared_ptrIN7Surface4BaseEESaIS7_EERKN8nlohmann10basic_jsonISt3mapS3_NSt7__cxx1112basic_stringIcSt11char_traitsIcESaIcEEEblmdSaNSC_14adl_serializerEEE, .Lfunc_end0-_ZN3BVHC2ERK11BoundingBoxRKSt6vectorISt10shared_ptrIN7Surface4BaseEESaIS7_EERKN8nlohmann10basic_jsonISt3mapS3_NSt7__cxx1112basic_stringIcSt11char_traitsIcESaIcEEEblmdSaNSC_14adl_serializerEEE
	.cfi_endproc
	.section	.gcc_except_table,"a",@progbits
	.p2align	2
GCC_except_table0:
.Lexception0:
	.byte	255                     # @LPStart Encoding = omit
	.byte	255                     # @TType Encoding = omit
	.byte	3                       # Call site Encoding = udata4
	.uleb128 .Lcst_end0-.Lcst_begin0
.Lcst_begin0:
	.word	.Ltmp0-.Lfunc_begin0    # >> Call Site 1 <<
	.word	.Ltmp1-.Ltmp0           #   Call between .Ltmp0 and .Ltmp1
	.word	.Ltmp2-.Lfunc_begin0    #     jumps to .Ltmp2
	.byte	0                       #   On action: cleanup
	.word	.Ltmp3-.Lfunc_begin0    # >> Call Site 2 <<
	.word	.Ltmp4-.Ltmp3           #   Call between .Ltmp3 and .Ltmp4
	.word	.Ltmp5-.Lfunc_begin0    #     jumps to .Ltmp5
	.byte	0                       #   On action: cleanup
	.word	.Ltmp6-.Lfunc_begin0    # >> Call Site 3 <<
	.word	.Ltmp7-.Ltmp6           #   Call between .Ltmp6 and .Ltmp7
	.word	.Ltmp8-.Lfunc_begin0    #     jumps to .Ltmp8
	.byte	0                       #   On action: cleanup
	.word	.Ltmp9-.Lfunc_begin0    # >> Call Site 4 <<
	.word	.Ltmp10-.Ltmp9          #   Call between .Ltmp9 and .Ltmp10
	.word	.Ltmp11-.Lfunc_begin0   #     jumps to .Ltmp11
	.byte	0                       #   On action: cleanup
	.word	.Ltmp12-.Lfunc_begin0   # >> Call Site 5 <<
	.word	.Ltmp15-.Ltmp12         #   Call between .Ltmp12 and .Ltmp15
	.word	.Ltmp84-.Lfunc_begin0   #     jumps to .Ltmp84
	.byte	0                       #   On action: cleanup
	.word	.Ltmp58-.Lfunc_begin0   # >> Call Site 6 <<
	.word	.Ltmp59-.Ltmp58         #   Call between .Ltmp58 and .Ltmp59
	.word	.Ltmp60-.Lfunc_begin0   #     jumps to .Ltmp60
	.byte	0                       #   On action: cleanup
	.word	.Ltmp61-.Lfunc_begin0   # >> Call Site 7 <<
	.word	.Ltmp62-.Ltmp61         #   Call between .Ltmp61 and .Ltmp62
	.word	.Ltmp63-.Lfunc_begin0   #     jumps to .Ltmp63
	.byte	0                       #   On action: cleanup
	.word	.Ltmp64-.Lfunc_begin0   # >> Call Site 8 <<
	.word	.Ltmp67-.Ltmp64         #   Call between .Ltmp64 and .Ltmp67
	.word	.Ltmp84-.Lfunc_begin0   #     jumps to .Ltmp84
	.byte	0                       #   On action: cleanup
	.word	.Ltmp68-.Lfunc_begin0   # >> Call Site 9 <<
	.word	.Ltmp69-.Ltmp68         #   Call between .Ltmp68 and .Ltmp69
	.word	.Ltmp70-.Lfunc_begin0   #     jumps to .Ltmp70
	.byte	0                       #   On action: cleanup
	.word	.Ltmp16-.Lfunc_begin0   # >> Call Site 10 <<
	.word	.Ltmp17-.Ltmp16         #   Call between .Ltmp16 and .Ltmp17
	.word	.Ltmp84-.Lfunc_begin0   #     jumps to .Ltmp84
	.byte	0                       #   On action: cleanup
	.word	.Ltmp45-.Lfunc_begin0   # >> Call Site 11 <<
	.word	.Ltmp46-.Ltmp45         #   Call between .Ltmp45 and .Ltmp46
	.word	.Ltmp47-.Lfunc_begin0   #     jumps to .Ltmp47
	.byte	0                       #   On action: cleanup
	.word	.Ltmp48-.Lfunc_begin0   # >> Call Site 12 <<
	.word	.Ltmp49-.Ltmp48         #   Call between .Ltmp48 and .Ltmp49
	.word	.Ltmp50-.Lfunc_begin0   #     jumps to .Ltmp50
	.byte	0                       #   On action: cleanup
	.word	.Ltmp51-.Lfunc_begin0   # >> Call Site 13 <<
	.word	.Ltmp54-.Ltmp51         #   Call between .Ltmp51 and .Ltmp54
	.word	.Ltmp84-.Lfunc_begin0   #     jumps to .Ltmp84
	.byte	0                       #   On action: cleanup
	.word	.Ltmp55-.Lfunc_begin0   # >> Call Site 14 <<
	.word	.Ltmp56-.Ltmp55         #   Call between .Ltmp55 and .Ltmp56
	.word	.Ltmp57-.Lfunc_begin0   #     jumps to .Ltmp57
	.byte	0                       #   On action: cleanup
	.word	.Ltmp18-.Lfunc_begin0   # >> Call Site 15 <<
	.word	.Ltmp35-.Ltmp18         #   Call between .Ltmp18 and .Ltmp35
	.word	.Ltmp84-.Lfunc_begin0   #     jumps to .Ltmp84
	.byte	0                       #   On action: cleanup
	.word	.Ltmp39-.Lfunc_begin0   # >> Call Site 16 <<
	.word	.Ltmp40-.Ltmp39         #   Call between .Ltmp39 and .Ltmp40
	.word	.Ltmp41-.Lfunc_begin0   #     jumps to .Ltmp41
	.byte	0                       #   On action: cleanup
	.word	.Ltmp42-.Lfunc_begin0   # >> Call Site 17 <<
	.word	.Ltmp43-.Ltmp42         #   Call between .Ltmp42 and .Ltmp43
	.word	.Ltmp44-.Lfunc_begin0   #     jumps to .Ltmp44
	.byte	0                       #   On action: cleanup
	.word	.Ltmp36-.Lfunc_begin0   # >> Call Site 18 <<
	.word	.Ltmp37-.Ltmp36         #   Call between .Ltmp36 and .Ltmp37
	.word	.Ltmp38-.Lfunc_begin0   #     jumps to .Ltmp38
	.byte	0                       #   On action: cleanup
	.word	.Ltmp71-.Lfunc_begin0   # >> Call Site 19 <<
	.word	.Ltmp72-.Ltmp71         #   Call between .Ltmp71 and .Ltmp72
	.word	.Ltmp73-.Lfunc_begin0   #     jumps to .Ltmp73
	.byte	0                       #   On action: cleanup
	.word	.Ltmp74-.Lfunc_begin0   # >> Call Site 20 <<
	.word	.Ltmp75-.Ltmp74         #   Call between .Ltmp74 and .Ltmp75
	.word	.Ltmp84-.Lfunc_begin0   #     jumps to .Ltmp84
	.byte	0                       #   On action: cleanup
	.word	.Ltmp76-.Lfunc_begin0   # >> Call Site 21 <<
	.word	.Ltmp77-.Ltmp76         #   Call between .Ltmp76 and .Ltmp77
	.word	.Ltmp78-.Lfunc_begin0   #     jumps to .Ltmp78
	.byte	0                       #   On action: cleanup
	.word	.Ltmp79-.Lfunc_begin0   # >> Call Site 22 <<
	.word	.Ltmp80-.Ltmp79         #   Call between .Ltmp79 and .Ltmp80
	.word	.Ltmp81-.Lfunc_begin0   #     jumps to .Ltmp81
	.byte	0                       #   On action: cleanup
	.word	.Ltmp82-.Lfunc_begin0   # >> Call Site 23 <<
	.word	.Ltmp83-.Ltmp82         #   Call between .Ltmp82 and .Ltmp83
	.word	.Ltmp84-.Lfunc_begin0   #     jumps to .Ltmp84
	.byte	0                       #   On action: cleanup
	.word	.Ltmp83-.Lfunc_begin0   # >> Call Site 24 <<
	.word	.Lfunc_end0-.Ltmp83     #   Call between .Ltmp83 and .Lfunc_end0
	.word	0                       #     has no landing pad
	.byte	0                       #   On action: cleanup
.Lcst_end0:
	.p2align	2
                                        # -- End function
	.section	.text._ZNSt3mapImmSt4lessImESaISt4pairIKmmEEEC2Ev,"axG",@progbits,_ZNSt3mapImmSt4lessImESaISt4pairIKmmEEEC2Ev,comdat
	.weak	_ZNSt3mapImmSt4lessImESaISt4pairIKmmEEEC2Ev # -- Begin function _ZNSt3mapImmSt4lessImESaISt4pairIKmmEEEC2Ev
	.p2align	2
	.type	_ZNSt3mapImmSt4lessImESaISt4pairIKmmEEEC2Ev,@function
_ZNSt3mapImmSt4lessImESaISt4pairIKmmEEEC2Ev: # @_ZNSt3mapImmSt4lessImESaISt4pairIKmmEEEC2Ev
# %bb.0:                                # %entry
	addi	sp, sp, -32
	sd	ra, 24(sp)
	sd	s0, 16(sp)
	addi	s0, sp, 32
	sd	a0, -24(s0)
	ld	a0, -24(s0)
	call	_ZNSt8_Rb_treeImSt4pairIKmmESt10_Select1stIS2_ESt4lessImESaIS2_EEC2Ev
	ld	s0, 16(sp)
	ld	ra, 24(sp)
	addi	sp, sp, 32
	ret
.Lfunc_end1:
	.size	_ZNSt3mapImmSt4lessImESaISt4pairIKmmEEEC2Ev, .Lfunc_end1-_ZNSt3mapImmSt4lessImESaISt4pairIKmmEEEC2Ev
                                        # -- End function
	.section	.text._ZNSt6vectorIN3BVH10LinearNodeESaIS1_EEC2Ev,"axG",@progbits,_ZNSt6vectorIN3BVH10LinearNodeESaIS1_EEC2Ev,comdat
	.weak	_ZNSt6vectorIN3BVH10LinearNodeESaIS1_EEC2Ev # -- Begin function _ZNSt6vectorIN3BVH10LinearNodeESaIS1_EEC2Ev
	.p2align	2
	.type	_ZNSt6vectorIN3BVH10LinearNodeESaIS1_EEC2Ev,@function
_ZNSt6vectorIN3BVH10LinearNodeESaIS1_EEC2Ev: # @_ZNSt6vectorIN3BVH10LinearNodeESaIS1_EEC2Ev
# %bb.0:                                # %entry
	addi	sp, sp, -32
	sd	ra, 24(sp)
	sd	s0, 16(sp)
	addi	s0, sp, 32
	sd	a0, -24(s0)
	ld	a0, -24(s0)
	call	_ZNSt12_Vector_baseIN3BVH10LinearNodeESaIS1_EEC2Ev
	ld	s0, 16(sp)
	ld	ra, 24(sp)
	addi	sp, sp, 32
	ret
.Lfunc_end2:
	.size	_ZNSt6vectorIN3BVH10LinearNodeESaIS1_EEC2Ev, .Lfunc_end2-_ZNSt6vectorIN3BVH10LinearNodeESaIS1_EEC2Ev
                                        # -- End function
	.section	.text._ZNSt6vectorISt10shared_ptrIN7Surface4BaseEESaIS3_EEC2Ev,"axG",@progbits,_ZNSt6vectorISt10shared_ptrIN7Surface4BaseEESaIS3_EEC2Ev,comdat
	.weak	_ZNSt6vectorISt10shared_ptrIN7Surface4BaseEESaIS3_EEC2Ev # -- Begin function _ZNSt6vectorISt10shared_ptrIN7Surface4BaseEESaIS3_EEC2Ev
	.p2align	2
	.type	_ZNSt6vectorISt10shared_ptrIN7Surface4BaseEESaIS3_EEC2Ev,@function
_ZNSt6vectorISt10shared_ptrIN7Surface4BaseEESaIS3_EEC2Ev: # @_ZNSt6vectorISt10shared_ptrIN7Surface4BaseEESaIS3_EEC2Ev
# %bb.0:                                # %entry
	addi	sp, sp, -32
	sd	ra, 24(sp)
	sd	s0, 16(sp)
	addi	s0, sp, 32
	sd	a0, -24(s0)
	ld	a0, -24(s0)
	call	_ZNSt12_Vector_baseISt10shared_ptrIN7Surface4BaseEESaIS3_EEC2Ev
	ld	s0, 16(sp)
	ld	ra, 24(sp)
	addi	sp, sp, 32
	ret
.Lfunc_end3:
	.size	_ZNSt6vectorISt10shared_ptrIN7Surface4BaseEESaIS3_EEC2Ev, .Lfunc_end3-_ZNSt6vectorISt10shared_ptrIN7Surface4BaseEESaIS3_EEC2Ev
                                        # -- End function
	.section	.text._ZSt11make_sharedIN3BVH9BuildNodeEJEESt10shared_ptrIT_EDpOT0_,"axG",@progbits,_ZSt11make_sharedIN3BVH9BuildNodeEJEESt10shared_ptrIT_EDpOT0_,comdat
	.weak	_ZSt11make_sharedIN3BVH9BuildNodeEJEESt10shared_ptrIT_EDpOT0_ # -- Begin function _ZSt11make_sharedIN3BVH9BuildNodeEJEESt10shared_ptrIT_EDpOT0_
	.p2align	2
	.type	_ZSt11make_sharedIN3BVH9BuildNodeEJEESt10shared_ptrIT_EDpOT0_,@function
_ZSt11make_sharedIN3BVH9BuildNodeEJEESt10shared_ptrIT_EDpOT0_: # @_ZSt11make_sharedIN3BVH9BuildNodeEJEESt10shared_ptrIT_EDpOT0_
.Lfunc_begin1:
	.cfi_startproc
	.cfi_personality 155, DW.ref.__gxx_personality_v0
	.cfi_lsda 27, .Lexception1
# %bb.0:                                # %entry
	addi	sp, sp, -64
	.cfi_def_cfa_offset 64
	sd	ra, 56(sp)
	sd	s0, 48(sp)
	sd	s1, 40(sp)
	sd	s2, 32(sp)
	.cfi_offset ra, -8
	.cfi_offset s0, -16
	.cfi_offset s1, -24
	.cfi_offset s2, -32
	addi	s0, sp, 64
	.cfi_def_cfa s0, 0
	mv	s1, a0
	sd	s1, -40(s0)
	addi	s2, s0, -48
	mv	a0, s2
	call	_ZNSaIN3BVH9BuildNodeEEC2Ev
.Ltmp85:
	mv	a0, s1
	mv	a1, s2
	call	_ZSt15allocate_sharedIN3BVH9BuildNodeESaIS1_EJEESt10shared_ptrIT_ERKT0_DpOT1_
.Ltmp86:
	j	.LBB4_1
.LBB4_1:                                # %invoke.cont
	addi	a0, s0, -48
	call	_ZNSaIN3BVH9BuildNodeEED2Ev
	ld	s2, 32(sp)
	ld	s1, 40(sp)
	ld	s0, 48(sp)
	.cfi_def_cfa sp, 64
	ld	ra, 56(sp)
	.cfi_restore ra
	.cfi_restore s0
	.cfi_restore s1
	.cfi_restore s2
	addi	sp, sp, 64
	.cfi_def_cfa_offset 0
	ret
.LBB4_2:                                # %lpad
.Ltmp87:
	sd	a0, -56(s0)
	sw	a1, -60(s0)
	addi	a0, s0, -48
	call	_ZNSaIN3BVH9BuildNodeEED2Ev
	j	.LBB4_3
.LBB4_3:                                # %eh.resume
	ld	a0, -56(s0)
	call	_Unwind_Resume
.Lfunc_end4:
	.size	_ZSt11make_sharedIN3BVH9BuildNodeEJEESt10shared_ptrIT_EDpOT0_, .Lfunc_end4-_ZSt11make_sharedIN3BVH9BuildNodeEJEESt10shared_ptrIT_EDpOT0_
	.cfi_endproc
	.section	.gcc_except_table,"a",@progbits
	.p2align	2
GCC_except_table4:
.Lexception1:
	.byte	255                     # @LPStart Encoding = omit
	.byte	255                     # @TType Encoding = omit
	.byte	3                       # Call site Encoding = udata4
	.uleb128 .Lcst_end1-.Lcst_begin1
.Lcst_begin1:
	.word	.Ltmp85-.Lfunc_begin1   # >> Call Site 1 <<
	.word	.Ltmp86-.Ltmp85         #   Call between .Ltmp85 and .Ltmp86
	.word	.Ltmp87-.Lfunc_begin1   #     jumps to .Ltmp87
	.byte	0                       #   On action: cleanup
	.word	.Ltmp86-.Lfunc_begin1   # >> Call Site 2 <<
	.word	.Lfunc_end4-.Ltmp86     #   Call between .Ltmp86 and .Lfunc_end4
	.word	0                       #     has no landing pad
	.byte	0                       #   On action: cleanup
.Lcst_end1:
	.p2align	2
                                        # -- End function
	.section	.text._ZNKSt19__shared_ptr_accessIN3BVH9BuildNodeELN9__gnu_cxx12_Lock_policyE0ELb0ELb0EEptEv,"axG",@progbits,_ZNKSt19__shared_ptr_accessIN3BVH9BuildNodeELN9__gnu_cxx12_Lock_policyE0ELb0ELb0EEptEv,comdat
	.weak	_ZNKSt19__shared_ptr_accessIN3BVH9BuildNodeELN9__gnu_cxx12_Lock_policyE0ELb0ELb0EEptEv # -- Begin function _ZNKSt19__shared_ptr_accessIN3BVH9BuildNodeELN9__gnu_cxx12_Lock_policyE0ELb0ELb0EEptEv
	.p2align	2
	.type	_ZNKSt19__shared_ptr_accessIN3BVH9BuildNodeELN9__gnu_cxx12_Lock_policyE0ELb0ELb0EEptEv,@function
_ZNKSt19__shared_ptr_accessIN3BVH9BuildNodeELN9__gnu_cxx12_Lock_policyE0ELb0ELb0EEptEv: # @_ZNKSt19__shared_ptr_accessIN3BVH9BuildNodeELN9__gnu_cxx12_Lock_policyE0ELb0ELb0EEptEv
# %bb.0:                                # %entry
	addi	sp, sp, -32
	sd	ra, 24(sp)
	sd	s0, 16(sp)
	addi	s0, sp, 32
	sd	a0, -24(s0)
	ld	a0, -24(s0)
	call	_ZNKSt19__shared_ptr_accessIN3BVH9BuildNodeELN9__gnu_cxx12_Lock_policyE0ELb0ELb0EE6_M_getEv
	ld	s0, 16(sp)
	ld	ra, 24(sp)
	addi	sp, sp, 32
	ret
.Lfunc_end5:
	.size	_ZNKSt19__shared_ptr_accessIN3BVH9BuildNodeELN9__gnu_cxx12_Lock_policyE0ELb0ELb0EEptEv, .Lfunc_end5-_ZNKSt19__shared_ptr_accessIN3BVH9BuildNodeELN9__gnu_cxx12_Lock_policyE0ELb0ELb0EEptEv
                                        # -- End function
	.section	.text._Z11getOptionalINSt7__cxx1112basic_stringIcSt11char_traitsIcESaIcEEEET_RKN8nlohmann10basic_jsonISt3mapSt6vectorS5_blmdSaNS7_14adl_serializerEEES5_S6_,"axG",@progbits,_Z11getOptionalINSt7__cxx1112basic_stringIcSt11char_traitsIcESaIcEEEET_RKN8nlohmann10basic_jsonISt3mapSt6vectorS5_blmdSaNS7_14adl_serializerEEES5_S6_,comdat
	.weak	_Z11getOptionalINSt7__cxx1112basic_stringIcSt11char_traitsIcESaIcEEEET_RKN8nlohmann10basic_jsonISt3mapSt6vectorS5_blmdSaNS7_14adl_serializerEEES5_S6_ # -- Begin function _Z11getOptionalINSt7__cxx1112basic_stringIcSt11char_traitsIcESaIcEEEET_RKN8nlohmann10basic_jsonISt3mapSt6vectorS5_blmdSaNS7_14adl_serializerEEES5_S6_
	.p2align	2
	.type	_Z11getOptionalINSt7__cxx1112basic_stringIcSt11char_traitsIcESaIcEEEET_RKN8nlohmann10basic_jsonISt3mapSt6vectorS5_blmdSaNS7_14adl_serializerEEES5_S6_,@function
_Z11getOptionalINSt7__cxx1112basic_stringIcSt11char_traitsIcESaIcEEEET_RKN8nlohmann10basic_jsonISt3mapSt6vectorS5_blmdSaNS7_14adl_serializerEEES5_S6_: # @_Z11getOptionalINSt7__cxx1112basic_stringIcSt11char_traitsIcESaIcEEEET_RKN8nlohmann10basic_jsonISt3mapSt6vectorS5_blmdSaNS7_14adl_serializerEEES5_S6_
.Lfunc_begin2:
	.cfi_startproc
	.cfi_personality 155, DW.ref.__gxx_personality_v0
	.cfi_lsda 27, .Lexception2
# %bb.0:                                # %entry
	addi	sp, sp, -176
	.cfi_def_cfa_offset 176
	sd	ra, 168(sp)
	sd	s0, 160(sp)
	sd	s1, 152(sp)
	sd	s2, 144(sp)
	sd	s3, 136(sp)
	.cfi_offset ra, -8
	.cfi_offset s0, -16
	.cfi_offset s1, -24
	.cfi_offset s2, -32
	.cfi_offset s3, -40
	addi	s0, sp, 176
	.cfi_def_cfa s0, 0
	mv	s2, a2
	mv	s1, a0
	sd	s1, -48(s0)
	sd	a1, -56(s0)
	sb	zero, -57(s0)
	mv	a0, s1
	mv	a1, a3
	call	_ZNSt7__cxx1112basic_stringIcSt11char_traitsIcESaIcEEC1ERKS4_
	ld	a1, -56(s0)
.Ltmp88:
	addi	a0, s0, -96
	mv	a2, s2
	call	_ZNK8nlohmann10basic_jsonISt3mapSt6vectorNSt7__cxx1112basic_stringIcSt11char_traitsIcESaIcEEEblmdSaNS_14adl_serializerEE4findIRS8_EENS_6detail9iter_implIKSA_EEOT_
.Ltmp89:
	j	.LBB6_1
.LBB6_1:                                # %invoke.cont
	ld	a1, -56(s0)
	addi	s3, s0, -144
	mv	a0, s3
	call	_ZNK8nlohmann10basic_jsonISt3mapSt6vectorNSt7__cxx1112basic_stringIcSt11char_traitsIcESaIcEEEblmdSaNS_14adl_serializerEE3endEv
.Ltmp90:
	addi	a0, s0, -96
	mv	a1, s3
	call	_ZNK8nlohmann6detail9iter_implIKNS_10basic_jsonISt3mapSt6vectorNSt7__cxx1112basic_stringIcSt11char_traitsIcESaIcEEEblmdSaNS_14adl_serializerEEEEneERKSE_
.Ltmp91:
	j	.LBB6_2
.LBB6_2:                                # %invoke.cont2
	andi	a0, a0, 1
	beqz	a0, .LBB6_7
	j	.LBB6_3
.LBB6_3:                                # %if.then
	ld	a0, -56(s0)
.Ltmp92:
	mv	a1, s2
	call	_ZNK8nlohmann10basic_jsonISt3mapSt6vectorNSt7__cxx1112basic_stringIcSt11char_traitsIcESaIcEEEblmdSaNS_14adl_serializerEE2atERKS8_
	mv	a1, a0
.Ltmp93:
	j	.LBB6_4
.LBB6_4:                                # %invoke.cont4
.Ltmp94:
	addi	a0, s0, -176
	call	_ZNK8nlohmann10basic_jsonISt3mapSt6vectorNSt7__cxx1112basic_stringIcSt11char_traitsIcESaIcEEEblmdSaNS_14adl_serializerEE3getIS8_S8_Li0EEET0_v
.Ltmp95:
	j	.LBB6_5
.LBB6_5:                                # %invoke.cont6
	addi	s2, s0, -176
	mv	a0, s1
	mv	a1, s2
	call	_ZNSt7__cxx1112basic_stringIcSt11char_traitsIcESaIcEEaSEOS4_
	mv	a0, s2
	call	_ZNSt7__cxx1112basic_stringIcSt11char_traitsIcESaIcEED1Ev
	j	.LBB6_7
.LBB6_6:                                # %lpad
.Ltmp96:
	sd	a0, -104(s0)
	sw	a1, -108(s0)
	mv	a0, s1
	call	_ZNSt7__cxx1112basic_stringIcSt11char_traitsIcESaIcEED1Ev
	j	.LBB6_10
.LBB6_7:                                # %if.end
	addi	a0, zero, 1
	sb	a0, -57(s0)
	lbu	a0, -57(s0)
	bnez	a0, .LBB6_9
	j	.LBB6_8
.LBB6_8:                                # %nrvo.unused
	mv	a0, s1
	call	_ZNSt7__cxx1112basic_stringIcSt11char_traitsIcESaIcEED1Ev
	j	.LBB6_9
.LBB6_9:                                # %nrvo.skipdtor
	ld	s3, 136(sp)
	ld	s2, 144(sp)
	ld	s1, 152(sp)
	ld	s0, 160(sp)
	.cfi_def_cfa sp, 176
	ld	ra, 168(sp)
	.cfi_restore ra
	.cfi_restore s0
	.cfi_restore s1
	.cfi_restore s2
	.cfi_restore s3
	addi	sp, sp, 176
	.cfi_def_cfa_offset 0
	ret
.LBB6_10:                               # %eh.resume
	ld	a0, -104(s0)
	call	_Unwind_Resume
.Lfunc_end6:
	.size	_Z11getOptionalINSt7__cxx1112basic_stringIcSt11char_traitsIcESaIcEEEET_RKN8nlohmann10basic_jsonISt3mapSt6vectorS5_blmdSaNS7_14adl_serializerEEES5_S6_, .Lfunc_end6-_Z11getOptionalINSt7__cxx1112basic_stringIcSt11char_traitsIcESaIcEEEET_RKN8nlohmann10basic_jsonISt3mapSt6vectorS5_blmdSaNS7_14adl_serializerEEES5_S6_
	.cfi_endproc
	.section	.gcc_except_table,"a",@progbits
	.p2align	2
GCC_except_table6:
.Lexception2:
	.byte	255                     # @LPStart Encoding = omit
	.byte	255                     # @TType Encoding = omit
	.byte	3                       # Call site Encoding = udata4
	.uleb128 .Lcst_end2-.Lcst_begin2
.Lcst_begin2:
	.word	.Lfunc_begin2-.Lfunc_begin2 # >> Call Site 1 <<
	.word	.Ltmp88-.Lfunc_begin2   #   Call between .Lfunc_begin2 and .Ltmp88
	.word	0                       #     has no landing pad
	.byte	0                       #   On action: cleanup
	.word	.Ltmp88-.Lfunc_begin2   # >> Call Site 2 <<
	.word	.Ltmp95-.Ltmp88         #   Call between .Ltmp88 and .Ltmp95
	.word	.Ltmp96-.Lfunc_begin2   #     jumps to .Ltmp96
	.byte	0                       #   On action: cleanup
	.word	.Ltmp95-.Lfunc_begin2   # >> Call Site 3 <<
	.word	.Lfunc_end6-.Ltmp95     #   Call between .Ltmp95 and .Lfunc_end6
	.word	0                       #     has no landing pad
	.byte	0                       #   On action: cleanup
.Lcst_end2:
	.p2align	2
                                        # -- End function
	.section	.text._ZNSt7__cxx1112basic_stringIcSt11char_traitsIcESaIcEEC2IS3_EEPKcRKS3_,"axG",@progbits,_ZNSt7__cxx1112basic_stringIcSt11char_traitsIcESaIcEEC2IS3_EEPKcRKS3_,comdat
	.weak	_ZNSt7__cxx1112basic_stringIcSt11char_traitsIcESaIcEEC2IS3_EEPKcRKS3_ # -- Begin function _ZNSt7__cxx1112basic_stringIcSt11char_traitsIcESaIcEEC2IS3_EEPKcRKS3_
	.p2align	2
	.type	_ZNSt7__cxx1112basic_stringIcSt11char_traitsIcESaIcEEC2IS3_EEPKcRKS3_,@function
_ZNSt7__cxx1112basic_stringIcSt11char_traitsIcESaIcEEC2IS3_EEPKcRKS3_: # @_ZNSt7__cxx1112basic_stringIcSt11char_traitsIcESaIcEEC2IS3_EEPKcRKS3_
.Lfunc_begin3:
	.cfi_startproc
	.cfi_personality 155, DW.ref.__gxx_personality_v0
	.cfi_lsda 27, .Lexception3
# %bb.0:                                # %entry
	addi	sp, sp, -80
	.cfi_def_cfa_offset 80
	sd	ra, 72(sp)
	sd	s0, 64(sp)
	sd	s1, 56(sp)
	sd	s2, 48(sp)
	sd	s3, 40(sp)
	.cfi_offset ra, -8
	.cfi_offset s0, -16
	.cfi_offset s1, -24
	.cfi_offset s2, -32
	.cfi_offset s3, -40
	addi	s0, sp, 80
	.cfi_def_cfa s0, 0
	sd	a0, -48(s0)
	sd	a1, -56(s0)
	sd	a2, -64(s0)
	ld	s1, -48(s0)
	mv	a0, s1
	call	_ZNSt7__cxx1112basic_stringIcSt11char_traitsIcESaIcEE13_M_local_dataEv
	mv	a1, a0
	ld	a2, -64(s0)
	mv	a0, s1
	call	_ZNSt7__cxx1112basic_stringIcSt11char_traitsIcESaIcEE12_Alloc_hiderC1EPcRKS3_
	ld	s2, -56(s0)
	beqz	s2, .LBB7_3
	j	.LBB7_1
.LBB7_1:                                # %cond.true
	ld	s3, -56(s0)
.Ltmp97:
	mv	a0, s3
	call	_ZNSt11char_traitsIcE6lengthEPKc
.Ltmp98:
	j	.LBB7_2
.LBB7_2:                                # %invoke.cont
	add	a2, s3, a0
	j	.LBB7_4
.LBB7_3:                                # %cond.false
	ld	a0, -56(s0)
	addi	a2, a0, -1
	j	.LBB7_4
.LBB7_4:                                # %cond.end
.Ltmp99:
	mv	a0, s1
	mv	a1, s2
	call	_ZNSt7__cxx1112basic_stringIcSt11char_traitsIcESaIcEE12_M_constructIPKcEEvT_S8_
.Ltmp100:
	j	.LBB7_5
.LBB7_5:                                # %invoke.cont4
	ld	s3, 40(sp)
	ld	s2, 48(sp)
	ld	s1, 56(sp)
	ld	s0, 64(sp)
	.cfi_def_cfa sp, 80
	ld	ra, 72(sp)
	.cfi_restore ra
	.cfi_restore s0
	.cfi_restore s1
	.cfi_restore s2
	.cfi_restore s3
	addi	sp, sp, 80
	.cfi_def_cfa_offset 0
	ret
.LBB7_6:                                # %lpad
.Ltmp101:
	sd	a0, -72(s0)
	sw	a1, -76(s0)
	mv	a0, s1
	call	_ZNSt7__cxx1112basic_stringIcSt11char_traitsIcESaIcEE12_Alloc_hiderD2Ev
	j	.LBB7_7
.LBB7_7:                                # %eh.resume
	ld	a0, -72(s0)
	call	_Unwind_Resume
.Lfunc_end7:
	.size	_ZNSt7__cxx1112basic_stringIcSt11char_traitsIcESaIcEEC2IS3_EEPKcRKS3_, .Lfunc_end7-_ZNSt7__cxx1112basic_stringIcSt11char_traitsIcESaIcEEC2IS3_EEPKcRKS3_
	.cfi_endproc
	.section	.gcc_except_table,"a",@progbits
	.p2align	2
GCC_except_table7:
.Lexception3:
	.byte	255                     # @LPStart Encoding = omit
	.byte	255                     # @TType Encoding = omit
	.byte	3                       # Call site Encoding = udata4
	.uleb128 .Lcst_end3-.Lcst_begin3
.Lcst_begin3:
	.word	.Lfunc_begin3-.Lfunc_begin3 # >> Call Site 1 <<
	.word	.Ltmp97-.Lfunc_begin3   #   Call between .Lfunc_begin3 and .Ltmp97
	.word	0                       #     has no landing pad
	.byte	0                       #   On action: cleanup
	.word	.Ltmp97-.Lfunc_begin3   # >> Call Site 2 <<
	.word	.Ltmp100-.Ltmp97        #   Call between .Ltmp97 and .Ltmp100
	.word	.Ltmp101-.Lfunc_begin3  #     jumps to .Ltmp101
	.byte	0                       #   On action: cleanup
	.word	.Ltmp100-.Lfunc_begin3  # >> Call Site 3 <<
	.word	.Lfunc_end7-.Ltmp100    #   Call between .Ltmp100 and .Lfunc_end7
	.word	0                       #     has no landing pad
	.byte	0                       #   On action: cleanup
.Lcst_end3:
	.p2align	2
                                        # -- End function
	.section	.text._ZSt9transformIN9__gnu_cxx17__normal_iteratorIPcNSt7__cxx1112basic_stringIcSt11char_traitsIcESaIcEEEEES9_PFiiEET0_T_SD_SC_T1_,"axG",@progbits,_ZSt9transformIN9__gnu_cxx17__normal_iteratorIPcNSt7__cxx1112basic_stringIcSt11char_traitsIcESaIcEEEEES9_PFiiEET0_T_SD_SC_T1_,comdat
	.weak	_ZSt9transformIN9__gnu_cxx17__normal_iteratorIPcNSt7__cxx1112basic_stringIcSt11char_traitsIcESaIcEEEEES9_PFiiEET0_T_SD_SC_T1_ # -- Begin function _ZSt9transformIN9__gnu_cxx17__normal_iteratorIPcNSt7__cxx1112basic_stringIcSt11char_traitsIcESaIcEEEEES9_PFiiEET0_T_SD_SC_T1_
	.p2align	2
	.type	_ZSt9transformIN9__gnu_cxx17__normal_iteratorIPcNSt7__cxx1112basic_stringIcSt11char_traitsIcESaIcEEEEES9_PFiiEET0_T_SD_SC_T1_,@function
_ZSt9transformIN9__gnu_cxx17__normal_iteratorIPcNSt7__cxx1112basic_stringIcSt11char_traitsIcESaIcEEEEES9_PFiiEET0_T_SD_SC_T1_: # @_ZSt9transformIN9__gnu_cxx17__normal_iteratorIPcNSt7__cxx1112basic_stringIcSt11char_traitsIcESaIcEEEEES9_PFiiEET0_T_SD_SC_T1_
	.cfi_startproc
# %bb.0:                                # %entry
	addi	sp, sp, -64
	.cfi_def_cfa_offset 64
	sd	ra, 56(sp)
	sd	s0, 48(sp)
	sd	s1, 40(sp)
	.cfi_offset ra, -8
	.cfi_offset s0, -16
	.cfi_offset s1, -24
	addi	s0, sp, 64
	.cfi_def_cfa s0, 0
	sd	a0, -40(s0)
	sd	a1, -48(s0)
	sd	a2, -56(s0)
	sd	a3, -64(s0)
	j	.LBB8_1
.LBB8_1:                                # %for.cond
                                        # =>This Inner Loop Header: Depth=1
	addi	a0, s0, -40
	addi	a1, s0, -48
	call	_ZN9__gnu_cxxneIPcNSt7__cxx1112basic_stringIcSt11char_traitsIcESaIcEEEEEbRKNS_17__normal_iteratorIT_T0_EESD_
	beqz	a0, .LBB8_4
	j	.LBB8_2
.LBB8_2:                                # %for.body
                                        #   in Loop: Header=BB8_1 Depth=1
	ld	s1, -64(s0)
	addi	a0, s0, -40
	call	_ZNK9__gnu_cxx17__normal_iteratorIPcNSt7__cxx1112basic_stringIcSt11char_traitsIcESaIcEEEEdeEv
	lbu	a0, 0(a0)
	jalr	s1
	mv	s1, a0
	addi	a0, s0, -56
	call	_ZNK9__gnu_cxx17__normal_iteratorIPcNSt7__cxx1112basic_stringIcSt11char_traitsIcESaIcEEEEdeEv
	sb	s1, 0(a0)
	j	.LBB8_3
.LBB8_3:                                # %for.inc
                                        #   in Loop: Header=BB8_1 Depth=1
	addi	a0, s0, -40
	call	_ZN9__gnu_cxx17__normal_iteratorIPcNSt7__cxx1112basic_stringIcSt11char_traitsIcESaIcEEEEppEv
	addi	a0, s0, -56
	call	_ZN9__gnu_cxx17__normal_iteratorIPcNSt7__cxx1112basic_stringIcSt11char_traitsIcESaIcEEEEppEv
	j	.LBB8_1
.LBB8_4:                                # %for.end
	ld	a0, -56(s0)
	sd	a0, -32(s0)
	ld	a0, -32(s0)
	ld	s1, 40(sp)
	ld	s0, 48(sp)
	.cfi_def_cfa sp, 64
	ld	ra, 56(sp)
	.cfi_restore ra
	.cfi_restore s0
	.cfi_restore s1
	addi	sp, sp, 64
	.cfi_def_cfa_offset 0
	ret
.Lfunc_end8:
	.size	_ZSt9transformIN9__gnu_cxx17__normal_iteratorIPcNSt7__cxx1112basic_stringIcSt11char_traitsIcESaIcEEEEES9_PFiiEET0_T_SD_SC_T1_, .Lfunc_end8-_ZSt9transformIN9__gnu_cxx17__normal_iteratorIPcNSt7__cxx1112basic_stringIcSt11char_traitsIcESaIcEEEEES9_PFiiEET0_T_SD_SC_T1_
	.cfi_endproc
                                        # -- End function
	.section	.text._ZSteqIcSt11char_traitsIcESaIcEEbRKNSt7__cxx1112basic_stringIT_T0_T1_EEPKS5_,"axG",@progbits,_ZSteqIcSt11char_traitsIcESaIcEEbRKNSt7__cxx1112basic_stringIT_T0_T1_EEPKS5_,comdat
	.weak	_ZSteqIcSt11char_traitsIcESaIcEEbRKNSt7__cxx1112basic_stringIT_T0_T1_EEPKS5_ # -- Begin function _ZSteqIcSt11char_traitsIcESaIcEEbRKNSt7__cxx1112basic_stringIT_T0_T1_EEPKS5_
	.p2align	2
	.type	_ZSteqIcSt11char_traitsIcESaIcEEbRKNSt7__cxx1112basic_stringIT_T0_T1_EEPKS5_,@function
_ZSteqIcSt11char_traitsIcESaIcEEbRKNSt7__cxx1112basic_stringIT_T0_T1_EEPKS5_: # @_ZSteqIcSt11char_traitsIcESaIcEEbRKNSt7__cxx1112basic_stringIT_T0_T1_EEPKS5_
# %bb.0:                                # %entry
	addi	sp, sp, -32
	sd	ra, 24(sp)
	sd	s0, 16(sp)
	addi	s0, sp, 32
	sd	a0, -24(s0)
	sd	a1, -32(s0)
	ld	a0, -24(s0)
	ld	a1, -32(s0)
	call	_ZNKSt7__cxx1112basic_stringIcSt11char_traitsIcESaIcEE7compareEPKc
	seqz	a0, a0
	ld	s0, 16(sp)
	ld	ra, 24(sp)
	addi	sp, sp, 32
	ret
.Lfunc_end9:
	.size	_ZSteqIcSt11char_traitsIcESaIcEEbRKNSt7__cxx1112basic_stringIT_T0_T1_EEPKS5_, .Lfunc_end9-_ZSteqIcSt11char_traitsIcESaIcEEbRKNSt7__cxx1112basic_stringIT_T0_T1_EEPKS5_
                                        # -- End function
	.section	.text._Z11getOptionalIiET_RKN8nlohmann10basic_jsonISt3mapSt6vectorNSt7__cxx1112basic_stringIcSt11char_traitsIcESaIcEEEblmdSaNS1_14adl_serializerEEESA_S0_,"axG",@progbits,_Z11getOptionalIiET_RKN8nlohmann10basic_jsonISt3mapSt6vectorNSt7__cxx1112basic_stringIcSt11char_traitsIcESaIcEEEblmdSaNS1_14adl_serializerEEESA_S0_,comdat
	.weak	_Z11getOptionalIiET_RKN8nlohmann10basic_jsonISt3mapSt6vectorNSt7__cxx1112basic_stringIcSt11char_traitsIcESaIcEEEblmdSaNS1_14adl_serializerEEESA_S0_ # -- Begin function _Z11getOptionalIiET_RKN8nlohmann10basic_jsonISt3mapSt6vectorNSt7__cxx1112basic_stringIcSt11char_traitsIcESaIcEEEblmdSaNS1_14adl_serializerEEESA_S0_
	.p2align	2
	.type	_Z11getOptionalIiET_RKN8nlohmann10basic_jsonISt3mapSt6vectorNSt7__cxx1112basic_stringIcSt11char_traitsIcESaIcEEEblmdSaNS1_14adl_serializerEEESA_S0_,@function
_Z11getOptionalIiET_RKN8nlohmann10basic_jsonISt3mapSt6vectorNSt7__cxx1112basic_stringIcSt11char_traitsIcESaIcEEEblmdSaNS1_14adl_serializerEEESA_S0_: # @_Z11getOptionalIiET_RKN8nlohmann10basic_jsonISt3mapSt6vectorNSt7__cxx1112basic_stringIcSt11char_traitsIcESaIcEEEblmdSaNS1_14adl_serializerEEESA_S0_
	.cfi_startproc
# %bb.0:                                # %entry
	addi	sp, sp, -128
	.cfi_def_cfa_offset 128
	sd	ra, 120(sp)
	sd	s0, 112(sp)
	sd	s1, 104(sp)
	sd	s2, 96(sp)
	sd	s3, 88(sp)
	.cfi_offset ra, -8
	.cfi_offset s0, -16
	.cfi_offset s1, -24
	.cfi_offset s2, -32
	.cfi_offset s3, -40
	addi	s0, sp, 128
	.cfi_def_cfa s0, 0
	mv	s3, a1
	sd	a0, -48(s0)
	sw	a2, -52(s0)
	lw	a0, -52(s0)
	sw	a0, -56(s0)
	ld	a1, -48(s0)
	addi	s2, s0, -88
	mv	a0, s2
	mv	a2, s3
	call	_ZNK8nlohmann10basic_jsonISt3mapSt6vectorNSt7__cxx1112basic_stringIcSt11char_traitsIcESaIcEEEblmdSaNS_14adl_serializerEE4findIRS8_EENS_6detail9iter_implIKSA_EEOT_
	ld	a1, -48(s0)
	addi	s1, s0, -120
	mv	a0, s1
	call	_ZNK8nlohmann10basic_jsonISt3mapSt6vectorNSt7__cxx1112basic_stringIcSt11char_traitsIcESaIcEEEblmdSaNS_14adl_serializerEE3endEv
	mv	a0, s2
	mv	a1, s1
	call	_ZNK8nlohmann6detail9iter_implIKNS_10basic_jsonISt3mapSt6vectorNSt7__cxx1112basic_stringIcSt11char_traitsIcESaIcEEEblmdSaNS_14adl_serializerEEEEneERKSE_
	beqz	a0, .LBB10_2
	j	.LBB10_1
.LBB10_1:                               # %if.then
	ld	a0, -48(s0)
	mv	a1, s3
	call	_ZNK8nlohmann10basic_jsonISt3mapSt6vectorNSt7__cxx1112basic_stringIcSt11char_traitsIcESaIcEEEblmdSaNS_14adl_serializerEE2atERKS8_
	call	_ZNK8nlohmann10basic_jsonISt3mapSt6vectorNSt7__cxx1112basic_stringIcSt11char_traitsIcESaIcEEEblmdSaNS_14adl_serializerEE3getIiiLi0EEET0_v
	sw	a0, -56(s0)
	j	.LBB10_2
.LBB10_2:                               # %if.end
	lw	a0, -56(s0)
	ld	s3, 88(sp)
	ld	s2, 96(sp)
	ld	s1, 104(sp)
	ld	s0, 112(sp)
	.cfi_def_cfa sp, 128
	ld	ra, 120(sp)
	.cfi_restore ra
	.cfi_restore s0
	.cfi_restore s1
	.cfi_restore s2
	.cfi_restore s3
	addi	sp, sp, 128
	.cfi_def_cfa_offset 0
	ret
.Lfunc_end10:
	.size	_Z11getOptionalIiET_RKN8nlohmann10basic_jsonISt3mapSt6vectorNSt7__cxx1112basic_stringIcSt11char_traitsIcESaIcEEEblmdSaNS1_14adl_serializerEEESA_S0_, .Lfunc_end10-_Z11getOptionalIiET_RKN8nlohmann10basic_jsonISt3mapSt6vectorNSt7__cxx1112basic_stringIcSt11char_traitsIcESaIcEEEblmdSaNS1_14adl_serializerEEESA_S0_
	.cfi_endproc
                                        # -- End function
	.section	.text._ZNSt6vectorISt10shared_ptrIN7Surface4BaseEESaIS3_EEaSERKS5_,"axG",@progbits,_ZNSt6vectorISt10shared_ptrIN7Surface4BaseEESaIS3_EEaSERKS5_,comdat
	.weak	_ZNSt6vectorISt10shared_ptrIN7Surface4BaseEESaIS3_EEaSERKS5_ # -- Begin function _ZNSt6vectorISt10shared_ptrIN7Surface4BaseEESaIS3_EEaSERKS5_
	.p2align	2
	.type	_ZNSt6vectorISt10shared_ptrIN7Surface4BaseEESaIS3_EEaSERKS5_,@function
_ZNSt6vectorISt10shared_ptrIN7Surface4BaseEESaIS3_EEaSERKS5_: # @_ZNSt6vectorISt10shared_ptrIN7Surface4BaseEESaIS3_EEaSERKS5_
	.cfi_startproc
# %bb.0:                                # %entry
	addi	sp, sp, -144
	.cfi_def_cfa_offset 144
	sd	ra, 136(sp)
	sd	s0, 128(sp)
	sd	s1, 120(sp)
	sd	s2, 112(sp)
	sd	s3, 104(sp)
	sd	s4, 96(sp)
	.cfi_offset ra, -8
	.cfi_offset s0, -16
	.cfi_offset s1, -24
	.cfi_offset s2, -32
	.cfi_offset s3, -40
	.cfi_offset s4, -48
	addi	s0, sp, 144
	.cfi_def_cfa s0, 0
	sd	a0, -56(s0)
	sd	a1, -64(s0)
	ld	s1, -56(s0)
	ld	a0, -64(s0)
	beq	a0, s1, .LBB11_8
	j	.LBB11_1
.LBB11_1:                               # %if.then
	ld	a0, -64(s0)
	call	_ZNKSt6vectorISt10shared_ptrIN7Surface4BaseEESaIS3_EE4sizeEv
	sd	a0, -72(s0)
	ld	s2, -72(s0)
	mv	a0, s1
	call	_ZNKSt6vectorISt10shared_ptrIN7Surface4BaseEESaIS3_EE8capacityEv
	bgeu	a0, s2, .LBB11_3
	j	.LBB11_2
.LBB11_2:                               # %if.then4
	ld	s2, -72(s0)
	ld	a0, -64(s0)
	call	_ZNKSt6vectorISt10shared_ptrIN7Surface4BaseEESaIS3_EE5beginEv
	sd	a0, -88(s0)
	ld	a0, -64(s0)
	call	_ZNKSt6vectorISt10shared_ptrIN7Surface4BaseEESaIS3_EE3endEv
	sd	a0, -96(s0)
	ld	a2, -88(s0)
	ld	a3, -96(s0)
	mv	a0, s1
	mv	a1, s2
	call	_ZNSt6vectorISt10shared_ptrIN7Surface4BaseEESaIS3_EE20_M_allocate_and_copyIN9__gnu_cxx17__normal_iteratorIPKS3_S5_EEEEPS3_mT_SD_
	sd	a0, -80(s0)
	ld	s2, 0(s1)
	ld	s3, 8(s1)
	mv	a0, s1
	call	_ZNSt12_Vector_baseISt10shared_ptrIN7Surface4BaseEESaIS3_EE19_M_get_Tp_allocatorEv
	mv	a2, a0
	mv	a0, s2
	mv	a1, s3
	call	_ZSt8_DestroyIPSt10shared_ptrIN7Surface4BaseEES3_EvT_S5_RSaIT0_E
	ld	a1, 0(s1)
	ld	a0, 16(s1)
	sub	a0, a0, a1
	srai	a2, a0, 4
	mv	a0, s1
	call	_ZNSt12_Vector_baseISt10shared_ptrIN7Surface4BaseEESaIS3_EE13_M_deallocateEPS3_m
	ld	a0, -80(s0)
	sd	a0, 0(s1)
	ld	a0, 0(s1)
	ld	a1, -72(s0)
	slli	a1, a1, 4
	add	a0, a0, a1
	sd	a0, 16(s1)
	j	.LBB11_7
.LBB11_3:                               # %if.else
	mv	a0, s1
	call	_ZNKSt6vectorISt10shared_ptrIN7Surface4BaseEESaIS3_EE4sizeEv
	ld	a1, -72(s0)
	bltu	a0, a1, .LBB11_5
	j	.LBB11_4
.LBB11_4:                               # %if.then29
	ld	a0, -64(s0)
	call	_ZNKSt6vectorISt10shared_ptrIN7Surface4BaseEESaIS3_EE5beginEv
	sd	a0, -112(s0)
	ld	a0, -64(s0)
	call	_ZNKSt6vectorISt10shared_ptrIN7Surface4BaseEESaIS3_EE3endEv
	sd	a0, -120(s0)
	mv	a0, s1
	call	_ZNSt6vectorISt10shared_ptrIN7Surface4BaseEESaIS3_EE5beginEv
	sd	a0, -128(s0)
	ld	a0, -112(s0)
	ld	a1, -120(s0)
	ld	a2, -128(s0)
	call	_ZSt4copyIN9__gnu_cxx17__normal_iteratorIPKSt10shared_ptrIN7Surface4BaseEESt6vectorIS5_SaIS5_EEEENS1_IPS5_SA_EEET0_T_SF_SE_
	sd	a0, -104(s0)
	mv	a0, s1
	call	_ZNSt6vectorISt10shared_ptrIN7Surface4BaseEESaIS3_EE3endEv
	sd	a0, -136(s0)
	mv	a0, s1
	call	_ZNSt12_Vector_baseISt10shared_ptrIN7Surface4BaseEESaIS3_EE19_M_get_Tp_allocatorEv
	mv	a2, a0
	ld	a0, -104(s0)
	ld	a1, -136(s0)
	call	_ZSt8_DestroyIN9__gnu_cxx17__normal_iteratorIPSt10shared_ptrIN7Surface4BaseEESt6vectorIS5_SaIS5_EEEES5_EvT_SB_RSaIT0_E
	j	.LBB11_6
.LBB11_5:                               # %if.else61
	ld	a0, -64(s0)
	ld	s2, 0(a0)
	mv	a0, s1
	call	_ZNKSt6vectorISt10shared_ptrIN7Surface4BaseEESaIS3_EE4sizeEv
	slli	a0, a0, 4
	add	a1, s2, a0
	ld	a2, 0(s1)
	mv	a0, s2
	call	_ZSt4copyIPSt10shared_ptrIN7Surface4BaseEES4_ET0_T_S6_S5_
	ld	a0, -64(s0)
	ld	s2, 0(a0)
	mv	a0, s1
	call	_ZNKSt6vectorISt10shared_ptrIN7Surface4BaseEESaIS3_EE4sizeEv
	slli	a0, a0, 4
	add	s2, s2, a0
	ld	a0, -64(s0)
	ld	s3, 8(a0)
	ld	s4, 8(s1)
	mv	a0, s1
	call	_ZNSt12_Vector_baseISt10shared_ptrIN7Surface4BaseEESaIS3_EE19_M_get_Tp_allocatorEv
	mv	a3, a0
	mv	a0, s2
	mv	a1, s3
	mv	a2, s4
	call	_ZSt22__uninitialized_copy_aIPSt10shared_ptrIN7Surface4BaseEES4_S3_ET0_T_S6_S5_RSaIT1_E
	j	.LBB11_6
.LBB11_6:                               # %if.end
	j	.LBB11_7
.LBB11_7:                               # %if.end81
	ld	a0, 0(s1)
	ld	a1, -72(s0)
	slli	a1, a1, 4
	add	a0, a0, a1
	sd	a0, 8(s1)
	j	.LBB11_8
.LBB11_8:                               # %if.end87
	mv	a0, s1
	ld	s4, 96(sp)
	ld	s3, 104(sp)
	ld	s2, 112(sp)
	ld	s1, 120(sp)
	ld	s0, 128(sp)
	.cfi_def_cfa sp, 144
	ld	ra, 136(sp)
	.cfi_restore ra
	.cfi_restore s0
	.cfi_restore s1
	.cfi_restore s2
	.cfi_restore s3
	.cfi_restore s4
	addi	sp, sp, 144
	.cfi_def_cfa_offset 0
	ret
.Lfunc_end11:
	.size	_ZNSt6vectorISt10shared_ptrIN7Surface4BaseEESaIS3_EEaSERKS5_, .Lfunc_end11-_ZNSt6vectorISt10shared_ptrIN7Surface4BaseEESaIS3_EEaSERKS5_
	.cfi_endproc
                                        # -- End function
	.section	.sdata,"aw",@progbits
	.p2align	3               # -- Begin function _ZN3BVH27recursiveBuildQuaternarySAHESt10shared_ptrINS_9BuildNodeEE
.LCPI12_0:
	.quad	4472406533629990549     # double 1.0000000000000001E-9
.LCPI12_1:
	.quad	4607182418800017408     # double 1
	.text
	.globl	_ZN3BVH27recursiveBuildQuaternarySAHESt10shared_ptrINS_9BuildNodeEE
	.p2align	2
	.type	_ZN3BVH27recursiveBuildQuaternarySAHESt10shared_ptrINS_9BuildNodeEE,@function
_ZN3BVH27recursiveBuildQuaternarySAHESt10shared_ptrINS_9BuildNodeEE: # @_ZN3BVH27recursiveBuildQuaternarySAHESt10shared_ptrINS_9BuildNodeEE
.Lfunc_begin4:
	.cfi_startproc
	.cfi_personality 155, DW.ref.__gxx_personality_v0
	.cfi_lsda 27, .Lexception4
# %bb.0:                                # %entry
	addi	sp, sp, -1360
	.cfi_def_cfa_offset 1360
	sd	ra, 1352(sp)
	sd	s0, 1344(sp)
	sd	s1, 1336(sp)
	sd	s2, 1328(sp)
	sd	s3, 1320(sp)
	sd	s4, 1312(sp)
	sd	s5, 1304(sp)
	sd	s6, 1296(sp)
	.cfi_offset ra, -8
	.cfi_offset s0, -16
	.cfi_offset s1, -24
	.cfi_offset s2, -32
	.cfi_offset s3, -40
	.cfi_offset s4, -48
	.cfi_offset s5, -56
	.cfi_offset s6, -64
	addi	s0, sp, 1360
	.cfi_def_cfa s0, 0
	mv	s2, a1
	sd	a0, -80(s0)
	ld	s4, -80(s0)
	lw	s1, 104(s4)
	addi	a0, s1, 1
	sw	a0, 104(s4)
	mv	a0, s2
	call	_ZNKSt19__shared_ptr_accessIN3BVH9BuildNodeELN9__gnu_cxx12_Lock_policyE0ELb0ELb0EEptEv
	sw	s1, 96(a0)
	lw	a1, 48(s4)
	addi	a0, s0, -88
	call	_ZN3glm3vecILi2EiLNS_9qualifierE0EEC2Ei
	mv	a0, s2
	call	_ZNKSt19__shared_ptr_accessIN3BVH9BuildNodeELN9__gnu_cxx12_Lock_policyE0ELb0ELb0EEptEv
	addi	a0, a0, 72
	sd	a0, -96(s0)
	ld	a0, -96(s0)
	call	_ZNKSt6vectorISt10shared_ptrIN7Surface4BaseEESaIS3_EE4sizeEv
	addi	a1, zero, 8
	bltu	a1, a0, .LBB12_2
	j	.LBB12_1
.LBB12_1:                               # %if.then
	j	.LBB12_149
.LBB12_2:                               # %if.end
	addi	a0, s0, -144
	call	_ZN11BoundingBoxC2Ev
	ld	a0, -96(s0)
	sd	a0, -152(s0)
	ld	a0, -152(s0)
	call	_ZNSt6vectorISt10shared_ptrIN7Surface4BaseEESaIS3_EE5beginEv
	sd	a0, -160(s0)
	ld	a0, -152(s0)
	call	_ZNSt6vectorISt10shared_ptrIN7Surface4BaseEESaIS3_EE3endEv
	sd	a0, -168(s0)
	j	.LBB12_3
.LBB12_3:                               # %for.cond
                                        # =>This Inner Loop Header: Depth=1
	addi	a0, s0, -160
	addi	a1, s0, -168
	call	_ZN9__gnu_cxxneIPSt10shared_ptrIN7Surface4BaseEESt6vectorIS4_SaIS4_EEEEbRKNS_17__normal_iteratorIT_T0_EESE_
	beqz	a0, .LBB12_6
	j	.LBB12_4
.LBB12_4:                               # %for.body
                                        #   in Loop: Header=BB12_3 Depth=1
	addi	a0, s0, -160
	call	_ZNK9__gnu_cxx17__normal_iteratorIPSt10shared_ptrIN7Surface4BaseEESt6vectorIS4_SaIS4_EEEdeEv
	sd	a0, -176(s0)
	ld	a0, -176(s0)
	call	_ZNKSt19__shared_ptr_accessIN7Surface4BaseELN9__gnu_cxx12_Lock_policyE0ELb0ELb0EEptEv
	mv	a1, a0
	addi	s1, s0, -248
	mv	a0, s1
	call	_ZNK7Surface4Base2BBEv
	addi	s3, s0, -200
	mv	a0, s3
	mv	a1, s1
	call	_ZNK11BoundingBox8centroidEv
	addi	a0, s0, -144
	mv	a1, s3
	call	_ZN11BoundingBox5mergeERKN3glm3vecILi3EdLNS0_9qualifierE0EEE
	j	.LBB12_5
.LBB12_5:                               # %for.inc
                                        #   in Loop: Header=BB12_3 Depth=1
	addi	a0, s0, -160
	call	_ZN9__gnu_cxx17__normal_iteratorIPSt10shared_ptrIN7Surface4BaseEESt6vectorIS4_SaIS4_EEEppEv
	j	.LBB12_3
.LBB12_6:                               # %for.end
	addi	a0, s0, -272
	addi	a1, s0, -144
	call	_ZNK11BoundingBox10dimensionsEv
	fld	ft0, -272(s0)
	fld	ft1, -264(s0)
	flt.d	a0, ft1, ft0
	xori	a0, a0, 1
	bnez	a0, .LBB12_11
	j	.LBB12_7
.LBB12_7:                               # %cond.true
	fld	ft0, -264(s0)
	fld	ft1, -256(s0)
	flt.d	a0, ft1, ft0
	xori	a0, a0, 1
	bnez	a0, .LBB12_9
	j	.LBB12_8
.LBB12_8:                               # %cond.true17
	addi	a0, s0, -280
	mv	a1, zero
	addi	a2, zero, 1
	call	_ZN3glm3vecILi2EiLNS_9qualifierE0EEC2Eii
	j	.LBB12_10
.LBB12_9:                               # %cond.false
	addi	a0, s0, -280
	mv	a1, zero
	addi	a2, zero, 2
	call	_ZN3glm3vecILi2EiLNS_9qualifierE0EEC2Eii
	j	.LBB12_10
.LBB12_10:                              # %cond.end
	j	.LBB12_15
.LBB12_11:                              # %cond.false18
	fld	ft0, -272(s0)
	fld	ft1, -256(s0)
	flt.d	a0, ft1, ft0
	xori	a0, a0, 1
	bnez	a0, .LBB12_13
	j	.LBB12_12
.LBB12_12:                              # %cond.true22
	addi	a0, s0, -280
	mv	a1, zero
	addi	a2, zero, 1
	call	_ZN3glm3vecILi2EiLNS_9qualifierE0EEC2Eii
	j	.LBB12_14
.LBB12_13:                              # %cond.false23
	addi	a0, s0, -280
	addi	a1, zero, 1
	addi	a2, zero, 2
	call	_ZN3glm3vecILi2EiLNS_9qualifierE0EEC2Eii
	j	.LBB12_14
.LBB12_14:                              # %cond.end24
	j	.LBB12_15
.LBB12_15:                              # %cond.end25
	lw	a1, -280(s0)
	addi	a0, s0, -272
	call	_ZN3glm3vecILi3EdLNS_9qualifierE0EEixEi
	fld	ft0, 0(a0)
	lui	a0, %hi(.LCPI12_0)
	addi	a0, a0, %lo(.LCPI12_0)
	fld	ft1, 0(a0)
	flt.d	a0, ft0, ft1
	bnez	a0, .LBB12_17
	j	.LBB12_16
.LBB12_16:                              # %lor.lhs.false
	lw	a1, -276(s0)
	addi	a0, s0, -272
	call	_ZN3glm3vecILi3EdLNS_9qualifierE0EEixEi
	fld	ft0, 0(a0)
	lui	a0, %hi(.LCPI12_0)
	addi	a0, a0, %lo(.LCPI12_0)
	fld	ft1, 0(a0)
	flt.d	a0, ft0, ft1
	xori	a0, a0, 1
	bnez	a0, .LBB12_20
	j	.LBB12_17
.LBB12_17:                              # %if.then32
	lw	a0, 104(s4)
	addi	a0, a0, -1
	sw	a0, 104(s4)
	addi	s1, s0, -296
	mv	a0, s1
	mv	a1, s2
	call	_ZNSt10shared_ptrIN3BVH9BuildNodeEEC2ERKS2_
.Ltmp196:
	mv	a0, s4
	mv	a1, s1
	call	_ZN3BVH23recursiveBuildBinarySAHESt10shared_ptrINS_9BuildNodeEE
.Ltmp197:
	j	.LBB12_18
.LBB12_18:                              # %invoke.cont
	addi	a0, s0, -296
	call	_ZNSt10shared_ptrIN3BVH9BuildNodeEED2Ev
	j	.LBB12_149
.LBB12_19:                              # %lpad
.Ltmp198:
	sd	a0, -304(s0)
	sw	a1, -308(s0)
	addi	a0, s0, -296
	call	_ZNSt10shared_ptrIN3BVH9BuildNodeEED2Ev
	j	.LBB12_152
.LBB12_20:                              # %if.end34
	lw	a1, -280(s0)
	addi	s3, s0, -144
	mv	a0, s3
	call	_ZN3glm3vecILi3EdLNS_9qualifierE0EEixEi
	lw	a1, -276(s0)
	ld	s1, 0(a0)
	mv	a0, s3
	call	_ZN3glm3vecILi3EdLNS_9qualifierE0EEixEi
	ld	a2, 0(a0)
	addi	s3, s0, -328
	mv	a0, s3
	mv	a1, s1
	call	_ZN3glm3vecILi2EdLNS_9qualifierE0EEC2Edd
	lw	a1, -280(s0)
	addi	s5, s0, -272
	mv	a0, s5
	call	_ZN3glm3vecILi3EdLNS_9qualifierE0EEixEi
	lw	a1, -276(s0)
	ld	s1, 0(a0)
	mv	a0, s5
	call	_ZN3glm3vecILi3EdLNS_9qualifierE0EEixEi
	ld	a2, 0(a0)
	addi	s5, s0, -344
	mv	a0, s5
	mv	a1, s1
	call	_ZN3glm3vecILi2EdLNS_9qualifierE0EEC2Edd
	addi	a0, s0, -280
	sd	a0, -376(s0)
	sd	s3, -368(s0)
	sd	s5, -360(s0)
	addi	a0, s0, -88
	sd	a0, -352(s0)
	lw	s3, -88(s0)
	lw	s5, -84(s0)
	sw	zero, -484(s0)
	addi	s1, s0, -536
	mv	a0, s1
	call	_ZN11BoundingBoxC2Ev
	addi	s6, s0, -480
	addi	a1, s0, -484
	mv	a0, s6
	mv	a2, s1
	call	_ZNSt4pairIm11BoundingBoxEC2IiS0_Lb1EEEOT_OT0_
	addi	s1, s0, -544
	mv	a0, s1
	call	_ZNSaISt4pairIm11BoundingBoxEEC2Ev
.Ltmp102:
	addi	a0, s0, -424
	mv	a1, s5
	mv	a2, s6
	mv	a3, s1
	call	_ZNSt6vectorISt4pairIm11BoundingBoxESaIS2_EEC2EmRKS2_RKS3_
.Ltmp103:
	j	.LBB12_21
.LBB12_21:                              # %invoke.cont53
	addi	s1, s0, -552
	mv	a0, s1
	call	_ZNSaISt6vectorISt4pairIm11BoundingBoxESaIS2_EEEC2Ev
.Ltmp105:
	addi	a0, s0, -400
	addi	a2, s0, -424
	mv	a1, s3
	mv	a3, s1
	call	_ZNSt6vectorIS_ISt4pairIm11BoundingBoxESaIS2_EESaIS4_EEC2EmRKS4_RKS5_
.Ltmp106:
	j	.LBB12_22
.LBB12_22:                              # %invoke.cont56
	addi	a0, s0, -552
	call	_ZNSaISt6vectorISt4pairIm11BoundingBoxESaIS2_EEED2Ev
	addi	a0, s0, -424
	call	_ZNSt6vectorISt4pairIm11BoundingBoxESaIS2_EED2Ev
	addi	a0, s0, -544
	call	_ZNSaISt4pairIm11BoundingBoxEED2Ev
	ld	a0, -96(s0)
	sd	a0, -560(s0)
	ld	a0, -560(s0)
	call	_ZNSt6vectorISt10shared_ptrIN7Surface4BaseEESaIS3_EE5beginEv
	sd	a0, -568(s0)
	ld	a0, -560(s0)
	call	_ZNSt6vectorISt10shared_ptrIN7Surface4BaseEESaIS3_EE3endEv
	sd	a0, -576(s0)
	j	.LBB12_23
.LBB12_23:                              # %for.cond66
                                        # =>This Inner Loop Header: Depth=1
	addi	a0, s0, -568
	addi	a1, s0, -576
	call	_ZN9__gnu_cxxneIPSt10shared_ptrIN7Surface4BaseEESt6vectorIS4_SaIS4_EEEEbRKNS_17__normal_iteratorIT_T0_EESE_
	beqz	a0, .LBB12_37
	j	.LBB12_24
.LBB12_24:                              # %for.body68
                                        #   in Loop: Header=BB12_23 Depth=1
	addi	a0, s0, -568
	call	_ZNK9__gnu_cxx17__normal_iteratorIPSt10shared_ptrIN7Surface4BaseEESt6vectorIS4_SaIS4_EEEdeEv
	sd	a0, -584(s0)
	ld	a0, -584(s0)
	call	_ZNKSt19__shared_ptr_accessIN7Surface4BaseELN9__gnu_cxx12_Lock_policyE0ELb0ELb0EEptEv
	mv	a1, a0
.Ltmp185:
	addi	a0, s0, -664
	call	_ZNK7Surface4Base2BBEv
.Ltmp186:
	j	.LBB12_25
.LBB12_25:                              # %invoke.cont75
                                        #   in Loop: Header=BB12_23 Depth=1
.Ltmp187:
	addi	a0, s0, -616
	addi	a1, s0, -664
	call	_ZNK11BoundingBox8centroidEv
.Ltmp188:
	j	.LBB12_26
.LBB12_26:                              # %invoke.cont76
                                        #   in Loop: Header=BB12_23 Depth=1
.Ltmp189:
	addi	a0, s0, -376
	addi	a1, s0, -616
	call	_ZZN3BVH27recursiveBuildQuaternarySAHESt10shared_ptrINS_9BuildNodeEEENK3$_1clERKN3glm3vecILi3EdLNS4_9qualifierE0EEE
.Ltmp190:
	j	.LBB12_27
.LBB12_27:                              # %invoke.cont77
                                        #   in Loop: Header=BB12_23 Depth=1
	sw	a0, -592(s0)
	srli	a0, a0, 32
	sw	a0, -588(s0)
	lw	a1, -592(s0)
	addi	s1, s0, -400
	mv	a0, s1
	call	_ZNSt6vectorIS_ISt4pairIm11BoundingBoxESaIS2_EESaIS4_EEixEm
	lw	a1, -588(s0)
	call	_ZNSt6vectorISt4pairIm11BoundingBoxESaIS2_EEixEm
	ld	a1, 0(a0)
	addi	a1, a1, 1
	sd	a1, 0(a0)
	lw	a1, -592(s0)
	mv	a0, s1
	call	_ZNSt6vectorIS_ISt4pairIm11BoundingBoxESaIS2_EESaIS4_EEixEm
	lw	a1, -588(s0)
	call	_ZNSt6vectorISt4pairIm11BoundingBoxESaIS2_EEixEm
	addi	s3, a0, 8
	ld	a0, -584(s0)
	call	_ZNKSt19__shared_ptr_accessIN7Surface4BaseELN9__gnu_cxx12_Lock_policyE0ELb0ELb0EEptEv
	mv	a1, a0
.Ltmp191:
	addi	a0, s0, -712
	call	_ZNK7Surface4Base2BBEv
.Ltmp192:
	j	.LBB12_28
.LBB12_28:                              # %invoke.cont94
                                        #   in Loop: Header=BB12_23 Depth=1
.Ltmp193:
	addi	a1, s0, -712
	mv	a0, s3
	call	_ZN11BoundingBox5mergeERKS_
.Ltmp194:
	j	.LBB12_29
.LBB12_29:                              # %invoke.cont95
                                        #   in Loop: Header=BB12_23 Depth=1
	j	.LBB12_30
.LBB12_30:                              # %for.inc96
                                        #   in Loop: Header=BB12_23 Depth=1
	addi	a0, s0, -568
	call	_ZN9__gnu_cxx17__normal_iteratorIPSt10shared_ptrIN7Surface4BaseEESt6vectorIS4_SaIS4_EEEppEv
	j	.LBB12_23
.LBB12_31:                              # %lpad52
.Ltmp104:
	sd	a0, -304(s0)
	sw	a1, -308(s0)
	j	.LBB12_33
.LBB12_32:                              # %lpad55
.Ltmp107:
	sd	a0, -304(s0)
	sw	a1, -308(s0)
	addi	a0, s0, -552
	call	_ZNSaISt6vectorISt4pairIm11BoundingBoxESaIS2_EEED2Ev
	addi	a0, s0, -424
	call	_ZNSt6vectorISt4pairIm11BoundingBoxESaIS2_EED2Ev
	j	.LBB12_33
.LBB12_33:                              # %ehcleanup
	addi	a0, s0, -544
	call	_ZNSaISt4pairIm11BoundingBoxEED2Ev
	j	.LBB12_152
.LBB12_34:                              # %lpad74.loopexit
.Ltmp143:
	j	.LBB12_36
.LBB12_35:                              # %lpad74.loopexit.split-lp
.Ltmp195:
	j	.LBB12_36
.LBB12_36:                              # %lpad74
	sd	a0, -304(s0)
	sw	a1, -308(s0)
	j	.LBB12_151
.LBB12_37:                              # %for.end98
	call	_ZNSt14numeric_limitsIdE3maxEv
	sd	a0, -720(s0)
	sd	zero, -728(s0)
	sd	zero, -736(s0)
	j	.LBB12_38
.LBB12_38:                              # %for.cond100
                                        # =>This Loop Header: Depth=1
                                        #     Child Loop BB12_40 Depth 2
                                        #       Child Loop BB12_45 Depth 3
                                        #         Child Loop BB12_60 Depth 4
                                        #           Child Loop BB12_64 Depth 5
                                        #       Child Loop BB12_87 Depth 3
	ld	a0, -736(s0)
	lw	a1, -88(s0)
	addiw	a1, a1, -1
	bgeu	a0, a1, .LBB12_101
	j	.LBB12_39
.LBB12_39:                              # %for.body104
                                        #   in Loop: Header=BB12_38 Depth=1
	sd	zero, -744(s0)
	j	.LBB12_40
.LBB12_40:                              # %for.cond105
                                        #   Parent Loop BB12_38 Depth=1
                                        # =>  This Loop Header: Depth=2
                                        #       Child Loop BB12_45 Depth 3
                                        #         Child Loop BB12_60 Depth 4
                                        #           Child Loop BB12_64 Depth 5
                                        #       Child Loop BB12_87 Depth 3
	ld	a0, -744(s0)
	lw	a1, -84(s0)
	addiw	a1, a1, -1
	bgeu	a0, a1, .LBB12_99
	j	.LBB12_41
.LBB12_41:                              # %for.body110
                                        #   in Loop: Header=BB12_40 Depth=2
.Ltmp141:
	addi	a0, s0, -816
	call	_ZN11BoundingBoxC2Ev
.Ltmp142:
	j	.LBB12_42
.LBB12_42:                              # %invoke.cont112
                                        #   in Loop: Header=BB12_40 Depth=2
	addi	s1, s0, -824
	mv	a0, s1
	call	_ZNSaI11BoundingBoxEC2Ev
.Ltmp144:
	addi	a0, s0, -768
	addi	a2, s0, -816
	addi	a1, zero, 4
	mv	a3, s1
	call	_ZNSt6vectorI11BoundingBoxSaIS0_EEC2EmRKS0_RKS1_
.Ltmp145:
	j	.LBB12_43
.LBB12_43:                              # %invoke.cont115
                                        #   in Loop: Header=BB12_40 Depth=2
	addi	a0, s0, -824
	call	_ZNSaI11BoundingBoxED2Ev
	sd	zero, -856(s0)
	addi	s1, s0, -864
	mv	a0, s1
	call	_ZNSaImEC2Ev
.Ltmp147:
	addi	a0, s0, -848
	addi	a2, s0, -856
	addi	a1, zero, 4
	mv	a3, s1
	call	_ZNSt6vectorImSaImEEC2EmRKmRKS0_
.Ltmp148:
	j	.LBB12_44
.LBB12_44:                              # %invoke.cont120
                                        #   in Loop: Header=BB12_40 Depth=2
	addi	a0, s0, -864
	call	_ZNSaImED2Ev
	sb	zero, -865(s0)
	j	.LBB12_45
.LBB12_45:                              # %for.cond122
                                        #   Parent Loop BB12_38 Depth=1
                                        #     Parent Loop BB12_40 Depth=2
                                        # =>    This Loop Header: Depth=3
                                        #         Child Loop BB12_60 Depth 4
                                        #           Child Loop BB12_64 Depth 5
	lbu	a0, -865(s0)
	addi	a1, zero, 3
	blt	a1, a0, .LBB12_86
	j	.LBB12_46
.LBB12_46:                              # %for.body125
                                        #   in Loop: Header=BB12_45 Depth=3
.Ltmp158:
	addi	a0, s0, -904
	mv	a1, zero
	call	_ZN3glm3vecILi2EiLNS_9qualifierE0EEC2Ei
.Ltmp159:
	j	.LBB12_47
.LBB12_47:                              # %invoke.cont128
                                        #   in Loop: Header=BB12_45 Depth=3
	addi	s1, s0, -912
	mv	a0, s1
	call	_ZNSaIN3glm3vecILi2EiLNS_9qualifierE0EEEEC2Ev
.Ltmp161:
	addi	a0, s0, -896
	addi	a2, s0, -904
	addi	a1, zero, 2
	mv	a3, s1
	call	_ZNSt6vectorIN3glm3vecILi2EiLNS0_9qualifierE0EEESaIS3_EEC2EmRKS3_RKS4_
.Ltmp162:
	j	.LBB12_48
.LBB12_48:                              # %invoke.cont131
                                        #   in Loop: Header=BB12_45 Depth=3
	addi	a0, s0, -912
	call	_ZNSaIN3glm3vecILi2EiLNS_9qualifierE0EEEED2Ev
	lbu	a0, -865(s0)
	andi	a0, a0, 1
	beqz	a0, .LBB12_51
	j	.LBB12_49
.LBB12_49:                              # %cond.true135
                                        #   in Loop: Header=BB12_45 Depth=3
	ld	a0, -736(s0)
	addi	a1, a0, 1
	lw	a2, -88(s0)
.Ltmp166:
	addi	a0, s0, -920
	call	_ZN3glm3vecILi2EiLNS_9qualifierE0EEC2ImiEET_T0_
.Ltmp167:
	j	.LBB12_50
.LBB12_50:                              # %invoke.cont138
                                        #   in Loop: Header=BB12_45 Depth=3
	j	.LBB12_53
.LBB12_51:                              # %cond.false139
                                        #   in Loop: Header=BB12_45 Depth=3
	ld	a0, -736(s0)
	addi	a2, a0, 1
.Ltmp164:
	addi	a0, s0, -920
	mv	a1, zero
	call	_ZN3glm3vecILi2EiLNS_9qualifierE0EEC2IimEET_T0_
.Ltmp165:
	j	.LBB12_52
.LBB12_52:                              # %invoke.cont141
                                        #   in Loop: Header=BB12_45 Depth=3
	j	.LBB12_53
.LBB12_53:                              # %cond.end142
                                        #   in Loop: Header=BB12_45 Depth=3
	addi	a0, s0, -896
	mv	a1, zero
	call	_ZNSt6vectorIN3glm3vecILi2EiLNS0_9qualifierE0EEESaIS3_EEixEm
	lw	a1, -916(s0)
	sw	a1, 4(a0)
	lw	a1, -920(s0)
	sw	a1, 0(a0)
	lbu	a0, -865(s0)
	andi	a0, a0, 2
	beqz	a0, .LBB12_56
	j	.LBB12_54
.LBB12_54:                              # %cond.true148
                                        #   in Loop: Header=BB12_45 Depth=3
	ld	a0, -744(s0)
	addi	a1, a0, 1
	lw	a2, -84(s0)
.Ltmp170:
	addi	a0, s0, -928
	call	_ZN3glm3vecILi2EiLNS_9qualifierE0EEC2ImiEET_T0_
.Ltmp171:
	j	.LBB12_55
.LBB12_55:                              # %invoke.cont151
                                        #   in Loop: Header=BB12_45 Depth=3
	j	.LBB12_58
.LBB12_56:                              # %cond.false152
                                        #   in Loop: Header=BB12_45 Depth=3
	ld	a0, -744(s0)
	addi	a2, a0, 1
.Ltmp168:
	addi	a0, s0, -928
	mv	a1, zero
	call	_ZN3glm3vecILi2EiLNS_9qualifierE0EEC2IimEET_T0_
.Ltmp169:
	j	.LBB12_57
.LBB12_57:                              # %invoke.cont154
                                        #   in Loop: Header=BB12_45 Depth=3
	j	.LBB12_58
.LBB12_58:                              # %cond.end155
                                        #   in Loop: Header=BB12_45 Depth=3
	addi	s1, s0, -896
	mv	a0, s1
	addi	a1, zero, 1
	call	_ZNSt6vectorIN3glm3vecILi2EiLNS0_9qualifierE0EEESaIS3_EEixEm
	lw	a1, -924(s0)
	sw	a1, 4(a0)
	lw	a1, -928(s0)
	sw	a1, 0(a0)
	mv	a0, s1
	mv	a1, zero
	call	_ZNSt6vectorIN3glm3vecILi2EiLNS0_9qualifierE0EEESaIS3_EEixEm
.Ltmp172:
	mv	a1, zero
	call	_ZN3glm3vecILi2EiLNS_9qualifierE0EEixEi
.Ltmp173:
	j	.LBB12_59
.LBB12_59:                              # %invoke.cont159
                                        #   in Loop: Header=BB12_45 Depth=3
	lw	a0, 0(a0)
	sd	a0, -936(s0)
	j	.LBB12_60
.LBB12_60:                              # %for.cond162
                                        #   Parent Loop BB12_38 Depth=1
                                        #     Parent Loop BB12_40 Depth=2
                                        #       Parent Loop BB12_45 Depth=3
                                        # =>      This Loop Header: Depth=4
                                        #           Child Loop BB12_64 Depth 5
	ld	s1, -936(s0)
	addi	a0, s0, -896
	mv	a1, zero
	call	_ZNSt6vectorIN3glm3vecILi2EiLNS0_9qualifierE0EEESaIS3_EEixEm
.Ltmp175:
	addi	a1, zero, 1
	call	_ZN3glm3vecILi2EiLNS_9qualifierE0EEixEi
.Ltmp176:
	j	.LBB12_61
.LBB12_61:                              # %invoke.cont164
                                        #   in Loop: Header=BB12_60 Depth=4
	lw	a0, 0(a0)
	bgeu	s1, a0, .LBB12_84
	j	.LBB12_62
.LBB12_62:                              # %for.body168
                                        #   in Loop: Header=BB12_60 Depth=4
	addi	a0, s0, -896
	addi	a1, zero, 1
	call	_ZNSt6vectorIN3glm3vecILi2EiLNS0_9qualifierE0EEESaIS3_EEixEm
.Ltmp177:
	mv	a1, zero
	call	_ZN3glm3vecILi2EiLNS_9qualifierE0EEixEi
.Ltmp178:
	j	.LBB12_63
.LBB12_63:                              # %invoke.cont171
                                        #   in Loop: Header=BB12_60 Depth=4
	lw	a0, 0(a0)
	sd	a0, -944(s0)
	j	.LBB12_64
.LBB12_64:                              # %for.cond174
                                        #   Parent Loop BB12_38 Depth=1
                                        #     Parent Loop BB12_40 Depth=2
                                        #       Parent Loop BB12_45 Depth=3
                                        #         Parent Loop BB12_60 Depth=4
                                        # =>        This Inner Loop Header: Depth=5
	ld	s1, -944(s0)
	addi	a0, s0, -896
	addi	a1, zero, 1
	call	_ZNSt6vectorIN3glm3vecILi2EiLNS0_9qualifierE0EEESaIS3_EEixEm
.Ltmp180:
	addi	a1, zero, 1
	call	_ZN3glm3vecILi2EiLNS_9qualifierE0EEixEi
.Ltmp181:
	j	.LBB12_65
.LBB12_65:                              # %invoke.cont176
                                        #   in Loop: Header=BB12_64 Depth=5
	lw	a0, 0(a0)
	bgeu	s1, a0, .LBB12_82
	j	.LBB12_66
.LBB12_66:                              # %for.body180
                                        #   in Loop: Header=BB12_64 Depth=5
	ld	a1, -936(s0)
	addi	s3, s0, -400
	mv	a0, s3
	call	_ZNSt6vectorIS_ISt4pairIm11BoundingBoxESaIS2_EESaIS4_EEixEm
	ld	a1, -944(s0)
	call	_ZNSt6vectorISt4pairIm11BoundingBoxESaIS2_EEixEm
	ld	s1, 0(a0)
	lbu	a1, -865(s0)
	addi	a0, s0, -848
	call	_ZNSt6vectorImSaImEEixEm
	ld	a1, 0(a0)
	add	a1, a1, s1
	sd	a1, 0(a0)
	lbu	a1, -865(s0)
	addi	a0, s0, -768
	call	_ZNSt6vectorI11BoundingBoxSaIS0_EEixEm
	mv	s1, a0
	ld	a1, -936(s0)
	mv	a0, s3
	call	_ZNSt6vectorIS_ISt4pairIm11BoundingBoxESaIS2_EESaIS4_EEixEm
	ld	a1, -944(s0)
	call	_ZNSt6vectorISt4pairIm11BoundingBoxESaIS2_EEixEm
	addi	a1, a0, 8
.Ltmp182:
	mv	a0, s1
	call	_ZN11BoundingBox5mergeERKS_
.Ltmp183:
	j	.LBB12_67
.LBB12_67:                              # %invoke.cont192
                                        #   in Loop: Header=BB12_64 Depth=5
	j	.LBB12_68
.LBB12_68:                              # %for.inc193
                                        #   in Loop: Header=BB12_64 Depth=5
	ld	a0, -944(s0)
	addi	a0, a0, 1
	sd	a0, -944(s0)
	j	.LBB12_64
.LBB12_69:                              # %lpad114
.Ltmp146:
	sd	a0, -304(s0)
	sw	a1, -308(s0)
	addi	a0, s0, -824
	call	_ZNSaI11BoundingBoxED2Ev
	j	.LBB12_151
.LBB12_70:                              # %lpad119
.Ltmp149:
	sd	a0, -304(s0)
	sw	a1, -308(s0)
	addi	a0, s0, -864
	call	_ZNSaImED2Ev
	j	.LBB12_98
.LBB12_71:                              # %lpad127.loopexit
.Ltmp157:
	j	.LBB12_75
.LBB12_72:                              # %lpad127.loopexit.split-lp.loopexit
.Ltmp160:
	j	.LBB12_74
.LBB12_73:                              # %lpad127.loopexit.split-lp.loopexit.split-lp
.Ltmp154:
	j	.LBB12_74
.LBB12_74:                              # %lpad127.loopexit.split-lp
	j	.LBB12_75
.LBB12_75:                              # %lpad127
	sd	a0, -304(s0)
	sw	a1, -308(s0)
	j	.LBB12_97
.LBB12_76:                              # %lpad130
.Ltmp163:
	sd	a0, -304(s0)
	sw	a1, -308(s0)
	addi	a0, s0, -912
	call	_ZNSaIN3glm3vecILi2EiLNS_9qualifierE0EEEED2Ev
	j	.LBB12_97
.LBB12_77:                              # %lpad137.loopexit
.Ltmp184:
	j	.LBB12_81
.LBB12_78:                              # %lpad137.loopexit.split-lp.loopexit
.Ltmp179:
	j	.LBB12_80
.LBB12_79:                              # %lpad137.loopexit.split-lp.loopexit.split-lp
.Ltmp174:
	j	.LBB12_80
.LBB12_80:                              # %lpad137.loopexit.split-lp
	j	.LBB12_81
.LBB12_81:                              # %lpad137
	sd	a0, -304(s0)
	sw	a1, -308(s0)
	addi	a0, s0, -896
	call	_ZNSt6vectorIN3glm3vecILi2EiLNS0_9qualifierE0EEESaIS3_EED2Ev
	j	.LBB12_97
.LBB12_82:                              # %for.end195
                                        #   in Loop: Header=BB12_60 Depth=4
	j	.LBB12_83
.LBB12_83:                              # %for.inc196
                                        #   in Loop: Header=BB12_60 Depth=4
	ld	a0, -936(s0)
	addi	a0, a0, 1
	sd	a0, -936(s0)
	j	.LBB12_60
.LBB12_84:                              # %for.end198
                                        #   in Loop: Header=BB12_45 Depth=3
	addi	a0, s0, -896
	call	_ZNSt6vectorIN3glm3vecILi2EiLNS0_9qualifierE0EEESaIS3_EED2Ev
	j	.LBB12_85
.LBB12_85:                              # %for.inc200
                                        #   in Loop: Header=BB12_45 Depth=3
	lb	a0, -865(s0)
	addi	a0, a0, 1
	sb	a0, -865(s0)
	j	.LBB12_45
.LBB12_86:                              # %for.end202
                                        #   in Loop: Header=BB12_40 Depth=2
	sd	zero, -952(s0)
	sb	zero, -953(s0)
	j	.LBB12_87
.LBB12_87:                              # %for.cond204
                                        #   Parent Loop BB12_38 Depth=1
                                        #     Parent Loop BB12_40 Depth=2
                                        # =>    This Inner Loop Header: Depth=3
	lbu	a0, -953(s0)
	addi	a1, zero, 3
	blt	a1, a0, .LBB12_91
	j	.LBB12_88
.LBB12_88:                              # %for.body207
                                        #   in Loop: Header=BB12_87 Depth=3
	lbu	a1, -953(s0)
	addi	a0, s0, -768
	call	_ZNSt6vectorI11BoundingBoxSaIS0_EEixEm
.Ltmp155:
	call	_ZNK11BoundingBox4areaEv
	fmv.d.x	ft0, a0
	fsd	ft0, -1344(s0)
.Ltmp156:
	j	.LBB12_89
.LBB12_89:                              # %invoke.cont210
                                        #   in Loop: Header=BB12_87 Depth=3
	lbu	a1, -953(s0)
	addi	a0, s0, -848
	call	_ZNSt6vectorImSaImEEixEm
	ld	a0, 0(a0)
	fcvt.d.lu	ft0, a0
	fld	ft1, -1344(s0)
	fmul.d	ft0, ft1, ft0
	fld	ft1, -952(s0)
	fadd.d	ft0, ft1, ft0
	fsd	ft0, -952(s0)
	j	.LBB12_90
.LBB12_90:                              # %for.inc216
                                        #   in Loop: Header=BB12_87 Depth=3
	lb	a0, -953(s0)
	addi	a0, a0, 1
	sb	a0, -953(s0)
	j	.LBB12_87
.LBB12_91:                              # %for.end218
                                        #   in Loop: Header=BB12_40 Depth=2
	fld	ft0, -952(s0)
	fsd	ft0, -1336(s0)
	mv	a0, s2
	call	_ZNKSt19__shared_ptr_accessIN3BVH9BuildNodeELN9__gnu_cxx12_Lock_policyE0ELb0ELb0EEptEv
.Ltmp150:
	call	_ZNK11BoundingBox4areaEv
.Ltmp151:
	fmv.d.x	ft0, a0
	j	.LBB12_92
.LBB12_92:                              # %invoke.cont220
                                        #   in Loop: Header=BB12_40 Depth=2
	fld	ft1, -1336(s0)
	fdiv.d	ft0, ft1, ft0
	lui	a0, %hi(.LCPI12_1)
	addi	a0, a0, %lo(.LCPI12_1)
	fld	ft1, 0(a0)
	fadd.d	ft0, ft0, ft1
	fsd	ft0, -952(s0)
	fld	ft0, -952(s0)
	fld	ft1, -720(s0)
	flt.d	a0, ft0, ft1
	xori	a0, a0, 1
	bnez	a0, .LBB12_95
	j	.LBB12_93
.LBB12_93:                              # %if.then224
                                        #   in Loop: Header=BB12_40 Depth=2
	ld	a1, -736(s0)
	ld	a2, -744(s0)
.Ltmp152:
	addi	a0, s0, -968
	call	_ZN3glm3vecILi2EiLNS_9qualifierE0EEC2ImmEET_T0_
.Ltmp153:
	j	.LBB12_94
.LBB12_94:                              # %invoke.cont226
                                        #   in Loop: Header=BB12_40 Depth=2
	ld	a0, -968(s0)
	sd	a0, -728(s0)
	fld	ft0, -952(s0)
	fsd	ft0, -720(s0)
	j	.LBB12_95
.LBB12_95:                              # %if.end227
                                        #   in Loop: Header=BB12_40 Depth=2
	addi	a0, s0, -848
	call	_ZNSt6vectorImSaImEED2Ev
	addi	a0, s0, -768
	call	_ZNSt6vectorI11BoundingBoxSaIS0_EED2Ev
	j	.LBB12_96
.LBB12_96:                              # %for.inc230
                                        #   in Loop: Header=BB12_40 Depth=2
	ld	a0, -744(s0)
	addi	a0, a0, 1
	sd	a0, -744(s0)
	j	.LBB12_40
.LBB12_97:                              # %ehcleanup228
	addi	a0, s0, -848
	call	_ZNSt6vectorImSaImEED2Ev
	j	.LBB12_98
.LBB12_98:                              # %ehcleanup229
	addi	a0, s0, -768
	call	_ZNSt6vectorI11BoundingBoxSaIS0_EED2Ev
	j	.LBB12_151
.LBB12_99:                              # %for.end232
                                        #   in Loop: Header=BB12_38 Depth=1
	j	.LBB12_100
.LBB12_100:                             # %for.inc233
                                        #   in Loop: Header=BB12_38 Depth=1
	ld	a0, -736(s0)
	addi	a0, a0, 1
	sd	a0, -736(s0)
	j	.LBB12_38
.LBB12_101:                             # %for.end235
	fld	ft0, -720(s0)
	fsd	ft0, -1352(s0)
	ld	a0, -96(s0)
	call	_ZNKSt6vectorISt10shared_ptrIN7Surface4BaseEESaIS3_EE4sizeEv
	fcvt.d.lu	ft0, a0
	fld	ft1, -1352(s0)
	flt.d	a0, ft0, ft1
	xori	a0, a0, 1
	bnez	a0, .LBB12_113
	j	.LBB12_102
.LBB12_102:                             # %if.then239
	ld	a0, -96(s0)
	call	_ZNKSt6vectorISt10shared_ptrIN7Surface4BaseEESaIS3_EE4sizeEv
	addi	a1, zero, 256
	bltu	a0, a1, .LBB12_112
	j	.LBB12_103
.LBB12_103:                             # %if.then242
	addi	s1, s0, -984
	mv	a0, s1
	mv	a1, s2
	call	_ZNSt10shared_ptrIN3BVH9BuildNodeEEC2ERKS2_
.Ltmp135:
	mv	a0, s4
	mv	a1, s1
	addi	a2, zero, 4
	call	_ZN3BVH14arbitrarySplitESt10shared_ptrINS_9BuildNodeEEm
.Ltmp136:
	j	.LBB12_104
.LBB12_104:                             # %invoke.cont245
	addi	a0, s0, -984
	call	_ZNSt10shared_ptrIN3BVH9BuildNodeEED2Ev
	mv	a0, s2
	call	_ZNKSt19__shared_ptr_accessIN3BVH9BuildNodeELN9__gnu_cxx12_Lock_policyE0ELb0ELb0EEptEv
	addi	a0, a0, 48
	sd	a0, -992(s0)
	ld	a0, -992(s0)
	call	_ZNSt6vectorISt10shared_ptrIN3BVH9BuildNodeEESaIS3_EE5beginEv
	sd	a0, -1000(s0)
	ld	a0, -992(s0)
	call	_ZNSt6vectorISt10shared_ptrIN3BVH9BuildNodeEESaIS3_EE3endEv
	sd	a0, -1008(s0)
	j	.LBB12_105
.LBB12_105:                             # %for.cond254
                                        # =>This Inner Loop Header: Depth=1
	addi	a0, s0, -1000
	addi	a1, s0, -1008
	call	_ZN9__gnu_cxxneIPSt10shared_ptrIN3BVH9BuildNodeEESt6vectorIS4_SaIS4_EEEEbRKNS_17__normal_iteratorIT_T0_EESE_
	beqz	a0, .LBB12_111
	j	.LBB12_106
.LBB12_106:                             # %for.body256
                                        #   in Loop: Header=BB12_105 Depth=1
	addi	a0, s0, -1000
	call	_ZNK9__gnu_cxx17__normal_iteratorIPSt10shared_ptrIN3BVH9BuildNodeEESt6vectorIS4_SaIS4_EEEdeEv
	sd	a0, -1016(s0)
	ld	a1, -1016(s0)
	addi	s1, s0, -1032
	mv	a0, s1
	call	_ZNSt10shared_ptrIN3BVH9BuildNodeEEC2ERKS2_
.Ltmp138:
	mv	a0, s4
	mv	a1, s1
	call	_ZN3BVH27recursiveBuildQuaternarySAHESt10shared_ptrINS_9BuildNodeEE
.Ltmp139:
	j	.LBB12_107
.LBB12_107:                             # %invoke.cont260
                                        #   in Loop: Header=BB12_105 Depth=1
	addi	a0, s0, -1032
	call	_ZNSt10shared_ptrIN3BVH9BuildNodeEED2Ev
	j	.LBB12_108
.LBB12_108:                             # %for.inc262
                                        #   in Loop: Header=BB12_105 Depth=1
	addi	a0, s0, -1000
	call	_ZN9__gnu_cxx17__normal_iteratorIPSt10shared_ptrIN3BVH9BuildNodeEESt6vectorIS4_SaIS4_EEEppEv
	j	.LBB12_105
.LBB12_109:                             # %lpad244
.Ltmp137:
	sd	a0, -304(s0)
	sw	a1, -308(s0)
	addi	a0, s0, -984
	call	_ZNSt10shared_ptrIN3BVH9BuildNodeEED2Ev
	j	.LBB12_151
.LBB12_110:                             # %lpad259
.Ltmp140:
	sd	a0, -304(s0)
	sw	a1, -308(s0)
	addi	a0, s0, -1032
	call	_ZNSt10shared_ptrIN3BVH9BuildNodeEED2Ev
	j	.LBB12_151
.LBB12_111:                             # %for.end264
	j	.LBB12_112
.LBB12_112:                             # %if.end265
	addi	a0, zero, 1
	sw	a0, -1036(s0)
	j	.LBB12_148
.LBB12_113:                             # %if.end266
	addi	s3, s0, -1080
	mv	a0, s3
	mv	a1, zero
	call	_ZNSt10shared_ptrIN3BVH9BuildNodeEEC2EDn
	addi	s1, s0, -1088
	mv	a0, s1
	call	_ZNSaISt10shared_ptrIN3BVH9BuildNodeEEEC2Ev
.Ltmp108:
	addi	a0, s0, -1064
	addi	a1, zero, 4
	mv	a2, s3
	mv	a3, s1
	call	_ZNSt6vectorISt10shared_ptrIN3BVH9BuildNodeEESaIS3_EEC2EmRKS3_RKS4_
.Ltmp109:
	j	.LBB12_114
.LBB12_114:                             # %invoke.cont270
	addi	a0, s0, -1088
	call	_ZNSaISt10shared_ptrIN3BVH9BuildNodeEEED2Ev
	addi	a0, s0, -1080
	call	_ZNSt10shared_ptrIN3BVH9BuildNodeEED2Ev
	ld	a0, -96(s0)
	sd	a0, -1096(s0)
	ld	a0, -1096(s0)
	call	_ZNSt6vectorISt10shared_ptrIN7Surface4BaseEESaIS3_EE5beginEv
	sd	a0, -1104(s0)
	ld	a0, -1096(s0)
	call	_ZNSt6vectorISt10shared_ptrIN7Surface4BaseEESaIS3_EE3endEv
	sd	a0, -1112(s0)
	j	.LBB12_115
.LBB12_115:                             # %for.cond282
                                        # =>This Inner Loop Header: Depth=1
	addi	a0, s0, -1104
	addi	a1, s0, -1112
	call	_ZN9__gnu_cxxneIPSt10shared_ptrIN7Surface4BaseEESt6vectorIS4_SaIS4_EEEEbRKNS_17__normal_iteratorIT_T0_EESE_
	beqz	a0, .LBB12_137
	j	.LBB12_116
.LBB12_116:                             # %for.body284
                                        #   in Loop: Header=BB12_115 Depth=1
	addi	a0, s0, -1104
	call	_ZNK9__gnu_cxx17__normal_iteratorIPSt10shared_ptrIN7Surface4BaseEESt6vectorIS4_SaIS4_EEEdeEv
	sd	a0, -1120(s0)
	ld	a0, -1120(s0)
	call	_ZNKSt19__shared_ptr_accessIN7Surface4BaseELN9__gnu_cxx12_Lock_policyE0ELb0ELb0EEptEv
	mv	a1, a0
.Ltmp120:
	addi	a0, s0, -1200
	call	_ZNK7Surface4Base2BBEv
.Ltmp121:
	j	.LBB12_117
.LBB12_117:                             # %invoke.cont292
                                        #   in Loop: Header=BB12_115 Depth=1
.Ltmp122:
	addi	a0, s0, -1152
	addi	a1, s0, -1200
	call	_ZNK11BoundingBox8centroidEv
.Ltmp123:
	j	.LBB12_118
.LBB12_118:                             # %invoke.cont293
                                        #   in Loop: Header=BB12_115 Depth=1
.Ltmp124:
	addi	a0, s0, -376
	addi	a1, s0, -1152
	call	_ZZN3BVH27recursiveBuildQuaternarySAHESt10shared_ptrINS_9BuildNodeEEENK3$_1clERKN3glm3vecILi3EdLNS4_9qualifierE0EEE
.Ltmp125:
	j	.LBB12_119
.LBB12_119:                             # %invoke.cont294
                                        #   in Loop: Header=BB12_115 Depth=1
	sw	a0, -1128(s0)
	srli	a0, a0, 32
	sw	a0, -1124(s0)
	sb	zero, -1201(s0)
	lw	a0, -1128(s0)
	lw	a1, -728(s0)
	bge	a1, a0, .LBB12_127
	j	.LBB12_120
.LBB12_120:                             # %if.then299
                                        #   in Loop: Header=BB12_115 Depth=1
	lb	a0, -1201(s0)
	ori	a0, a0, 1
	sb	a0, -1201(s0)
	j	.LBB12_127
.LBB12_121:                             # %lpad269
.Ltmp110:
	sd	a0, -304(s0)
	sw	a1, -308(s0)
	addi	a0, s0, -1088
	call	_ZNSaISt10shared_ptrIN3BVH9BuildNodeEEED2Ev
	addi	a0, s0, -1080
	call	_ZNSt10shared_ptrIN3BVH9BuildNodeEED2Ev
	j	.LBB12_151
.LBB12_122:                             # %lpad291.loopexit
.Ltmp116:
	j	.LBB12_126
.LBB12_123:                             # %lpad291.loopexit.split-lp.loopexit
.Ltmp134:
	j	.LBB12_125
.LBB12_124:                             # %lpad291.loopexit.split-lp.loopexit.split-lp
.Ltmp113:
	j	.LBB12_125
.LBB12_125:                             # %lpad291.loopexit.split-lp
	j	.LBB12_126
.LBB12_126:                             # %lpad291
	sd	a0, -304(s0)
	sw	a1, -308(s0)
	j	.LBB12_150
.LBB12_127:                             # %if.end302
                                        #   in Loop: Header=BB12_115 Depth=1
	lw	a0, -1124(s0)
	lw	a1, -724(s0)
	bge	a1, a0, .LBB12_129
	j	.LBB12_128
.LBB12_128:                             # %if.then306
                                        #   in Loop: Header=BB12_115 Depth=1
	lb	a0, -1201(s0)
	ori	a0, a0, 2
	sb	a0, -1201(s0)
	j	.LBB12_129
.LBB12_129:                             # %if.end310
                                        #   in Loop: Header=BB12_115 Depth=1
	lbu	a1, -1201(s0)
	addi	a0, s0, -1064
	call	_ZNSt6vectorISt10shared_ptrIN3BVH9BuildNodeEESaIS3_EEixEm
	call	_ZNKSt12__shared_ptrIN3BVH9BuildNodeELN9__gnu_cxx12_Lock_policyE0EEcvbEv
	bnez	a0, .LBB12_132
	j	.LBB12_130
.LBB12_130:                             # %if.then314
                                        #   in Loop: Header=BB12_115 Depth=1
.Ltmp126:
	addi	a0, s0, -1224
	call	_ZSt11make_sharedIN3BVH9BuildNodeEJEESt10shared_ptrIT_EDpOT0_
.Ltmp127:
	j	.LBB12_131
.LBB12_131:                             # %invoke.cont316
                                        #   in Loop: Header=BB12_115 Depth=1
	lbu	a1, -1201(s0)
	addi	a0, s0, -1064
	call	_ZNSt6vectorISt10shared_ptrIN3BVH9BuildNodeEESaIS3_EEixEm
	addi	s1, s0, -1224
	mv	a1, s1
	call	_ZNSt10shared_ptrIN3BVH9BuildNodeEEaSEOS2_
	mv	a0, s1
	call	_ZNSt10shared_ptrIN3BVH9BuildNodeEED2Ev
	j	.LBB12_132
.LBB12_132:                             # %if.end320
                                        #   in Loop: Header=BB12_115 Depth=1
	lbu	a1, -1201(s0)
	addi	a0, s0, -1064
	call	_ZNSt6vectorISt10shared_ptrIN3BVH9BuildNodeEESaIS3_EEixEm
	call	_ZNKSt19__shared_ptr_accessIN3BVH9BuildNodeELN9__gnu_cxx12_Lock_policyE0ELb0ELb0EEptEv
	addi	a0, a0, 72
	ld	a1, -1120(s0)
.Ltmp128:
	call	_ZNSt6vectorISt10shared_ptrIN7Surface4BaseEESaIS3_EE9push_backERKS3_
.Ltmp129:
	j	.LBB12_133
.LBB12_133:                             # %invoke.cont325
                                        #   in Loop: Header=BB12_115 Depth=1
	lbu	a1, -1201(s0)
	addi	a0, s0, -1064
	call	_ZNSt6vectorISt10shared_ptrIN3BVH9BuildNodeEESaIS3_EEixEm
	call	_ZNKSt19__shared_ptr_accessIN3BVH9BuildNodeELN9__gnu_cxx12_Lock_policyE0ELb0ELb0EEptEv
	mv	s3, a0
	ld	a0, -1120(s0)
	call	_ZNKSt19__shared_ptr_accessIN7Surface4BaseELN9__gnu_cxx12_Lock_policyE0ELb0ELb0EEptEv
	mv	a1, a0
.Ltmp130:
	addi	a0, s0, -1272
	call	_ZNK7Surface4Base2BBEv
.Ltmp131:
	j	.LBB12_134
.LBB12_134:                             # %invoke.cont332
                                        #   in Loop: Header=BB12_115 Depth=1
.Ltmp132:
	addi	a1, s0, -1272
	mv	a0, s3
	call	_ZN11BoundingBox5mergeERKS_
.Ltmp133:
	j	.LBB12_135
.LBB12_135:                             # %invoke.cont333
                                        #   in Loop: Header=BB12_115 Depth=1
	j	.LBB12_136
.LBB12_136:                             # %for.inc334
                                        #   in Loop: Header=BB12_115 Depth=1
	addi	a0, s0, -1104
	call	_ZN9__gnu_cxx17__normal_iteratorIPSt10shared_ptrIN7Surface4BaseEESt6vectorIS4_SaIS4_EEEppEv
	j	.LBB12_115
.LBB12_137:                             # %for.end336
	ld	a0, -96(s0)
	call	_ZNSt6vectorISt10shared_ptrIN7Surface4BaseEESaIS3_EE5clearEv
	sd	zero, -1280(s0)
	addi	a0, s0, -1064
	sd	a0, -1288(s0)
	ld	a0, -1288(s0)
	call	_ZNSt6vectorISt10shared_ptrIN3BVH9BuildNodeEESaIS3_EE5beginEv
	sd	a0, -1296(s0)
	ld	a0, -1288(s0)
	call	_ZNSt6vectorISt10shared_ptrIN3BVH9BuildNodeEESaIS3_EE3endEv
	sd	a0, -1304(s0)
	j	.LBB12_138
.LBB12_138:                             # %for.cond346
                                        # =>This Inner Loop Header: Depth=1
	addi	a0, s0, -1296
	addi	a1, s0, -1304
	call	_ZN9__gnu_cxxneIPSt10shared_ptrIN3BVH9BuildNodeEESt6vectorIS4_SaIS4_EEEEbRKNS_17__normal_iteratorIT_T0_EESE_
	beqz	a0, .LBB12_146
	j	.LBB12_139
.LBB12_139:                             # %for.body348
                                        #   in Loop: Header=BB12_138 Depth=1
	addi	a0, s0, -1296
	call	_ZNK9__gnu_cxx17__normal_iteratorIPSt10shared_ptrIN3BVH9BuildNodeEESt6vectorIS4_SaIS4_EEEdeEv
	sd	a0, -1312(s0)
	ld	a0, -1312(s0)
	call	_ZNKSt12__shared_ptrIN3BVH9BuildNodeELN9__gnu_cxx12_Lock_policyE0EEcvbEv
	beqz	a0, .LBB12_144
	j	.LBB12_140
.LBB12_140:                             # %if.then352
                                        #   in Loop: Header=BB12_138 Depth=1
	ld	a0, -1280(s0)
	addi	a0, a0, 1
	sd	a0, -1280(s0)
	mv	a0, s2
	call	_ZNKSt19__shared_ptr_accessIN3BVH9BuildNodeELN9__gnu_cxx12_Lock_policyE0ELb0ELb0EEptEv
	addi	a0, a0, 48
	ld	a1, -1312(s0)
.Ltmp114:
	call	_ZNSt6vectorISt10shared_ptrIN3BVH9BuildNodeEESaIS3_EE9push_backERKS3_
.Ltmp115:
	j	.LBB12_141
.LBB12_141:                             # %invoke.cont356
                                        #   in Loop: Header=BB12_138 Depth=1
	ld	a1, -1312(s0)
	addi	s1, s0, -1328
	mv	a0, s1
	call	_ZNSt10shared_ptrIN3BVH9BuildNodeEEC2ERKS2_
.Ltmp117:
	mv	a0, s4
	mv	a1, s1
	call	_ZN3BVH27recursiveBuildQuaternarySAHESt10shared_ptrINS_9BuildNodeEE
.Ltmp118:
	j	.LBB12_142
.LBB12_142:                             # %invoke.cont359
                                        #   in Loop: Header=BB12_138 Depth=1
	addi	a0, s0, -1328
	call	_ZNSt10shared_ptrIN3BVH9BuildNodeEED2Ev
	j	.LBB12_144
.LBB12_143:                             # %lpad358
.Ltmp119:
	sd	a0, -304(s0)
	sw	a1, -308(s0)
	addi	a0, s0, -1328
	call	_ZNSt10shared_ptrIN3BVH9BuildNodeEED2Ev
	j	.LBB12_150
.LBB12_144:                             # %if.end361
                                        #   in Loop: Header=BB12_138 Depth=1
	j	.LBB12_145
.LBB12_145:                             # %for.inc362
                                        #   in Loop: Header=BB12_138 Depth=1
	addi	a0, s0, -1296
	call	_ZN9__gnu_cxx17__normal_iteratorIPSt10shared_ptrIN3BVH9BuildNodeEESt6vectorIS4_SaIS4_EEEppEv
	j	.LBB12_138
.LBB12_146:                             # %for.end364
.Ltmp111:
	addi	a1, s0, -1280
	mv	a0, s4
	call	_ZNSt3mapImmSt4lessImESaISt4pairIKmmEEEixERS3_
.Ltmp112:
	j	.LBB12_147
.LBB12_147:                             # %invoke.cont365
	ld	a1, 0(a0)
	addi	a1, a1, 1
	sd	a1, 0(a0)
	addi	a0, s0, -1064
	call	_ZNSt6vectorISt10shared_ptrIN3BVH9BuildNodeEESaIS3_EED2Ev
	sw	zero, -1036(s0)
	j	.LBB12_148
.LBB12_148:                             # %cleanup
	addi	a0, s0, -400
	call	_ZNSt6vectorIS_ISt4pairIm11BoundingBoxESaIS2_EESaIS4_EED2Ev
.LBB12_149:                             # %cleanup.cont
	ld	s6, 1296(sp)
	ld	s5, 1304(sp)
	ld	s4, 1312(sp)
	ld	s3, 1320(sp)
	ld	s2, 1328(sp)
	ld	s1, 1336(sp)
	ld	s0, 1344(sp)
	.cfi_def_cfa sp, 1360
	ld	ra, 1352(sp)
	.cfi_restore ra
	.cfi_restore s0
	.cfi_restore s1
	.cfi_restore s2
	.cfi_restore s3
	.cfi_restore s4
	.cfi_restore s5
	.cfi_restore s6
	addi	sp, sp, 1360
	.cfi_def_cfa_offset 0
	ret
.LBB12_150:                             # %ehcleanup368
	addi	a0, s0, -1064
	call	_ZNSt6vectorISt10shared_ptrIN3BVH9BuildNodeEESaIS3_EED2Ev
	j	.LBB12_151
.LBB12_151:                             # %ehcleanup369
	addi	a0, s0, -400
	call	_ZNSt6vectorIS_ISt4pairIm11BoundingBoxESaIS2_EESaIS4_EED2Ev
	j	.LBB12_152
.LBB12_152:                             # %eh.resume
	ld	a0, -304(s0)
	call	_Unwind_Resume
.Lfunc_end12:
	.size	_ZN3BVH27recursiveBuildQuaternarySAHESt10shared_ptrINS_9BuildNodeEE, .Lfunc_end12-_ZN3BVH27recursiveBuildQuaternarySAHESt10shared_ptrINS_9BuildNodeEE
	.cfi_endproc
	.section	.gcc_except_table,"a",@progbits
	.p2align	2
GCC_except_table12:
.Lexception4:
	.byte	255                     # @LPStart Encoding = omit
	.byte	255                     # @TType Encoding = omit
	.byte	3                       # Call site Encoding = udata4
	.uleb128 .Lcst_end4-.Lcst_begin4
.Lcst_begin4:
	.word	.Lfunc_begin4-.Lfunc_begin4 # >> Call Site 1 <<
	.word	.Ltmp196-.Lfunc_begin4  #   Call between .Lfunc_begin4 and .Ltmp196
	.word	0                       #     has no landing pad
	.byte	0                       #   On action: cleanup
	.word	.Ltmp196-.Lfunc_begin4  # >> Call Site 2 <<
	.word	.Ltmp197-.Ltmp196       #   Call between .Ltmp196 and .Ltmp197
	.word	.Ltmp198-.Lfunc_begin4  #     jumps to .Ltmp198
	.byte	0                       #   On action: cleanup
	.word	.Ltmp197-.Lfunc_begin4  # >> Call Site 3 <<
	.word	.Ltmp102-.Ltmp197       #   Call between .Ltmp197 and .Ltmp102
	.word	0                       #     has no landing pad
	.byte	0                       #   On action: cleanup
	.word	.Ltmp102-.Lfunc_begin4  # >> Call Site 4 <<
	.word	.Ltmp103-.Ltmp102       #   Call between .Ltmp102 and .Ltmp103
	.word	.Ltmp104-.Lfunc_begin4  #     jumps to .Ltmp104
	.byte	0                       #   On action: cleanup
	.word	.Ltmp105-.Lfunc_begin4  # >> Call Site 5 <<
	.word	.Ltmp106-.Ltmp105       #   Call between .Ltmp105 and .Ltmp106
	.word	.Ltmp107-.Lfunc_begin4  #     jumps to .Ltmp107
	.byte	0                       #   On action: cleanup
	.word	.Ltmp185-.Lfunc_begin4  # >> Call Site 6 <<
	.word	.Ltmp194-.Ltmp185       #   Call between .Ltmp185 and .Ltmp194
	.word	.Ltmp195-.Lfunc_begin4  #     jumps to .Ltmp195
	.byte	0                       #   On action: cleanup
	.word	.Ltmp141-.Lfunc_begin4  # >> Call Site 7 <<
	.word	.Ltmp142-.Ltmp141       #   Call between .Ltmp141 and .Ltmp142
	.word	.Ltmp143-.Lfunc_begin4  #     jumps to .Ltmp143
	.byte	0                       #   On action: cleanup
	.word	.Ltmp144-.Lfunc_begin4  # >> Call Site 8 <<
	.word	.Ltmp145-.Ltmp144       #   Call between .Ltmp144 and .Ltmp145
	.word	.Ltmp146-.Lfunc_begin4  #     jumps to .Ltmp146
	.byte	0                       #   On action: cleanup
	.word	.Ltmp147-.Lfunc_begin4  # >> Call Site 9 <<
	.word	.Ltmp148-.Ltmp147       #   Call between .Ltmp147 and .Ltmp148
	.word	.Ltmp149-.Lfunc_begin4  #     jumps to .Ltmp149
	.byte	0                       #   On action: cleanup
	.word	.Ltmp158-.Lfunc_begin4  # >> Call Site 10 <<
	.word	.Ltmp159-.Ltmp158       #   Call between .Ltmp158 and .Ltmp159
	.word	.Ltmp160-.Lfunc_begin4  #     jumps to .Ltmp160
	.byte	0                       #   On action: cleanup
	.word	.Ltmp161-.Lfunc_begin4  # >> Call Site 11 <<
	.word	.Ltmp162-.Ltmp161       #   Call between .Ltmp161 and .Ltmp162
	.word	.Ltmp163-.Lfunc_begin4  #     jumps to .Ltmp163
	.byte	0                       #   On action: cleanup
	.word	.Ltmp166-.Lfunc_begin4  # >> Call Site 12 <<
	.word	.Ltmp173-.Ltmp166       #   Call between .Ltmp166 and .Ltmp173
	.word	.Ltmp174-.Lfunc_begin4  #     jumps to .Ltmp174
	.byte	0                       #   On action: cleanup
	.word	.Ltmp175-.Lfunc_begin4  # >> Call Site 13 <<
	.word	.Ltmp178-.Ltmp175       #   Call between .Ltmp175 and .Ltmp178
	.word	.Ltmp179-.Lfunc_begin4  #     jumps to .Ltmp179
	.byte	0                       #   On action: cleanup
	.word	.Ltmp180-.Lfunc_begin4  # >> Call Site 14 <<
	.word	.Ltmp183-.Ltmp180       #   Call between .Ltmp180 and .Ltmp183
	.word	.Ltmp184-.Lfunc_begin4  #     jumps to .Ltmp184
	.byte	0                       #   On action: cleanup
	.word	.Ltmp155-.Lfunc_begin4  # >> Call Site 15 <<
	.word	.Ltmp156-.Ltmp155       #   Call between .Ltmp155 and .Ltmp156
	.word	.Ltmp157-.Lfunc_begin4  #     jumps to .Ltmp157
	.byte	0                       #   On action: cleanup
	.word	.Ltmp150-.Lfunc_begin4  # >> Call Site 16 <<
	.word	.Ltmp153-.Ltmp150       #   Call between .Ltmp150 and .Ltmp153
	.word	.Ltmp154-.Lfunc_begin4  #     jumps to .Ltmp154
	.byte	0                       #   On action: cleanup
	.word	.Ltmp135-.Lfunc_begin4  # >> Call Site 17 <<
	.word	.Ltmp136-.Ltmp135       #   Call between .Ltmp135 and .Ltmp136
	.word	.Ltmp137-.Lfunc_begin4  #     jumps to .Ltmp137
	.byte	0                       #   On action: cleanup
	.word	.Ltmp138-.Lfunc_begin4  # >> Call Site 18 <<
	.word	.Ltmp139-.Ltmp138       #   Call between .Ltmp138 and .Ltmp139
	.word	.Ltmp140-.Lfunc_begin4  #     jumps to .Ltmp140
	.byte	0                       #   On action: cleanup
	.word	.Ltmp108-.Lfunc_begin4  # >> Call Site 19 <<
	.word	.Ltmp109-.Ltmp108       #   Call between .Ltmp108 and .Ltmp109
	.word	.Ltmp110-.Lfunc_begin4  #     jumps to .Ltmp110
	.byte	0                       #   On action: cleanup
	.word	.Ltmp120-.Lfunc_begin4  # >> Call Site 20 <<
	.word	.Ltmp133-.Ltmp120       #   Call between .Ltmp120 and .Ltmp133
	.word	.Ltmp134-.Lfunc_begin4  #     jumps to .Ltmp134
	.byte	0                       #   On action: cleanup
	.word	.Ltmp114-.Lfunc_begin4  # >> Call Site 21 <<
	.word	.Ltmp115-.Ltmp114       #   Call between .Ltmp114 and .Ltmp115
	.word	.Ltmp116-.Lfunc_begin4  #     jumps to .Ltmp116
	.byte	0                       #   On action: cleanup
	.word	.Ltmp117-.Lfunc_begin4  # >> Call Site 22 <<
	.word	.Ltmp118-.Ltmp117       #   Call between .Ltmp117 and .Ltmp118
	.word	.Ltmp119-.Lfunc_begin4  #     jumps to .Ltmp119
	.byte	0                       #   On action: cleanup
	.word	.Ltmp111-.Lfunc_begin4  # >> Call Site 23 <<
	.word	.Ltmp112-.Ltmp111       #   Call between .Ltmp111 and .Ltmp112
	.word	.Ltmp113-.Lfunc_begin4  #     jumps to .Ltmp113
	.byte	0                       #   On action: cleanup
	.word	.Ltmp112-.Lfunc_begin4  # >> Call Site 24 <<
	.word	.Lfunc_end12-.Ltmp112   #   Call between .Ltmp112 and .Lfunc_end12
	.word	0                       #     has no landing pad
	.byte	0                       #   On action: cleanup
.Lcst_end4:
	.p2align	2
                                        # -- End function
	.section	.text._ZNSt10shared_ptrIN3BVH9BuildNodeEEC2ERKS2_,"axG",@progbits,_ZNSt10shared_ptrIN3BVH9BuildNodeEEC2ERKS2_,comdat
	.weak	_ZNSt10shared_ptrIN3BVH9BuildNodeEEC2ERKS2_ # -- Begin function _ZNSt10shared_ptrIN3BVH9BuildNodeEEC2ERKS2_
	.p2align	2
	.type	_ZNSt10shared_ptrIN3BVH9BuildNodeEEC2ERKS2_,@function
_ZNSt10shared_ptrIN3BVH9BuildNodeEEC2ERKS2_: # @_ZNSt10shared_ptrIN3BVH9BuildNodeEEC2ERKS2_
# %bb.0:                                # %entry
	addi	sp, sp, -32
	sd	ra, 24(sp)
	sd	s0, 16(sp)
	addi	s0, sp, 32
	sd	a0, -24(s0)
	sd	a1, -32(s0)
	ld	a0, -24(s0)
	ld	a1, -32(s0)
	call	_ZNSt12__shared_ptrIN3BVH9BuildNodeELN9__gnu_cxx12_Lock_policyE0EEC2ERKS4_
	ld	s0, 16(sp)
	ld	ra, 24(sp)
	addi	sp, sp, 32
	ret
.Lfunc_end13:
	.size	_ZNSt10shared_ptrIN3BVH9BuildNodeEEC2ERKS2_, .Lfunc_end13-_ZNSt10shared_ptrIN3BVH9BuildNodeEEC2ERKS2_
                                        # -- End function
	.section	.text._ZNSt10shared_ptrIN3BVH9BuildNodeEED2Ev,"axG",@progbits,_ZNSt10shared_ptrIN3BVH9BuildNodeEED2Ev,comdat
	.weak	_ZNSt10shared_ptrIN3BVH9BuildNodeEED2Ev # -- Begin function _ZNSt10shared_ptrIN3BVH9BuildNodeEED2Ev
	.p2align	2
	.type	_ZNSt10shared_ptrIN3BVH9BuildNodeEED2Ev,@function
_ZNSt10shared_ptrIN3BVH9BuildNodeEED2Ev: # @_ZNSt10shared_ptrIN3BVH9BuildNodeEED2Ev
# %bb.0:                                # %entry
	addi	sp, sp, -32
	sd	ra, 24(sp)
	sd	s0, 16(sp)
	addi	s0, sp, 32
	sd	a0, -24(s0)
	ld	a0, -24(s0)
	call	_ZNSt12__shared_ptrIN3BVH9BuildNodeELN9__gnu_cxx12_Lock_policyE0EED2Ev
	ld	s0, 16(sp)
	ld	ra, 24(sp)
	addi	sp, sp, 32
	ret
.Lfunc_end14:
	.size	_ZNSt10shared_ptrIN3BVH9BuildNodeEED2Ev, .Lfunc_end14-_ZNSt10shared_ptrIN3BVH9BuildNodeEED2Ev
                                        # -- End function
	.section	.sdata,"aw",@progbits
	.p2align	3               # -- Begin function _ZN3BVH23recursiveBuildBinarySAHESt10shared_ptrINS_9BuildNodeEE
.LCPI15_0:
	.quad	4472406533629990549     # double 1.0000000000000001E-9
.LCPI15_1:
	.quad	4607182418800017408     # double 1
	.text
	.globl	_ZN3BVH23recursiveBuildBinarySAHESt10shared_ptrINS_9BuildNodeEE
	.p2align	2
	.type	_ZN3BVH23recursiveBuildBinarySAHESt10shared_ptrINS_9BuildNodeEE,@function
_ZN3BVH23recursiveBuildBinarySAHESt10shared_ptrINS_9BuildNodeEE: # @_ZN3BVH23recursiveBuildBinarySAHESt10shared_ptrINS_9BuildNodeEE
.Lfunc_begin5:
	.cfi_startproc
	.cfi_personality 155, DW.ref.__gxx_personality_v0
	.cfi_lsda 27, .Lexception5
# %bb.0:                                # %entry
	addi	sp, sp, -1232
	.cfi_def_cfa_offset 1232
	sd	ra, 1224(sp)
	sd	s0, 1216(sp)
	sd	s1, 1208(sp)
	sd	s2, 1200(sp)
	sd	s3, 1192(sp)
	sd	s4, 1184(sp)
	sd	s5, 1176(sp)
	.cfi_offset ra, -8
	.cfi_offset s0, -16
	.cfi_offset s1, -24
	.cfi_offset s2, -32
	.cfi_offset s3, -40
	.cfi_offset s4, -48
	.cfi_offset s5, -56
	addi	s0, sp, 1232
	.cfi_def_cfa s0, 0
	mv	s4, a1
	sd	a0, -72(s0)
	ld	s2, -72(s0)
	lw	s1, 104(s2)
	addi	a0, s1, 1
	sw	a0, 104(s2)
	mv	a0, s4
	call	_ZNKSt19__shared_ptr_accessIN3BVH9BuildNodeELN9__gnu_cxx12_Lock_policyE0ELb0ELb0EEptEv
	sw	s1, 96(a0)
	mv	a0, s4
	call	_ZNKSt19__shared_ptr_accessIN3BVH9BuildNodeELN9__gnu_cxx12_Lock_policyE0ELb0ELb0EEptEv
	addi	a0, a0, 72
	sd	a0, -80(s0)
	ld	a0, -80(s0)
	call	_ZNKSt6vectorISt10shared_ptrIN7Surface4BaseEESaIS3_EE4sizeEv
	addi	a1, zero, 8
	bltu	a1, a0, .LBB15_2
	j	.LBB15_1
.LBB15_1:                               # %if.then
	j	.LBB15_111
.LBB15_2:                               # %if.end
	addi	a0, s0, -128
	call	_ZN11BoundingBoxC2Ev
	ld	a0, -80(s0)
	sd	a0, -136(s0)
	ld	a0, -136(s0)
	call	_ZNSt6vectorISt10shared_ptrIN7Surface4BaseEESaIS3_EE5beginEv
	sd	a0, -144(s0)
	ld	a0, -136(s0)
	call	_ZNSt6vectorISt10shared_ptrIN7Surface4BaseEESaIS3_EE3endEv
	sd	a0, -152(s0)
	j	.LBB15_3
.LBB15_3:                               # %for.cond
                                        # =>This Inner Loop Header: Depth=1
	addi	a0, s0, -144
	addi	a1, s0, -152
	call	_ZN9__gnu_cxxneIPSt10shared_ptrIN7Surface4BaseEESt6vectorIS4_SaIS4_EEEEbRKNS_17__normal_iteratorIT_T0_EESE_
	beqz	a0, .LBB15_6
	j	.LBB15_4
.LBB15_4:                               # %for.body
                                        #   in Loop: Header=BB15_3 Depth=1
	addi	a0, s0, -144
	call	_ZNK9__gnu_cxx17__normal_iteratorIPSt10shared_ptrIN7Surface4BaseEESt6vectorIS4_SaIS4_EEEdeEv
	sd	a0, -160(s0)
	ld	a0, -160(s0)
	call	_ZNKSt19__shared_ptr_accessIN7Surface4BaseELN9__gnu_cxx12_Lock_policyE0ELb0ELb0EEptEv
	mv	a1, a0
	addi	s1, s0, -232
	mv	a0, s1
	call	_ZNK7Surface4Base2BBEv
	addi	s3, s0, -184
	mv	a0, s3
	mv	a1, s1
	call	_ZNK11BoundingBox8centroidEv
	addi	a0, s0, -128
	mv	a1, s3
	call	_ZN11BoundingBox5mergeERKN3glm3vecILi3EdLNS0_9qualifierE0EEE
	j	.LBB15_5
.LBB15_5:                               # %for.inc
                                        #   in Loop: Header=BB15_3 Depth=1
	addi	a0, s0, -144
	call	_ZN9__gnu_cxx17__normal_iteratorIPSt10shared_ptrIN7Surface4BaseEESt6vectorIS4_SaIS4_EEEppEv
	j	.LBB15_3
.LBB15_6:                               # %for.end
	addi	a0, s0, -256
	addi	a1, s0, -128
	call	_ZNK11BoundingBox10dimensionsEv
	fld	ft0, -256(s0)
	fld	ft1, -248(s0)
	flt.d	a0, ft1, ft0
	xori	a0, a0, 1
	bnez	a0, .LBB15_8
	j	.LBB15_7
.LBB15_7:                               # %cond.true
	fld	ft0, -256(s0)
	fld	ft1, -240(s0)
	flt.d	a0, ft1, ft0
	xori	a0, a0, 1
	slli	a0, a0, 1
	j	.LBB15_11
.LBB15_8:                               # %cond.false
	fld	ft0, -248(s0)
	fld	ft1, -240(s0)
	flt.d	a1, ft1, ft0
	addi	a0, zero, 1
	bnez	a1, .LBB15_10
# %bb.9:                                # %cond.false
	addi	a0, zero, 2
.LBB15_10:                              # %cond.false
	j	.LBB15_11
.LBB15_11:                              # %cond.end
	sb	a0, -257(s0)
	lbu	a1, -257(s0)
	addi	a0, s0, -256
	call	_ZN3glm3vecILi3EdLNS_9qualifierE0EEixEi
	fld	ft0, 0(a0)
	lui	a0, %hi(.LCPI15_0)
	addi	a0, a0, %lo(.LCPI15_0)
	fld	ft1, 0(a0)
	flt.d	a0, ft0, ft1
	xori	a0, a0, 1
	bnez	a0, .LBB15_23
	j	.LBB15_12
.LBB15_12:                              # %if.then25
	ld	a0, -80(s0)
	call	_ZNKSt6vectorISt10shared_ptrIN7Surface4BaseEESaIS3_EE4sizeEv
	addi	a1, zero, 256
	bltu	a0, a1, .LBB15_22
	j	.LBB15_13
.LBB15_13:                              # %if.then28
	addi	s1, s0, -280
	mv	a0, s1
	mv	a1, s4
	call	_ZNSt10shared_ptrIN3BVH9BuildNodeEEC2ERKS2_
.Ltmp274:
	mv	a0, s2
	mv	a1, s1
	addi	a2, zero, 2
	call	_ZN3BVH14arbitrarySplitESt10shared_ptrINS_9BuildNodeEEm
.Ltmp275:
	j	.LBB15_14
.LBB15_14:                              # %invoke.cont
	addi	a0, s0, -280
	call	_ZNSt10shared_ptrIN3BVH9BuildNodeEED2Ev
	mv	a0, s4
	call	_ZNKSt19__shared_ptr_accessIN3BVH9BuildNodeELN9__gnu_cxx12_Lock_policyE0ELb0ELb0EEptEv
	addi	a0, a0, 48
	sd	a0, -304(s0)
	ld	a0, -304(s0)
	call	_ZNSt6vectorISt10shared_ptrIN3BVH9BuildNodeEESaIS3_EE5beginEv
	sd	a0, -312(s0)
	ld	a0, -304(s0)
	call	_ZNSt6vectorISt10shared_ptrIN3BVH9BuildNodeEESaIS3_EE3endEv
	sd	a0, -320(s0)
	j	.LBB15_15
.LBB15_15:                              # %for.cond36
                                        # =>This Inner Loop Header: Depth=1
	addi	a0, s0, -312
	addi	a1, s0, -320
	call	_ZN9__gnu_cxxneIPSt10shared_ptrIN3BVH9BuildNodeEESt6vectorIS4_SaIS4_EEEEbRKNS_17__normal_iteratorIT_T0_EESE_
	beqz	a0, .LBB15_21
	j	.LBB15_16
.LBB15_16:                              # %for.body38
                                        #   in Loop: Header=BB15_15 Depth=1
	addi	a0, s0, -312
	call	_ZNK9__gnu_cxx17__normal_iteratorIPSt10shared_ptrIN3BVH9BuildNodeEESt6vectorIS4_SaIS4_EEEdeEv
	sd	a0, -328(s0)
	ld	a1, -328(s0)
	addi	s1, s0, -344
	mv	a0, s1
	call	_ZNSt10shared_ptrIN3BVH9BuildNodeEEC2ERKS2_
.Ltmp277:
	mv	a0, s2
	mv	a1, s1
	call	_ZN3BVH23recursiveBuildBinarySAHESt10shared_ptrINS_9BuildNodeEE
.Ltmp278:
	j	.LBB15_17
.LBB15_17:                              # %invoke.cont42
                                        #   in Loop: Header=BB15_15 Depth=1
	addi	a0, s0, -344
	call	_ZNSt10shared_ptrIN3BVH9BuildNodeEED2Ev
	j	.LBB15_18
.LBB15_18:                              # %for.inc43
                                        #   in Loop: Header=BB15_15 Depth=1
	addi	a0, s0, -312
	call	_ZN9__gnu_cxx17__normal_iteratorIPSt10shared_ptrIN3BVH9BuildNodeEESt6vectorIS4_SaIS4_EEEppEv
	j	.LBB15_15
.LBB15_19:                              # %lpad
.Ltmp276:
	sd	a0, -288(s0)
	sw	a1, -292(s0)
	addi	a0, s0, -280
	call	_ZNSt10shared_ptrIN3BVH9BuildNodeEED2Ev
	j	.LBB15_115
.LBB15_20:                              # %lpad41
.Ltmp279:
	sd	a0, -288(s0)
	sw	a1, -292(s0)
	addi	a0, s0, -344
	call	_ZNSt10shared_ptrIN3BVH9BuildNodeEED2Ev
	j	.LBB15_115
.LBB15_21:                              # %for.end45
	j	.LBB15_22
.LBB15_22:                              # %if.end46
	j	.LBB15_111
.LBB15_23:                              # %if.end47
	addi	a0, s0, -257
	sd	a0, -376(s0)
	addi	a0, s0, -128
	sd	a0, -368(s0)
	addi	a0, s0, -256
	sd	a0, -360(s0)
	sd	s2, -352(s0)
	lw	s3, 48(s2)
	sw	zero, -460(s0)
	addi	s1, s0, -512
	mv	a0, s1
	call	_ZN11BoundingBoxC2Ev
	addi	s5, s0, -456
	addi	a1, s0, -460
	mv	a0, s5
	mv	a2, s1
	call	_ZNSt4pairIm11BoundingBoxEC2IiS0_Lb1EEEOT_OT0_
	addi	s1, s0, -520
	mv	a0, s1
	call	_ZNSaISt4pairIm11BoundingBoxEEC2Ev
.Ltmp199:
	addi	a0, s0, -400
	mv	a1, s3
	mv	a2, s5
	mv	a3, s1
	call	_ZNSt6vectorISt4pairIm11BoundingBoxESaIS2_EEC2EmRKS2_RKS3_
.Ltmp200:
	j	.LBB15_24
.LBB15_24:                              # %invoke.cont54
	addi	a0, s0, -520
	call	_ZNSaISt4pairIm11BoundingBoxEED2Ev
	ld	a0, -80(s0)
	sd	a0, -528(s0)
	ld	a0, -528(s0)
	call	_ZNSt6vectorISt10shared_ptrIN7Surface4BaseEESaIS3_EE5beginEv
	sd	a0, -536(s0)
	ld	a0, -528(s0)
	call	_ZNSt6vectorISt10shared_ptrIN7Surface4BaseEESaIS3_EE3endEv
	sd	a0, -544(s0)
	j	.LBB15_25
.LBB15_25:                              # %for.cond64
                                        # =>This Inner Loop Header: Depth=1
	addi	a0, s0, -536
	addi	a1, s0, -544
	call	_ZN9__gnu_cxxneIPSt10shared_ptrIN7Surface4BaseEESt6vectorIS4_SaIS4_EEEEbRKNS_17__normal_iteratorIT_T0_EESE_
	beqz	a0, .LBB15_37
	j	.LBB15_26
.LBB15_26:                              # %for.body66
                                        #   in Loop: Header=BB15_25 Depth=1
	addi	a0, s0, -536
	call	_ZNK9__gnu_cxx17__normal_iteratorIPSt10shared_ptrIN7Surface4BaseEESt6vectorIS4_SaIS4_EEEdeEv
	sd	a0, -552(s0)
	ld	a0, -552(s0)
	call	_ZNKSt19__shared_ptr_accessIN7Surface4BaseELN9__gnu_cxx12_Lock_policyE0ELb0ELb0EEptEv
	mv	a1, a0
.Ltmp263:
	addi	a0, s0, -632
	call	_ZNK7Surface4Base2BBEv
.Ltmp264:
	j	.LBB15_27
.LBB15_27:                              # %invoke.cont73
                                        #   in Loop: Header=BB15_25 Depth=1
.Ltmp265:
	addi	a0, s0, -584
	addi	a1, s0, -632
	call	_ZNK11BoundingBox8centroidEv
.Ltmp266:
	j	.LBB15_28
.LBB15_28:                              # %invoke.cont74
                                        #   in Loop: Header=BB15_25 Depth=1
.Ltmp267:
	addi	a0, s0, -376
	addi	a1, s0, -584
	call	_ZZN3BVH23recursiveBuildBinarySAHESt10shared_ptrINS_9BuildNodeEEENK3$_0clERKN3glm3vecILi3EdLNS4_9qualifierE0EEE
.Ltmp268:
	j	.LBB15_29
.LBB15_29:                              # %invoke.cont75
                                        #   in Loop: Header=BB15_25 Depth=1
	sw	a0, -556(s0)
	lw	a1, -556(s0)
	addi	s1, s0, -400
	mv	a0, s1
	call	_ZNSt6vectorISt4pairIm11BoundingBoxESaIS2_EEixEm
	ld	a1, 0(a0)
	addi	a1, a1, 1
	sd	a1, 0(a0)
	lw	a1, -556(s0)
	mv	a0, s1
	call	_ZNSt6vectorISt4pairIm11BoundingBoxESaIS2_EEixEm
	addi	s3, a0, 8
	ld	a0, -552(s0)
	call	_ZNKSt19__shared_ptr_accessIN7Surface4BaseELN9__gnu_cxx12_Lock_policyE0ELb0ELb0EEptEv
	mv	a1, a0
.Ltmp269:
	addi	a0, s0, -680
	call	_ZNK7Surface4Base2BBEv
.Ltmp270:
	j	.LBB15_30
.LBB15_30:                              # %invoke.cont84
                                        #   in Loop: Header=BB15_25 Depth=1
.Ltmp271:
	addi	a1, s0, -680
	mv	a0, s3
	call	_ZN11BoundingBox5mergeERKS_
.Ltmp272:
	j	.LBB15_31
.LBB15_31:                              # %invoke.cont85
                                        #   in Loop: Header=BB15_25 Depth=1
	j	.LBB15_32
.LBB15_32:                              # %for.inc86
                                        #   in Loop: Header=BB15_25 Depth=1
	addi	a0, s0, -536
	call	_ZN9__gnu_cxx17__normal_iteratorIPSt10shared_ptrIN7Surface4BaseEESt6vectorIS4_SaIS4_EEEppEv
	j	.LBB15_25
.LBB15_33:                              # %lpad53
.Ltmp201:
	sd	a0, -288(s0)
	sw	a1, -292(s0)
	addi	a0, s0, -520
	call	_ZNSaISt4pairIm11BoundingBoxEED2Ev
	j	.LBB15_115
.LBB15_34:                              # %lpad72.loopexit
.Ltmp273:
	j	.LBB15_36
.LBB15_35:                              # %lpad72.loopexit.split-lp
.Ltmp204:
	j	.LBB15_36
.LBB15_36:                              # %lpad72
	sd	a0, -288(s0)
	sw	a1, -292(s0)
	j	.LBB15_114
.LBB15_37:                              # %for.end88
.Ltmp202:
	addi	a0, s0, -696
	call	_ZSt11make_sharedIN3BVH9BuildNodeEJEESt10shared_ptrIT_EDpOT0_
.Ltmp203:
	j	.LBB15_38
.LBB15_38:                              # %invoke.cont89
.Ltmp205:
	addi	a0, s0, -712
	call	_ZSt11make_sharedIN3BVH9BuildNodeEJEESt10shared_ptrIT_EDpOT0_
.Ltmp206:
	j	.LBB15_39
.LBB15_39:                              # %invoke.cont91
	call	_ZNSt14numeric_limitsIdE3maxEv
	sd	a0, -720(s0)
	sd	zero, -728(s0)
	sd	zero, -736(s0)
	j	.LBB15_40
.LBB15_40:                              # %for.cond93
                                        # =>This Loop Header: Depth=1
                                        #     Child Loop BB15_43 Depth 2
                                        #     Child Loop BB15_59 Depth 2
	ld	a0, -736(s0)
	lw	a1, 48(s2)
	addiw	a1, a1, -1
	bgeu	a0, a1, .LBB15_70
	j	.LBB15_41
.LBB15_41:                              # %for.body97
                                        #   in Loop: Header=BB15_40 Depth=1
	sd	zero, -744(s0)
.Ltmp246:
	addi	a0, s0, -792
	call	_ZN11BoundingBoxC2Ev
.Ltmp247:
	j	.LBB15_42
.LBB15_42:                              # %invoke.cont99
                                        #   in Loop: Header=BB15_40 Depth=1
	sd	zero, -800(s0)
	j	.LBB15_43
.LBB15_43:                              # %for.cond100
                                        #   Parent Loop BB15_40 Depth=1
                                        # =>  This Inner Loop Header: Depth=2
	ld	a0, -800(s0)
	ld	a1, -736(s0)
	addi	a1, a1, 1
	bgeu	a0, a1, .LBB15_57
	j	.LBB15_44
.LBB15_44:                              # %for.body102
                                        #   in Loop: Header=BB15_43 Depth=2
	ld	a1, -800(s0)
	addi	s1, s0, -400
	mv	a0, s1
	call	_ZNSt6vectorISt4pairIm11BoundingBoxESaIS2_EEixEm
	ld	a0, 0(a0)
	ld	a1, -744(s0)
	add	a0, a1, a0
	sd	a0, -744(s0)
	ld	a1, -800(s0)
	mv	a0, s1
	call	_ZNSt6vectorISt4pairIm11BoundingBoxESaIS2_EEixEm
	addi	a1, a0, 8
.Ltmp260:
	addi	a0, s0, -792
	call	_ZN11BoundingBox5mergeERKS_
.Ltmp261:
	j	.LBB15_45
.LBB15_45:                              # %invoke.cont108
                                        #   in Loop: Header=BB15_43 Depth=2
	j	.LBB15_46
.LBB15_46:                              # %for.inc109
                                        #   in Loop: Header=BB15_43 Depth=2
	ld	a0, -800(s0)
	addi	a0, a0, 1
	sd	a0, -800(s0)
	j	.LBB15_43
.LBB15_47:                              # %lpad90
.Ltmp207:
	sd	a0, -288(s0)
	sw	a1, -292(s0)
	j	.LBB15_113
.LBB15_48:                              # %lpad98.loopexit
.Ltmp239:
	j	.LBB15_56
.LBB15_49:                              # %lpad98.loopexit.split-lp.loopexit
.Ltmp259:
	j	.LBB15_55
.LBB15_50:                              # %lpad98.loopexit.split-lp.loopexit.split-lp.loopexit
.Ltmp262:
	j	.LBB15_54
.LBB15_51:                              # %lpad98.loopexit.split-lp.loopexit.split-lp.loopexit.split-lp.loopexit
.Ltmp256:
	j	.LBB15_53
.LBB15_52:                              # %lpad98.loopexit.split-lp.loopexit.split-lp.loopexit.split-lp.loopexit.split-lp
.Ltmp220:
	j	.LBB15_53
.LBB15_53:                              # %lpad98.loopexit.split-lp.loopexit.split-lp.loopexit.split-lp
	j	.LBB15_54
.LBB15_54:                              # %lpad98.loopexit.split-lp.loopexit.split-lp
	j	.LBB15_55
.LBB15_55:                              # %lpad98.loopexit.split-lp
	j	.LBB15_56
.LBB15_56:                              # %lpad98
	sd	a0, -288(s0)
	sw	a1, -292(s0)
	j	.LBB15_112
.LBB15_57:                              # %for.end111
                                        #   in Loop: Header=BB15_40 Depth=1
	sd	zero, -808(s0)
.Ltmp248:
	addi	a0, s0, -856
	call	_ZN11BoundingBoxC2Ev
.Ltmp249:
	j	.LBB15_58
.LBB15_58:                              # %invoke.cont112
                                        #   in Loop: Header=BB15_40 Depth=1
	ld	a0, -736(s0)
	addi	a0, a0, 1
	sd	a0, -864(s0)
	j	.LBB15_59
.LBB15_59:                              # %for.cond115
                                        #   Parent Loop BB15_40 Depth=1
                                        # =>  This Inner Loop Header: Depth=2
	ld	a0, -864(s0)
	lw	a1, 48(s2)
	bgeu	a0, a1, .LBB15_63
	j	.LBB15_60
.LBB15_60:                              # %for.body119
                                        #   in Loop: Header=BB15_59 Depth=2
	ld	a1, -864(s0)
	addi	s1, s0, -400
	mv	a0, s1
	call	_ZNSt6vectorISt4pairIm11BoundingBoxESaIS2_EEixEm
	ld	a0, 0(a0)
	ld	a1, -808(s0)
	add	a0, a1, a0
	sd	a0, -808(s0)
	ld	a1, -864(s0)
	mv	a0, s1
	call	_ZNSt6vectorISt4pairIm11BoundingBoxESaIS2_EEixEm
	addi	a1, a0, 8
.Ltmp257:
	addi	a0, s0, -856
	call	_ZN11BoundingBox5mergeERKS_
.Ltmp258:
	j	.LBB15_61
.LBB15_61:                              # %invoke.cont125
                                        #   in Loop: Header=BB15_59 Depth=2
	j	.LBB15_62
.LBB15_62:                              # %for.inc126
                                        #   in Loop: Header=BB15_59 Depth=2
	ld	a0, -864(s0)
	addi	a0, a0, 1
	sd	a0, -864(s0)
	j	.LBB15_59
.LBB15_63:                              # %for.end128
                                        #   in Loop: Header=BB15_40 Depth=1
	ld	a0, -744(s0)
	fcvt.d.lu	ft0, a0
	fsd	ft0, -1216(s0)
.Ltmp250:
	addi	a0, s0, -792
	call	_ZNK11BoundingBox4areaEv
.Ltmp251:
	fmv.d.x	ft0, a0
	j	.LBB15_64
.LBB15_64:                              # %invoke.cont130
                                        #   in Loop: Header=BB15_40 Depth=1
	fld	ft1, -1216(s0)
	fmul.d	ft0, ft1, ft0
	fsd	ft0, -1208(s0)
	ld	a0, -808(s0)
	fcvt.d.lu	ft0, a0
	fsd	ft0, -1224(s0)
.Ltmp252:
	addi	a0, s0, -856
	call	_ZNK11BoundingBox4areaEv
.Ltmp253:
	fmv.d.x	ft0, a0
	j	.LBB15_65
.LBB15_65:                              # %invoke.cont133
                                        #   in Loop: Header=BB15_40 Depth=1
	fld	ft1, -1224(s0)
	fmul.d	ft0, ft1, ft0
	fld	ft1, -1208(s0)
	fadd.d	ft0, ft1, ft0
	fsd	ft0, -1200(s0)
	mv	a0, s4
	call	_ZNKSt19__shared_ptr_accessIN3BVH9BuildNodeELN9__gnu_cxx12_Lock_policyE0ELb0ELb0EEptEv
.Ltmp254:
	call	_ZNK11BoundingBox4areaEv
.Ltmp255:
	fmv.d.x	ft0, a0
	j	.LBB15_66
.LBB15_66:                              # %invoke.cont138
                                        #   in Loop: Header=BB15_40 Depth=1
	fld	ft1, -1200(s0)
	fdiv.d	ft0, ft1, ft0
	lui	a0, %hi(.LCPI15_1)
	addi	a0, a0, %lo(.LCPI15_1)
	fld	ft1, 0(a0)
	fadd.d	ft0, ft0, ft1
	fsd	ft0, -872(s0)
	fld	ft0, -872(s0)
	fld	ft1, -720(s0)
	flt.d	a0, ft0, ft1
	xori	a0, a0, 1
	bnez	a0, .LBB15_68
	j	.LBB15_67
.LBB15_67:                              # %if.then142
                                        #   in Loop: Header=BB15_40 Depth=1
	ld	a0, -736(s0)
	sd	a0, -728(s0)
	fld	ft0, -872(s0)
	fsd	ft0, -720(s0)
	j	.LBB15_68
.LBB15_68:                              # %if.end143
                                        #   in Loop: Header=BB15_40 Depth=1
	j	.LBB15_69
.LBB15_69:                              # %for.inc144
                                        #   in Loop: Header=BB15_40 Depth=1
	ld	a0, -736(s0)
	addi	a0, a0, 1
	sd	a0, -736(s0)
	j	.LBB15_40
.LBB15_70:                              # %for.end146
	fld	ft0, -720(s0)
	fsd	ft0, -1232(s0)
	ld	a0, -80(s0)
	call	_ZNKSt6vectorISt10shared_ptrIN7Surface4BaseEESaIS3_EE4sizeEv
	fcvt.d.lu	ft0, a0
	fld	ft1, -1232(s0)
	flt.d	a0, ft0, ft1
	xori	a0, a0, 1
	bnez	a0, .LBB15_82
	j	.LBB15_71
.LBB15_71:                              # %if.then150
	ld	a0, -80(s0)
	call	_ZNKSt6vectorISt10shared_ptrIN7Surface4BaseEESaIS3_EE4sizeEv
	addi	a1, zero, 256
	bltu	a0, a1, .LBB15_81
	j	.LBB15_72
.LBB15_72:                              # %if.then153
	addi	s1, s0, -888
	mv	a0, s1
	mv	a1, s4
	call	_ZNSt10shared_ptrIN3BVH9BuildNodeEEC2ERKS2_
.Ltmp240:
	mv	a0, s2
	mv	a1, s1
	addi	a2, zero, 2
	call	_ZN3BVH14arbitrarySplitESt10shared_ptrINS_9BuildNodeEEm
.Ltmp241:
	j	.LBB15_73
.LBB15_73:                              # %invoke.cont156
	addi	a0, s0, -888
	call	_ZNSt10shared_ptrIN3BVH9BuildNodeEED2Ev
	mv	a0, s4
	call	_ZNKSt19__shared_ptr_accessIN3BVH9BuildNodeELN9__gnu_cxx12_Lock_policyE0ELb0ELb0EEptEv
	addi	a0, a0, 48
	sd	a0, -896(s0)
	ld	a0, -896(s0)
	call	_ZNSt6vectorISt10shared_ptrIN3BVH9BuildNodeEESaIS3_EE5beginEv
	sd	a0, -904(s0)
	ld	a0, -896(s0)
	call	_ZNSt6vectorISt10shared_ptrIN3BVH9BuildNodeEESaIS3_EE3endEv
	sd	a0, -912(s0)
	j	.LBB15_74
.LBB15_74:                              # %for.cond168
                                        # =>This Inner Loop Header: Depth=1
	addi	a0, s0, -904
	addi	a1, s0, -912
	call	_ZN9__gnu_cxxneIPSt10shared_ptrIN3BVH9BuildNodeEESt6vectorIS4_SaIS4_EEEEbRKNS_17__normal_iteratorIT_T0_EESE_
	beqz	a0, .LBB15_80
	j	.LBB15_75
.LBB15_75:                              # %for.body170
                                        #   in Loop: Header=BB15_74 Depth=1
	addi	a0, s0, -904
	call	_ZNK9__gnu_cxx17__normal_iteratorIPSt10shared_ptrIN3BVH9BuildNodeEESt6vectorIS4_SaIS4_EEEdeEv
	sd	a0, -920(s0)
	ld	a1, -920(s0)
	addi	s1, s0, -936
	mv	a0, s1
	call	_ZNSt10shared_ptrIN3BVH9BuildNodeEEC2ERKS2_
.Ltmp243:
	mv	a0, s2
	mv	a1, s1
	call	_ZN3BVH23recursiveBuildBinarySAHESt10shared_ptrINS_9BuildNodeEE
.Ltmp244:
	j	.LBB15_76
.LBB15_76:                              # %invoke.cont175
                                        #   in Loop: Header=BB15_74 Depth=1
	addi	a0, s0, -936
	call	_ZNSt10shared_ptrIN3BVH9BuildNodeEED2Ev
	j	.LBB15_77
.LBB15_77:                              # %for.inc176
                                        #   in Loop: Header=BB15_74 Depth=1
	addi	a0, s0, -904
	call	_ZN9__gnu_cxx17__normal_iteratorIPSt10shared_ptrIN3BVH9BuildNodeEESt6vectorIS4_SaIS4_EEEppEv
	j	.LBB15_74
.LBB15_78:                              # %lpad155
.Ltmp242:
	sd	a0, -288(s0)
	sw	a1, -292(s0)
	addi	a0, s0, -888
	call	_ZNSt10shared_ptrIN3BVH9BuildNodeEED2Ev
	j	.LBB15_112
.LBB15_79:                              # %lpad174
.Ltmp245:
	sd	a0, -288(s0)
	sw	a1, -292(s0)
	addi	a0, s0, -936
	call	_ZNSt10shared_ptrIN3BVH9BuildNodeEED2Ev
	j	.LBB15_112
.LBB15_80:                              # %for.end178
	j	.LBB15_81
.LBB15_81:                              # %if.end179
	addi	a0, zero, 1
	sw	a0, -940(s0)
	j	.LBB15_110
.LBB15_82:                              # %if.end180
	ld	a0, -80(s0)
	sd	a0, -952(s0)
	ld	a0, -952(s0)
	call	_ZNSt6vectorISt10shared_ptrIN7Surface4BaseEESaIS3_EE5beginEv
	sd	a0, -960(s0)
	ld	a0, -952(s0)
	call	_ZNSt6vectorISt10shared_ptrIN7Surface4BaseEESaIS3_EE3endEv
	sd	a0, -968(s0)
	j	.LBB15_83
.LBB15_83:                              # %for.cond190
                                        # =>This Inner Loop Header: Depth=1
	addi	a0, s0, -960
	addi	a1, s0, -968
	call	_ZN9__gnu_cxxneIPSt10shared_ptrIN7Surface4BaseEESt6vectorIS4_SaIS4_EEEEbRKNS_17__normal_iteratorIT_T0_EESE_
	beqz	a0, .LBB15_98
	j	.LBB15_84
.LBB15_84:                              # %for.body192
                                        #   in Loop: Header=BB15_83 Depth=1
	addi	a0, s0, -960
	call	_ZNK9__gnu_cxx17__normal_iteratorIPSt10shared_ptrIN7Surface4BaseEESt6vectorIS4_SaIS4_EEEdeEv
	sd	a0, -976(s0)
	ld	a0, -976(s0)
	call	_ZNKSt19__shared_ptr_accessIN7Surface4BaseELN9__gnu_cxx12_Lock_policyE0ELb0ELb0EEptEv
	mv	a1, a0
.Ltmp221:
	addi	a0, s0, -1056
	call	_ZNK7Surface4Base2BBEv
.Ltmp222:
	j	.LBB15_85
.LBB15_85:                              # %invoke.cont199
                                        #   in Loop: Header=BB15_83 Depth=1
.Ltmp223:
	addi	a0, s0, -1008
	addi	a1, s0, -1056
	call	_ZNK11BoundingBox8centroidEv
.Ltmp224:
	j	.LBB15_86
.LBB15_86:                              # %invoke.cont200
                                        #   in Loop: Header=BB15_83 Depth=1
.Ltmp225:
	addi	a0, s0, -376
	addi	a1, s0, -1008
	call	_ZZN3BVH23recursiveBuildBinarySAHESt10shared_ptrINS_9BuildNodeEEENK3$_0clERKN3glm3vecILi3EdLNS4_9qualifierE0EEE
.Ltmp226:
	j	.LBB15_87
.LBB15_87:                              # %invoke.cont201
                                        #   in Loop: Header=BB15_83 Depth=1
	sw	a0, -980(s0)
	lw	a0, -980(s0)
	ld	a1, -728(s0)
	bltu	a1, a0, .LBB15_92
	j	.LBB15_88
.LBB15_88:                              # %if.then205
                                        #   in Loop: Header=BB15_83 Depth=1
	addi	a0, s0, -696
	call	_ZNKSt19__shared_ptr_accessIN3BVH9BuildNodeELN9__gnu_cxx12_Lock_policyE0ELb0ELb0EEptEv
	addi	a0, a0, 72
	ld	a1, -976(s0)
.Ltmp233:
	call	_ZNSt6vectorISt10shared_ptrIN7Surface4BaseEESaIS3_EE9push_backERKS3_
.Ltmp234:
	j	.LBB15_89
.LBB15_89:                              # %invoke.cont208
                                        #   in Loop: Header=BB15_83 Depth=1
	addi	a0, s0, -696
	call	_ZNKSt19__shared_ptr_accessIN3BVH9BuildNodeELN9__gnu_cxx12_Lock_policyE0ELb0ELb0EEptEv
	mv	s3, a0
	ld	a0, -976(s0)
	call	_ZNKSt19__shared_ptr_accessIN7Surface4BaseELN9__gnu_cxx12_Lock_policyE0ELb0ELb0EEptEv
	mv	a1, a0
.Ltmp235:
	addi	a0, s0, -1104
	call	_ZNK7Surface4Base2BBEv
.Ltmp236:
	j	.LBB15_90
.LBB15_90:                              # %invoke.cont213
                                        #   in Loop: Header=BB15_83 Depth=1
.Ltmp237:
	addi	a1, s0, -1104
	mv	a0, s3
	call	_ZN11BoundingBox5mergeERKS_
.Ltmp238:
	j	.LBB15_91
.LBB15_91:                              # %invoke.cont214
                                        #   in Loop: Header=BB15_83 Depth=1
	j	.LBB15_96
.LBB15_92:                              # %if.else
                                        #   in Loop: Header=BB15_83 Depth=1
	addi	a0, s0, -712
	call	_ZNKSt19__shared_ptr_accessIN3BVH9BuildNodeELN9__gnu_cxx12_Lock_policyE0ELb0ELb0EEptEv
	addi	a0, a0, 72
	ld	a1, -976(s0)
.Ltmp227:
	call	_ZNSt6vectorISt10shared_ptrIN7Surface4BaseEESaIS3_EE9push_backERKS3_
.Ltmp228:
	j	.LBB15_93
.LBB15_93:                              # %invoke.cont217
                                        #   in Loop: Header=BB15_83 Depth=1
	addi	a0, s0, -712
	call	_ZNKSt19__shared_ptr_accessIN3BVH9BuildNodeELN9__gnu_cxx12_Lock_policyE0ELb0ELb0EEptEv
	mv	s3, a0
	ld	a0, -976(s0)
	call	_ZNKSt19__shared_ptr_accessIN7Surface4BaseELN9__gnu_cxx12_Lock_policyE0ELb0ELb0EEptEv
	mv	a1, a0
.Ltmp229:
	addi	a0, s0, -1152
	call	_ZNK7Surface4Base2BBEv
.Ltmp230:
	j	.LBB15_94
.LBB15_94:                              # %invoke.cont222
                                        #   in Loop: Header=BB15_83 Depth=1
.Ltmp231:
	addi	a1, s0, -1152
	mv	a0, s3
	call	_ZN11BoundingBox5mergeERKS_
.Ltmp232:
	j	.LBB15_95
.LBB15_95:                              # %invoke.cont223
                                        #   in Loop: Header=BB15_83 Depth=1
	j	.LBB15_96
.LBB15_96:                              # %if.end224
                                        #   in Loop: Header=BB15_83 Depth=1
	j	.LBB15_97
.LBB15_97:                              # %for.inc225
                                        #   in Loop: Header=BB15_83 Depth=1
	addi	a0, s0, -960
	call	_ZN9__gnu_cxx17__normal_iteratorIPSt10shared_ptrIN7Surface4BaseEESt6vectorIS4_SaIS4_EEEppEv
	j	.LBB15_83
.LBB15_98:                              # %for.end227
	ld	a0, -80(s0)
	call	_ZNSt6vectorISt10shared_ptrIN7Surface4BaseEESaIS3_EE5clearEv
	sd	zero, -1160(s0)
	addi	a0, s0, -696
	call	_ZNKSt19__shared_ptr_accessIN3BVH9BuildNodeELN9__gnu_cxx12_Lock_policyE0ELb0ELb0EEptEv
	addi	a0, a0, 72
	call	_ZNKSt6vectorISt10shared_ptrIN7Surface4BaseEESaIS3_EE5emptyEv
	bnez	a0, .LBB15_103
	j	.LBB15_99
.LBB15_99:                              # %if.then231
	ld	a0, -1160(s0)
	addi	a0, a0, 1
	sd	a0, -1160(s0)
	mv	a0, s4
	call	_ZNKSt19__shared_ptr_accessIN3BVH9BuildNodeELN9__gnu_cxx12_Lock_policyE0ELb0ELb0EEptEv
	addi	a0, a0, 48
.Ltmp208:
	addi	a1, s0, -696
	call	_ZNSt6vectorISt10shared_ptrIN3BVH9BuildNodeEESaIS3_EE9push_backERKS3_
.Ltmp209:
	j	.LBB15_100
.LBB15_100:                             # %invoke.cont235
	addi	s1, s0, -1176
	addi	a1, s0, -696
	mv	a0, s1
	call	_ZNSt10shared_ptrIN3BVH9BuildNodeEEC2ERKS2_
.Ltmp210:
	mv	a0, s2
	mv	a1, s1
	call	_ZN3BVH23recursiveBuildBinarySAHESt10shared_ptrINS_9BuildNodeEE
.Ltmp211:
	j	.LBB15_101
.LBB15_101:                             # %invoke.cont238
	addi	a0, s0, -1176
	call	_ZNSt10shared_ptrIN3BVH9BuildNodeEED2Ev
	j	.LBB15_103
.LBB15_102:                             # %lpad237
.Ltmp212:
	sd	a0, -288(s0)
	sw	a1, -292(s0)
	addi	a0, s0, -1176
	call	_ZNSt10shared_ptrIN3BVH9BuildNodeEED2Ev
	j	.LBB15_112
.LBB15_103:                             # %if.end239
	addi	a0, s0, -712
	call	_ZNKSt19__shared_ptr_accessIN3BVH9BuildNodeELN9__gnu_cxx12_Lock_policyE0ELb0ELb0EEptEv
	addi	a0, a0, 72
	call	_ZNKSt6vectorISt10shared_ptrIN7Surface4BaseEESaIS3_EE5emptyEv
	bnez	a0, .LBB15_108
	j	.LBB15_104
.LBB15_104:                             # %if.then243
	ld	a0, -1160(s0)
	addi	a0, a0, 1
	sd	a0, -1160(s0)
	mv	a0, s4
	call	_ZNKSt19__shared_ptr_accessIN3BVH9BuildNodeELN9__gnu_cxx12_Lock_policyE0ELb0ELb0EEptEv
	addi	a0, a0, 48
.Ltmp213:
	addi	a1, s0, -712
	call	_ZNSt6vectorISt10shared_ptrIN3BVH9BuildNodeEESaIS3_EE9push_backERKS3_
.Ltmp214:
	j	.LBB15_105
.LBB15_105:                             # %invoke.cont247
	addi	s1, s0, -1192
	addi	a1, s0, -712
	mv	a0, s1
	call	_ZNSt10shared_ptrIN3BVH9BuildNodeEEC2ERKS2_
.Ltmp215:
	mv	a0, s2
	mv	a1, s1
	call	_ZN3BVH23recursiveBuildBinarySAHESt10shared_ptrINS_9BuildNodeEE
.Ltmp216:
	j	.LBB15_106
.LBB15_106:                             # %invoke.cont250
	addi	a0, s0, -1192
	call	_ZNSt10shared_ptrIN3BVH9BuildNodeEED2Ev
	j	.LBB15_108
.LBB15_107:                             # %lpad249
.Ltmp217:
	sd	a0, -288(s0)
	sw	a1, -292(s0)
	addi	a0, s0, -1192
	call	_ZNSt10shared_ptrIN3BVH9BuildNodeEED2Ev
	j	.LBB15_112
.LBB15_108:                             # %if.end251
.Ltmp218:
	addi	a1, s0, -1160
	mv	a0, s2
	call	_ZNSt3mapImmSt4lessImESaISt4pairIKmmEEEixERS3_
.Ltmp219:
	j	.LBB15_109
.LBB15_109:                             # %invoke.cont252
	ld	a1, 0(a0)
	addi	a1, a1, 1
	sd	a1, 0(a0)
	sw	zero, -940(s0)
	j	.LBB15_110
.LBB15_110:                             # %cleanup
	addi	a0, s0, -712
	call	_ZNSt10shared_ptrIN3BVH9BuildNodeEED2Ev
	addi	a0, s0, -696
	call	_ZNSt10shared_ptrIN3BVH9BuildNodeEED2Ev
	addi	a0, s0, -400
	call	_ZNSt6vectorISt4pairIm11BoundingBoxESaIS2_EED2Ev
.LBB15_111:                             # %cleanup.cont
	ld	s5, 1176(sp)
	ld	s4, 1184(sp)
	ld	s3, 1192(sp)
	ld	s2, 1200(sp)
	ld	s1, 1208(sp)
	ld	s0, 1216(sp)
	.cfi_def_cfa sp, 1232
	ld	ra, 1224(sp)
	.cfi_restore ra
	.cfi_restore s0
	.cfi_restore s1
	.cfi_restore s2
	.cfi_restore s3
	.cfi_restore s4
	.cfi_restore s5
	addi	sp, sp, 1232
	.cfi_def_cfa_offset 0
	ret
.LBB15_112:                             # %ehcleanup
	addi	a0, s0, -712
	call	_ZNSt10shared_ptrIN3BVH9BuildNodeEED2Ev
	j	.LBB15_113
.LBB15_113:                             # %ehcleanup256
	addi	a0, s0, -696
	call	_ZNSt10shared_ptrIN3BVH9BuildNodeEED2Ev
	j	.LBB15_114
.LBB15_114:                             # %ehcleanup258
	addi	a0, s0, -400
	call	_ZNSt6vectorISt4pairIm11BoundingBoxESaIS2_EED2Ev
	j	.LBB15_115
.LBB15_115:                             # %eh.resume
	ld	a0, -288(s0)
	call	_Unwind_Resume
.Lfunc_end15:
	.size	_ZN3BVH23recursiveBuildBinarySAHESt10shared_ptrINS_9BuildNodeEE, .Lfunc_end15-_ZN3BVH23recursiveBuildBinarySAHESt10shared_ptrINS_9BuildNodeEE
	.cfi_endproc
	.section	.gcc_except_table,"a",@progbits
	.p2align	2
GCC_except_table15:
.Lexception5:
	.byte	255                     # @LPStart Encoding = omit
	.byte	255                     # @TType Encoding = omit
	.byte	3                       # Call site Encoding = udata4
	.uleb128 .Lcst_end5-.Lcst_begin5
.Lcst_begin5:
	.word	.Lfunc_begin5-.Lfunc_begin5 # >> Call Site 1 <<
	.word	.Ltmp274-.Lfunc_begin5  #   Call between .Lfunc_begin5 and .Ltmp274
	.word	0                       #     has no landing pad
	.byte	0                       #   On action: cleanup
	.word	.Ltmp274-.Lfunc_begin5  # >> Call Site 2 <<
	.word	.Ltmp275-.Ltmp274       #   Call between .Ltmp274 and .Ltmp275
	.word	.Ltmp276-.Lfunc_begin5  #     jumps to .Ltmp276
	.byte	0                       #   On action: cleanup
	.word	.Ltmp277-.Lfunc_begin5  # >> Call Site 3 <<
	.word	.Ltmp278-.Ltmp277       #   Call between .Ltmp277 and .Ltmp278
	.word	.Ltmp279-.Lfunc_begin5  #     jumps to .Ltmp279
	.byte	0                       #   On action: cleanup
	.word	.Ltmp278-.Lfunc_begin5  # >> Call Site 4 <<
	.word	.Ltmp199-.Ltmp278       #   Call between .Ltmp278 and .Ltmp199
	.word	0                       #     has no landing pad
	.byte	0                       #   On action: cleanup
	.word	.Ltmp199-.Lfunc_begin5  # >> Call Site 5 <<
	.word	.Ltmp200-.Ltmp199       #   Call between .Ltmp199 and .Ltmp200
	.word	.Ltmp201-.Lfunc_begin5  #     jumps to .Ltmp201
	.byte	0                       #   On action: cleanup
	.word	.Ltmp263-.Lfunc_begin5  # >> Call Site 6 <<
	.word	.Ltmp272-.Ltmp263       #   Call between .Ltmp263 and .Ltmp272
	.word	.Ltmp273-.Lfunc_begin5  #     jumps to .Ltmp273
	.byte	0                       #   On action: cleanup
	.word	.Ltmp202-.Lfunc_begin5  # >> Call Site 7 <<
	.word	.Ltmp203-.Ltmp202       #   Call between .Ltmp202 and .Ltmp203
	.word	.Ltmp204-.Lfunc_begin5  #     jumps to .Ltmp204
	.byte	0                       #   On action: cleanup
	.word	.Ltmp205-.Lfunc_begin5  # >> Call Site 8 <<
	.word	.Ltmp206-.Ltmp205       #   Call between .Ltmp205 and .Ltmp206
	.word	.Ltmp207-.Lfunc_begin5  #     jumps to .Ltmp207
	.byte	0                       #   On action: cleanup
	.word	.Ltmp246-.Lfunc_begin5  # >> Call Site 9 <<
	.word	.Ltmp247-.Ltmp246       #   Call between .Ltmp246 and .Ltmp247
	.word	.Ltmp256-.Lfunc_begin5  #     jumps to .Ltmp256
	.byte	0                       #   On action: cleanup
	.word	.Ltmp260-.Lfunc_begin5  # >> Call Site 10 <<
	.word	.Ltmp261-.Ltmp260       #   Call between .Ltmp260 and .Ltmp261
	.word	.Ltmp262-.Lfunc_begin5  #     jumps to .Ltmp262
	.byte	0                       #   On action: cleanup
	.word	.Ltmp248-.Lfunc_begin5  # >> Call Site 11 <<
	.word	.Ltmp249-.Ltmp248       #   Call between .Ltmp248 and .Ltmp249
	.word	.Ltmp256-.Lfunc_begin5  #     jumps to .Ltmp256
	.byte	0                       #   On action: cleanup
	.word	.Ltmp257-.Lfunc_begin5  # >> Call Site 12 <<
	.word	.Ltmp258-.Ltmp257       #   Call between .Ltmp257 and .Ltmp258
	.word	.Ltmp259-.Lfunc_begin5  #     jumps to .Ltmp259
	.byte	0                       #   On action: cleanup
	.word	.Ltmp250-.Lfunc_begin5  # >> Call Site 13 <<
	.word	.Ltmp255-.Ltmp250       #   Call between .Ltmp250 and .Ltmp255
	.word	.Ltmp256-.Lfunc_begin5  #     jumps to .Ltmp256
	.byte	0                       #   On action: cleanup
	.word	.Ltmp240-.Lfunc_begin5  # >> Call Site 14 <<
	.word	.Ltmp241-.Ltmp240       #   Call between .Ltmp240 and .Ltmp241
	.word	.Ltmp242-.Lfunc_begin5  #     jumps to .Ltmp242
	.byte	0                       #   On action: cleanup
	.word	.Ltmp243-.Lfunc_begin5  # >> Call Site 15 <<
	.word	.Ltmp244-.Ltmp243       #   Call between .Ltmp243 and .Ltmp244
	.word	.Ltmp245-.Lfunc_begin5  #     jumps to .Ltmp245
	.byte	0                       #   On action: cleanup
	.word	.Ltmp221-.Lfunc_begin5  # >> Call Site 16 <<
	.word	.Ltmp232-.Ltmp221       #   Call between .Ltmp221 and .Ltmp232
	.word	.Ltmp239-.Lfunc_begin5  #     jumps to .Ltmp239
	.byte	0                       #   On action: cleanup
	.word	.Ltmp208-.Lfunc_begin5  # >> Call Site 17 <<
	.word	.Ltmp209-.Ltmp208       #   Call between .Ltmp208 and .Ltmp209
	.word	.Ltmp220-.Lfunc_begin5  #     jumps to .Ltmp220
	.byte	0                       #   On action: cleanup
	.word	.Ltmp210-.Lfunc_begin5  # >> Call Site 18 <<
	.word	.Ltmp211-.Ltmp210       #   Call between .Ltmp210 and .Ltmp211
	.word	.Ltmp212-.Lfunc_begin5  #     jumps to .Ltmp212
	.byte	0                       #   On action: cleanup
	.word	.Ltmp213-.Lfunc_begin5  # >> Call Site 19 <<
	.word	.Ltmp214-.Ltmp213       #   Call between .Ltmp213 and .Ltmp214
	.word	.Ltmp220-.Lfunc_begin5  #     jumps to .Ltmp220
	.byte	0                       #   On action: cleanup
	.word	.Ltmp215-.Lfunc_begin5  # >> Call Site 20 <<
	.word	.Ltmp216-.Ltmp215       #   Call between .Ltmp215 and .Ltmp216
	.word	.Ltmp217-.Lfunc_begin5  #     jumps to .Ltmp217
	.byte	0                       #   On action: cleanup
	.word	.Ltmp218-.Lfunc_begin5  # >> Call Site 21 <<
	.word	.Ltmp219-.Ltmp218       #   Call between .Ltmp218 and .Ltmp219
	.word	.Ltmp220-.Lfunc_begin5  #     jumps to .Ltmp220
	.byte	0                       #   On action: cleanup
	.word	.Ltmp219-.Lfunc_begin5  # >> Call Site 22 <<
	.word	.Lfunc_end15-.Ltmp219   #   Call between .Ltmp219 and .Lfunc_end15
	.word	0                       #     has no landing pad
	.byte	0                       #   On action: cleanup
.Lcst_end5:
	.p2align	2
                                        # -- End function
	.section	.text._ZN3glm7compMaxILi3EdLNS_9qualifierE0EEET0_RKNS_3vecIXT_ES2_XT1_EEE,"axG",@progbits,_ZN3glm7compMaxILi3EdLNS_9qualifierE0EEET0_RKNS_3vecIXT_ES2_XT1_EEE,comdat
	.weak	_ZN3glm7compMaxILi3EdLNS_9qualifierE0EEET0_RKNS_3vecIXT_ES2_XT1_EEE # -- Begin function _ZN3glm7compMaxILi3EdLNS_9qualifierE0EEET0_RKNS_3vecIXT_ES2_XT1_EEE
	.p2align	2
	.type	_ZN3glm7compMaxILi3EdLNS_9qualifierE0EEET0_RKNS_3vecIXT_ES2_XT1_EEE,@function
_ZN3glm7compMaxILi3EdLNS_9qualifierE0EEET0_RKNS_3vecIXT_ES2_XT1_EEE: # @_ZN3glm7compMaxILi3EdLNS_9qualifierE0EEET0_RKNS_3vecIXT_ES2_XT1_EEE
	.cfi_startproc
# %bb.0:                                # %entry
	addi	sp, sp, -48
	.cfi_def_cfa_offset 48
	sd	ra, 40(sp)
	sd	s0, 32(sp)
	sd	s1, 24(sp)
	.cfi_offset ra, -8
	.cfi_offset s0, -16
	.cfi_offset s1, -24
	addi	s0, sp, 48
	.cfi_def_cfa s0, 0
	sd	a0, -32(s0)
	ld	a0, -32(s0)
	mv	a1, zero
	call	_ZNK3glm3vecILi3EdLNS_9qualifierE0EEixEi
	fld	ft0, 0(a0)
	fsd	ft0, -40(s0)
	addi	a0, zero, 1
	sw	a0, -44(s0)
	call	_ZN3glm3vecILi3EdLNS_9qualifierE0EE6lengthEv
	sw	a0, -48(s0)
	j	.LBB16_1
.LBB16_1:                               # %for.cond
                                        # =>This Inner Loop Header: Depth=1
	lw	a0, -44(s0)
	lw	a1, -48(s0)
	bge	a0, a1, .LBB16_4
	j	.LBB16_2
.LBB16_2:                               # %for.body
                                        #   in Loop: Header=BB16_1 Depth=1
	ld	a0, -32(s0)
	lw	a1, -44(s0)
	ld	s1, -40(s0)
	call	_ZNK3glm3vecILi3EdLNS_9qualifierE0EEixEi
	ld	a1, 0(a0)
	mv	a0, s1
	call	_ZN3glm3maxIdEET_S1_S1_
	sd	a0, -40(s0)
	j	.LBB16_3
.LBB16_3:                               # %for.inc
                                        #   in Loop: Header=BB16_1 Depth=1
	lw	a0, -44(s0)
	addi	a0, a0, 1
	sw	a0, -44(s0)
	j	.LBB16_1
.LBB16_4:                               # %for.end
	ld	a0, -40(s0)
	ld	s1, 24(sp)
	ld	s0, 32(sp)
	.cfi_def_cfa sp, 48
	ld	ra, 40(sp)
	.cfi_restore ra
	.cfi_restore s0
	.cfi_restore s1
	addi	sp, sp, 48
	.cfi_def_cfa_offset 0
	ret
.Lfunc_end16:
	.size	_ZN3glm7compMaxILi3EdLNS_9qualifierE0EEET0_RKNS_3vecIXT_ES2_XT1_EEE, .Lfunc_end16-_ZN3glm7compMaxILi3EdLNS_9qualifierE0EEET0_RKNS_3vecIXT_ES2_XT1_EEE
	.cfi_endproc
                                        # -- End function
	.section	.text._ZN3glmmiIdLNS_9qualifierE0EEENS_3vecILi3ET_XT0_EEERKS4_S3_,"axG",@progbits,_ZN3glmmiIdLNS_9qualifierE0EEENS_3vecILi3ET_XT0_EEERKS4_S3_,comdat
	.weak	_ZN3glmmiIdLNS_9qualifierE0EEENS_3vecILi3ET_XT0_EEERKS4_S3_ # -- Begin function _ZN3glmmiIdLNS_9qualifierE0EEENS_3vecILi3ET_XT0_EEERKS4_S3_
	.p2align	2
	.type	_ZN3glmmiIdLNS_9qualifierE0EEENS_3vecILi3ET_XT0_EEERKS4_S3_,@function
_ZN3glmmiIdLNS_9qualifierE0EEENS_3vecILi3ET_XT0_EEERKS4_S3_: # @_ZN3glmmiIdLNS_9qualifierE0EEENS_3vecILi3ET_XT0_EEERKS4_S3_
	.cfi_startproc
# %bb.0:                                # %entry
	addi	sp, sp, -48
	.cfi_def_cfa_offset 48
	sd	ra, 40(sp)
	sd	s0, 32(sp)
	.cfi_offset ra, -8
	.cfi_offset s0, -16
	addi	s0, sp, 48
	.cfi_def_cfa s0, 0
	fmv.d.x	ft0, a2
	sd	a0, -24(s0)
	sd	a1, -32(s0)
	sd	a2, -40(s0)
	ld	a1, -32(s0)
	fld	ft0, 0(a1)
	fld	ft1, -40(s0)
	fsub.d	ft0, ft0, ft1
	fld	ft2, 8(a1)
	fsub.d	ft2, ft2, ft1
	fld	ft3, 16(a1)
	fsub.d	ft1, ft3, ft1
	fmv.x.d	a1, ft0
	fmv.x.d	a2, ft2
	fmv.x.d	a3, ft1
	call	_ZN3glm3vecILi3EdLNS_9qualifierE0EEC2Eddd
	ld	s0, 32(sp)
	.cfi_def_cfa sp, 48
	ld	ra, 40(sp)
	.cfi_restore ra
	.cfi_restore s0
	addi	sp, sp, 48
	.cfi_def_cfa_offset 0
	ret
.Lfunc_end17:
	.size	_ZN3glmmiIdLNS_9qualifierE0EEENS_3vecILi3ET_XT0_EEERKS4_S3_, .Lfunc_end17-_ZN3glmmiIdLNS_9qualifierE0EEENS_3vecILi3ET_XT0_EEERKS4_S3_
	.cfi_endproc
                                        # -- End function
	.section	.text._ZN3glmplIdLNS_9qualifierE0EEENS_3vecILi3ET_XT0_EEERKS4_S3_,"axG",@progbits,_ZN3glmplIdLNS_9qualifierE0EEENS_3vecILi3ET_XT0_EEERKS4_S3_,comdat
	.weak	_ZN3glmplIdLNS_9qualifierE0EEENS_3vecILi3ET_XT0_EEERKS4_S3_ # -- Begin function _ZN3glmplIdLNS_9qualifierE0EEENS_3vecILi3ET_XT0_EEERKS4_S3_
	.p2align	2
	.type	_ZN3glmplIdLNS_9qualifierE0EEENS_3vecILi3ET_XT0_EEERKS4_S3_,@function
_ZN3glmplIdLNS_9qualifierE0EEENS_3vecILi3ET_XT0_EEERKS4_S3_: # @_ZN3glmplIdLNS_9qualifierE0EEENS_3vecILi3ET_XT0_EEERKS4_S3_
	.cfi_startproc
# %bb.0:                                # %entry
	addi	sp, sp, -48
	.cfi_def_cfa_offset 48
	sd	ra, 40(sp)
	sd	s0, 32(sp)
	.cfi_offset ra, -8
	.cfi_offset s0, -16
	addi	s0, sp, 48
	.cfi_def_cfa s0, 0
	fmv.d.x	ft0, a2
	sd	a0, -24(s0)
	sd	a1, -32(s0)
	sd	a2, -40(s0)
	ld	a1, -32(s0)
	fld	ft0, 0(a1)
	fld	ft1, -40(s0)
	fadd.d	ft0, ft0, ft1
	fld	ft2, 8(a1)
	fadd.d	ft2, ft2, ft1
	fld	ft3, 16(a1)
	fadd.d	ft1, ft3, ft1
	fmv.x.d	a1, ft0
	fmv.x.d	a2, ft2
	fmv.x.d	a3, ft1
	call	_ZN3glm3vecILi3EdLNS_9qualifierE0EEC2Eddd
	ld	s0, 32(sp)
	.cfi_def_cfa sp, 48
	ld	ra, 40(sp)
	.cfi_restore ra
	.cfi_restore s0
	addi	sp, sp, 48
	.cfi_def_cfa_offset 0
	ret
.Lfunc_end18:
	.size	_ZN3glmplIdLNS_9qualifierE0EEENS_3vecILi3ET_XT0_EEERKS4_S3_, .Lfunc_end18-_ZN3glmplIdLNS_9qualifierE0EEENS_3vecILi3ET_XT0_EEERKS4_S3_
	.cfi_endproc
                                        # -- End function
	.section	.text._ZN11BoundingBoxC2EN3glm3vecILi3EdLNS0_9qualifierE0EEES3_,"axG",@progbits,_ZN11BoundingBoxC2EN3glm3vecILi3EdLNS0_9qualifierE0EEES3_,comdat
	.weak	_ZN11BoundingBoxC2EN3glm3vecILi3EdLNS0_9qualifierE0EEES3_ # -- Begin function _ZN11BoundingBoxC2EN3glm3vecILi3EdLNS0_9qualifierE0EEES3_
	.p2align	2
	.type	_ZN11BoundingBoxC2EN3glm3vecILi3EdLNS0_9qualifierE0EEES3_,@function
_ZN11BoundingBoxC2EN3glm3vecILi3EdLNS0_9qualifierE0EEES3_: # @_ZN11BoundingBoxC2EN3glm3vecILi3EdLNS0_9qualifierE0EEES3_
# %bb.0:                                # %entry
	addi	sp, sp, -32
	sd	ra, 24(sp)
	sd	s0, 16(sp)
	addi	s0, sp, 32
	sd	a0, -24(s0)
	ld	a0, -24(s0)
	ld	a3, 16(a1)
	sd	a3, 16(a0)
	ld	a3, 8(a1)
	sd	a3, 8(a0)
	ld	a1, 0(a1)
	sd	a1, 0(a0)
	ld	a1, 16(a2)
	sd	a1, 40(a0)
	ld	a1, 8(a2)
	sd	a1, 32(a0)
	ld	a1, 0(a2)
	sd	a1, 24(a0)
	ld	s0, 16(sp)
	ld	ra, 24(sp)
	addi	sp, sp, 32
	ret
.Lfunc_end19:
	.size	_ZN11BoundingBoxC2EN3glm3vecILi3EdLNS0_9qualifierE0EEES3_, .Lfunc_end19-_ZN11BoundingBoxC2EN3glm3vecILi3EdLNS0_9qualifierE0EEES3_
                                        # -- End function
	.section	.text._ZN6OctreeIN3BVH15SurfaceCentroidEEC2ERK11BoundingBoxm,"axG",@progbits,_ZN6OctreeIN3BVH15SurfaceCentroidEEC2ERK11BoundingBoxm,comdat
	.weak	_ZN6OctreeIN3BVH15SurfaceCentroidEEC2ERK11BoundingBoxm # -- Begin function _ZN6OctreeIN3BVH15SurfaceCentroidEEC2ERK11BoundingBoxm
	.p2align	2
	.type	_ZN6OctreeIN3BVH15SurfaceCentroidEEC2ERK11BoundingBoxm,@function
_ZN6OctreeIN3BVH15SurfaceCentroidEEC2ERK11BoundingBoxm: # @_ZN6OctreeIN3BVH15SurfaceCentroidEEC2ERK11BoundingBoxm
.Lfunc_begin6:
	.cfi_startproc
	.cfi_personality 155, DW.ref.__gxx_personality_v0
	.cfi_lsda 27, .Lexception6
# %bb.0:                                # %entry
	addi	sp, sp, -96
	.cfi_def_cfa_offset 96
	sd	ra, 88(sp)
	sd	s0, 80(sp)
	sd	s1, 72(sp)
	sd	s2, 64(sp)
	sd	s3, 56(sp)
	.cfi_offset ra, -8
	.cfi_offset s0, -16
	.cfi_offset s1, -24
	.cfi_offset s2, -32
	.cfi_offset s3, -40
	addi	s0, sp, 96
	.cfi_def_cfa s0, 0
	sd	a0, -48(s0)
	sd	a1, -56(s0)
	sd	a2, -64(s0)
	ld	s1, -48(s0)
	mv	a0, s1
	call	_ZNSt6vectorIN3BVH15SurfaceCentroidESaIS1_EEC2Ev
	ld	a0, -56(s0)
	ld	a1, 40(a0)
	sd	a1, 64(s1)
	ld	a1, 32(a0)
	sd	a1, 56(s1)
	ld	a1, 24(a0)
	sd	a1, 48(s1)
	ld	a1, 16(a0)
	sd	a1, 40(s1)
	ld	a1, 8(a0)
	sd	a1, 32(s1)
	ld	a0, 0(a0)
	sd	a0, 24(s1)
	addi	s2, s1, 72
	addi	s3, s0, -72
	mv	a0, s3
	call	_ZNSaISt10unique_ptrI6OctreeIN3BVH15SurfaceCentroidEESt14default_deleteIS3_EEEC2Ev
.Ltmp280:
	mv	a0, s2
	mv	a1, zero
	mv	a2, s3
	call	_ZNSt6vectorISt10unique_ptrI6OctreeIN3BVH15SurfaceCentroidEESt14default_deleteIS4_EESaIS7_EEC2EmRKS8_
.Ltmp281:
	j	.LBB20_1
.LBB20_1:                               # %invoke.cont
	addi	a0, s0, -72
	call	_ZNSaISt10unique_ptrI6OctreeIN3BVH15SurfaceCentroidEESt14default_deleteIS3_EEED2Ev
	ld	a0, -64(s0)
	sd	a0, 96(s1)
	ld	s3, 56(sp)
	ld	s2, 64(sp)
	ld	s1, 72(sp)
	ld	s0, 80(sp)
	.cfi_def_cfa sp, 96
	ld	ra, 88(sp)
	.cfi_restore ra
	.cfi_restore s0
	.cfi_restore s1
	.cfi_restore s2
	.cfi_restore s3
	addi	sp, sp, 96
	.cfi_def_cfa_offset 0
	ret
.LBB20_2:                               # %lpad
.Ltmp282:
	sd	a0, -80(s0)
	sw	a1, -84(s0)
	addi	a0, s0, -72
	call	_ZNSaISt10unique_ptrI6OctreeIN3BVH15SurfaceCentroidEESt14default_deleteIS3_EEED2Ev
	mv	a0, s1
	call	_ZNSt6vectorIN3BVH15SurfaceCentroidESaIS1_EED2Ev
	j	.LBB20_3
.LBB20_3:                               # %eh.resume
	ld	a0, -80(s0)
	call	_Unwind_Resume
.Lfunc_end20:
	.size	_ZN6OctreeIN3BVH15SurfaceCentroidEEC2ERK11BoundingBoxm, .Lfunc_end20-_ZN6OctreeIN3BVH15SurfaceCentroidEEC2ERK11BoundingBoxm
	.cfi_endproc
	.section	.gcc_except_table,"a",@progbits
	.p2align	2
GCC_except_table20:
.Lexception6:
	.byte	255                     # @LPStart Encoding = omit
	.byte	255                     # @TType Encoding = omit
	.byte	3                       # Call site Encoding = udata4
	.uleb128 .Lcst_end6-.Lcst_begin6
.Lcst_begin6:
	.word	.Ltmp280-.Lfunc_begin6  # >> Call Site 1 <<
	.word	.Ltmp281-.Ltmp280       #   Call between .Ltmp280 and .Ltmp281
	.word	.Ltmp282-.Lfunc_begin6  #     jumps to .Ltmp282
	.byte	0                       #   On action: cleanup
	.word	.Ltmp281-.Lfunc_begin6  # >> Call Site 2 <<
	.word	.Lfunc_end20-.Ltmp281   #   Call between .Ltmp281 and .Lfunc_end20
	.word	0                       #     has no landing pad
	.byte	0                       #   On action: cleanup
.Lcst_end6:
	.p2align	2
                                        # -- End function
	.section	.text._ZNKSt6vectorISt10shared_ptrIN7Surface4BaseEESaIS3_EE5beginEv,"axG",@progbits,_ZNKSt6vectorISt10shared_ptrIN7Surface4BaseEESaIS3_EE5beginEv,comdat
	.weak	_ZNKSt6vectorISt10shared_ptrIN7Surface4BaseEESaIS3_EE5beginEv # -- Begin function _ZNKSt6vectorISt10shared_ptrIN7Surface4BaseEESaIS3_EE5beginEv
	.p2align	2
	.type	_ZNKSt6vectorISt10shared_ptrIN7Surface4BaseEESaIS3_EE5beginEv,@function
_ZNKSt6vectorISt10shared_ptrIN7Surface4BaseEESaIS3_EE5beginEv: # @_ZNKSt6vectorISt10shared_ptrIN7Surface4BaseEESaIS3_EE5beginEv
# %bb.0:                                # %entry
	addi	sp, sp, -48
	sd	ra, 40(sp)
	sd	s0, 32(sp)
	addi	s0, sp, 48
	sd	a0, -32(s0)
	ld	a0, -32(s0)
	ld	a0, 0(a0)
	sd	a0, -40(s0)
	addi	a0, s0, -24
	addi	a1, s0, -40
	call	_ZN9__gnu_cxx17__normal_iteratorIPKSt10shared_ptrIN7Surface4BaseEESt6vectorIS4_SaIS4_EEEC2ERKS6_
	ld	a0, -24(s0)
	ld	s0, 32(sp)
	ld	ra, 40(sp)
	addi	sp, sp, 48
	ret
.Lfunc_end21:
	.size	_ZNKSt6vectorISt10shared_ptrIN7Surface4BaseEESaIS3_EE5beginEv, .Lfunc_end21-_ZNKSt6vectorISt10shared_ptrIN7Surface4BaseEESaIS3_EE5beginEv
                                        # -- End function
	.section	.text._ZNKSt6vectorISt10shared_ptrIN7Surface4BaseEESaIS3_EE3endEv,"axG",@progbits,_ZNKSt6vectorISt10shared_ptrIN7Surface4BaseEESaIS3_EE3endEv,comdat
	.weak	_ZNKSt6vectorISt10shared_ptrIN7Surface4BaseEESaIS3_EE3endEv # -- Begin function _ZNKSt6vectorISt10shared_ptrIN7Surface4BaseEESaIS3_EE3endEv
	.p2align	2
	.type	_ZNKSt6vectorISt10shared_ptrIN7Surface4BaseEESaIS3_EE3endEv,@function
_ZNKSt6vectorISt10shared_ptrIN7Surface4BaseEESaIS3_EE3endEv: # @_ZNKSt6vectorISt10shared_ptrIN7Surface4BaseEESaIS3_EE3endEv
# %bb.0:                                # %entry
	addi	sp, sp, -48
	sd	ra, 40(sp)
	sd	s0, 32(sp)
	addi	s0, sp, 48
	sd	a0, -32(s0)
	ld	a0, -32(s0)
	ld	a0, 8(a0)
	sd	a0, -40(s0)
	addi	a0, s0, -24
	addi	a1, s0, -40
	call	_ZN9__gnu_cxx17__normal_iteratorIPKSt10shared_ptrIN7Surface4BaseEESt6vectorIS4_SaIS4_EEEC2ERKS6_
	ld	a0, -24(s0)
	ld	s0, 32(sp)
	ld	ra, 40(sp)
	addi	sp, sp, 48
	ret
.Lfunc_end22:
	.size	_ZNKSt6vectorISt10shared_ptrIN7Surface4BaseEESaIS3_EE3endEv, .Lfunc_end22-_ZNKSt6vectorISt10shared_ptrIN7Surface4BaseEESaIS3_EE3endEv
                                        # -- End function
	.section	.text._ZN9__gnu_cxxneIPKSt10shared_ptrIN7Surface4BaseEESt6vectorIS4_SaIS4_EEEEbRKNS_17__normal_iteratorIT_T0_EESF_,"axG",@progbits,_ZN9__gnu_cxxneIPKSt10shared_ptrIN7Surface4BaseEESt6vectorIS4_SaIS4_EEEEbRKNS_17__normal_iteratorIT_T0_EESF_,comdat
	.weak	_ZN9__gnu_cxxneIPKSt10shared_ptrIN7Surface4BaseEESt6vectorIS4_SaIS4_EEEEbRKNS_17__normal_iteratorIT_T0_EESF_ # -- Begin function _ZN9__gnu_cxxneIPKSt10shared_ptrIN7Surface4BaseEESt6vectorIS4_SaIS4_EEEEbRKNS_17__normal_iteratorIT_T0_EESF_
	.p2align	2
	.type	_ZN9__gnu_cxxneIPKSt10shared_ptrIN7Surface4BaseEESt6vectorIS4_SaIS4_EEEEbRKNS_17__normal_iteratorIT_T0_EESF_,@function
_ZN9__gnu_cxxneIPKSt10shared_ptrIN7Surface4BaseEESt6vectorIS4_SaIS4_EEEEbRKNS_17__normal_iteratorIT_T0_EESF_: # @_ZN9__gnu_cxxneIPKSt10shared_ptrIN7Surface4BaseEESt6vectorIS4_SaIS4_EEEEbRKNS_17__normal_iteratorIT_T0_EESF_
# %bb.0:                                # %entry
	addi	sp, sp, -48
	sd	ra, 40(sp)
	sd	s0, 32(sp)
	sd	s1, 24(sp)
	addi	s0, sp, 48
	sd	a0, -32(s0)
	sd	a1, -40(s0)
	ld	a0, -32(s0)
	call	_ZNK9__gnu_cxx17__normal_iteratorIPKSt10shared_ptrIN7Surface4BaseEESt6vectorIS4_SaIS4_EEE4baseEv
	ld	s1, 0(a0)
	ld	a0, -40(s0)
	call	_ZNK9__gnu_cxx17__normal_iteratorIPKSt10shared_ptrIN7Surface4BaseEESt6vectorIS4_SaIS4_EEE4baseEv
	ld	a0, 0(a0)
	xor	a0, s1, a0
	snez	a0, a0
	ld	s1, 24(sp)
	ld	s0, 32(sp)
	ld	ra, 40(sp)
	addi	sp, sp, 48
	ret
.Lfunc_end23:
	.size	_ZN9__gnu_cxxneIPKSt10shared_ptrIN7Surface4BaseEESt6vectorIS4_SaIS4_EEEEbRKNS_17__normal_iteratorIT_T0_EESF_, .Lfunc_end23-_ZN9__gnu_cxxneIPKSt10shared_ptrIN7Surface4BaseEESt6vectorIS4_SaIS4_EEEEbRKNS_17__normal_iteratorIT_T0_EESF_
                                        # -- End function
	.section	.text._ZNK9__gnu_cxx17__normal_iteratorIPKSt10shared_ptrIN7Surface4BaseEESt6vectorIS4_SaIS4_EEEdeEv,"axG",@progbits,_ZNK9__gnu_cxx17__normal_iteratorIPKSt10shared_ptrIN7Surface4BaseEESt6vectorIS4_SaIS4_EEEdeEv,comdat
	.weak	_ZNK9__gnu_cxx17__normal_iteratorIPKSt10shared_ptrIN7Surface4BaseEESt6vectorIS4_SaIS4_EEEdeEv # -- Begin function _ZNK9__gnu_cxx17__normal_iteratorIPKSt10shared_ptrIN7Surface4BaseEESt6vectorIS4_SaIS4_EEEdeEv
	.p2align	2
	.type	_ZNK9__gnu_cxx17__normal_iteratorIPKSt10shared_ptrIN7Surface4BaseEESt6vectorIS4_SaIS4_EEEdeEv,@function
_ZNK9__gnu_cxx17__normal_iteratorIPKSt10shared_ptrIN7Surface4BaseEESt6vectorIS4_SaIS4_EEEdeEv: # @_ZNK9__gnu_cxx17__normal_iteratorIPKSt10shared_ptrIN7Surface4BaseEESt6vectorIS4_SaIS4_EEEdeEv
# %bb.0:                                # %entry
	addi	sp, sp, -32
	sd	ra, 24(sp)
	sd	s0, 16(sp)
	addi	s0, sp, 32
	sd	a0, -24(s0)
	ld	a0, -24(s0)
	ld	a0, 0(a0)
	ld	s0, 16(sp)
	ld	ra, 24(sp)
	addi	sp, sp, 32
	ret
.Lfunc_end24:
	.size	_ZNK9__gnu_cxx17__normal_iteratorIPKSt10shared_ptrIN7Surface4BaseEESt6vectorIS4_SaIS4_EEEdeEv, .Lfunc_end24-_ZNK9__gnu_cxx17__normal_iteratorIPKSt10shared_ptrIN7Surface4BaseEESt6vectorIS4_SaIS4_EEEdeEv
                                        # -- End function
	.section	.rodata.cst16,"aM",@progbits,16
	.p2align	3               # -- Begin function _ZN6OctreeIN3BVH15SurfaceCentroidEE6insertERKS1_
.LCPI25_0:
	.quad	-4620693217682128896    # double -0.5
	.quad	4602678819172646912     # double 0.5
	.section	.text._ZN6OctreeIN3BVH15SurfaceCentroidEE6insertERKS1_,"axG",@progbits,_ZN6OctreeIN3BVH15SurfaceCentroidEE6insertERKS1_,comdat
	.weak	_ZN6OctreeIN3BVH15SurfaceCentroidEE6insertERKS1_
	.p2align	2
	.type	_ZN6OctreeIN3BVH15SurfaceCentroidEE6insertERKS1_,@function
_ZN6OctreeIN3BVH15SurfaceCentroidEE6insertERKS1_: # @_ZN6OctreeIN3BVH15SurfaceCentroidEE6insertERKS1_
.Lfunc_begin7:
	.cfi_startproc
	.cfi_personality 155, DW.ref.__gxx_personality_v0
	.cfi_lsda 27, .Lexception7
# %bb.0:                                # %entry
	addi	sp, sp, -240
	.cfi_def_cfa_offset 240
	sd	ra, 232(sp)
	sd	s0, 224(sp)
	sd	s1, 216(sp)
	sd	s2, 208(sp)
	.cfi_offset ra, -8
	.cfi_offset s0, -16
	.cfi_offset s1, -24
	.cfi_offset s2, -32
	addi	s0, sp, 240
	.cfi_def_cfa s0, 0
	sd	a0, -40(s0)
	sd	a1, -48(s0)
	ld	s1, -40(s0)
	mv	a0, s1
	call	_ZNK6OctreeIN3BVH15SurfaceCentroidEE4leafEv
	beqz	a0, .LBB25_33
	j	.LBB25_1
.LBB25_1:                               # %if.then
	mv	a0, s1
	call	_ZNKSt6vectorIN3BVH15SurfaceCentroidESaIS1_EE4sizeEv
	ld	a1, 96(s1)
	bgeu	a0, a1, .LBB25_3
	j	.LBB25_2
.LBB25_2:                               # %if.then3
	ld	a1, -48(s0)
	mv	a0, s1
	call	_ZNSt6vectorIN3BVH15SurfaceCentroidESaIS1_EE9push_backERKS1_
	j	.LBB25_34
.LBB25_3:                               # %if.else
	mv	a0, s1
	call	_ZSt4moveIRSt6vectorIN3BVH15SurfaceCentroidESaIS2_EEEONSt16remove_referenceIT_E4typeEOS7_
	mv	a1, a0
	addi	a0, s0, -72
	call	_ZNSt6vectorIN3BVH15SurfaceCentroidESaIS1_EEC2EOS3_
	addi	a0, s1, 72
.Ltmp283:
	addi	a1, zero, 8
	call	_ZNSt6vectorISt10unique_ptrI6OctreeIN3BVH15SurfaceCentroidEESt14default_deleteIS4_EESaIS7_EE6resizeEm
.Ltmp284:
	j	.LBB25_4
.LBB25_4:                               # %invoke.cont
	sb	zero, -85(s0)
	j	.LBB25_5
.LBB25_5:                               # %for.cond
                                        # =>This Loop Header: Depth=1
                                        #     Child Loop BB25_10 Depth 2
	lbu	s2, -85(s0)
	addi	a0, s1, 72
	call	_ZNKSt6vectorISt10unique_ptrI6OctreeIN3BVH15SurfaceCentroidEESt14default_deleteIS4_EESaIS7_EE4sizeEv
	bgeu	s2, a0, .LBB25_26
	j	.LBB25_6
.LBB25_6:                               # %for.body
                                        #   in Loop: Header=BB25_5 Depth=1
	addi	a1, s1, 24
.Ltmp289:
	addi	a0, s0, -112
	call	_ZNK11BoundingBox8centroidEv
.Ltmp290:
	j	.LBB25_7
.LBB25_7:                               # %invoke.cont10
                                        #   in Loop: Header=BB25_5 Depth=1
	addi	a1, s1, 24
.Ltmp291:
	addi	a0, s0, -160
	call	_ZNK11BoundingBox10dimensionsEv
.Ltmp292:
	j	.LBB25_8
.LBB25_8:                               # %invoke.cont12
                                        #   in Loop: Header=BB25_5 Depth=1
.Ltmp293:
	addi	a0, zero, 1
	slli	a2, a0, 62
	addi	a0, s0, -136
	addi	a1, s0, -160
	call	_ZN3glmdvIdLNS_9qualifierE0EEENS_3vecILi3ET_XT0_EEERKS4_S3_
.Ltmp294:
	j	.LBB25_9
.LBB25_9:                               # %invoke.cont13
                                        #   in Loop: Header=BB25_5 Depth=1
	sb	zero, -161(s0)
	j	.LBB25_10
.LBB25_10:                              # %for.cond14
                                        #   Parent Loop BB25_5 Depth=1
                                        # =>  This Inner Loop Header: Depth=2
	lbu	a0, -161(s0)
	addi	a1, zero, 2
	blt	a1, a0, .LBB25_22
	j	.LBB25_11
.LBB25_11:                              # %for.body17
                                        #   in Loop: Header=BB25_10 Depth=2
	lbu	a1, -161(s0)
.Ltmp300:
	addi	a0, s0, -136
	call	_ZN3glm3vecILi3EdLNS_9qualifierE0EEixEi
.Ltmp301:
	j	.LBB25_12
.LBB25_12:                              # %invoke.cont19
                                        #   in Loop: Header=BB25_10 Depth=2
	fld	ft0, 0(a0)
	lbu	a0, -85(s0)
	lbu	a1, -161(s0)
	addi	a2, zero, 4
	srlw	a2, a2, a1
	and	a0, a0, a2
	snez	a0, a0
	slli	a0, a0, 3
	lui	a2, %hi(.LCPI25_0)
	addi	a2, a2, %lo(.LCPI25_0)
	add	a0, a2, a0
	fld	ft1, 0(a0)
	fmul.d	ft0, ft0, ft1
	fsd	ft0, -240(s0)
.Ltmp302:
	addi	a0, s0, -112
	call	_ZN3glm3vecILi3EdLNS_9qualifierE0EEixEi
.Ltmp303:
	j	.LBB25_13
.LBB25_13:                              # %invoke.cont24
                                        #   in Loop: Header=BB25_10 Depth=2
	fld	ft0, 0(a0)
	fld	ft1, -240(s0)
	fadd.d	ft0, ft0, ft1
	fsd	ft0, 0(a0)
	j	.LBB25_14
.LBB25_14:                              # %for.inc
                                        #   in Loop: Header=BB25_10 Depth=2
	lb	a0, -161(s0)
	addi	a0, a0, 1
	sb	a0, -161(s0)
	j	.LBB25_10
.LBB25_15:                              # %lpad.loopexit
.Ltmp288:
	j	.LBB25_21
.LBB25_16:                              # %lpad.loopexit.split-lp.loopexit
.Ltmp304:
	j	.LBB25_20
.LBB25_17:                              # %lpad.loopexit.split-lp.loopexit.split-lp.loopexit
.Ltmp299:
	j	.LBB25_19
.LBB25_18:                              # %lpad.loopexit.split-lp.loopexit.split-lp.loopexit.split-lp
.Ltmp285:
	j	.LBB25_19
.LBB25_19:                              # %lpad.loopexit.split-lp.loopexit.split-lp
	j	.LBB25_20
.LBB25_20:                              # %lpad.loopexit.split-lp
	j	.LBB25_21
.LBB25_21:                              # %lpad
	sd	a0, -80(s0)
	sw	a1, -84(s0)
	addi	a0, s0, -72
	call	_ZNSt6vectorIN3BVH15SurfaceCentroidESaIS1_EED2Ev
	j	.LBB25_35
.LBB25_22:                              # %for.end
                                        #   in Loop: Header=BB25_5 Depth=1
.Ltmp295:
	addi	a0, zero, 511
	slli	a2, a0, 53
	addi	a0, s0, -200
	addi	a1, s0, -136
	call	_ZN3glmmlIdLNS_9qualifierE0EEENS_3vecILi3ET_XT0_EEERKS4_S3_
.Ltmp296:
	j	.LBB25_23
.LBB25_23:                              # %invoke.cont28
                                        #   in Loop: Header=BB25_5 Depth=1
	addi	a3, s1, 96
.Ltmp297:
	addi	a0, s0, -176
	addi	a1, s0, -112
	addi	a2, s0, -200
	call	_ZSt11make_uniqueI6OctreeIN3BVH15SurfaceCentroidEEJRN3glm3vecILi3EdLNS4_9qualifierE0EEES7_RmEENSt9_MakeUniqIT_E15__single_objectEDpOT0_
.Ltmp298:
	j	.LBB25_24
.LBB25_24:                              # %invoke.cont30
                                        #   in Loop: Header=BB25_5 Depth=1
	addi	a0, s1, 72
	lbu	a1, -85(s0)
	call	_ZNSt6vectorISt10unique_ptrI6OctreeIN3BVH15SurfaceCentroidEESt14default_deleteIS4_EESaIS7_EEixEm
	addi	s2, s0, -176
	mv	a1, s2
	call	_ZNSt10unique_ptrI6OctreeIN3BVH15SurfaceCentroidEESt14default_deleteIS3_EEaSEOS6_
	mv	a0, s2
	call	_ZNSt10unique_ptrI6OctreeIN3BVH15SurfaceCentroidEESt14default_deleteIS3_EED2Ev
	j	.LBB25_25
.LBB25_25:                              # %for.inc35
                                        #   in Loop: Header=BB25_5 Depth=1
	lb	a0, -85(s0)
	addi	a0, a0, 1
	sb	a0, -85(s0)
	j	.LBB25_5
.LBB25_26:                              # %for.end37
	addi	a0, s0, -72
	sd	a0, -208(s0)
	ld	a0, -208(s0)
	call	_ZNSt6vectorIN3BVH15SurfaceCentroidESaIS1_EE5beginEv
	sd	a0, -216(s0)
	ld	a0, -208(s0)
	call	_ZNSt6vectorIN3BVH15SurfaceCentroidESaIS1_EE3endEv
	sd	a0, -224(s0)
	j	.LBB25_27
.LBB25_27:                              # %for.cond42
                                        # =>This Inner Loop Header: Depth=1
	addi	a0, s0, -216
	addi	a1, s0, -224
	call	_ZN9__gnu_cxxneIPN3BVH15SurfaceCentroidESt6vectorIS2_SaIS2_EEEEbRKNS_17__normal_iteratorIT_T0_EESC_
	beqz	a0, .LBB25_31
	j	.LBB25_28
.LBB25_28:                              # %for.body44
                                        #   in Loop: Header=BB25_27 Depth=1
	addi	a0, s0, -216
	call	_ZNK9__gnu_cxx17__normal_iteratorIPN3BVH15SurfaceCentroidESt6vectorIS2_SaIS2_EEEdeEv
	sd	a0, -232(s0)
	ld	a1, -232(s0)
.Ltmp286:
	mv	a0, s1
	call	_ZN6OctreeIN3BVH15SurfaceCentroidEE14insertInOctantERKS1_
.Ltmp287:
	j	.LBB25_29
.LBB25_29:                              # %invoke.cont46
                                        #   in Loop: Header=BB25_27 Depth=1
	j	.LBB25_30
.LBB25_30:                              # %for.inc47
                                        #   in Loop: Header=BB25_27 Depth=1
	addi	a0, s0, -216
	call	_ZN9__gnu_cxx17__normal_iteratorIPN3BVH15SurfaceCentroidESt6vectorIS2_SaIS2_EEEppEv
	j	.LBB25_27
.LBB25_31:                              # %for.end49
	addi	a0, s0, -72
	call	_ZNSt6vectorIN3BVH15SurfaceCentroidESaIS1_EED2Ev
	j	.LBB25_32
.LBB25_32:                              # %if.end
	j	.LBB25_33
.LBB25_33:                              # %if.end50
	ld	a1, -48(s0)
	mv	a0, s1
	call	_ZN6OctreeIN3BVH15SurfaceCentroidEE14insertInOctantERKS1_
	j	.LBB25_34
.LBB25_34:                              # %return
	ld	s2, 208(sp)
	ld	s1, 216(sp)
	ld	s0, 224(sp)
	.cfi_def_cfa sp, 240
	ld	ra, 232(sp)
	.cfi_restore ra
	.cfi_restore s0
	.cfi_restore s1
	.cfi_restore s2
	addi	sp, sp, 240
	.cfi_def_cfa_offset 0
	ret
.LBB25_35:                              # %eh.resume
	ld	a0, -80(s0)
	call	_Unwind_Resume
.Lfunc_end25:
	.size	_ZN6OctreeIN3BVH15SurfaceCentroidEE6insertERKS1_, .Lfunc_end25-_ZN6OctreeIN3BVH15SurfaceCentroidEE6insertERKS1_
	.cfi_endproc
	.section	.gcc_except_table,"a",@progbits
	.p2align	2
GCC_except_table25:
.Lexception7:
	.byte	255                     # @LPStart Encoding = omit
	.byte	255                     # @TType Encoding = omit
	.byte	3                       # Call site Encoding = udata4
	.uleb128 .Lcst_end7-.Lcst_begin7
.Lcst_begin7:
	.word	.Lfunc_begin7-.Lfunc_begin7 # >> Call Site 1 <<
	.word	.Ltmp283-.Lfunc_begin7  #   Call between .Lfunc_begin7 and .Ltmp283
	.word	0                       #     has no landing pad
	.byte	0                       #   On action: cleanup
	.word	.Ltmp283-.Lfunc_begin7  # >> Call Site 2 <<
	.word	.Ltmp284-.Ltmp283       #   Call between .Ltmp283 and .Ltmp284
	.word	.Ltmp285-.Lfunc_begin7  #     jumps to .Ltmp285
	.byte	0                       #   On action: cleanup
	.word	.Ltmp289-.Lfunc_begin7  # >> Call Site 3 <<
	.word	.Ltmp294-.Ltmp289       #   Call between .Ltmp289 and .Ltmp294
	.word	.Ltmp299-.Lfunc_begin7  #     jumps to .Ltmp299
	.byte	0                       #   On action: cleanup
	.word	.Ltmp300-.Lfunc_begin7  # >> Call Site 4 <<
	.word	.Ltmp303-.Ltmp300       #   Call between .Ltmp300 and .Ltmp303
	.word	.Ltmp304-.Lfunc_begin7  #     jumps to .Ltmp304
	.byte	0                       #   On action: cleanup
	.word	.Ltmp295-.Lfunc_begin7  # >> Call Site 5 <<
	.word	.Ltmp298-.Ltmp295       #   Call between .Ltmp295 and .Ltmp298
	.word	.Ltmp299-.Lfunc_begin7  #     jumps to .Ltmp299
	.byte	0                       #   On action: cleanup
	.word	.Ltmp286-.Lfunc_begin7  # >> Call Site 6 <<
	.word	.Ltmp287-.Ltmp286       #   Call between .Ltmp286 and .Ltmp287
	.word	.Ltmp288-.Lfunc_begin7  #     jumps to .Ltmp288
	.byte	0                       #   On action: cleanup
	.word	.Ltmp287-.Lfunc_begin7  # >> Call Site 7 <<
	.word	.Lfunc_end25-.Ltmp287   #   Call between .Ltmp287 and .Lfunc_end25
	.word	0                       #     has no landing pad
	.byte	0                       #   On action: cleanup
.Lcst_end7:
	.p2align	2
                                        # -- End function
	.section	.text._ZNSt10shared_ptrIN7Surface4BaseEEC2ERKS2_,"axG",@progbits,_ZNSt10shared_ptrIN7Surface4BaseEEC2ERKS2_,comdat
	.weak	_ZNSt10shared_ptrIN7Surface4BaseEEC2ERKS2_ # -- Begin function _ZNSt10shared_ptrIN7Surface4BaseEEC2ERKS2_
	.p2align	2
	.type	_ZNSt10shared_ptrIN7Surface4BaseEEC2ERKS2_,@function
_ZNSt10shared_ptrIN7Surface4BaseEEC2ERKS2_: # @_ZNSt10shared_ptrIN7Surface4BaseEEC2ERKS2_
# %bb.0:                                # %entry
	addi	sp, sp, -32
	sd	ra, 24(sp)
	sd	s0, 16(sp)
	addi	s0, sp, 32
	sd	a0, -24(s0)
	sd	a1, -32(s0)
	ld	a0, -24(s0)
	ld	a1, -32(s0)
	call	_ZNSt12__shared_ptrIN7Surface4BaseELN9__gnu_cxx12_Lock_policyE0EEC2ERKS4_
	ld	s0, 16(sp)
	ld	ra, 24(sp)
	addi	sp, sp, 32
	ret
.Lfunc_end26:
	.size	_ZNSt10shared_ptrIN7Surface4BaseEEC2ERKS2_, .Lfunc_end26-_ZNSt10shared_ptrIN7Surface4BaseEEC2ERKS2_
                                        # -- End function
	.section	.text._ZN3BVH15SurfaceCentroidD2Ev,"axG",@progbits,_ZN3BVH15SurfaceCentroidD2Ev,comdat
	.weak	_ZN3BVH15SurfaceCentroidD2Ev # -- Begin function _ZN3BVH15SurfaceCentroidD2Ev
	.p2align	2
	.type	_ZN3BVH15SurfaceCentroidD2Ev,@function
_ZN3BVH15SurfaceCentroidD2Ev:           # @_ZN3BVH15SurfaceCentroidD2Ev
# %bb.0:                                # %entry
	addi	sp, sp, -32
	sd	ra, 24(sp)
	sd	s0, 16(sp)
	addi	s0, sp, 32
	sd	a0, -24(s0)
	ld	a0, -24(s0)
	addi	a0, a0, 24
	call	_ZNSt10shared_ptrIN7Surface4BaseEED2Ev
	ld	s0, 16(sp)
	ld	ra, 24(sp)
	addi	sp, sp, 32
	ret
.Lfunc_end27:
	.size	_ZN3BVH15SurfaceCentroidD2Ev, .Lfunc_end27-_ZN3BVH15SurfaceCentroidD2Ev
                                        # -- End function
	.section	.text._ZNSt10shared_ptrIN7Surface4BaseEED2Ev,"axG",@progbits,_ZNSt10shared_ptrIN7Surface4BaseEED2Ev,comdat
	.weak	_ZNSt10shared_ptrIN7Surface4BaseEED2Ev # -- Begin function _ZNSt10shared_ptrIN7Surface4BaseEED2Ev
	.p2align	2
	.type	_ZNSt10shared_ptrIN7Surface4BaseEED2Ev,@function
_ZNSt10shared_ptrIN7Surface4BaseEED2Ev: # @_ZNSt10shared_ptrIN7Surface4BaseEED2Ev
# %bb.0:                                # %entry
	addi	sp, sp, -32
	sd	ra, 24(sp)
	sd	s0, 16(sp)
	addi	s0, sp, 32
	sd	a0, -24(s0)
	ld	a0, -24(s0)
	call	_ZNSt12__shared_ptrIN7Surface4BaseELN9__gnu_cxx12_Lock_policyE0EED2Ev
	ld	s0, 16(sp)
	ld	ra, 24(sp)
	addi	sp, sp, 32
	ret
.Lfunc_end28:
	.size	_ZNSt10shared_ptrIN7Surface4BaseEED2Ev, .Lfunc_end28-_ZNSt10shared_ptrIN7Surface4BaseEED2Ev
                                        # -- End function
	.section	.text._ZN9__gnu_cxx17__normal_iteratorIPKSt10shared_ptrIN7Surface4BaseEESt6vectorIS4_SaIS4_EEEppEv,"axG",@progbits,_ZN9__gnu_cxx17__normal_iteratorIPKSt10shared_ptrIN7Surface4BaseEESt6vectorIS4_SaIS4_EEEppEv,comdat
	.weak	_ZN9__gnu_cxx17__normal_iteratorIPKSt10shared_ptrIN7Surface4BaseEESt6vectorIS4_SaIS4_EEEppEv # -- Begin function _ZN9__gnu_cxx17__normal_iteratorIPKSt10shared_ptrIN7Surface4BaseEESt6vectorIS4_SaIS4_EEEppEv
	.p2align	2
	.type	_ZN9__gnu_cxx17__normal_iteratorIPKSt10shared_ptrIN7Surface4BaseEESt6vectorIS4_SaIS4_EEEppEv,@function
_ZN9__gnu_cxx17__normal_iteratorIPKSt10shared_ptrIN7Surface4BaseEESt6vectorIS4_SaIS4_EEEppEv: # @_ZN9__gnu_cxx17__normal_iteratorIPKSt10shared_ptrIN7Surface4BaseEESt6vectorIS4_SaIS4_EEEppEv
# %bb.0:                                # %entry
	addi	sp, sp, -32
	sd	ra, 24(sp)
	sd	s0, 16(sp)
	addi	s0, sp, 32
	sd	a0, -24(s0)
	ld	a0, -24(s0)
	ld	a1, 0(a0)
	addi	a1, a1, 16
	sd	a1, 0(a0)
	ld	s0, 16(sp)
	ld	ra, 24(sp)
	addi	sp, sp, 32
	ret
.Lfunc_end29:
	.size	_ZN9__gnu_cxx17__normal_iteratorIPKSt10shared_ptrIN7Surface4BaseEESt6vectorIS4_SaIS4_EEEppEv, .Lfunc_end29-_ZN9__gnu_cxx17__normal_iteratorIPKSt10shared_ptrIN7Surface4BaseEESt6vectorIS4_SaIS4_EEEppEv
                                        # -- End function
	.text
	.globl	_ZN3BVH24recursiveBuildFromOctreeERK6OctreeINS_15SurfaceCentroidEESt10shared_ptrINS_9BuildNodeEE # -- Begin function _ZN3BVH24recursiveBuildFromOctreeERK6OctreeINS_15SurfaceCentroidEESt10shared_ptrINS_9BuildNodeEE
	.p2align	2
	.type	_ZN3BVH24recursiveBuildFromOctreeERK6OctreeINS_15SurfaceCentroidEESt10shared_ptrINS_9BuildNodeEE,@function
_ZN3BVH24recursiveBuildFromOctreeERK6OctreeINS_15SurfaceCentroidEESt10shared_ptrINS_9BuildNodeEE: # @_ZN3BVH24recursiveBuildFromOctreeERK6OctreeINS_15SurfaceCentroidEESt10shared_ptrINS_9BuildNodeEE
.Lfunc_begin8:
	.cfi_startproc
	.cfi_personality 155, DW.ref.__gxx_personality_v0
	.cfi_lsda 27, .Lexception8
# %bb.0:                                # %entry
	addi	sp, sp, -240
	.cfi_def_cfa_offset 240
	sd	ra, 232(sp)
	sd	s0, 224(sp)
	sd	s1, 216(sp)
	sd	s2, 208(sp)
	sd	s3, 200(sp)
	sd	s4, 192(sp)
	.cfi_offset ra, -8
	.cfi_offset s0, -16
	.cfi_offset s1, -24
	.cfi_offset s2, -32
	.cfi_offset s3, -40
	.cfi_offset s4, -48
	addi	s0, sp, 240
	.cfi_def_cfa s0, 0
	mv	s4, a2
	sd	a0, -56(s0)
	sd	a1, -64(s0)
	ld	s2, -56(s0)
	lw	s1, 104(s2)
	addi	a0, s1, 1
	sw	a0, 104(s2)
	mv	a0, s4
	call	_ZNKSt19__shared_ptr_accessIN3BVH9BuildNodeELN9__gnu_cxx12_Lock_policyE0ELb0ELb0EEptEv
	sw	s1, 96(a0)
	addi	a0, s0, -112
	call	_ZN11BoundingBoxC2Ev
	ld	a0, -64(s0)
	call	_ZNK6OctreeIN3BVH15SurfaceCentroidEE4leafEv
	beqz	a0, .LBB30_6
	j	.LBB30_1
.LBB30_1:                               # %if.then
	mv	a0, s4
	call	_ZNKSt19__shared_ptr_accessIN3BVH9BuildNodeELN9__gnu_cxx12_Lock_policyE0ELb0ELb0EEptEv
	addi	s1, a0, 72
	ld	a0, -64(s0)
	call	_ZNKSt6vectorIN3BVH15SurfaceCentroidESaIS1_EE4sizeEv
	mv	a1, a0
	mv	a0, s1
	call	_ZNSt6vectorISt10shared_ptrIN7Surface4BaseEESaIS3_EE6resizeEm
	sd	zero, -120(s0)
	j	.LBB30_2
.LBB30_2:                               # %for.cond
                                        # =>This Inner Loop Header: Depth=1
	ld	s1, -120(s0)
	mv	a0, s4
	call	_ZNKSt19__shared_ptr_accessIN3BVH9BuildNodeELN9__gnu_cxx12_Lock_policyE0ELb0ELb0EEptEv
	addi	a0, a0, 72
	call	_ZNKSt6vectorISt10shared_ptrIN7Surface4BaseEESaIS3_EE4sizeEv
	bgeu	s1, a0, .LBB30_5
	j	.LBB30_3
.LBB30_3:                               # %for.body
                                        #   in Loop: Header=BB30_2 Depth=1
	ld	a0, -64(s0)
	ld	a1, -120(s0)
	call	_ZNKSt6vectorIN3BVH15SurfaceCentroidESaIS1_EEixEm
	addi	s1, a0, 24
	mv	a0, s4
	call	_ZNKSt19__shared_ptr_accessIN3BVH9BuildNodeELN9__gnu_cxx12_Lock_policyE0ELb0ELb0EEptEv
	addi	a0, a0, 72
	ld	a1, -120(s0)
	call	_ZNSt6vectorISt10shared_ptrIN7Surface4BaseEESaIS3_EEixEm
	mv	a1, s1
	call	_ZNSt10shared_ptrIN7Surface4BaseEEaSERKS2_
	mv	a0, s4
	call	_ZNKSt19__shared_ptr_accessIN3BVH9BuildNodeELN9__gnu_cxx12_Lock_policyE0ELb0ELb0EEptEv
	addi	a0, a0, 72
	ld	a1, -120(s0)
	call	_ZNSt6vectorISt10shared_ptrIN7Surface4BaseEESaIS3_EEixEm
	call	_ZNKSt19__shared_ptr_accessIN7Surface4BaseELN9__gnu_cxx12_Lock_policyE0ELb0ELb0EEptEv
	mv	a1, a0
	addi	s1, s0, -168
	mv	a0, s1
	call	_ZNK7Surface4Base2BBEv
	addi	a0, s0, -112
	mv	a1, s1
	call	_ZN11BoundingBox5mergeERKS_
	j	.LBB30_4
.LBB30_4:                               # %for.inc
                                        #   in Loop: Header=BB30_2 Depth=1
	ld	a0, -120(s0)
	addi	a0, a0, 1
	sd	a0, -120(s0)
	j	.LBB30_2
.LBB30_5:                               # %for.end
	j	.LBB30_21
.LBB30_6:                               # %if.else
	sd	zero, -176(s0)
	sd	zero, -184(s0)
	j	.LBB30_7
.LBB30_7:                               # %for.cond21
                                        # =>This Inner Loop Header: Depth=1
	ld	s1, -184(s0)
	ld	a0, -64(s0)
	addi	a0, a0, 72
	call	_ZNKSt6vectorISt10unique_ptrI6OctreeIN3BVH15SurfaceCentroidEESt14default_deleteIS4_EESaIS7_EE4sizeEv
	bgeu	s1, a0, .LBB30_20
	j	.LBB30_8
.LBB30_8:                               # %for.body24
                                        #   in Loop: Header=BB30_7 Depth=1
	ld	a0, -64(s0)
	addi	a0, a0, 72
	ld	a1, -184(s0)
	call	_ZNKSt6vectorISt10unique_ptrI6OctreeIN3BVH15SurfaceCentroidEESt14default_deleteIS4_EESaIS7_EEixEm
	call	_ZNKSt10unique_ptrI6OctreeIN3BVH15SurfaceCentroidEESt14default_deleteIS3_EEptEv
	call	_ZNK6OctreeIN3BVH15SurfaceCentroidEE4leafEv
	beqz	a0, .LBB30_10
	j	.LBB30_9
.LBB30_9:                               # %land.lhs.true
                                        #   in Loop: Header=BB30_7 Depth=1
	ld	a0, -64(s0)
	addi	a0, a0, 72
	ld	a1, -184(s0)
	call	_ZNKSt6vectorISt10unique_ptrI6OctreeIN3BVH15SurfaceCentroidEESt14default_deleteIS4_EESaIS7_EEixEm
	call	_ZNKSt10unique_ptrI6OctreeIN3BVH15SurfaceCentroidEESt14default_deleteIS3_EEptEv
	call	_ZNKSt6vectorIN3BVH15SurfaceCentroidESaIS1_EE5emptyEv
	bnez	a0, .LBB30_18
	j	.LBB30_10
.LBB30_10:                              # %if.then34
                                        #   in Loop: Header=BB30_7 Depth=1
	ld	a0, -176(s0)
	addi	a0, a0, 1
	sd	a0, -176(s0)
	addi	s1, s0, -200
	mv	a0, s1
	call	_ZSt11make_sharedIN3BVH9BuildNodeEJEESt10shared_ptrIT_EDpOT0_
	mv	a0, s4
	call	_ZNKSt19__shared_ptr_accessIN3BVH9BuildNodeELN9__gnu_cxx12_Lock_policyE0ELb0ELb0EEptEv
	addi	a0, a0, 48
.Ltmp305:
	mv	a1, s1
	call	_ZNSt6vectorISt10shared_ptrIN3BVH9BuildNodeEESaIS3_EE9push_backERKS3_
.Ltmp306:
	j	.LBB30_11
.LBB30_11:                              # %invoke.cont
                                        #   in Loop: Header=BB30_7 Depth=1
	ld	a0, -64(s0)
	addi	a0, a0, 72
	ld	a1, -184(s0)
	call	_ZNKSt6vectorISt10unique_ptrI6OctreeIN3BVH15SurfaceCentroidEESt14default_deleteIS4_EESaIS7_EEixEm
.Ltmp307:
	call	_ZNKSt10unique_ptrI6OctreeIN3BVH15SurfaceCentroidEESt14default_deleteIS3_EEdeEv
	mv	s3, a0
.Ltmp308:
	j	.LBB30_12
.LBB30_12:                              # %invoke.cont39
                                        #   in Loop: Header=BB30_7 Depth=1
	addi	s1, s0, -232
	addi	a1, s0, -200
	mv	a0, s1
	call	_ZNSt10shared_ptrIN3BVH9BuildNodeEEC2ERKS2_
.Ltmp309:
	mv	a0, s2
	mv	a1, s3
	mv	a2, s1
	call	_ZN3BVH24recursiveBuildFromOctreeERK6OctreeINS_15SurfaceCentroidEESt10shared_ptrINS_9BuildNodeEE
.Ltmp310:
	j	.LBB30_13
.LBB30_13:                              # %invoke.cont42
                                        #   in Loop: Header=BB30_7 Depth=1
	addi	a0, s0, -232
	call	_ZNSt10shared_ptrIN3BVH9BuildNodeEED2Ev
	addi	a0, s0, -200
	call	_ZNKSt19__shared_ptr_accessIN3BVH9BuildNodeELN9__gnu_cxx12_Lock_policyE0ELb0ELb0EEptEv
	mv	a1, a0
.Ltmp312:
	addi	a0, s0, -112
	call	_ZN11BoundingBox5mergeERKS_
.Ltmp313:
	j	.LBB30_14
.LBB30_14:                              # %invoke.cont45
                                        #   in Loop: Header=BB30_7 Depth=1
	addi	a0, s0, -200
	call	_ZNSt10shared_ptrIN3BVH9BuildNodeEED2Ev
	j	.LBB30_18
.LBB30_15:                              # %lpad
.Ltmp314:
	sd	a0, -208(s0)
	sw	a1, -212(s0)
	j	.LBB30_17
.LBB30_16:                              # %lpad41
.Ltmp311:
	sd	a0, -208(s0)
	sw	a1, -212(s0)
	addi	a0, s0, -232
	call	_ZNSt10shared_ptrIN3BVH9BuildNodeEED2Ev
	j	.LBB30_17
.LBB30_17:                              # %ehcleanup
	addi	a0, s0, -200
	call	_ZNSt10shared_ptrIN3BVH9BuildNodeEED2Ev
	j	.LBB30_22
.LBB30_18:                              # %if.end
                                        #   in Loop: Header=BB30_7 Depth=1
	j	.LBB30_19
.LBB30_19:                              # %for.inc46
                                        #   in Loop: Header=BB30_7 Depth=1
	ld	a0, -184(s0)
	addi	a0, a0, 1
	sd	a0, -184(s0)
	j	.LBB30_7
.LBB30_20:                              # %for.end48
	addi	a1, s0, -176
	mv	a0, s2
	call	_ZNSt3mapImmSt4lessImESaISt4pairIKmmEEEixERS3_
	ld	a1, 0(a0)
	addi	a1, a1, 1
	sd	a1, 0(a0)
	j	.LBB30_21
.LBB30_21:                              # %if.end51
	mv	a0, s4
	call	_ZNKSt19__shared_ptr_accessIN3BVH9BuildNodeELN9__gnu_cxx12_Lock_policyE0ELb0ELb0EEptEv
	ld	a1, -72(s0)
	sd	a1, 40(a0)
	ld	a1, -80(s0)
	sd	a1, 32(a0)
	ld	a1, -88(s0)
	sd	a1, 24(a0)
	ld	a1, -96(s0)
	sd	a1, 16(a0)
	ld	a1, -104(s0)
	sd	a1, 8(a0)
	ld	a1, -112(s0)
	sd	a1, 0(a0)
	ld	s4, 192(sp)
	ld	s3, 200(sp)
	ld	s2, 208(sp)
	ld	s1, 216(sp)
	ld	s0, 224(sp)
	.cfi_def_cfa sp, 240
	ld	ra, 232(sp)
	.cfi_restore ra
	.cfi_restore s0
	.cfi_restore s1
	.cfi_restore s2
	.cfi_restore s3
	.cfi_restore s4
	addi	sp, sp, 240
	.cfi_def_cfa_offset 0
	ret
.LBB30_22:                              # %eh.resume
	ld	a0, -208(s0)
	call	_Unwind_Resume
.Lfunc_end30:
	.size	_ZN3BVH24recursiveBuildFromOctreeERK6OctreeINS_15SurfaceCentroidEESt10shared_ptrINS_9BuildNodeEE, .Lfunc_end30-_ZN3BVH24recursiveBuildFromOctreeERK6OctreeINS_15SurfaceCentroidEESt10shared_ptrINS_9BuildNodeEE
	.cfi_endproc
	.section	.gcc_except_table,"a",@progbits
	.p2align	2
GCC_except_table30:
.Lexception8:
	.byte	255                     # @LPStart Encoding = omit
	.byte	255                     # @TType Encoding = omit
	.byte	3                       # Call site Encoding = udata4
	.uleb128 .Lcst_end8-.Lcst_begin8
.Lcst_begin8:
	.word	.Lfunc_begin8-.Lfunc_begin8 # >> Call Site 1 <<
	.word	.Ltmp305-.Lfunc_begin8  #   Call between .Lfunc_begin8 and .Ltmp305
	.word	0                       #     has no landing pad
	.byte	0                       #   On action: cleanup
	.word	.Ltmp305-.Lfunc_begin8  # >> Call Site 2 <<
	.word	.Ltmp308-.Ltmp305       #   Call between .Ltmp305 and .Ltmp308
	.word	.Ltmp314-.Lfunc_begin8  #     jumps to .Ltmp314
	.byte	0                       #   On action: cleanup
	.word	.Ltmp309-.Lfunc_begin8  # >> Call Site 3 <<
	.word	.Ltmp310-.Ltmp309       #   Call between .Ltmp309 and .Ltmp310
	.word	.Ltmp311-.Lfunc_begin8  #     jumps to .Ltmp311
	.byte	0                       #   On action: cleanup
	.word	.Ltmp312-.Lfunc_begin8  # >> Call Site 4 <<
	.word	.Ltmp313-.Ltmp312       #   Call between .Ltmp312 and .Ltmp313
	.word	.Ltmp314-.Lfunc_begin8  #     jumps to .Ltmp314
	.byte	0                       #   On action: cleanup
	.word	.Ltmp313-.Lfunc_begin8  # >> Call Site 5 <<
	.word	.Lfunc_end30-.Ltmp313   #   Call between .Ltmp313 and .Lfunc_end30
	.word	0                       #     has no landing pad
	.byte	0                       #   On action: cleanup
.Lcst_end8:
	.p2align	2
                                        # -- End function
	.section	.text._ZN6OctreeIN3BVH15SurfaceCentroidEED2Ev,"axG",@progbits,_ZN6OctreeIN3BVH15SurfaceCentroidEED2Ev,comdat
	.weak	_ZN6OctreeIN3BVH15SurfaceCentroidEED2Ev # -- Begin function _ZN6OctreeIN3BVH15SurfaceCentroidEED2Ev
	.p2align	2
	.type	_ZN6OctreeIN3BVH15SurfaceCentroidEED2Ev,@function
_ZN6OctreeIN3BVH15SurfaceCentroidEED2Ev: # @_ZN6OctreeIN3BVH15SurfaceCentroidEED2Ev
# %bb.0:                                # %entry
	addi	sp, sp, -32
	sd	ra, 24(sp)
	sd	s0, 16(sp)
	sd	s1, 8(sp)
	addi	s0, sp, 32
	sd	a0, -32(s0)
	ld	s1, -32(s0)
	addi	a0, s1, 72
	call	_ZNSt6vectorISt10unique_ptrI6OctreeIN3BVH15SurfaceCentroidEESt14default_deleteIS4_EESaIS7_EED2Ev
	mv	a0, s1
	call	_ZNSt6vectorIN3BVH15SurfaceCentroidESaIS1_EED2Ev
	ld	s1, 8(sp)
	ld	s0, 16(sp)
	ld	ra, 24(sp)
	addi	sp, sp, 32
	ret
.Lfunc_end31:
	.size	_ZN6OctreeIN3BVH15SurfaceCentroidEED2Ev, .Lfunc_end31-_ZN6OctreeIN3BVH15SurfaceCentroidEED2Ev
                                        # -- End function
	.section	.text._ZNSt3mapImmSt4lessImESaISt4pairIKmmEEE5beginEv,"axG",@progbits,_ZNSt3mapImmSt4lessImESaISt4pairIKmmEEE5beginEv,comdat
	.weak	_ZNSt3mapImmSt4lessImESaISt4pairIKmmEEE5beginEv # -- Begin function _ZNSt3mapImmSt4lessImESaISt4pairIKmmEEE5beginEv
	.p2align	2
	.type	_ZNSt3mapImmSt4lessImESaISt4pairIKmmEEE5beginEv,@function
_ZNSt3mapImmSt4lessImESaISt4pairIKmmEEE5beginEv: # @_ZNSt3mapImmSt4lessImESaISt4pairIKmmEEE5beginEv
# %bb.0:                                # %entry
	addi	sp, sp, -32
	sd	ra, 24(sp)
	sd	s0, 16(sp)
	addi	s0, sp, 32
	sd	a0, -32(s0)
	ld	a0, -32(s0)
	call	_ZNSt8_Rb_treeImSt4pairIKmmESt10_Select1stIS2_ESt4lessImESaIS2_EE5beginEv
	sd	a0, -24(s0)
	ld	a0, -24(s0)
	ld	s0, 16(sp)
	ld	ra, 24(sp)
	addi	sp, sp, 32
	ret
.Lfunc_end32:
	.size	_ZNSt3mapImmSt4lessImESaISt4pairIKmmEEE5beginEv, .Lfunc_end32-_ZNSt3mapImmSt4lessImESaISt4pairIKmmEEE5beginEv
                                        # -- End function
	.section	.text._ZNSt3mapImmSt4lessImESaISt4pairIKmmEEE3endEv,"axG",@progbits,_ZNSt3mapImmSt4lessImESaISt4pairIKmmEEE3endEv,comdat
	.weak	_ZNSt3mapImmSt4lessImESaISt4pairIKmmEEE3endEv # -- Begin function _ZNSt3mapImmSt4lessImESaISt4pairIKmmEEE3endEv
	.p2align	2
	.type	_ZNSt3mapImmSt4lessImESaISt4pairIKmmEEE3endEv,@function
_ZNSt3mapImmSt4lessImESaISt4pairIKmmEEE3endEv: # @_ZNSt3mapImmSt4lessImESaISt4pairIKmmEEE3endEv
# %bb.0:                                # %entry
	addi	sp, sp, -32
	sd	ra, 24(sp)
	sd	s0, 16(sp)
	addi	s0, sp, 32
	sd	a0, -32(s0)
	ld	a0, -32(s0)
	call	_ZNSt8_Rb_treeImSt4pairIKmmESt10_Select1stIS2_ESt4lessImESaIS2_EE3endEv
	sd	a0, -24(s0)
	ld	a0, -24(s0)
	ld	s0, 16(sp)
	ld	ra, 24(sp)
	addi	sp, sp, 32
	ret
.Lfunc_end33:
	.size	_ZNSt3mapImmSt4lessImESaISt4pairIKmmEEE3endEv, .Lfunc_end33-_ZNSt3mapImmSt4lessImESaISt4pairIKmmEEE3endEv
                                        # -- End function
	.section	.text._ZStneRKSt17_Rb_tree_iteratorISt4pairIKmmEES5_,"axG",@progbits,_ZStneRKSt17_Rb_tree_iteratorISt4pairIKmmEES5_,comdat
	.weak	_ZStneRKSt17_Rb_tree_iteratorISt4pairIKmmEES5_ # -- Begin function _ZStneRKSt17_Rb_tree_iteratorISt4pairIKmmEES5_
	.p2align	2
	.type	_ZStneRKSt17_Rb_tree_iteratorISt4pairIKmmEES5_,@function
_ZStneRKSt17_Rb_tree_iteratorISt4pairIKmmEES5_: # @_ZStneRKSt17_Rb_tree_iteratorISt4pairIKmmEES5_
# %bb.0:                                # %entry
	addi	sp, sp, -32
	sd	ra, 24(sp)
	sd	s0, 16(sp)
	addi	s0, sp, 32
	sd	a0, -24(s0)
	sd	a1, -32(s0)
	ld	a0, -24(s0)
	ld	a0, 0(a0)
	ld	a1, -32(s0)
	ld	a1, 0(a1)
	xor	a0, a0, a1
	snez	a0, a0
	ld	s0, 16(sp)
	ld	ra, 24(sp)
	addi	sp, sp, 32
	ret
.Lfunc_end34:
	.size	_ZStneRKSt17_Rb_tree_iteratorISt4pairIKmmEES5_, .Lfunc_end34-_ZStneRKSt17_Rb_tree_iteratorISt4pairIKmmEES5_
                                        # -- End function
	.section	.text._ZNKSt17_Rb_tree_iteratorISt4pairIKmmEEdeEv,"axG",@progbits,_ZNKSt17_Rb_tree_iteratorISt4pairIKmmEEdeEv,comdat
	.weak	_ZNKSt17_Rb_tree_iteratorISt4pairIKmmEEdeEv # -- Begin function _ZNKSt17_Rb_tree_iteratorISt4pairIKmmEEdeEv
	.p2align	2
	.type	_ZNKSt17_Rb_tree_iteratorISt4pairIKmmEEdeEv,@function
_ZNKSt17_Rb_tree_iteratorISt4pairIKmmEEdeEv: # @_ZNKSt17_Rb_tree_iteratorISt4pairIKmmEEdeEv
.Lfunc_begin9:
	.cfi_startproc
	.cfi_personality 155, DW.ref.__gxx_personality_v0
	.cfi_lsda 27, .Lexception9
# %bb.0:                                # %entry
	addi	sp, sp, -32
	.cfi_def_cfa_offset 32
	sd	ra, 24(sp)
	sd	s0, 16(sp)
	.cfi_offset ra, -8
	.cfi_offset s0, -16
	addi	s0, sp, 32
	.cfi_def_cfa s0, 0
	sd	a0, -24(s0)
	ld	a0, -24(s0)
	ld	a0, 0(a0)
.Ltmp315:
	call	_ZNSt13_Rb_tree_nodeISt4pairIKmmEE9_M_valptrEv
.Ltmp316:
	j	.LBB35_1
.LBB35_1:                               # %invoke.cont
	ld	s0, 16(sp)
	.cfi_def_cfa sp, 32
	ld	ra, 24(sp)
	.cfi_restore ra
	.cfi_restore s0
	addi	sp, sp, 32
	.cfi_def_cfa_offset 0
	ret
.LBB35_2:                               # %terminate.lpad
.Ltmp317:
	call	__clang_call_terminate
.Lfunc_end35:
	.size	_ZNKSt17_Rb_tree_iteratorISt4pairIKmmEEdeEv, .Lfunc_end35-_ZNKSt17_Rb_tree_iteratorISt4pairIKmmEEdeEv
	.cfi_endproc
	.section	.gcc_except_table,"a",@progbits
	.p2align	2
GCC_except_table35:
.Lexception9:
	.byte	255                     # @LPStart Encoding = omit
	.byte	155                     # @TType Encoding = indirect pcrel sdata4
	.uleb128 .Lttbase0-.Lttbaseref0
.Lttbaseref0:
	.byte	3                       # Call site Encoding = udata4
	.uleb128 .Lcst_end9-.Lcst_begin9
.Lcst_begin9:
	.word	.Ltmp315-.Lfunc_begin9  # >> Call Site 1 <<
	.word	.Ltmp316-.Ltmp315       #   Call between .Ltmp315 and .Ltmp316
	.word	.Ltmp317-.Lfunc_begin9  #     jumps to .Ltmp317
	.byte	1                       #   On action: 1
.Lcst_end9:
	.byte	1                       # >> Action Record 1 <<
                                        #   Catch TypeInfo 1
	.byte	0                       #   No further actions
	.p2align	2
                                        # >> Catch TypeInfos <<
	.word	0                       # TypeInfo 1
.Lttbase0:
	.p2align	2
                                        # -- End function
	.section	.text._ZNSt17_Rb_tree_iteratorISt4pairIKmmEEppEv,"axG",@progbits,_ZNSt17_Rb_tree_iteratorISt4pairIKmmEEppEv,comdat
	.weak	_ZNSt17_Rb_tree_iteratorISt4pairIKmmEEppEv # -- Begin function _ZNSt17_Rb_tree_iteratorISt4pairIKmmEEppEv
	.p2align	2
	.type	_ZNSt17_Rb_tree_iteratorISt4pairIKmmEEppEv,@function
_ZNSt17_Rb_tree_iteratorISt4pairIKmmEEppEv: # @_ZNSt17_Rb_tree_iteratorISt4pairIKmmEEppEv
# %bb.0:                                # %entry
	addi	sp, sp, -32
	sd	ra, 24(sp)
	sd	s0, 16(sp)
	sd	s1, 8(sp)
	addi	s0, sp, 32
	sd	a0, -32(s0)
	ld	s1, -32(s0)
	ld	a0, 0(s1)
	call	_ZSt18_Rb_tree_incrementPSt18_Rb_tree_node_base
	sd	a0, 0(s1)
	mv	a0, s1
	ld	s1, 8(sp)
	ld	s0, 16(sp)
	ld	ra, 24(sp)
	addi	sp, sp, 32
	ret
.Lfunc_end36:
	.size	_ZNSt17_Rb_tree_iteratorISt4pairIKmmEEppEv, .Lfunc_end36-_ZNSt17_Rb_tree_iteratorISt4pairIKmmEEppEv
                                        # -- End function
	.section	.text._ZNKSt6vectorISt10shared_ptrIN7Surface4BaseEESaIS3_EE4sizeEv,"axG",@progbits,_ZNKSt6vectorISt10shared_ptrIN7Surface4BaseEESaIS3_EE4sizeEv,comdat
	.weak	_ZNKSt6vectorISt10shared_ptrIN7Surface4BaseEESaIS3_EE4sizeEv # -- Begin function _ZNKSt6vectorISt10shared_ptrIN7Surface4BaseEESaIS3_EE4sizeEv
	.p2align	2
	.type	_ZNKSt6vectorISt10shared_ptrIN7Surface4BaseEESaIS3_EE4sizeEv,@function
_ZNKSt6vectorISt10shared_ptrIN7Surface4BaseEESaIS3_EE4sizeEv: # @_ZNKSt6vectorISt10shared_ptrIN7Surface4BaseEESaIS3_EE4sizeEv
# %bb.0:                                # %entry
	addi	sp, sp, -32
	sd	ra, 24(sp)
	sd	s0, 16(sp)
	addi	s0, sp, 32
	sd	a0, -24(s0)
	ld	a0, -24(s0)
	ld	a1, 8(a0)
	ld	a0, 0(a0)
	sub	a0, a1, a0
	srai	a0, a0, 4
	ld	s0, 16(sp)
	ld	ra, 24(sp)
	addi	sp, sp, 32
	ret
.Lfunc_end37:
	.size	_ZNKSt6vectorISt10shared_ptrIN7Surface4BaseEESaIS3_EE4sizeEv, .Lfunc_end37-_ZNKSt6vectorISt10shared_ptrIN7Surface4BaseEESaIS3_EE4sizeEv
                                        # -- End function
	.section	.text._ZNSt10shared_ptrIN7Surface4BaseEEC2EDn,"axG",@progbits,_ZNSt10shared_ptrIN7Surface4BaseEEC2EDn,comdat
	.weak	_ZNSt10shared_ptrIN7Surface4BaseEEC2EDn # -- Begin function _ZNSt10shared_ptrIN7Surface4BaseEEC2EDn
	.p2align	2
	.type	_ZNSt10shared_ptrIN7Surface4BaseEEC2EDn,@function
_ZNSt10shared_ptrIN7Surface4BaseEEC2EDn: # @_ZNSt10shared_ptrIN7Surface4BaseEEC2EDn
# %bb.0:                                # %entry
	addi	sp, sp, -32
	sd	ra, 24(sp)
	sd	s0, 16(sp)
	addi	s0, sp, 32
	sd	a0, -24(s0)
	sd	a1, -32(s0)
	ld	a0, -24(s0)
	call	_ZNSt10shared_ptrIN7Surface4BaseEEC2Ev
	ld	s0, 16(sp)
	ld	ra, 24(sp)
	addi	sp, sp, 32
	ret
.Lfunc_end38:
	.size	_ZNSt10shared_ptrIN7Surface4BaseEEC2EDn, .Lfunc_end38-_ZNSt10shared_ptrIN7Surface4BaseEEC2EDn
                                        # -- End function
	.section	.text._ZNSaISt10shared_ptrIN7Surface4BaseEEEC2Ev,"axG",@progbits,_ZNSaISt10shared_ptrIN7Surface4BaseEEEC2Ev,comdat
	.weak	_ZNSaISt10shared_ptrIN7Surface4BaseEEEC2Ev # -- Begin function _ZNSaISt10shared_ptrIN7Surface4BaseEEEC2Ev
	.p2align	2
	.type	_ZNSaISt10shared_ptrIN7Surface4BaseEEEC2Ev,@function
_ZNSaISt10shared_ptrIN7Surface4BaseEEEC2Ev: # @_ZNSaISt10shared_ptrIN7Surface4BaseEEEC2Ev
# %bb.0:                                # %entry
	addi	sp, sp, -32
	sd	ra, 24(sp)
	sd	s0, 16(sp)
	addi	s0, sp, 32
	sd	a0, -24(s0)
	ld	a0, -24(s0)
	call	_ZN9__gnu_cxx13new_allocatorISt10shared_ptrIN7Surface4BaseEEEC2Ev
	ld	s0, 16(sp)
	ld	ra, 24(sp)
	addi	sp, sp, 32
	ret
.Lfunc_end39:
	.size	_ZNSaISt10shared_ptrIN7Surface4BaseEEEC2Ev, .Lfunc_end39-_ZNSaISt10shared_ptrIN7Surface4BaseEEEC2Ev
                                        # -- End function
	.section	.text._ZNSt6vectorISt10shared_ptrIN7Surface4BaseEESaIS3_EEC2EmRKS3_RKS4_,"axG",@progbits,_ZNSt6vectorISt10shared_ptrIN7Surface4BaseEESaIS3_EEC2EmRKS3_RKS4_,comdat
	.weak	_ZNSt6vectorISt10shared_ptrIN7Surface4BaseEESaIS3_EEC2EmRKS3_RKS4_ # -- Begin function _ZNSt6vectorISt10shared_ptrIN7Surface4BaseEESaIS3_EEC2EmRKS3_RKS4_
	.p2align	2
	.type	_ZNSt6vectorISt10shared_ptrIN7Surface4BaseEESaIS3_EEC2EmRKS3_RKS4_,@function
_ZNSt6vectorISt10shared_ptrIN7Surface4BaseEESaIS3_EEC2EmRKS3_RKS4_: # @_ZNSt6vectorISt10shared_ptrIN7Surface4BaseEESaIS3_EEC2EmRKS3_RKS4_
.Lfunc_begin10:
	.cfi_startproc
	.cfi_personality 155, DW.ref.__gxx_personality_v0
	.cfi_lsda 27, .Lexception10
# %bb.0:                                # %entry
	addi	sp, sp, -80
	.cfi_def_cfa_offset 80
	sd	ra, 72(sp)
	sd	s0, 64(sp)
	sd	s1, 56(sp)
	.cfi_offset ra, -8
	.cfi_offset s0, -16
	.cfi_offset s1, -24
	addi	s0, sp, 80
	.cfi_def_cfa s0, 0
	sd	a0, -32(s0)
	sd	a1, -40(s0)
	sd	a2, -48(s0)
	sd	a3, -56(s0)
	ld	s1, -32(s0)
	ld	a0, -40(s0)
	ld	a1, -56(s0)
	call	_ZNSt6vectorISt10shared_ptrIN7Surface4BaseEESaIS3_EE17_S_check_init_lenEmRKS4_
	mv	a1, a0
	ld	a2, -56(s0)
	mv	a0, s1
	call	_ZNSt12_Vector_baseISt10shared_ptrIN7Surface4BaseEESaIS3_EEC2EmRKS4_
	ld	a1, -40(s0)
	ld	a2, -48(s0)
.Ltmp318:
	mv	a0, s1
	call	_ZNSt6vectorISt10shared_ptrIN7Surface4BaseEESaIS3_EE18_M_fill_initializeEmRKS3_
.Ltmp319:
	j	.LBB40_1
.LBB40_1:                               # %invoke.cont
	ld	s1, 56(sp)
	ld	s0, 64(sp)
	.cfi_def_cfa sp, 80
	ld	ra, 72(sp)
	.cfi_restore ra
	.cfi_restore s0
	.cfi_restore s1
	addi	sp, sp, 80
	.cfi_def_cfa_offset 0
	ret
.LBB40_2:                               # %lpad
.Ltmp320:
	sd	a0, -64(s0)
	sw	a1, -68(s0)
	mv	a0, s1
	call	_ZNSt12_Vector_baseISt10shared_ptrIN7Surface4BaseEESaIS3_EED2Ev
	j	.LBB40_3
.LBB40_3:                               # %eh.resume
	ld	a0, -64(s0)
	call	_Unwind_Resume
.Lfunc_end40:
	.size	_ZNSt6vectorISt10shared_ptrIN7Surface4BaseEESaIS3_EEC2EmRKS3_RKS4_, .Lfunc_end40-_ZNSt6vectorISt10shared_ptrIN7Surface4BaseEESaIS3_EEC2EmRKS3_RKS4_
	.cfi_endproc
	.section	.gcc_except_table,"a",@progbits
	.p2align	2
GCC_except_table40:
.Lexception10:
	.byte	255                     # @LPStart Encoding = omit
	.byte	255                     # @TType Encoding = omit
	.byte	3                       # Call site Encoding = udata4
	.uleb128 .Lcst_end10-.Lcst_begin10
.Lcst_begin10:
	.word	.Lfunc_begin10-.Lfunc_begin10 # >> Call Site 1 <<
	.word	.Ltmp318-.Lfunc_begin10 #   Call between .Lfunc_begin10 and .Ltmp318
	.word	0                       #     has no landing pad
	.byte	0                       #   On action: cleanup
	.word	.Ltmp318-.Lfunc_begin10 # >> Call Site 2 <<
	.word	.Ltmp319-.Ltmp318       #   Call between .Ltmp318 and .Ltmp319
	.word	.Ltmp320-.Lfunc_begin10 #     jumps to .Ltmp320
	.byte	0                       #   On action: cleanup
	.word	.Ltmp319-.Lfunc_begin10 # >> Call Site 3 <<
	.word	.Lfunc_end40-.Ltmp319   #   Call between .Ltmp319 and .Lfunc_end40
	.word	0                       #     has no landing pad
	.byte	0                       #   On action: cleanup
.Lcst_end10:
	.p2align	2
                                        # -- End function
	.section	.text._ZNSt6vectorISt10shared_ptrIN7Surface4BaseEESaIS3_EEaSEOS5_,"axG",@progbits,_ZNSt6vectorISt10shared_ptrIN7Surface4BaseEESaIS3_EEaSEOS5_,comdat
	.weak	_ZNSt6vectorISt10shared_ptrIN7Surface4BaseEESaIS3_EEaSEOS5_ # -- Begin function _ZNSt6vectorISt10shared_ptrIN7Surface4BaseEESaIS3_EEaSEOS5_
	.p2align	2
	.type	_ZNSt6vectorISt10shared_ptrIN7Surface4BaseEESaIS3_EEaSEOS5_,@function
_ZNSt6vectorISt10shared_ptrIN7Surface4BaseEESaIS3_EEaSEOS5_: # @_ZNSt6vectorISt10shared_ptrIN7Surface4BaseEESaIS3_EEaSEOS5_
# %bb.0:                                # %entry
	addi	sp, sp, -48
	sd	ra, 40(sp)
	sd	s0, 32(sp)
	sd	s1, 24(sp)
	addi	s0, sp, 48
	sd	a0, -32(s0)
	sd	a1, -40(s0)
	ld	s1, -32(s0)
	addi	a0, zero, 1
	sb	a0, -41(s0)
	ld	a0, -40(s0)
	call	_ZSt4moveIRSt6vectorISt10shared_ptrIN7Surface4BaseEESaIS4_EEEONSt16remove_referenceIT_E4typeEOS9_
	mv	a1, a0
	mv	a0, s1
	call	_ZNSt6vectorISt10shared_ptrIN7Surface4BaseEESaIS3_EE14_M_move_assignEOS5_St17integral_constantIbLb1EE
	mv	a0, s1
	ld	s1, 24(sp)
	ld	s0, 32(sp)
	ld	ra, 40(sp)
	addi	sp, sp, 48
	ret
.Lfunc_end41:
	.size	_ZNSt6vectorISt10shared_ptrIN7Surface4BaseEESaIS3_EEaSEOS5_, .Lfunc_end41-_ZNSt6vectorISt10shared_ptrIN7Surface4BaseEESaIS3_EEaSEOS5_
                                        # -- End function
	.section	.text._ZNSt6vectorISt10shared_ptrIN7Surface4BaseEESaIS3_EED2Ev,"axG",@progbits,_ZNSt6vectorISt10shared_ptrIN7Surface4BaseEESaIS3_EED2Ev,comdat
	.weak	_ZNSt6vectorISt10shared_ptrIN7Surface4BaseEESaIS3_EED2Ev # -- Begin function _ZNSt6vectorISt10shared_ptrIN7Surface4BaseEESaIS3_EED2Ev
	.p2align	2
	.type	_ZNSt6vectorISt10shared_ptrIN7Surface4BaseEESaIS3_EED2Ev,@function
_ZNSt6vectorISt10shared_ptrIN7Surface4BaseEESaIS3_EED2Ev: # @_ZNSt6vectorISt10shared_ptrIN7Surface4BaseEESaIS3_EED2Ev
.Lfunc_begin11:
	.cfi_startproc
	.cfi_personality 155, DW.ref.__gxx_personality_v0
	.cfi_lsda 27, .Lexception11
# %bb.0:                                # %entry
	addi	sp, sp, -64
	.cfi_def_cfa_offset 64
	sd	ra, 56(sp)
	sd	s0, 48(sp)
	sd	s1, 40(sp)
	sd	s2, 32(sp)
	sd	s3, 24(sp)
	.cfi_offset ra, -8
	.cfi_offset s0, -16
	.cfi_offset s1, -24
	.cfi_offset s2, -32
	.cfi_offset s3, -40
	addi	s0, sp, 64
	.cfi_def_cfa s0, 0
	sd	a0, -48(s0)
	ld	s1, -48(s0)
	ld	s2, 0(s1)
	ld	s3, 8(s1)
	mv	a0, s1
	call	_ZNSt12_Vector_baseISt10shared_ptrIN7Surface4BaseEESaIS3_EE19_M_get_Tp_allocatorEv
	mv	a2, a0
.Ltmp321:
	mv	a0, s2
	mv	a1, s3
	call	_ZSt8_DestroyIPSt10shared_ptrIN7Surface4BaseEES3_EvT_S5_RSaIT0_E
.Ltmp322:
	j	.LBB42_1
.LBB42_1:                               # %invoke.cont
	mv	a0, s1
	call	_ZNSt12_Vector_baseISt10shared_ptrIN7Surface4BaseEESaIS3_EED2Ev
	ld	s3, 24(sp)
	ld	s2, 32(sp)
	ld	s1, 40(sp)
	ld	s0, 48(sp)
	.cfi_def_cfa sp, 64
	ld	ra, 56(sp)
	.cfi_restore ra
	.cfi_restore s0
	.cfi_restore s1
	.cfi_restore s2
	.cfi_restore s3
	addi	sp, sp, 64
	.cfi_def_cfa_offset 0
	ret
.LBB42_2:                               # %lpad
.Ltmp323:
	sd	a0, -56(s0)
	sw	a1, -60(s0)
	mv	a0, s1
	call	_ZNSt12_Vector_baseISt10shared_ptrIN7Surface4BaseEESaIS3_EED2Ev
	j	.LBB42_3
.LBB42_3:                               # %terminate.handler
	ld	a0, -56(s0)
	call	__clang_call_terminate
.Lfunc_end42:
	.size	_ZNSt6vectorISt10shared_ptrIN7Surface4BaseEESaIS3_EED2Ev, .Lfunc_end42-_ZNSt6vectorISt10shared_ptrIN7Surface4BaseEESaIS3_EED2Ev
	.cfi_endproc
	.section	.gcc_except_table,"a",@progbits
	.p2align	2
GCC_except_table42:
.Lexception11:
	.byte	255                     # @LPStart Encoding = omit
	.byte	155                     # @TType Encoding = indirect pcrel sdata4
	.uleb128 .Lttbase1-.Lttbaseref1
.Lttbaseref1:
	.byte	3                       # Call site Encoding = udata4
	.uleb128 .Lcst_end11-.Lcst_begin11
.Lcst_begin11:
	.word	.Ltmp321-.Lfunc_begin11 # >> Call Site 1 <<
	.word	.Ltmp322-.Ltmp321       #   Call between .Ltmp321 and .Ltmp322
	.word	.Ltmp323-.Lfunc_begin11 #     jumps to .Ltmp323
	.byte	1                       #   On action: 1
.Lcst_end11:
	.byte	1                       # >> Action Record 1 <<
                                        #   Catch TypeInfo 1
	.byte	0                       #   No further actions
	.p2align	2
                                        # >> Catch TypeInfos <<
	.word	0                       # TypeInfo 1
.Lttbase1:
	.p2align	2
                                        # -- End function
	.section	.text._ZNSaISt10shared_ptrIN7Surface4BaseEEED2Ev,"axG",@progbits,_ZNSaISt10shared_ptrIN7Surface4BaseEEED2Ev,comdat
	.weak	_ZNSaISt10shared_ptrIN7Surface4BaseEEED2Ev # -- Begin function _ZNSaISt10shared_ptrIN7Surface4BaseEEED2Ev
	.p2align	2
	.type	_ZNSaISt10shared_ptrIN7Surface4BaseEEED2Ev,@function
_ZNSaISt10shared_ptrIN7Surface4BaseEEED2Ev: # @_ZNSaISt10shared_ptrIN7Surface4BaseEEED2Ev
# %bb.0:                                # %entry
	addi	sp, sp, -32
	sd	ra, 24(sp)
	sd	s0, 16(sp)
	addi	s0, sp, 32
	sd	a0, -24(s0)
	ld	a0, -24(s0)
	call	_ZN9__gnu_cxx13new_allocatorISt10shared_ptrIN7Surface4BaseEEED2Ev
	ld	s0, 16(sp)
	ld	ra, 24(sp)
	addi	sp, sp, 32
	ret
.Lfunc_end43:
	.size	_ZNSaISt10shared_ptrIN7Surface4BaseEEED2Ev, .Lfunc_end43-_ZNSaISt10shared_ptrIN7Surface4BaseEEED2Ev
                                        # -- End function
	.section	.text._ZN3BVH10LinearNodeC2Ev,"axG",@progbits,_ZN3BVH10LinearNodeC2Ev,comdat
	.weak	_ZN3BVH10LinearNodeC2Ev # -- Begin function _ZN3BVH10LinearNodeC2Ev
	.p2align	2
	.type	_ZN3BVH10LinearNodeC2Ev,@function
_ZN3BVH10LinearNodeC2Ev:                # @_ZN3BVH10LinearNodeC2Ev
	.cfi_startproc
# %bb.0:                                # %entry
	addi	sp, sp, -32
	.cfi_def_cfa_offset 32
	sd	ra, 24(sp)
	sd	s0, 16(sp)
	.cfi_offset ra, -8
	.cfi_offset s0, -16
	addi	s0, sp, 32
	.cfi_def_cfa s0, 0
	sd	a0, -24(s0)
	ld	a0, -24(s0)
	call	_ZN11BoundingBoxC2Ev
	ld	s0, 16(sp)
	.cfi_def_cfa sp, 32
	ld	ra, 24(sp)
	.cfi_restore ra
	.cfi_restore s0
	addi	sp, sp, 32
	.cfi_def_cfa_offset 0
	ret
.Lfunc_end44:
	.size	_ZN3BVH10LinearNodeC2Ev, .Lfunc_end44-_ZN3BVH10LinearNodeC2Ev
	.cfi_endproc
                                        # -- End function
	.section	.text._ZNSaIN3BVH10LinearNodeEEC2Ev,"axG",@progbits,_ZNSaIN3BVH10LinearNodeEEC2Ev,comdat
	.weak	_ZNSaIN3BVH10LinearNodeEEC2Ev # -- Begin function _ZNSaIN3BVH10LinearNodeEEC2Ev
	.p2align	2
	.type	_ZNSaIN3BVH10LinearNodeEEC2Ev,@function
_ZNSaIN3BVH10LinearNodeEEC2Ev:          # @_ZNSaIN3BVH10LinearNodeEEC2Ev
# %bb.0:                                # %entry
	addi	sp, sp, -32
	sd	ra, 24(sp)
	sd	s0, 16(sp)
	addi	s0, sp, 32
	sd	a0, -24(s0)
	ld	a0, -24(s0)
	call	_ZN9__gnu_cxx13new_allocatorIN3BVH10LinearNodeEEC2Ev
	ld	s0, 16(sp)
	ld	ra, 24(sp)
	addi	sp, sp, 32
	ret
.Lfunc_end45:
	.size	_ZNSaIN3BVH10LinearNodeEEC2Ev, .Lfunc_end45-_ZNSaIN3BVH10LinearNodeEEC2Ev
                                        # -- End function
	.section	.text._ZNSt6vectorIN3BVH10LinearNodeESaIS1_EEC2EmRKS1_RKS2_,"axG",@progbits,_ZNSt6vectorIN3BVH10LinearNodeESaIS1_EEC2EmRKS1_RKS2_,comdat
	.weak	_ZNSt6vectorIN3BVH10LinearNodeESaIS1_EEC2EmRKS1_RKS2_ # -- Begin function _ZNSt6vectorIN3BVH10LinearNodeESaIS1_EEC2EmRKS1_RKS2_
	.p2align	2
	.type	_ZNSt6vectorIN3BVH10LinearNodeESaIS1_EEC2EmRKS1_RKS2_,@function
_ZNSt6vectorIN3BVH10LinearNodeESaIS1_EEC2EmRKS1_RKS2_: # @_ZNSt6vectorIN3BVH10LinearNodeESaIS1_EEC2EmRKS1_RKS2_
.Lfunc_begin12:
	.cfi_startproc
	.cfi_personality 155, DW.ref.__gxx_personality_v0
	.cfi_lsda 27, .Lexception12
# %bb.0:                                # %entry
	addi	sp, sp, -80
	.cfi_def_cfa_offset 80
	sd	ra, 72(sp)
	sd	s0, 64(sp)
	sd	s1, 56(sp)
	.cfi_offset ra, -8
	.cfi_offset s0, -16
	.cfi_offset s1, -24
	addi	s0, sp, 80
	.cfi_def_cfa s0, 0
	sd	a0, -32(s0)
	sd	a1, -40(s0)
	sd	a2, -48(s0)
	sd	a3, -56(s0)
	ld	s1, -32(s0)
	ld	a0, -40(s0)
	ld	a1, -56(s0)
	call	_ZNSt6vectorIN3BVH10LinearNodeESaIS1_EE17_S_check_init_lenEmRKS2_
	mv	a1, a0
	ld	a2, -56(s0)
	mv	a0, s1
	call	_ZNSt12_Vector_baseIN3BVH10LinearNodeESaIS1_EEC2EmRKS2_
	ld	a1, -40(s0)
	ld	a2, -48(s0)
.Ltmp324:
	mv	a0, s1
	call	_ZNSt6vectorIN3BVH10LinearNodeESaIS1_EE18_M_fill_initializeEmRKS1_
.Ltmp325:
	j	.LBB46_1
.LBB46_1:                               # %invoke.cont
	ld	s1, 56(sp)
	ld	s0, 64(sp)
	.cfi_def_cfa sp, 80
	ld	ra, 72(sp)
	.cfi_restore ra
	.cfi_restore s0
	.cfi_restore s1
	addi	sp, sp, 80
	.cfi_def_cfa_offset 0
	ret
.LBB46_2:                               # %lpad
.Ltmp326:
	sd	a0, -64(s0)
	sw	a1, -68(s0)
	mv	a0, s1
	call	_ZNSt12_Vector_baseIN3BVH10LinearNodeESaIS1_EED2Ev
	j	.LBB46_3
.LBB46_3:                               # %eh.resume
	ld	a0, -64(s0)
	call	_Unwind_Resume
.Lfunc_end46:
	.size	_ZNSt6vectorIN3BVH10LinearNodeESaIS1_EEC2EmRKS1_RKS2_, .Lfunc_end46-_ZNSt6vectorIN3BVH10LinearNodeESaIS1_EEC2EmRKS1_RKS2_
	.cfi_endproc
	.section	.gcc_except_table,"a",@progbits
	.p2align	2
GCC_except_table46:
.Lexception12:
	.byte	255                     # @LPStart Encoding = omit
	.byte	255                     # @TType Encoding = omit
	.byte	3                       # Call site Encoding = udata4
	.uleb128 .Lcst_end12-.Lcst_begin12
.Lcst_begin12:
	.word	.Lfunc_begin12-.Lfunc_begin12 # >> Call Site 1 <<
	.word	.Ltmp324-.Lfunc_begin12 #   Call between .Lfunc_begin12 and .Ltmp324
	.word	0                       #     has no landing pad
	.byte	0                       #   On action: cleanup
	.word	.Ltmp324-.Lfunc_begin12 # >> Call Site 2 <<
	.word	.Ltmp325-.Ltmp324       #   Call between .Ltmp324 and .Ltmp325
	.word	.Ltmp326-.Lfunc_begin12 #     jumps to .Ltmp326
	.byte	0                       #   On action: cleanup
	.word	.Ltmp325-.Lfunc_begin12 # >> Call Site 3 <<
	.word	.Lfunc_end46-.Ltmp325   #   Call between .Ltmp325 and .Lfunc_end46
	.word	0                       #     has no landing pad
	.byte	0                       #   On action: cleanup
.Lcst_end12:
	.p2align	2
                                        # -- End function
	.section	.text._ZNSt6vectorIN3BVH10LinearNodeESaIS1_EEaSEOS3_,"axG",@progbits,_ZNSt6vectorIN3BVH10LinearNodeESaIS1_EEaSEOS3_,comdat
	.weak	_ZNSt6vectorIN3BVH10LinearNodeESaIS1_EEaSEOS3_ # -- Begin function _ZNSt6vectorIN3BVH10LinearNodeESaIS1_EEaSEOS3_
	.p2align	2
	.type	_ZNSt6vectorIN3BVH10LinearNodeESaIS1_EEaSEOS3_,@function
_ZNSt6vectorIN3BVH10LinearNodeESaIS1_EEaSEOS3_: # @_ZNSt6vectorIN3BVH10LinearNodeESaIS1_EEaSEOS3_
# %bb.0:                                # %entry
	addi	sp, sp, -48
	sd	ra, 40(sp)
	sd	s0, 32(sp)
	sd	s1, 24(sp)
	addi	s0, sp, 48
	sd	a0, -32(s0)
	sd	a1, -40(s0)
	ld	s1, -32(s0)
	addi	a0, zero, 1
	sb	a0, -41(s0)
	ld	a0, -40(s0)
	call	_ZSt4moveIRSt6vectorIN3BVH10LinearNodeESaIS2_EEEONSt16remove_referenceIT_E4typeEOS7_
	mv	a1, a0
	mv	a0, s1
	call	_ZNSt6vectorIN3BVH10LinearNodeESaIS1_EE14_M_move_assignEOS3_St17integral_constantIbLb1EE
	mv	a0, s1
	ld	s1, 24(sp)
	ld	s0, 32(sp)
	ld	ra, 40(sp)
	addi	sp, sp, 48
	ret
.Lfunc_end47:
	.size	_ZNSt6vectorIN3BVH10LinearNodeESaIS1_EEaSEOS3_, .Lfunc_end47-_ZNSt6vectorIN3BVH10LinearNodeESaIS1_EEaSEOS3_
                                        # -- End function
	.section	.text._ZNSt6vectorIN3BVH10LinearNodeESaIS1_EED2Ev,"axG",@progbits,_ZNSt6vectorIN3BVH10LinearNodeESaIS1_EED2Ev,comdat
	.weak	_ZNSt6vectorIN3BVH10LinearNodeESaIS1_EED2Ev # -- Begin function _ZNSt6vectorIN3BVH10LinearNodeESaIS1_EED2Ev
	.p2align	2
	.type	_ZNSt6vectorIN3BVH10LinearNodeESaIS1_EED2Ev,@function
_ZNSt6vectorIN3BVH10LinearNodeESaIS1_EED2Ev: # @_ZNSt6vectorIN3BVH10LinearNodeESaIS1_EED2Ev
.Lfunc_begin13:
	.cfi_startproc
	.cfi_personality 155, DW.ref.__gxx_personality_v0
	.cfi_lsda 27, .Lexception13
# %bb.0:                                # %entry
	addi	sp, sp, -64
	.cfi_def_cfa_offset 64
	sd	ra, 56(sp)
	sd	s0, 48(sp)
	sd	s1, 40(sp)
	sd	s2, 32(sp)
	sd	s3, 24(sp)
	.cfi_offset ra, -8
	.cfi_offset s0, -16
	.cfi_offset s1, -24
	.cfi_offset s2, -32
	.cfi_offset s3, -40
	addi	s0, sp, 64
	.cfi_def_cfa s0, 0
	sd	a0, -48(s0)
	ld	s1, -48(s0)
	ld	s2, 0(s1)
	ld	s3, 8(s1)
	mv	a0, s1
	call	_ZNSt12_Vector_baseIN3BVH10LinearNodeESaIS1_EE19_M_get_Tp_allocatorEv
	mv	a2, a0
.Ltmp327:
	mv	a0, s2
	mv	a1, s3
	call	_ZSt8_DestroyIPN3BVH10LinearNodeES1_EvT_S3_RSaIT0_E
.Ltmp328:
	j	.LBB48_1
.LBB48_1:                               # %invoke.cont
	mv	a0, s1
	call	_ZNSt12_Vector_baseIN3BVH10LinearNodeESaIS1_EED2Ev
	ld	s3, 24(sp)
	ld	s2, 32(sp)
	ld	s1, 40(sp)
	ld	s0, 48(sp)
	.cfi_def_cfa sp, 64
	ld	ra, 56(sp)
	.cfi_restore ra
	.cfi_restore s0
	.cfi_restore s1
	.cfi_restore s2
	.cfi_restore s3
	addi	sp, sp, 64
	.cfi_def_cfa_offset 0
	ret
.LBB48_2:                               # %lpad
.Ltmp329:
	sd	a0, -56(s0)
	sw	a1, -60(s0)
	mv	a0, s1
	call	_ZNSt12_Vector_baseIN3BVH10LinearNodeESaIS1_EED2Ev
	j	.LBB48_3
.LBB48_3:                               # %terminate.handler
	ld	a0, -56(s0)
	call	__clang_call_terminate
.Lfunc_end48:
	.size	_ZNSt6vectorIN3BVH10LinearNodeESaIS1_EED2Ev, .Lfunc_end48-_ZNSt6vectorIN3BVH10LinearNodeESaIS1_EED2Ev
	.cfi_endproc
	.section	.gcc_except_table,"a",@progbits
	.p2align	2
GCC_except_table48:
.Lexception13:
	.byte	255                     # @LPStart Encoding = omit
	.byte	155                     # @TType Encoding = indirect pcrel sdata4
	.uleb128 .Lttbase2-.Lttbaseref2
.Lttbaseref2:
	.byte	3                       # Call site Encoding = udata4
	.uleb128 .Lcst_end13-.Lcst_begin13
.Lcst_begin13:
	.word	.Ltmp327-.Lfunc_begin13 # >> Call Site 1 <<
	.word	.Ltmp328-.Ltmp327       #   Call between .Ltmp327 and .Ltmp328
	.word	.Ltmp329-.Lfunc_begin13 #     jumps to .Ltmp329
	.byte	1                       #   On action: 1
.Lcst_end13:
	.byte	1                       # >> Action Record 1 <<
                                        #   Catch TypeInfo 1
	.byte	0                       #   No further actions
	.p2align	2
                                        # >> Catch TypeInfos <<
	.word	0                       # TypeInfo 1
.Lttbase2:
	.p2align	2
                                        # -- End function
	.section	.text._ZNSaIN3BVH10LinearNodeEED2Ev,"axG",@progbits,_ZNSaIN3BVH10LinearNodeEED2Ev,comdat
	.weak	_ZNSaIN3BVH10LinearNodeEED2Ev # -- Begin function _ZNSaIN3BVH10LinearNodeEED2Ev
	.p2align	2
	.type	_ZNSaIN3BVH10LinearNodeEED2Ev,@function
_ZNSaIN3BVH10LinearNodeEED2Ev:          # @_ZNSaIN3BVH10LinearNodeEED2Ev
# %bb.0:                                # %entry
	addi	sp, sp, -32
	sd	ra, 24(sp)
	sd	s0, 16(sp)
	addi	s0, sp, 32
	sd	a0, -24(s0)
	ld	a0, -24(s0)
	call	_ZN9__gnu_cxx13new_allocatorIN3BVH10LinearNodeEED2Ev
	ld	s0, 16(sp)
	ld	ra, 24(sp)
	addi	sp, sp, 32
	ret
.Lfunc_end49:
	.size	_ZNSaIN3BVH10LinearNodeEED2Ev, .Lfunc_end49-_ZNSaIN3BVH10LinearNodeEED2Ev
                                        # -- End function
	.text
	.globl	_ZN3BVH7compactESt10shared_ptrINS_9BuildNodeEEjRj # -- Begin function _ZN3BVH7compactESt10shared_ptrINS_9BuildNodeEEjRj
	.p2align	2
	.type	_ZN3BVH7compactESt10shared_ptrINS_9BuildNodeEEjRj,@function
_ZN3BVH7compactESt10shared_ptrINS_9BuildNodeEEjRj: # @_ZN3BVH7compactESt10shared_ptrINS_9BuildNodeEEjRj
.Lfunc_begin14:
	.cfi_startproc
	.cfi_personality 155, DW.ref.__gxx_personality_v0
	.cfi_lsda 27, .Lexception14
# %bb.0:                                # %entry
	addi	sp, sp, -160
	.cfi_def_cfa_offset 160
	sd	ra, 152(sp)
	sd	s0, 144(sp)
	sd	s1, 136(sp)
	sd	s2, 128(sp)
	sd	s3, 120(sp)
	sd	s4, 112(sp)
	.cfi_offset ra, -8
	.cfi_offset s0, -16
	.cfi_offset s1, -24
	.cfi_offset s2, -32
	.cfi_offset s3, -40
	.cfi_offset s4, -48
	addi	s0, sp, 160
	.cfi_def_cfa s0, 0
	mv	s3, a1
	sd	a0, -56(s0)
	sw	a2, -60(s0)
	sd	a3, -72(s0)
	ld	s2, -56(s0)
	mv	a0, s3
	call	_ZNKSt19__shared_ptr_accessIN3BVH9BuildNodeELN9__gnu_cxx12_Lock_policyE0ELb0ELb0EEptEv
	mv	s1, a0
	addi	s4, s2, 56
	mv	a0, s3
	call	_ZNKSt19__shared_ptr_accessIN3BVH9BuildNodeELN9__gnu_cxx12_Lock_policyE0ELb0ELb0EEptEv
	lwu	a1, 96(a0)
	mv	a0, s4
	call	_ZNSt6vectorIN3BVH10LinearNodeESaIS1_EEixEm
	ld	a1, 40(s1)
	sd	a1, 40(a0)
	ld	a1, 32(s1)
	sd	a1, 32(a0)
	ld	a1, 24(s1)
	sd	a1, 24(a0)
	ld	a1, 16(s1)
	sd	a1, 16(a0)
	ld	a1, 8(s1)
	sd	a1, 8(a0)
	ld	a1, 0(s1)
	sd	a1, 0(a0)
	lw	s1, -60(s0)
	mv	a0, s3
	call	_ZNKSt19__shared_ptr_accessIN3BVH9BuildNodeELN9__gnu_cxx12_Lock_policyE0ELb0ELb0EEptEv
	lwu	a1, 96(a0)
	mv	a0, s4
	call	_ZNSt6vectorIN3BVH10LinearNodeESaIS1_EEixEm
	sw	s1, 56(a0)
	ld	a0, -72(s0)
	lw	s1, 0(a0)
	mv	a0, s3
	call	_ZNKSt19__shared_ptr_accessIN3BVH9BuildNodeELN9__gnu_cxx12_Lock_policyE0ELb0ELb0EEptEv
	lwu	a1, 96(a0)
	mv	a0, s4
	call	_ZNSt6vectorIN3BVH10LinearNodeESaIS1_EEixEm
	sw	s1, 48(a0)
	mv	a0, s3
	call	_ZNKSt19__shared_ptr_accessIN3BVH9BuildNodeELN9__gnu_cxx12_Lock_policyE0ELb0ELb0EEptEv
	addi	a0, a0, 72
	call	_ZNKSt6vectorISt10shared_ptrIN7Surface4BaseEESaIS3_EE4sizeEv
	mv	s1, a0
	mv	a0, s3
	call	_ZNKSt19__shared_ptr_accessIN3BVH9BuildNodeELN9__gnu_cxx12_Lock_policyE0ELb0ELb0EEptEv
	lwu	a1, 96(a0)
	mv	a0, s4
	call	_ZNSt6vectorIN3BVH10LinearNodeESaIS1_EEixEm
	sb	s1, 52(a0)
	mv	a0, s3
	call	_ZNKSt19__shared_ptr_accessIN3BVH9BuildNodeELN9__gnu_cxx12_Lock_policyE0ELb0ELb0EEptEv
	addi	a0, a0, 72
	sd	a0, -80(s0)
	ld	a0, -80(s0)
	call	_ZNSt6vectorISt10shared_ptrIN7Surface4BaseEESaIS3_EE5beginEv
	sd	a0, -88(s0)
	ld	a0, -80(s0)
	call	_ZNSt6vectorISt10shared_ptrIN7Surface4BaseEESaIS3_EE3endEv
	sd	a0, -96(s0)
	j	.LBB50_1
.LBB50_1:                               # %for.cond
                                        # =>This Inner Loop Header: Depth=1
	addi	a0, s0, -88
	addi	a1, s0, -96
	call	_ZN9__gnu_cxxneIPSt10shared_ptrIN7Surface4BaseEESt6vectorIS4_SaIS4_EEEEbRKNS_17__normal_iteratorIT_T0_EESE_
	beqz	a0, .LBB50_4
	j	.LBB50_2
.LBB50_2:                               # %for.body
                                        #   in Loop: Header=BB50_1 Depth=1
	addi	a0, s0, -88
	call	_ZNK9__gnu_cxx17__normal_iteratorIPSt10shared_ptrIN7Surface4BaseEESt6vectorIS4_SaIS4_EEEdeEv
	sd	a0, -104(s0)
	ld	s1, -104(s0)
	addi	a0, s2, 80
	ld	a1, -72(s0)
	lwu	a1, 0(a1)
	call	_ZNSt6vectorISt10shared_ptrIN7Surface4BaseEESaIS3_EEixEm
	mv	a1, s1
	call	_ZNSt10shared_ptrIN7Surface4BaseEEaSERKS2_
	ld	a0, -72(s0)
	lw	a1, 0(a0)
	addi	a1, a1, 1
	sw	a1, 0(a0)
	j	.LBB50_3
.LBB50_3:                               # %for.inc
                                        #   in Loop: Header=BB50_1 Depth=1
	addi	a0, s0, -88
	call	_ZN9__gnu_cxx17__normal_iteratorIPSt10shared_ptrIN7Surface4BaseEESt6vectorIS4_SaIS4_EEEppEv
	j	.LBB50_1
.LBB50_4:                               # %for.end
	mv	a0, s3
	call	_ZNKSt19__shared_ptr_accessIN3BVH9BuildNodeELN9__gnu_cxx12_Lock_policyE0ELb0ELb0EEptEv
	addi	a0, a0, 48
	call	_ZNKSt6vectorISt10shared_ptrIN3BVH9BuildNodeEESaIS3_EE5emptyEv
	bnez	a0, .LBB50_14
	j	.LBB50_5
.LBB50_5:                               # %if.then
	sd	zero, -112(s0)
	j	.LBB50_6
.LBB50_6:                               # %for.cond38
                                        # =>This Inner Loop Header: Depth=1
	ld	s1, -112(s0)
	mv	a0, s3
	call	_ZNKSt19__shared_ptr_accessIN3BVH9BuildNodeELN9__gnu_cxx12_Lock_policyE0ELb0ELb0EEptEv
	addi	a0, a0, 48
	call	_ZNKSt6vectorISt10shared_ptrIN3BVH9BuildNodeEESaIS3_EE4sizeEv
	addi	a0, a0, -1
	bgeu	s1, a0, .LBB50_11
	j	.LBB50_7
.LBB50_7:                               # %for.body42
                                        #   in Loop: Header=BB50_6 Depth=1
	mv	a0, s3
	call	_ZNKSt19__shared_ptr_accessIN3BVH9BuildNodeELN9__gnu_cxx12_Lock_policyE0ELb0ELb0EEptEv
	addi	a0, a0, 48
	ld	a1, -112(s0)
	call	_ZNSt6vectorISt10shared_ptrIN3BVH9BuildNodeEESaIS3_EEixEm
	mv	a1, a0
	addi	s1, s0, -128
	mv	a0, s1
	call	_ZNSt10shared_ptrIN3BVH9BuildNodeEEC2ERKS2_
	mv	a0, s3
	call	_ZNKSt19__shared_ptr_accessIN3BVH9BuildNodeELN9__gnu_cxx12_Lock_policyE0ELb0ELb0EEptEv
	addi	a0, a0, 48
	ld	a1, -112(s0)
	addi	a1, a1, 1
	call	_ZNSt6vectorISt10shared_ptrIN3BVH9BuildNodeEESaIS3_EEixEm
	call	_ZNKSt19__shared_ptr_accessIN3BVH9BuildNodeELN9__gnu_cxx12_Lock_policyE0ELb0ELb0EEptEv
	lw	a2, 96(a0)
	ld	a3, -72(s0)
.Ltmp333:
	mv	a0, s2
	mv	a1, s1
	call	_ZN3BVH7compactESt10shared_ptrINS_9BuildNodeEEjRj
.Ltmp334:
	j	.LBB50_8
.LBB50_8:                               # %invoke.cont
                                        #   in Loop: Header=BB50_6 Depth=1
	addi	a0, s0, -128
	call	_ZNSt10shared_ptrIN3BVH9BuildNodeEED2Ev
	j	.LBB50_9
.LBB50_9:                               # %for.inc51
                                        #   in Loop: Header=BB50_6 Depth=1
	ld	a0, -112(s0)
	addi	a0, a0, 1
	sd	a0, -112(s0)
	j	.LBB50_6
.LBB50_10:                              # %lpad
.Ltmp335:
	sd	a0, -136(s0)
	sw	a1, -140(s0)
	addi	a0, s0, -128
	call	_ZNSt10shared_ptrIN3BVH9BuildNodeEED2Ev
	j	.LBB50_15
.LBB50_11:                              # %for.end53
	mv	a0, s3
	call	_ZNKSt19__shared_ptr_accessIN3BVH9BuildNodeELN9__gnu_cxx12_Lock_policyE0ELb0ELb0EEptEv
	addi	a0, a0, 48
	call	_ZNSt6vectorISt10shared_ptrIN3BVH9BuildNodeEESaIS3_EE4backEv
	mv	a1, a0
	addi	s1, s0, -160
	mv	a0, s1
	call	_ZNSt10shared_ptrIN3BVH9BuildNodeEEC2ERKS2_
	ld	a3, -72(s0)
.Ltmp330:
	mv	a0, s2
	mv	a1, s1
	mv	a2, zero
	call	_ZN3BVH7compactESt10shared_ptrINS_9BuildNodeEEjRj
.Ltmp331:
	j	.LBB50_12
.LBB50_12:                              # %invoke.cont59
	addi	a0, s0, -160
	call	_ZNSt10shared_ptrIN3BVH9BuildNodeEED2Ev
	j	.LBB50_14
.LBB50_13:                              # %lpad58
.Ltmp332:
	sd	a0, -136(s0)
	sw	a1, -140(s0)
	addi	a0, s0, -160
	call	_ZNSt10shared_ptrIN3BVH9BuildNodeEED2Ev
	j	.LBB50_15
.LBB50_14:                              # %if.end
	ld	s4, 112(sp)
	ld	s3, 120(sp)
	ld	s2, 128(sp)
	ld	s1, 136(sp)
	ld	s0, 144(sp)
	.cfi_def_cfa sp, 160
	ld	ra, 152(sp)
	.cfi_restore ra
	.cfi_restore s0
	.cfi_restore s1
	.cfi_restore s2
	.cfi_restore s3
	.cfi_restore s4
	addi	sp, sp, 160
	.cfi_def_cfa_offset 0
	ret
.LBB50_15:                              # %eh.resume
	ld	a0, -136(s0)
	call	_Unwind_Resume
.Lfunc_end50:
	.size	_ZN3BVH7compactESt10shared_ptrINS_9BuildNodeEEjRj, .Lfunc_end50-_ZN3BVH7compactESt10shared_ptrINS_9BuildNodeEEjRj
	.cfi_endproc
	.section	.gcc_except_table,"a",@progbits
	.p2align	2
GCC_except_table50:
.Lexception14:
	.byte	255                     # @LPStart Encoding = omit
	.byte	255                     # @TType Encoding = omit
	.byte	3                       # Call site Encoding = udata4
	.uleb128 .Lcst_end14-.Lcst_begin14
.Lcst_begin14:
	.word	.Ltmp333-.Lfunc_begin14 # >> Call Site 1 <<
	.word	.Ltmp334-.Ltmp333       #   Call between .Ltmp333 and .Ltmp334
	.word	.Ltmp335-.Lfunc_begin14 #     jumps to .Ltmp335
	.byte	0                       #   On action: cleanup
	.word	.Ltmp330-.Lfunc_begin14 # >> Call Site 2 <<
	.word	.Ltmp331-.Ltmp330       #   Call between .Ltmp330 and .Ltmp331
	.word	.Ltmp332-.Lfunc_begin14 #     jumps to .Ltmp332
	.byte	0                       #   On action: cleanup
	.word	.Ltmp331-.Lfunc_begin14 # >> Call Site 3 <<
	.word	.Lfunc_end50-.Ltmp331   #   Call between .Ltmp331 and .Lfunc_end50
	.word	0                       #     has no landing pad
	.byte	0                       #   On action: cleanup
.Lcst_end14:
	.p2align	2
                                        # -- End function
	.section	.text._ZNSt3mapImmSt4lessImESaISt4pairIKmmEEED2Ev,"axG",@progbits,_ZNSt3mapImmSt4lessImESaISt4pairIKmmEEED2Ev,comdat
	.weak	_ZNSt3mapImmSt4lessImESaISt4pairIKmmEEED2Ev # -- Begin function _ZNSt3mapImmSt4lessImESaISt4pairIKmmEEED2Ev
	.p2align	2
	.type	_ZNSt3mapImmSt4lessImESaISt4pairIKmmEEED2Ev,@function
_ZNSt3mapImmSt4lessImESaISt4pairIKmmEEED2Ev: # @_ZNSt3mapImmSt4lessImESaISt4pairIKmmEEED2Ev
# %bb.0:                                # %entry
	addi	sp, sp, -32
	sd	ra, 24(sp)
	sd	s0, 16(sp)
	addi	s0, sp, 32
	sd	a0, -24(s0)
	ld	a0, -24(s0)
	call	_ZNSt8_Rb_treeImSt4pairIKmmESt10_Select1stIS2_ESt4lessImESaIS2_EED2Ev
	ld	s0, 16(sp)
	ld	ra, 24(sp)
	addi	sp, sp, 32
	ret
.Lfunc_end51:
	.size	_ZNSt3mapImmSt4lessImESaISt4pairIKmmEEED2Ev, .Lfunc_end51-_ZNSt3mapImmSt4lessImESaISt4pairIKmmEEED2Ev
                                        # -- End function
	.text
	.globl	_ZNK3BVH9intersectERK3Ray # -- Begin function _ZNK3BVH9intersectERK3Ray
	.p2align	2
	.type	_ZNK3BVH9intersectERK3Ray,@function
_ZNK3BVH9intersectERK3Ray:              # @_ZNK3BVH9intersectERK3Ray
.Lfunc_begin15:
	.cfi_startproc
	.cfi_personality 155, DW.ref.__gxx_personality_v0
	.cfi_lsda 27, .Lexception15
# %bb.0:                                # %entry
	addi	sp, sp, -192
	.cfi_def_cfa_offset 192
	sd	ra, 184(sp)
	sd	s0, 176(sp)
	sd	s1, 168(sp)
	sd	s2, 160(sp)
	sd	s3, 152(sp)
	.cfi_offset ra, -8
	.cfi_offset s0, -16
	.cfi_offset s1, -24
	.cfi_offset s2, -32
	.cfi_offset s3, -40
	addi	s0, sp, 192
	.cfi_def_cfa s0, 0
	mv	s2, a0
	sd	s2, -48(s0)
	sd	a1, -56(s0)
	sd	a2, -64(s0)
	ld	s3, -56(s0)
	lui	a0, %tprel_hi(_ZGVZNK3BVH9intersectERK3RayE8to_visit)
	add	a0, a0, tp, %tprel_add(_ZGVZNK3BVH9intersectERK3RayE8to_visit)
	lbu	a0, %tprel_lo(_ZGVZNK3BVH9intersectERK3RayE8to_visit)(a0)
	bnez	a0, .LBB52_2
	j	.LBB52_1
.LBB52_1:                               # %init.check
	lui	a0, %tprel_hi(_ZZNK3BVH9intersectERK3RayE8to_visit)
	add	a0, a0, tp, %tprel_add(_ZZNK3BVH9intersectERK3RayE8to_visit)
	addi	s1, a0, %tprel_lo(_ZZNK3BVH9intersectERK3RayE8to_visit)
	mv	a0, s1
	addi	a1, zero, 64
	call	_ZN13PriorityQueueIN3BVH10LinearNode16NodeIntersectionEEC2Em
	lui	a0, %hi(_ZN13PriorityQueueIN3BVH10LinearNode16NodeIntersectionEED2Ev)
	addi	a0, a0, %lo(_ZN13PriorityQueueIN3BVH10LinearNode16NodeIntersectionEED2Ev)
	lui	a1, %hi(__dso_handle)
	addi	a2, a1, %lo(__dso_handle)
	mv	a1, s1
	call	__cxa_thread_atexit
	lui	a0, %tprel_hi(_ZGVZNK3BVH9intersectERK3RayE8to_visit)
	add	a0, a0, tp, %tprel_add(_ZGVZNK3BVH9intersectERK3RayE8to_visit)
	addi	a1, zero, 1
	sb	a1, %tprel_lo(_ZGVZNK3BVH9intersectERK3RayE8to_visit)(a0)
	j	.LBB52_2
.LBB52_2:                               # %init.end
	lui	a0, %tprel_hi(_ZZNK3BVH9intersectERK3RayE8to_visit)
	add	a0, a0, tp, %tprel_add(_ZZNK3BVH9intersectERK3RayE8to_visit)
	addi	a0, a0, %tprel_lo(_ZZNK3BVH9intersectERK3RayE8to_visit)
	call	_ZN13PriorityQueueIN3BVH10LinearNode16NodeIntersectionEE5clearEv
	sb	zero, -73(s0)
	mv	a0, s2
	call	_ZN12IntersectionC2Ev
	addi	a0, s3, 56
	mv	a1, zero
	call	_ZNKSt6vectorIN3BVH10LinearNodeESaIS1_EEixEm
	ld	a1, -64(s0)
.Ltmp336:
	addi	a2, s0, -72
	call	_ZNK11BoundingBox9intersectERK3RayRd
.Ltmp337:
	j	.LBB52_3
.LBB52_3:                               # %invoke.cont
	andi	a0, a0, 1
	beqz	a0, .LBB52_44
	j	.LBB52_4
.LBB52_4:                               # %if.then
	sw	zero, -96(s0)
	j	.LBB52_5
.LBB52_5:                               # %while.cond
                                        # =>This Loop Header: Depth=1
                                        #     Child Loop BB52_27 Depth 2
                                        #     Child Loop BB52_8 Depth 2
	j	.LBB52_6
.LBB52_6:                               # %while.body
                                        #   in Loop: Header=BB52_5 Depth=1
	addi	a0, s3, 56
	lwu	a1, -96(s0)
	call	_ZNKSt6vectorIN3BVH10LinearNodeESaIS1_EEixEm
	sd	a0, -104(s0)
	ld	a0, -104(s0)
	lbu	a0, 52(a0)
	beqz	a0, .LBB52_26
	j	.LBB52_7
.LBB52_7:                               # %if.then5
                                        #   in Loop: Header=BB52_5 Depth=1
	ld	a0, -104(s0)
	lw	a1, 48(a0)
	lbu	a0, 52(a0)
	add	a0, a1, a0
	sw	a0, -108(s0)
	ld	a0, -104(s0)
	lw	a0, 48(a0)
	sw	a0, -112(s0)
	j	.LBB52_8
.LBB52_8:                               # %for.cond
                                        #   Parent Loop BB52_5 Depth=1
                                        # =>  This Inner Loop Header: Depth=2
	lw	a0, -112(s0)
	lw	a1, -108(s0)
	bgeu	a0, a1, .LBB52_25
	j	.LBB52_9
.LBB52_9:                               # %for.body
                                        #   in Loop: Header=BB52_8 Depth=2
.Ltmp353:
	addi	a0, s0, -160
	call	_ZN12IntersectionC2Ev
.Ltmp354:
	j	.LBB52_10
.LBB52_10:                              # %invoke.cont9
                                        #   in Loop: Header=BB52_8 Depth=2
	addi	a0, s3, 80
	lwu	a1, -112(s0)
	call	_ZNKSt6vectorISt10shared_ptrIN7Surface4BaseEESaIS3_EEixEm
	call	_ZNKSt19__shared_ptr_accessIN7Surface4BaseELN9__gnu_cxx12_Lock_policyE0ELb0ELb0EEptEv
	ld	a1, -64(s0)
	ld	a2, 0(a0)
	ld	a3, 16(a2)
.Ltmp356:
	addi	a2, s0, -160
	jalr	a3
.Ltmp357:
	j	.LBB52_11
.LBB52_11:                              # %invoke.cont14
                                        #   in Loop: Header=BB52_8 Depth=2
	andi	a0, a0, 1
	beqz	a0, .LBB52_23
	j	.LBB52_12
.LBB52_12:                              # %if.then16
                                        #   in Loop: Header=BB52_8 Depth=2
	fld	ft0, -144(s0)
	fld	ft1, 16(s2)
	flt.d	a0, ft0, ft1
	xori	a0, a0, 1
	bnez	a0, .LBB52_22
	j	.LBB52_13
.LBB52_13:                              # %if.then20
                                        #   in Loop: Header=BB52_8 Depth=2
	addi	a1, s0, -160
	mv	a0, s2
	call	_ZN12IntersectionaSERKS_
	addi	a0, s3, 80
	lwu	a1, -112(s0)
	call	_ZNKSt6vectorISt10shared_ptrIN7Surface4BaseEESaIS3_EEixEm
	mv	a1, a0
	mv	a0, s2
	call	_ZNSt10shared_ptrIN7Surface4BaseEEaSERKS2_
	j	.LBB52_22
.LBB52_14:                              # %lpad.loopexit
.Ltmp355:
	j	.LBB52_20
.LBB52_15:                              # %lpad.loopexit.split-lp.loopexit
.Ltmp343:
	j	.LBB52_19
.LBB52_16:                              # %lpad.loopexit.split-lp.loopexit.split-lp.loopexit
.Ltmp352:
	j	.LBB52_18
.LBB52_17:                              # %lpad.loopexit.split-lp.loopexit.split-lp.loopexit.split-lp
.Ltmp338:
	j	.LBB52_18
.LBB52_18:                              # %lpad.loopexit.split-lp.loopexit.split-lp
	j	.LBB52_19
.LBB52_19:                              # %lpad.loopexit.split-lp
	j	.LBB52_20
.LBB52_20:                              # %lpad
	sd	a0, -88(s0)
	sw	a1, -92(s0)
	j	.LBB52_47
.LBB52_21:                              # %lpad13
.Ltmp358:
	sd	a0, -88(s0)
	sw	a1, -92(s0)
	addi	a0, s0, -160
	call	_ZN12IntersectionD2Ev
	j	.LBB52_47
.LBB52_22:                              # %if.end
                                        #   in Loop: Header=BB52_8 Depth=2
	j	.LBB52_23
.LBB52_23:                              # %if.end26
                                        #   in Loop: Header=BB52_8 Depth=2
	addi	a0, s0, -160
	call	_ZN12IntersectionD2Ev
	j	.LBB52_24
.LBB52_24:                              # %for.inc
                                        #   in Loop: Header=BB52_8 Depth=2
	lw	a0, -112(s0)
	addi	a0, a0, 1
	sw	a0, -112(s0)
	j	.LBB52_8
.LBB52_25:                              # %for.end
                                        #   in Loop: Header=BB52_5 Depth=1
	j	.LBB52_35
.LBB52_26:                              # %if.else
                                        #   in Loop: Header=BB52_5 Depth=1
	lw	a0, -96(s0)
	addi	a0, a0, 1
	sw	a0, -164(s0)
	j	.LBB52_27
.LBB52_27:                              # %while.cond28
                                        #   Parent Loop BB52_5 Depth=1
                                        # =>  This Inner Loop Header: Depth=2
	lw	a0, -164(s0)
	beqz	a0, .LBB52_34
	j	.LBB52_28
.LBB52_28:                              # %while.body30
                                        #   in Loop: Header=BB52_27 Depth=2
	addi	a0, s3, 56
	lwu	a1, -164(s0)
	call	_ZNKSt6vectorIN3BVH10LinearNodeESaIS1_EEixEm
	ld	a1, -64(s0)
.Ltmp339:
	addi	a2, s0, -72
	call	_ZNK11BoundingBox9intersectERK3RayRd
.Ltmp340:
	j	.LBB52_29
.LBB52_29:                              # %invoke.cont35
                                        #   in Loop: Header=BB52_27 Depth=2
	andi	a0, a0, 1
	beqz	a0, .LBB52_33
	j	.LBB52_30
.LBB52_30:                              # %land.lhs.true
                                        #   in Loop: Header=BB52_27 Depth=2
	fld	ft0, -72(s0)
	fld	ft1, 16(s2)
	flt.d	a0, ft0, ft1
	xori	a0, a0, 1
	bnez	a0, .LBB52_33
	j	.LBB52_31
.LBB52_31:                              # %if.then39
                                        #   in Loop: Header=BB52_27 Depth=2
	fld	ft0, -72(s0)
	fsd	ft0, -192(s0)
	lw	a0, -164(s0)
	sw	a0, -184(s0)
.Ltmp341:
	lui	a0, %tprel_hi(_ZZNK3BVH9intersectERK3RayE8to_visit)
	add	a0, a0, tp, %tprel_add(_ZZNK3BVH9intersectERK3RayE8to_visit)
	addi	a0, a0, %tprel_lo(_ZZNK3BVH9intersectERK3RayE8to_visit)
	addi	a1, s0, -192
	call	_ZN13PriorityQueueIN3BVH10LinearNode16NodeIntersectionEE4pushERKS2_
.Ltmp342:
	j	.LBB52_32
.LBB52_32:                              # %invoke.cont42
                                        #   in Loop: Header=BB52_27 Depth=2
	j	.LBB52_33
.LBB52_33:                              # %if.end43
                                        #   in Loop: Header=BB52_27 Depth=2
	addi	a0, s3, 56
	lwu	a1, -164(s0)
	call	_ZNKSt6vectorIN3BVH10LinearNodeESaIS1_EEixEm
	lw	a0, 56(a0)
	sw	a0, -164(s0)
	j	.LBB52_27
.LBB52_34:                              # %while.end
                                        #   in Loop: Header=BB52_5 Depth=1
	j	.LBB52_35
.LBB52_35:                              # %if.end47
                                        #   in Loop: Header=BB52_5 Depth=1
.Ltmp344:
	lui	a0, %tprel_hi(_ZZNK3BVH9intersectERK3RayE8to_visit)
	add	a0, a0, tp, %tprel_add(_ZZNK3BVH9intersectERK3RayE8to_visit)
	addi	a0, a0, %tprel_lo(_ZZNK3BVH9intersectERK3RayE8to_visit)
	call	_ZNK13PriorityQueueIN3BVH10LinearNode16NodeIntersectionEE5emptyEv
.Ltmp345:
	j	.LBB52_36
.LBB52_36:                              # %invoke.cont48
                                        #   in Loop: Header=BB52_5 Depth=1
	andi	a0, a0, 1
	bnez	a0, .LBB52_39
	j	.LBB52_37
.LBB52_37:                              # %lor.lhs.false
                                        #   in Loop: Header=BB52_5 Depth=1
.Ltmp346:
	lui	a0, %tprel_hi(_ZZNK3BVH9intersectERK3RayE8to_visit)
	add	a0, a0, tp, %tprel_add(_ZZNK3BVH9intersectERK3RayE8to_visit)
	addi	a0, a0, %tprel_lo(_ZZNK3BVH9intersectERK3RayE8to_visit)
	call	_ZNK13PriorityQueueIN3BVH10LinearNode16NodeIntersectionEE3topEv
.Ltmp347:
	j	.LBB52_38
.LBB52_38:                              # %invoke.cont50
                                        #   in Loop: Header=BB52_5 Depth=1
	fld	ft0, 0(a0)
	fld	ft1, 16(s2)
	fle.d	a0, ft1, ft0
	xori	a0, a0, 1
	bnez	a0, .LBB52_40
	j	.LBB52_39
.LBB52_39:                              # %if.then55
	j	.LBB52_43
.LBB52_40:                              # %if.end56
                                        #   in Loop: Header=BB52_5 Depth=1
.Ltmp348:
	lui	a0, %tprel_hi(_ZZNK3BVH9intersectERK3RayE8to_visit)
	add	a0, a0, tp, %tprel_add(_ZZNK3BVH9intersectERK3RayE8to_visit)
	addi	a0, a0, %tprel_lo(_ZZNK3BVH9intersectERK3RayE8to_visit)
	call	_ZNK13PriorityQueueIN3BVH10LinearNode16NodeIntersectionEE3topEv
.Ltmp349:
	j	.LBB52_41
.LBB52_41:                              # %invoke.cont57
                                        #   in Loop: Header=BB52_5 Depth=1
	lw	a0, 8(a0)
	sw	a0, -96(s0)
.Ltmp350:
	lui	a0, %tprel_hi(_ZZNK3BVH9intersectERK3RayE8to_visit)
	add	a0, a0, tp, %tprel_add(_ZZNK3BVH9intersectERK3RayE8to_visit)
	addi	a0, a0, %tprel_lo(_ZZNK3BVH9intersectERK3RayE8to_visit)
	call	_ZN13PriorityQueueIN3BVH10LinearNode16NodeIntersectionEE3popEv
.Ltmp351:
	j	.LBB52_42
.LBB52_42:                              # %invoke.cont60
                                        #   in Loop: Header=BB52_5 Depth=1
	j	.LBB52_5
.LBB52_43:                              # %while.end61
	j	.LBB52_44
.LBB52_44:                              # %if.end62
	addi	a0, zero, 1
	sb	a0, -73(s0)
	lbu	a0, -73(s0)
	bnez	a0, .LBB52_46
	j	.LBB52_45
.LBB52_45:                              # %nrvo.unused
	mv	a0, s2
	call	_ZN12IntersectionD2Ev
	j	.LBB52_46
.LBB52_46:                              # %nrvo.skipdtor
	ld	s3, 152(sp)
	ld	s2, 160(sp)
	ld	s1, 168(sp)
	ld	s0, 176(sp)
	.cfi_def_cfa sp, 192
	ld	ra, 184(sp)
	.cfi_restore ra
	.cfi_restore s0
	.cfi_restore s1
	.cfi_restore s2
	.cfi_restore s3
	addi	sp, sp, 192
	.cfi_def_cfa_offset 0
	ret
.LBB52_47:                              # %ehcleanup
	mv	a0, s2
	call	_ZN12IntersectionD2Ev
	j	.LBB52_48
.LBB52_48:                              # %eh.resume
	ld	a0, -88(s0)
	call	_Unwind_Resume
.Lfunc_end52:
	.size	_ZNK3BVH9intersectERK3Ray, .Lfunc_end52-_ZNK3BVH9intersectERK3Ray
	.cfi_endproc
	.section	.gcc_except_table,"a",@progbits
	.p2align	2
GCC_except_table52:
.Lexception15:
	.byte	255                     # @LPStart Encoding = omit
	.byte	255                     # @TType Encoding = omit
	.byte	3                       # Call site Encoding = udata4
	.uleb128 .Lcst_end15-.Lcst_begin15
.Lcst_begin15:
	.word	.Lfunc_begin15-.Lfunc_begin15 # >> Call Site 1 <<
	.word	.Ltmp336-.Lfunc_begin15 #   Call between .Lfunc_begin15 and .Ltmp336
	.word	0                       #     has no landing pad
	.byte	0                       #   On action: cleanup
	.word	.Ltmp336-.Lfunc_begin15 # >> Call Site 2 <<
	.word	.Ltmp337-.Ltmp336       #   Call between .Ltmp336 and .Ltmp337
	.word	.Ltmp338-.Lfunc_begin15 #     jumps to .Ltmp338
	.byte	0                       #   On action: cleanup
	.word	.Ltmp353-.Lfunc_begin15 # >> Call Site 3 <<
	.word	.Ltmp354-.Ltmp353       #   Call between .Ltmp353 and .Ltmp354
	.word	.Ltmp355-.Lfunc_begin15 #     jumps to .Ltmp355
	.byte	0                       #   On action: cleanup
	.word	.Ltmp356-.Lfunc_begin15 # >> Call Site 4 <<
	.word	.Ltmp357-.Ltmp356       #   Call between .Ltmp356 and .Ltmp357
	.word	.Ltmp358-.Lfunc_begin15 #     jumps to .Ltmp358
	.byte	0                       #   On action: cleanup
	.word	.Ltmp339-.Lfunc_begin15 # >> Call Site 5 <<
	.word	.Ltmp342-.Ltmp339       #   Call between .Ltmp339 and .Ltmp342
	.word	.Ltmp343-.Lfunc_begin15 #     jumps to .Ltmp343
	.byte	0                       #   On action: cleanup
	.word	.Ltmp344-.Lfunc_begin15 # >> Call Site 6 <<
	.word	.Ltmp351-.Ltmp344       #   Call between .Ltmp344 and .Ltmp351
	.word	.Ltmp352-.Lfunc_begin15 #     jumps to .Ltmp352
	.byte	0                       #   On action: cleanup
	.word	.Ltmp351-.Lfunc_begin15 # >> Call Site 7 <<
	.word	.Lfunc_end52-.Ltmp351   #   Call between .Ltmp351 and .Lfunc_end52
	.word	0                       #     has no landing pad
	.byte	0                       #   On action: cleanup
.Lcst_end15:
	.p2align	2
                                        # -- End function
	.section	.text._ZN13PriorityQueueIN3BVH10LinearNode16NodeIntersectionEEC2Em,"axG",@progbits,_ZN13PriorityQueueIN3BVH10LinearNode16NodeIntersectionEEC2Em,comdat
	.weak	_ZN13PriorityQueueIN3BVH10LinearNode16NodeIntersectionEEC2Em # -- Begin function _ZN13PriorityQueueIN3BVH10LinearNode16NodeIntersectionEEC2Em
	.p2align	2
	.type	_ZN13PriorityQueueIN3BVH10LinearNode16NodeIntersectionEEC2Em,@function
_ZN13PriorityQueueIN3BVH10LinearNode16NodeIntersectionEEC2Em: # @_ZN13PriorityQueueIN3BVH10LinearNode16NodeIntersectionEEC2Em
.Lfunc_begin16:
	.cfi_startproc
	.cfi_personality 155, DW.ref.__gxx_personality_v0
	.cfi_lsda 27, .Lexception16
# %bb.0:                                # %entry
	addi	sp, sp, -64
	.cfi_def_cfa_offset 64
	sd	ra, 56(sp)
	sd	s0, 48(sp)
	sd	s1, 40(sp)
	.cfi_offset ra, -8
	.cfi_offset s0, -16
	.cfi_offset s1, -24
	addi	s0, sp, 64
	.cfi_def_cfa s0, 0
	sd	a0, -32(s0)
	sd	a1, -40(s0)
	ld	s1, -32(s0)
	mv	a0, s1
	call	_ZNSt6vectorIN3BVH10LinearNode16NodeIntersectionESaIS2_EEC2Ev
	ld	a1, -40(s0)
.Ltmp359:
	mv	a0, s1
	call	_ZNSt6vectorIN3BVH10LinearNode16NodeIntersectionESaIS2_EE7reserveEm
.Ltmp360:
	j	.LBB53_1
.LBB53_1:                               # %invoke.cont
	ld	s1, 40(sp)
	ld	s0, 48(sp)
	.cfi_def_cfa sp, 64
	ld	ra, 56(sp)
	.cfi_restore ra
	.cfi_restore s0
	.cfi_restore s1
	addi	sp, sp, 64
	.cfi_def_cfa_offset 0
	ret
.LBB53_2:                               # %lpad
.Ltmp361:
	sd	a0, -48(s0)
	sw	a1, -52(s0)
	mv	a0, s1
	call	_ZNSt6vectorIN3BVH10LinearNode16NodeIntersectionESaIS2_EED2Ev
	j	.LBB53_3
.LBB53_3:                               # %eh.resume
	ld	a0, -48(s0)
	call	_Unwind_Resume
.Lfunc_end53:
	.size	_ZN13PriorityQueueIN3BVH10LinearNode16NodeIntersectionEEC2Em, .Lfunc_end53-_ZN13PriorityQueueIN3BVH10LinearNode16NodeIntersectionEEC2Em
	.cfi_endproc
	.section	.gcc_except_table,"a",@progbits
	.p2align	2
GCC_except_table53:
.Lexception16:
	.byte	255                     # @LPStart Encoding = omit
	.byte	255                     # @TType Encoding = omit
	.byte	3                       # Call site Encoding = udata4
	.uleb128 .Lcst_end16-.Lcst_begin16
.Lcst_begin16:
	.word	.Ltmp359-.Lfunc_begin16 # >> Call Site 1 <<
	.word	.Ltmp360-.Ltmp359       #   Call between .Ltmp359 and .Ltmp360
	.word	.Ltmp361-.Lfunc_begin16 #     jumps to .Ltmp361
	.byte	0                       #   On action: cleanup
	.word	.Ltmp360-.Lfunc_begin16 # >> Call Site 2 <<
	.word	.Lfunc_end53-.Ltmp360   #   Call between .Ltmp360 and .Lfunc_end53
	.word	0                       #     has no landing pad
	.byte	0                       #   On action: cleanup
.Lcst_end16:
	.p2align	2
                                        # -- End function
	.section	.text._ZN13PriorityQueueIN3BVH10LinearNode16NodeIntersectionEED2Ev,"axG",@progbits,_ZN13PriorityQueueIN3BVH10LinearNode16NodeIntersectionEED2Ev,comdat
	.weak	_ZN13PriorityQueueIN3BVH10LinearNode16NodeIntersectionEED2Ev # -- Begin function _ZN13PriorityQueueIN3BVH10LinearNode16NodeIntersectionEED2Ev
	.p2align	2
	.type	_ZN13PriorityQueueIN3BVH10LinearNode16NodeIntersectionEED2Ev,@function
_ZN13PriorityQueueIN3BVH10LinearNode16NodeIntersectionEED2Ev: # @_ZN13PriorityQueueIN3BVH10LinearNode16NodeIntersectionEED2Ev
# %bb.0:                                # %entry
	addi	sp, sp, -32
	sd	ra, 24(sp)
	sd	s0, 16(sp)
	addi	s0, sp, 32
	sd	a0, -24(s0)
	ld	a0, -24(s0)
	call	_ZNSt6vectorIN3BVH10LinearNode16NodeIntersectionESaIS2_EED2Ev
	ld	s0, 16(sp)
	ld	ra, 24(sp)
	addi	sp, sp, 32
	ret
.Lfunc_end54:
	.size	_ZN13PriorityQueueIN3BVH10LinearNode16NodeIntersectionEED2Ev, .Lfunc_end54-_ZN13PriorityQueueIN3BVH10LinearNode16NodeIntersectionEED2Ev
                                        # -- End function
	.section	.text._ZN13PriorityQueueIN3BVH10LinearNode16NodeIntersectionEE5clearEv,"axG",@progbits,_ZN13PriorityQueueIN3BVH10LinearNode16NodeIntersectionEE5clearEv,comdat
	.weak	_ZN13PriorityQueueIN3BVH10LinearNode16NodeIntersectionEE5clearEv # -- Begin function _ZN13PriorityQueueIN3BVH10LinearNode16NodeIntersectionEE5clearEv
	.p2align	2
	.type	_ZN13PriorityQueueIN3BVH10LinearNode16NodeIntersectionEE5clearEv,@function
_ZN13PriorityQueueIN3BVH10LinearNode16NodeIntersectionEE5clearEv: # @_ZN13PriorityQueueIN3BVH10LinearNode16NodeIntersectionEE5clearEv
# %bb.0:                                # %entry
	addi	sp, sp, -32
	sd	ra, 24(sp)
	sd	s0, 16(sp)
	addi	s0, sp, 32
	sd	a0, -24(s0)
	ld	a0, -24(s0)
	call	_ZNSt6vectorIN3BVH10LinearNode16NodeIntersectionESaIS2_EE5clearEv
	ld	s0, 16(sp)
	ld	ra, 24(sp)
	addi	sp, sp, 32
	ret
.Lfunc_end55:
	.size	_ZN13PriorityQueueIN3BVH10LinearNode16NodeIntersectionEE5clearEv, .Lfunc_end55-_ZN13PriorityQueueIN3BVH10LinearNode16NodeIntersectionEE5clearEv
                                        # -- End function
	.section	.text._ZN12IntersectionC2Ev,"axG",@progbits,_ZN12IntersectionC2Ev,comdat
	.weak	_ZN12IntersectionC2Ev   # -- Begin function _ZN12IntersectionC2Ev
	.p2align	2
	.type	_ZN12IntersectionC2Ev,@function
_ZN12IntersectionC2Ev:                  # @_ZN12IntersectionC2Ev
# %bb.0:                                # %entry
	addi	sp, sp, -32
	sd	ra, 24(sp)
	sd	s0, 16(sp)
	sd	s1, 8(sp)
	addi	s0, sp, 32
	sd	a0, -32(s0)
	ld	s1, -32(s0)
	mv	a0, s1
	call	_ZNSt10shared_ptrIN7Surface4BaseEEC2Ev
	call	_ZNSt14numeric_limitsIdE3maxEv
	sd	a0, 16(s1)
	sb	zero, 40(s1)
	ld	s1, 8(sp)
	ld	s0, 16(sp)
	ld	ra, 24(sp)
	addi	sp, sp, 32
	ret
.Lfunc_end56:
	.size	_ZN12IntersectionC2Ev, .Lfunc_end56-_ZN12IntersectionC2Ev
                                        # -- End function
	.section	.text._ZNKSt6vectorIN3BVH10LinearNodeESaIS1_EEixEm,"axG",@progbits,_ZNKSt6vectorIN3BVH10LinearNodeESaIS1_EEixEm,comdat
	.weak	_ZNKSt6vectorIN3BVH10LinearNodeESaIS1_EEixEm # -- Begin function _ZNKSt6vectorIN3BVH10LinearNodeESaIS1_EEixEm
	.p2align	2
	.type	_ZNKSt6vectorIN3BVH10LinearNodeESaIS1_EEixEm,@function
_ZNKSt6vectorIN3BVH10LinearNodeESaIS1_EEixEm: # @_ZNKSt6vectorIN3BVH10LinearNodeESaIS1_EEixEm
# %bb.0:                                # %entry
	addi	sp, sp, -32
	sd	ra, 24(sp)
	sd	s0, 16(sp)
	addi	s0, sp, 32
	sd	a0, -24(s0)
	sd	a1, -32(s0)
	ld	a0, -24(s0)
	ld	a0, 0(a0)
	ld	a1, -32(s0)
	slli	a1, a1, 6
	add	a0, a0, a1
	ld	s0, 16(sp)
	ld	ra, 24(sp)
	addi	sp, sp, 32
	ret
.Lfunc_end57:
	.size	_ZNKSt6vectorIN3BVH10LinearNodeESaIS1_EEixEm, .Lfunc_end57-_ZNKSt6vectorIN3BVH10LinearNodeESaIS1_EEixEm
                                        # -- End function
	.section	.text._ZNKSt6vectorISt10shared_ptrIN7Surface4BaseEESaIS3_EEixEm,"axG",@progbits,_ZNKSt6vectorISt10shared_ptrIN7Surface4BaseEESaIS3_EEixEm,comdat
	.weak	_ZNKSt6vectorISt10shared_ptrIN7Surface4BaseEESaIS3_EEixEm # -- Begin function _ZNKSt6vectorISt10shared_ptrIN7Surface4BaseEESaIS3_EEixEm
	.p2align	2
	.type	_ZNKSt6vectorISt10shared_ptrIN7Surface4BaseEESaIS3_EEixEm,@function
_ZNKSt6vectorISt10shared_ptrIN7Surface4BaseEESaIS3_EEixEm: # @_ZNKSt6vectorISt10shared_ptrIN7Surface4BaseEESaIS3_EEixEm
# %bb.0:                                # %entry
	addi	sp, sp, -32
	sd	ra, 24(sp)
	sd	s0, 16(sp)
	addi	s0, sp, 32
	sd	a0, -24(s0)
	sd	a1, -32(s0)
	ld	a0, -24(s0)
	ld	a0, 0(a0)
	ld	a1, -32(s0)
	slli	a1, a1, 4
	add	a0, a0, a1
	ld	s0, 16(sp)
	ld	ra, 24(sp)
	addi	sp, sp, 32
	ret
.Lfunc_end58:
	.size	_ZNKSt6vectorISt10shared_ptrIN7Surface4BaseEESaIS3_EEixEm, .Lfunc_end58-_ZNKSt6vectorISt10shared_ptrIN7Surface4BaseEESaIS3_EEixEm
                                        # -- End function
	.section	.text._ZNKSt19__shared_ptr_accessIN7Surface4BaseELN9__gnu_cxx12_Lock_policyE0ELb0ELb0EEptEv,"axG",@progbits,_ZNKSt19__shared_ptr_accessIN7Surface4BaseELN9__gnu_cxx12_Lock_policyE0ELb0ELb0EEptEv,comdat
	.weak	_ZNKSt19__shared_ptr_accessIN7Surface4BaseELN9__gnu_cxx12_Lock_policyE0ELb0ELb0EEptEv # -- Begin function _ZNKSt19__shared_ptr_accessIN7Surface4BaseELN9__gnu_cxx12_Lock_policyE0ELb0ELb0EEptEv
	.p2align	2
	.type	_ZNKSt19__shared_ptr_accessIN7Surface4BaseELN9__gnu_cxx12_Lock_policyE0ELb0ELb0EEptEv,@function
_ZNKSt19__shared_ptr_accessIN7Surface4BaseELN9__gnu_cxx12_Lock_policyE0ELb0ELb0EEptEv: # @_ZNKSt19__shared_ptr_accessIN7Surface4BaseELN9__gnu_cxx12_Lock_policyE0ELb0ELb0EEptEv
# %bb.0:                                # %entry
	addi	sp, sp, -32
	sd	ra, 24(sp)
	sd	s0, 16(sp)
	addi	s0, sp, 32
	sd	a0, -24(s0)
	ld	a0, -24(s0)
	call	_ZNKSt19__shared_ptr_accessIN7Surface4BaseELN9__gnu_cxx12_Lock_policyE0ELb0ELb0EE6_M_getEv
	ld	s0, 16(sp)
	ld	ra, 24(sp)
	addi	sp, sp, 32
	ret
.Lfunc_end59:
	.size	_ZNKSt19__shared_ptr_accessIN7Surface4BaseELN9__gnu_cxx12_Lock_policyE0ELb0ELb0EEptEv, .Lfunc_end59-_ZNKSt19__shared_ptr_accessIN7Surface4BaseELN9__gnu_cxx12_Lock_policyE0ELb0ELb0EEptEv
                                        # -- End function
	.section	.text._ZN12IntersectionaSERKS_,"axG",@progbits,_ZN12IntersectionaSERKS_,comdat
	.weak	_ZN12IntersectionaSERKS_ # -- Begin function _ZN12IntersectionaSERKS_
	.p2align	2
	.type	_ZN12IntersectionaSERKS_,@function
_ZN12IntersectionaSERKS_:               # @_ZN12IntersectionaSERKS_
# %bb.0:                                # %entry
	addi	sp, sp, -48
	sd	ra, 40(sp)
	sd	s0, 32(sp)
	sd	s1, 24(sp)
	addi	s0, sp, 48
	sd	a0, -32(s0)
	sd	a1, -40(s0)
	ld	s1, -32(s0)
	ld	a1, -40(s0)
	mv	a0, s1
	call	_ZNSt10shared_ptrIN7Surface4BaseEEaSERKS2_
	ld	a0, -40(s0)
	lb	a1, 40(a0)
	sb	a1, 40(s1)
	ld	a1, 32(a0)
	sd	a1, 32(s1)
	ld	a1, 24(a0)
	sd	a1, 24(s1)
	ld	a0, 16(a0)
	sd	a0, 16(s1)
	mv	a0, s1
	ld	s1, 24(sp)
	ld	s0, 32(sp)
	ld	ra, 40(sp)
	addi	sp, sp, 48
	ret
.Lfunc_end60:
	.size	_ZN12IntersectionaSERKS_, .Lfunc_end60-_ZN12IntersectionaSERKS_
                                        # -- End function
	.section	.text._ZNSt10shared_ptrIN7Surface4BaseEEaSERKS2_,"axG",@progbits,_ZNSt10shared_ptrIN7Surface4BaseEEaSERKS2_,comdat
	.weak	_ZNSt10shared_ptrIN7Surface4BaseEEaSERKS2_ # -- Begin function _ZNSt10shared_ptrIN7Surface4BaseEEaSERKS2_
	.p2align	2
	.type	_ZNSt10shared_ptrIN7Surface4BaseEEaSERKS2_,@function
_ZNSt10shared_ptrIN7Surface4BaseEEaSERKS2_: # @_ZNSt10shared_ptrIN7Surface4BaseEEaSERKS2_
# %bb.0:                                # %entry
	addi	sp, sp, -48
	sd	ra, 40(sp)
	sd	s0, 32(sp)
	sd	s1, 24(sp)
	addi	s0, sp, 48
	sd	a0, -32(s0)
	sd	a1, -40(s0)
	ld	s1, -32(s0)
	ld	a1, -40(s0)
	mv	a0, s1
	call	_ZNSt12__shared_ptrIN7Surface4BaseELN9__gnu_cxx12_Lock_policyE0EEaSERKS4_
	mv	a0, s1
	ld	s1, 24(sp)
	ld	s0, 32(sp)
	ld	ra, 40(sp)
	addi	sp, sp, 48
	ret
.Lfunc_end61:
	.size	_ZNSt10shared_ptrIN7Surface4BaseEEaSERKS2_, .Lfunc_end61-_ZNSt10shared_ptrIN7Surface4BaseEEaSERKS2_
                                        # -- End function
	.section	.text._ZN12IntersectionD2Ev,"axG",@progbits,_ZN12IntersectionD2Ev,comdat
	.weak	_ZN12IntersectionD2Ev   # -- Begin function _ZN12IntersectionD2Ev
	.p2align	2
	.type	_ZN12IntersectionD2Ev,@function
_ZN12IntersectionD2Ev:                  # @_ZN12IntersectionD2Ev
# %bb.0:                                # %entry
	addi	sp, sp, -32
	sd	ra, 24(sp)
	sd	s0, 16(sp)
	addi	s0, sp, 32
	sd	a0, -24(s0)
	ld	a0, -24(s0)
	call	_ZNSt10shared_ptrIN7Surface4BaseEED2Ev
	ld	s0, 16(sp)
	ld	ra, 24(sp)
	addi	sp, sp, 32
	ret
.Lfunc_end62:
	.size	_ZN12IntersectionD2Ev, .Lfunc_end62-_ZN12IntersectionD2Ev
                                        # -- End function
	.section	.text._ZN13PriorityQueueIN3BVH10LinearNode16NodeIntersectionEE4pushERKS2_,"axG",@progbits,_ZN13PriorityQueueIN3BVH10LinearNode16NodeIntersectionEE4pushERKS2_,comdat
	.weak	_ZN13PriorityQueueIN3BVH10LinearNode16NodeIntersectionEE4pushERKS2_ # -- Begin function _ZN13PriorityQueueIN3BVH10LinearNode16NodeIntersectionEE4pushERKS2_
	.p2align	2
	.type	_ZN13PriorityQueueIN3BVH10LinearNode16NodeIntersectionEE4pushERKS2_,@function
_ZN13PriorityQueueIN3BVH10LinearNode16NodeIntersectionEE4pushERKS2_: # @_ZN13PriorityQueueIN3BVH10LinearNode16NodeIntersectionEE4pushERKS2_
	.cfi_startproc
# %bb.0:                                # %entry
	addi	sp, sp, -80
	.cfi_def_cfa_offset 80
	sd	ra, 72(sp)
	sd	s0, 64(sp)
	sd	s1, 56(sp)
	sd	s2, 48(sp)
	sd	s3, 40(sp)
	.cfi_offset ra, -8
	.cfi_offset s0, -16
	.cfi_offset s1, -24
	.cfi_offset s2, -32
	.cfi_offset s3, -40
	addi	s0, sp, 80
	.cfi_def_cfa s0, 0
	sd	a0, -48(s0)
	sd	a1, -56(s0)
	ld	s3, -48(s0)
	ld	a1, -56(s0)
	mv	a0, s3
	call	_ZNSt6vectorIN3BVH10LinearNode16NodeIntersectionESaIS2_EE9push_backERKS2_
	mv	a0, s3
	call	_ZNKSt6vectorIN3BVH10LinearNode16NodeIntersectionESaIS2_EE4sizeEv
	addi	a0, a0, -1
	sd	a0, -64(s0)
	j	.LBB63_1
.LBB63_1:                               # %while.cond
                                        # =>This Inner Loop Header: Depth=1
	ld	a0, -64(s0)
	beqz	a0, .LBB63_5
	j	.LBB63_2
.LBB63_2:                               # %while.body
                                        #   in Loop: Header=BB63_1 Depth=1
	ld	a1, -64(s0)
	mv	a0, s3
	call	_ZNK13PriorityQueueIN3BVH10LinearNode16NodeIntersectionEE11parentIndexEm
	sd	a0, -72(s0)
	ld	a1, -72(s0)
	mv	a0, s3
	call	_ZNSt6vectorIN3BVH10LinearNode16NodeIntersectionESaIS2_EEixEm
	ld	a1, -56(s0)
	call	_ZNK3BVH10LinearNode16NodeIntersectionltERKS1_
	bnez	a0, .LBB63_4
	j	.LBB63_3
.LBB63_3:                               # %if.then
	j	.LBB63_6
.LBB63_4:                               # %if.end
                                        #   in Loop: Header=BB63_1 Depth=1
	ld	a1, -72(s0)
	mv	a0, s3
	call	_ZNSt6vectorIN3BVH10LinearNode16NodeIntersectionESaIS2_EEixEm
	mv	s2, a0
	ld	a1, -64(s0)
	mv	a0, s3
	call	_ZNSt6vectorIN3BVH10LinearNode16NodeIntersectionESaIS2_EEixEm
	ld	a1, 8(s2)
	sd	a1, 8(a0)
	ld	a1, 0(s2)
	sd	a1, 0(a0)
	ld	a0, -72(s0)
	sd	a0, -64(s0)
	j	.LBB63_1
.LBB63_5:                               # %while.end.loopexit
	j	.LBB63_6
.LBB63_6:                               # %while.end
	ld	s1, -56(s0)
	ld	a1, -64(s0)
	mv	a0, s3
	call	_ZNSt6vectorIN3BVH10LinearNode16NodeIntersectionESaIS2_EEixEm
	ld	a1, 8(s1)
	sd	a1, 8(a0)
	ld	a1, 0(s1)
	sd	a1, 0(a0)
	ld	s3, 40(sp)
	ld	s2, 48(sp)
	ld	s1, 56(sp)
	ld	s0, 64(sp)
	.cfi_def_cfa sp, 80
	ld	ra, 72(sp)
	.cfi_restore ra
	.cfi_restore s0
	.cfi_restore s1
	.cfi_restore s2
	.cfi_restore s3
	addi	sp, sp, 80
	.cfi_def_cfa_offset 0
	ret
.Lfunc_end63:
	.size	_ZN13PriorityQueueIN3BVH10LinearNode16NodeIntersectionEE4pushERKS2_, .Lfunc_end63-_ZN13PriorityQueueIN3BVH10LinearNode16NodeIntersectionEE4pushERKS2_
	.cfi_endproc
                                        # -- End function
	.section	.text._ZNK13PriorityQueueIN3BVH10LinearNode16NodeIntersectionEE5emptyEv,"axG",@progbits,_ZNK13PriorityQueueIN3BVH10LinearNode16NodeIntersectionEE5emptyEv,comdat
	.weak	_ZNK13PriorityQueueIN3BVH10LinearNode16NodeIntersectionEE5emptyEv # -- Begin function _ZNK13PriorityQueueIN3BVH10LinearNode16NodeIntersectionEE5emptyEv
	.p2align	2
	.type	_ZNK13PriorityQueueIN3BVH10LinearNode16NodeIntersectionEE5emptyEv,@function
_ZNK13PriorityQueueIN3BVH10LinearNode16NodeIntersectionEE5emptyEv: # @_ZNK13PriorityQueueIN3BVH10LinearNode16NodeIntersectionEE5emptyEv
# %bb.0:                                # %entry
	addi	sp, sp, -32
	sd	ra, 24(sp)
	sd	s0, 16(sp)
	addi	s0, sp, 32
	sd	a0, -24(s0)
	ld	a0, -24(s0)
	call	_ZNKSt6vectorIN3BVH10LinearNode16NodeIntersectionESaIS2_EE5emptyEv
	ld	s0, 16(sp)
	ld	ra, 24(sp)
	addi	sp, sp, 32
	ret
.Lfunc_end64:
	.size	_ZNK13PriorityQueueIN3BVH10LinearNode16NodeIntersectionEE5emptyEv, .Lfunc_end64-_ZNK13PriorityQueueIN3BVH10LinearNode16NodeIntersectionEE5emptyEv
                                        # -- End function
	.section	.text._ZNK13PriorityQueueIN3BVH10LinearNode16NodeIntersectionEE3topEv,"axG",@progbits,_ZNK13PriorityQueueIN3BVH10LinearNode16NodeIntersectionEE3topEv,comdat
	.weak	_ZNK13PriorityQueueIN3BVH10LinearNode16NodeIntersectionEE3topEv # -- Begin function _ZNK13PriorityQueueIN3BVH10LinearNode16NodeIntersectionEE3topEv
	.p2align	2
	.type	_ZNK13PriorityQueueIN3BVH10LinearNode16NodeIntersectionEE3topEv,@function
_ZNK13PriorityQueueIN3BVH10LinearNode16NodeIntersectionEE3topEv: # @_ZNK13PriorityQueueIN3BVH10LinearNode16NodeIntersectionEE3topEv
# %bb.0:                                # %entry
	addi	sp, sp, -32
	sd	ra, 24(sp)
	sd	s0, 16(sp)
	addi	s0, sp, 32
	sd	a0, -24(s0)
	ld	a0, -24(s0)
	call	_ZNKSt6vectorIN3BVH10LinearNode16NodeIntersectionESaIS2_EE5frontEv
	ld	s0, 16(sp)
	ld	ra, 24(sp)
	addi	sp, sp, 32
	ret
.Lfunc_end65:
	.size	_ZNK13PriorityQueueIN3BVH10LinearNode16NodeIntersectionEE3topEv, .Lfunc_end65-_ZNK13PriorityQueueIN3BVH10LinearNode16NodeIntersectionEE3topEv
                                        # -- End function
	.section	.text._ZN13PriorityQueueIN3BVH10LinearNode16NodeIntersectionEE3popEv,"axG",@progbits,_ZN13PriorityQueueIN3BVH10LinearNode16NodeIntersectionEE3popEv,comdat
	.weak	_ZN13PriorityQueueIN3BVH10LinearNode16NodeIntersectionEE3popEv # -- Begin function _ZN13PriorityQueueIN3BVH10LinearNode16NodeIntersectionEE3popEv
	.p2align	2
	.type	_ZN13PriorityQueueIN3BVH10LinearNode16NodeIntersectionEE3popEv,@function
_ZN13PriorityQueueIN3BVH10LinearNode16NodeIntersectionEE3popEv: # @_ZN13PriorityQueueIN3BVH10LinearNode16NodeIntersectionEE3popEv
	.cfi_startproc
# %bb.0:                                # %entry
	addi	sp, sp, -48
	.cfi_def_cfa_offset 48
	sd	ra, 40(sp)
	sd	s0, 32(sp)
	sd	s1, 24(sp)
	.cfi_offset ra, -8
	.cfi_offset s0, -16
	.cfi_offset s1, -24
	addi	s0, sp, 48
	.cfi_def_cfa s0, 0
	sd	a0, -32(s0)
	ld	s1, -32(s0)
	mv	a0, s1
	call	_ZNKSt6vectorIN3BVH10LinearNode16NodeIntersectionESaIS2_EE4sizeEv
	addi	a1, zero, 2
	bltu	a0, a1, .LBB66_2
	j	.LBB66_1
.LBB66_1:                               # %if.then
	mv	a0, s1
	call	_ZNSt6vectorIN3BVH10LinearNode16NodeIntersectionESaIS2_EE4backEv
	ld	a1, 8(a0)
	sd	a1, -40(s0)
	ld	a0, 0(a0)
	sd	a0, -48(s0)
	mv	a0, s1
	call	_ZNSt6vectorIN3BVH10LinearNode16NodeIntersectionESaIS2_EE8pop_backEv
	addi	a1, s0, -48
	mv	a0, s1
	mv	a2, zero
	call	_ZN13PriorityQueueIN3BVH10LinearNode16NodeIntersectionEE9shiftDownERKS2_m
	j	.LBB66_3
.LBB66_2:                               # %if.else
	mv	a0, s1
	call	_ZNSt6vectorIN3BVH10LinearNode16NodeIntersectionESaIS2_EE8pop_backEv
	j	.LBB66_3
.LBB66_3:                               # %if.end
	ld	s1, 24(sp)
	ld	s0, 32(sp)
	.cfi_def_cfa sp, 48
	ld	ra, 40(sp)
	.cfi_restore ra
	.cfi_restore s0
	.cfi_restore s1
	addi	sp, sp, 48
	.cfi_def_cfa_offset 0
	ret
.Lfunc_end66:
	.size	_ZN13PriorityQueueIN3BVH10LinearNode16NodeIntersectionEE3popEv, .Lfunc_end66-_ZN13PriorityQueueIN3BVH10LinearNode16NodeIntersectionEE3popEv
	.cfi_endproc
                                        # -- End function
	.section	.text._ZN11BoundingBoxC2Ev,"axG",@progbits,_ZN11BoundingBoxC2Ev,comdat
	.weak	_ZN11BoundingBoxC2Ev    # -- Begin function _ZN11BoundingBoxC2Ev
	.p2align	2
	.type	_ZN11BoundingBoxC2Ev,@function
_ZN11BoundingBoxC2Ev:                   # @_ZN11BoundingBoxC2Ev
	.cfi_startproc
# %bb.0:                                # %entry
	addi	sp, sp, -32
	.cfi_def_cfa_offset 32
	sd	ra, 24(sp)
	sd	s0, 16(sp)
	sd	s1, 8(sp)
	.cfi_offset ra, -8
	.cfi_offset s0, -16
	.cfi_offset s1, -24
	addi	s0, sp, 32
	.cfi_def_cfa s0, 0
	sd	a0, -32(s0)
	ld	s1, -32(s0)
	call	_ZNSt14numeric_limitsIdE3maxEv
	mv	a1, a0
	mv	a0, s1
	call	_ZN3glm3vecILi3EdLNS_9qualifierE0EEC2Ed
	addi	s1, s1, 24
	call	_ZNSt14numeric_limitsIdE6lowestEv
	mv	a1, a0
	mv	a0, s1
	call	_ZN3glm3vecILi3EdLNS_9qualifierE0EEC2Ed
	ld	s1, 8(sp)
	ld	s0, 16(sp)
	.cfi_def_cfa sp, 32
	ld	ra, 24(sp)
	.cfi_restore ra
	.cfi_restore s0
	.cfi_restore s1
	addi	sp, sp, 32
	.cfi_def_cfa_offset 0
	ret
.Lfunc_end67:
	.size	_ZN11BoundingBoxC2Ev, .Lfunc_end67-_ZN11BoundingBoxC2Ev
	.cfi_endproc
                                        # -- End function
	.section	.text._ZNK6OctreeIN3BVH15SurfaceCentroidEE4leafEv,"axG",@progbits,_ZNK6OctreeIN3BVH15SurfaceCentroidEE4leafEv,comdat
	.weak	_ZNK6OctreeIN3BVH15SurfaceCentroidEE4leafEv # -- Begin function _ZNK6OctreeIN3BVH15SurfaceCentroidEE4leafEv
	.p2align	2
	.type	_ZNK6OctreeIN3BVH15SurfaceCentroidEE4leafEv,@function
_ZNK6OctreeIN3BVH15SurfaceCentroidEE4leafEv: # @_ZNK6OctreeIN3BVH15SurfaceCentroidEE4leafEv
# %bb.0:                                # %entry
	addi	sp, sp, -32
	sd	ra, 24(sp)
	sd	s0, 16(sp)
	addi	s0, sp, 32
	sd	a0, -24(s0)
	ld	a0, -24(s0)
	addi	a0, a0, 72
	call	_ZNKSt6vectorISt10unique_ptrI6OctreeIN3BVH15SurfaceCentroidEESt14default_deleteIS4_EESaIS7_EE5emptyEv
	ld	s0, 16(sp)
	ld	ra, 24(sp)
	addi	sp, sp, 32
	ret
.Lfunc_end68:
	.size	_ZNK6OctreeIN3BVH15SurfaceCentroidEE4leafEv, .Lfunc_end68-_ZNK6OctreeIN3BVH15SurfaceCentroidEE4leafEv
                                        # -- End function
	.section	.text._ZNSt6vectorISt10shared_ptrIN7Surface4BaseEESaIS3_EE6resizeEm,"axG",@progbits,_ZNSt6vectorISt10shared_ptrIN7Surface4BaseEESaIS3_EE6resizeEm,comdat
	.weak	_ZNSt6vectorISt10shared_ptrIN7Surface4BaseEESaIS3_EE6resizeEm # -- Begin function _ZNSt6vectorISt10shared_ptrIN7Surface4BaseEESaIS3_EE6resizeEm
	.p2align	2
	.type	_ZNSt6vectorISt10shared_ptrIN7Surface4BaseEESaIS3_EE6resizeEm,@function
_ZNSt6vectorISt10shared_ptrIN7Surface4BaseEESaIS3_EE6resizeEm: # @_ZNSt6vectorISt10shared_ptrIN7Surface4BaseEESaIS3_EE6resizeEm
	.cfi_startproc
# %bb.0:                                # %entry
	addi	sp, sp, -48
	.cfi_def_cfa_offset 48
	sd	ra, 40(sp)
	sd	s0, 32(sp)
	sd	s1, 24(sp)
	sd	s2, 16(sp)
	.cfi_offset ra, -8
	.cfi_offset s0, -16
	.cfi_offset s1, -24
	.cfi_offset s2, -32
	addi	s0, sp, 48
	.cfi_def_cfa s0, 0
	sd	a0, -40(s0)
	sd	a1, -48(s0)
	ld	s1, -40(s0)
	ld	s2, -48(s0)
	mv	a0, s1
	call	_ZNKSt6vectorISt10shared_ptrIN7Surface4BaseEESaIS3_EE4sizeEv
	bgeu	a0, s2, .LBB69_2
	j	.LBB69_1
.LBB69_1:                               # %if.then
	ld	s2, -48(s0)
	mv	a0, s1
